
GamePong.elf:     file format elf32-littlearm

Sections:
Idx Name          Size      VMA       LMA       File off  Algn
  0 .isr_vector   000002ac  24000000  24000000  00010000  2**0
                  CONTENTS, ALLOC, LOAD, READONLY, DATA
  1 ._itcram      00000000  00000100  00000100  000300b0  2**0
                  CONTENTS
  2 ._itcram_hot  00000000  00000100  00000100  000300b0  2**0
                  CONTENTS
  3 ._ram_uc      0004b000  240002b0  240002b0  000102ac  2**4
                  ALLOC
  4 ._ram_exec    00000000  24050000  24050000  000300b0  2**0
                  CONTENTS
  5 ._extflash    00000000  90000000  90000000  000300b0  2**0
                  CONTENTS
  6 ._configflash 00000000  900ff000  900ff000  000300b0  2**0
                  CONTENTS
  7 ._ram         00000000  24050000  24050000  000300b0  2**0
                  CONTENTS
  8 ._ahbram      00005fa0  30000000  30000000  00040000  2**4
                  ALLOC
  9 .text         0000a3a0  24050000  24050000  00020000  2**4
                  CONTENTS, ALLOC, LOAD, READONLY, CODE
 10 .rodata       00001888  2405a3a0  2405a3a0  0002a3a0  2**2
                  CONTENTS, ALLOC, LOAD, READONLY, DATA
 11 .init_array   00000004  2405bc28  2405bc28  0002bc28  2**2
                  CONTENTS, ALLOC, LOAD, DATA
 12 .fini_array   00000004  2405bc2c  2405bc2c  0002bc2c  2**2
                  CONTENTS, ALLOC, LOAD, DATA
 13 .data         000000b0  20000000  2405bc30  00030000  2**2
                  CONTENTS, ALLOC, LOAD, DATA
 14 ._flash_end   00000000  2405bc30  2405bc30  000300b0  2**0
                  CONTENTS
 15 .bss          000006bc  200000b0  200000b0  000100b0  2**2
                  ALLOC
 16 ._persistent  00000004  2000076c  2000076c  000100b0  2**0
                  ALLOC
 17 ._user_heap   00008000  20000770  20000770  000100b0  2**0
                  ALLOC
 18 ._user_stack  00017890  20008770  20008770  000100b0  2**0
                  ALLOC
 19 .ARM.attributes 0000002e  00000000  00000000  000300b0  2**0
                  CONTENTS, READONLY
 20 .comment      00000043  00000000  00000000  000300de  2**0
                  CONTENTS, READONLY
 21 .debug_frame  00000c20  00000000  00000000  00030124  2**2
                  CONTENTS, READONLY, DEBUGGING, OCTETS

Disassembly of section .text:

24050000 <__do_global_dtors_aux>:
24050000:	b510      	push	{r4, lr}
24050002:	4c05      	ldr	r4, [pc, #20]	; (24050018 <__do_global_dtors_aux+0x18>)
24050004:	7823      	ldrb	r3, [r4, #0]
24050006:	b933      	cbnz	r3, 24050016 <__do_global_dtors_aux+0x16>
24050008:	4b04      	ldr	r3, [pc, #16]	; (2405001c <__do_global_dtors_aux+0x1c>)
2405000a:	b113      	cbz	r3, 24050012 <__do_global_dtors_aux+0x12>
2405000c:	4804      	ldr	r0, [pc, #16]	; (24050020 <__do_global_dtors_aux+0x20>)
2405000e:	f3af 8000 	nop.w
24050012:	2301      	movs	r3, #1
24050014:	7023      	strb	r3, [r4, #0]
24050016:	bd10      	pop	{r4, pc}
24050018:	200000b0 	.word	0x200000b0
2405001c:	00000000 	.word	0x00000000
24050020:	2405a388 	.word	0x2405a388

24050024 <frame_dummy>:
24050024:	b508      	push	{r3, lr}
24050026:	4b03      	ldr	r3, [pc, #12]	; (24050034 <frame_dummy+0x10>)
24050028:	b11b      	cbz	r3, 24050032 <frame_dummy+0xe>
2405002a:	4903      	ldr	r1, [pc, #12]	; (24050038 <frame_dummy+0x14>)
2405002c:	4803      	ldr	r0, [pc, #12]	; (2405003c <frame_dummy+0x18>)
2405002e:	f3af 8000 	nop.w
24050032:	bd08      	pop	{r3, pc}
24050034:	00000000 	.word	0x00000000
24050038:	200000b4 	.word	0x200000b4
2405003c:	2405a388 	.word	0x2405a388

24050040 <memchr>:
24050040:	f001 01ff 	and.w	r1, r1, #255	; 0xff
24050044:	2a10      	cmp	r2, #16
24050046:	db2b      	blt.n	240500a0 <memchr+0x60>
24050048:	f010 0f07 	tst.w	r0, #7
2405004c:	d008      	beq.n	24050060 <memchr+0x20>
2405004e:	f810 3b01 	ldrb.w	r3, [r0], #1
24050052:	3a01      	subs	r2, #1
24050054:	428b      	cmp	r3, r1
24050056:	d02d      	beq.n	240500b4 <memchr+0x74>
24050058:	f010 0f07 	tst.w	r0, #7
2405005c:	b342      	cbz	r2, 240500b0 <memchr+0x70>
2405005e:	d1f6      	bne.n	2405004e <memchr+0xe>
24050060:	b4f0      	push	{r4, r5, r6, r7}
24050062:	ea41 2101 	orr.w	r1, r1, r1, lsl #8
24050066:	ea41 4101 	orr.w	r1, r1, r1, lsl #16
2405006a:	f022 0407 	bic.w	r4, r2, #7
2405006e:	f07f 0700 	mvns.w	r7, #0
24050072:	2300      	movs	r3, #0
24050074:	e8f0 5602 	ldrd	r5, r6, [r0], #8
24050078:	3c08      	subs	r4, #8
2405007a:	ea85 0501 	eor.w	r5, r5, r1
2405007e:	ea86 0601 	eor.w	r6, r6, r1
24050082:	fa85 f547 	uadd8	r5, r5, r7
24050086:	faa3 f587 	sel	r5, r3, r7
2405008a:	fa86 f647 	uadd8	r6, r6, r7
2405008e:	faa5 f687 	sel	r6, r5, r7
24050092:	b98e      	cbnz	r6, 240500b8 <memchr+0x78>
24050094:	d1ee      	bne.n	24050074 <memchr+0x34>
24050096:	bcf0      	pop	{r4, r5, r6, r7}
24050098:	f001 01ff 	and.w	r1, r1, #255	; 0xff
2405009c:	f002 0207 	and.w	r2, r2, #7
240500a0:	b132      	cbz	r2, 240500b0 <memchr+0x70>
240500a2:	f810 3b01 	ldrb.w	r3, [r0], #1
240500a6:	3a01      	subs	r2, #1
240500a8:	ea83 0301 	eor.w	r3, r3, r1
240500ac:	b113      	cbz	r3, 240500b4 <memchr+0x74>
240500ae:	d1f8      	bne.n	240500a2 <memchr+0x62>
240500b0:	2000      	movs	r0, #0
240500b2:	4770      	bx	lr
240500b4:	3801      	subs	r0, #1
240500b6:	4770      	bx	lr
240500b8:	2d00      	cmp	r5, #0
240500ba:	bf06      	itte	eq
240500bc:	4635      	moveq	r5, r6
240500be:	3803      	subeq	r0, #3
240500c0:	3807      	subne	r0, #7
240500c2:	f015 0f01 	tst.w	r5, #1
240500c6:	d107      	bne.n	240500d8 <memchr+0x98>
240500c8:	3001      	adds	r0, #1
240500ca:	f415 7f80 	tst.w	r5, #256	; 0x100
240500ce:	bf02      	ittt	eq
240500d0:	3001      	addeq	r0, #1
240500d2:	f415 3fc0 	tsteq.w	r5, #98304	; 0x18000
240500d6:	3001      	addeq	r0, #1
240500d8:	bcf0      	pop	{r4, r5, r6, r7}
240500da:	3801      	subs	r0, #1
240500dc:	4770      	bx	lr
240500de:	bf00      	nop

240500e0 <gw_audio_init>:
240500e0:	e92d 41f0 	stmdb	sp!, {r4, r5, r6, r7, r8, lr}
240500e4:	4b36      	ldr	r3, [pc, #216]	; (240501c0 <gw_audio_init+0xe0>)
240500e6:	f44f 5596 	mov.w	r5, #4800	; 0x12c0
240500ea:	2428      	movs	r4, #40	; 0x28
240500ec:	4e35      	ldr	r6, [pc, #212]	; (240501c4 <gw_audio_init+0xe4>)
240500ee:	4618      	mov	r0, r3
240500f0:	462a      	mov	r2, r5
240500f2:	2100      	movs	r1, #0
240500f4:	f8df 80dc 	ldr.w	r8, [pc, #220]	; 240501d4 <gw_audio_init+0xf4>
240500f8:	f009 f9c4 	bl	24059484 <memset>
240500fc:	f44f 6216 	mov.w	r2, #2400	; 0x960
24050100:	4601      	mov	r1, r0
24050102:	4831      	ldr	r0, [pc, #196]	; (240501c8 <gw_audio_init+0xe8>)
24050104:	f008 f8ba 	bl	2405827c <HAL_SAI_Transmit_DMA>
24050108:	4622      	mov	r2, r4
2405010a:	2100      	movs	r1, #0
2405010c:	4630      	mov	r0, r6
2405010e:	f009 f9b9 	bl	24059484 <memset>
24050112:	4622      	mov	r2, r4
24050114:	2101      	movs	r1, #1
24050116:	f106 0050 	add.w	r0, r6, #80	; 0x50
2405011a:	f009 f9b3 	bl	24059484 <memset>
2405011e:	4622      	mov	r2, r4
24050120:	1930      	adds	r0, r6, r4
24050122:	2100      	movs	r1, #0
24050124:	f009 f9ae 	bl	24059484 <memset>
24050128:	4622      	mov	r2, r4
2405012a:	2100      	movs	r1, #0
2405012c:	4640      	mov	r0, r8
2405012e:	f009 f9a9 	bl	24059484 <memset>
24050132:	4f26      	ldr	r7, [pc, #152]	; (240501cc <gw_audio_init+0xec>)
24050134:	4622      	mov	r2, r4
24050136:	2101      	movs	r1, #1
24050138:	f108 0050 	add.w	r0, r8, #80	; 0x50
2405013c:	f009 f9a2 	bl	24059484 <memset>
24050140:	4622      	mov	r2, r4
24050142:	eb08 0004 	add.w	r0, r8, r4
24050146:	2100      	movs	r1, #0
24050148:	f009 f99c 	bl	24059484 <memset>
2405014c:	4622      	mov	r2, r4
2405014e:	2100      	movs	r1, #0
24050150:	4638      	mov	r0, r7
24050152:	f009 f997 	bl	24059484 <memset>
24050156:	4622      	mov	r2, r4
24050158:	2101      	movs	r1, #1
2405015a:	f107 0050 	add.w	r0, r7, #80	; 0x50
2405015e:	f009 f991 	bl	24059484 <memset>
24050162:	4622      	mov	r2, r4
24050164:	1938      	adds	r0, r7, r4
24050166:	4c1a      	ldr	r4, [pc, #104]	; (240501d0 <gw_audio_init+0xf0>)
24050168:	2100      	movs	r1, #0
2405016a:	f009 f98b 	bl	24059484 <memset>
2405016e:	2250      	movs	r2, #80	; 0x50
24050170:	2100      	movs	r1, #0
24050172:	4620      	mov	r0, r4
24050174:	f009 f986 	bl	24059484 <memset>
24050178:	f506 5380 	add.w	r3, r6, #4096	; 0x1000
2405017c:	2100      	movs	r1, #0
2405017e:	2201      	movs	r2, #1
24050180:	f106 0078 	add.w	r0, r6, #120	; 0x78
24050184:	f8c3 1338 	str.w	r1, [r3, #824]	; 0x338
24050188:	f504 5380 	add.w	r3, r4, #4096	; 0x1000
2405018c:	f8c3 2310 	str.w	r2, [r3, #784]	; 0x310
24050190:	462a      	mov	r2, r5
24050192:	f009 f977 	bl	24059484 <memset>
24050196:	462a      	mov	r2, r5
24050198:	2100      	movs	r1, #0
2405019a:	f108 0078 	add.w	r0, r8, #120	; 0x78
2405019e:	f009 f971 	bl	24059484 <memset>
240501a2:	462a      	mov	r2, r5
240501a4:	2100      	movs	r1, #0
240501a6:	f107 0078 	add.w	r0, r7, #120	; 0x78
240501aa:	f009 f96b 	bl	24059484 <memset>
240501ae:	462a      	mov	r2, r5
240501b0:	f104 0050 	add.w	r0, r4, #80	; 0x50
240501b4:	2100      	movs	r1, #0
240501b6:	e8bd 41f0 	ldmia.w	sp!, {r4, r5, r6, r7, r8, lr}
240501ba:	f009 b963 	b.w	24059484 <memset>
240501be:	bf00      	nop
240501c0:	30004ce0 	.word	0x30004ce0
240501c4:	300039a0 	.word	0x300039a0
240501c8:	200004a4 	.word	0x200004a4
240501cc:	30001320 	.word	0x30001320
240501d0:	30000000 	.word	0x30000000
240501d4:	30002660 	.word	0x30002660

240501d8 <play_generator>:
240501d8:	e92d 41f0 	stmdb	sp!, {r4, r5, r6, r7, r8, lr}
240501dc:	460c      	mov	r4, r1
240501de:	7801      	ldrb	r1, [r0, #0]
240501e0:	b949      	cbnz	r1, 240501f6 <play_generator+0x1e>
240501e2:	343c      	adds	r4, #60	; 0x3c
240501e4:	ea22 72e2 	bic.w	r2, r2, r2, asr #31
240501e8:	eb00 0044 	add.w	r0, r0, r4, lsl #1
240501ec:	0052      	lsls	r2, r2, #1
240501ee:	e8bd 41f0 	ldmia.w	sp!, {r4, r5, r6, r7, r8, lr}
240501f2:	f009 b947 	b.w	24059484 <memset>
240501f6:	f890 5050 	ldrb.w	r5, [r0, #80]	; 0x50
240501fa:	b28e      	uxth	r6, r1
240501fc:	004b      	lsls	r3, r1, #1
240501fe:	b12d      	cbz	r5, 2405020c <play_generator+0x34>
24050200:	2d02      	cmp	r5, #2
24050202:	d121      	bne.n	24050248 <play_generator+0x70>
24050204:	4433      	add	r3, r6
24050206:	46b4      	mov	ip, r6
24050208:	b29e      	uxth	r6, r3
2405020a:	e002      	b.n	24050212 <play_generator+0x3a>
2405020c:	4433      	add	r3, r6
2405020e:	fa1f fc83 	uxth.w	ip, r3
24050212:	f500 5780 	add.w	r7, r0, #4096	; 0x1000
24050216:	f890 e028 	ldrb.w	lr, [r0, #40]	; 0x28
2405021a:	4621      	mov	r1, r4
2405021c:	4422      	add	r2, r4
2405021e:	f8b7 5338 	ldrh.w	r5, [r7, #824]	; 0x338
24050222:	f1ce 0400 	rsb	r4, lr, #0
24050226:	f8b7 333a 	ldrh.w	r3, [r7, #826]	; 0x33a
2405022a:	42b5      	cmp	r5, r6
2405022c:	bf28      	it	cs
2405022e:	4635      	movcs	r5, r6
24050230:	4563      	cmp	r3, ip
24050232:	bf28      	it	cs
24050234:	4663      	movcs	r3, ip
24050236:	b29b      	uxth	r3, r3
24050238:	428a      	cmp	r2, r1
2405023a:	dc08      	bgt.n	2405024e <play_generator+0x76>
2405023c:	f8a7 5338 	strh.w	r5, [r7, #824]	; 0x338
24050240:	f8a7 333a 	strh.w	r3, [r7, #826]	; 0x33a
24050244:	e8bd 81f0 	ldmia.w	sp!, {r4, r5, r6, r7, r8, pc}
24050248:	b29e      	uxth	r6, r3
2405024a:	46b4      	mov	ip, r6
2405024c:	e7e1      	b.n	24050212 <play_generator+0x3a>
2405024e:	b13d      	cbz	r5, 24050260 <play_generator+0x88>
24050250:	3d01      	subs	r5, #1
24050252:	f101 083c 	add.w	r8, r1, #60	; 0x3c
24050256:	b2ad      	uxth	r5, r5
24050258:	f820 e018 	strh.w	lr, [r0, r8, lsl #1]
2405025c:	3101      	adds	r1, #1
2405025e:	e7eb      	b.n	24050238 <play_generator+0x60>
24050260:	b133      	cbz	r3, 24050270 <play_generator+0x98>
24050262:	f101 083c 	add.w	r8, r1, #60	; 0x3c
24050266:	3b01      	subs	r3, #1
24050268:	f820 4018 	strh.w	r4, [r0, r8, lsl #1]
2405026c:	b29b      	uxth	r3, r3
2405026e:	e7f5      	b.n	2405025c <play_generator+0x84>
24050270:	3901      	subs	r1, #1
24050272:	4663      	mov	r3, ip
24050274:	4635      	mov	r5, r6
24050276:	e7f1      	b.n	2405025c <play_generator+0x84>

24050278 <move_generator>:
24050278:	4601      	mov	r1, r0
2405027a:	2227      	movs	r2, #39	; 0x27
2405027c:	b538      	push	{r3, r4, r5, lr}
2405027e:	4604      	mov	r4, r0
24050280:	f811 5b01 	ldrb.w	r5, [r1], #1
24050284:	f009 f8e4 	bl	24059450 <memmove>
24050288:	2227      	movs	r2, #39	; 0x27
2405028a:	f884 5027 	strb.w	r5, [r4, #39]	; 0x27
2405028e:	f104 0129 	add.w	r1, r4, #41	; 0x29
24050292:	f894 5028 	ldrb.w	r5, [r4, #40]	; 0x28
24050296:	f104 0028 	add.w	r0, r4, #40	; 0x28
2405029a:	f009 f8d9 	bl	24059450 <memmove>
2405029e:	2227      	movs	r2, #39	; 0x27
240502a0:	f884 504f 	strb.w	r5, [r4, #79]	; 0x4f
240502a4:	f104 0151 	add.w	r1, r4, #81	; 0x51
240502a8:	f894 5050 	ldrb.w	r5, [r4, #80]	; 0x50
240502ac:	f104 0050 	add.w	r0, r4, #80	; 0x50
240502b0:	f009 f8ce 	bl	24059450 <memmove>
240502b4:	f884 5077 	strb.w	r5, [r4, #119]	; 0x77
240502b8:	bd38      	pop	{r3, r4, r5, pc}

240502ba <play_noise>:
240502ba:	e92d 43f0 	stmdb	sp!, {r4, r5, r6, r7, r8, r9, lr}
240502be:	7804      	ldrb	r4, [r0, #0]
240502c0:	460b      	mov	r3, r1
240502c2:	00a1      	lsls	r1, r4, #2
240502c4:	b94c      	cbnz	r4, 240502da <play_noise+0x20>
240502c6:	ea22 72e2 	bic.w	r2, r2, r2, asr #31
240502ca:	3328      	adds	r3, #40	; 0x28
240502cc:	0052      	lsls	r2, r2, #1
240502ce:	eb00 0043 	add.w	r0, r0, r3, lsl #1
240502d2:	e8bd 43f0 	ldmia.w	sp!, {r4, r5, r6, r7, r8, r9, lr}
240502d6:	f009 b8d5 	b.w	24059484 <memset>
240502da:	f500 5780 	add.w	r7, r0, #4096	; 0x1000
240502de:	f890 6028 	ldrb.w	r6, [r0, #40]	; 0x28
240502e2:	f04f 0c00 	mov.w	ip, #0
240502e6:	441a      	add	r2, r3
240502e8:	f8b7 4312 	ldrh.w	r4, [r7, #786]	; 0x312
240502ec:	46b6      	mov	lr, r6
240502ee:	4276      	negs	r6, r6
240502f0:	f8b7 5310 	ldrh.w	r5, [r7, #784]	; 0x310
240502f4:	428c      	cmp	r4, r1
240502f6:	b236      	sxth	r6, r6
240502f8:	bf28      	it	cs
240502fa:	460c      	movcs	r4, r1
240502fc:	429a      	cmp	r2, r3
240502fe:	dc05      	bgt.n	2405030c <play_noise+0x52>
24050300:	f8a7 5310 	strh.w	r5, [r7, #784]	; 0x310
24050304:	f8a7 4312 	strh.w	r4, [r7, #786]	; 0x312
24050308:	e8bd 83f0 	ldmia.w	sp!, {r4, r5, r6, r7, r8, r9, pc}
2405030c:	b16c      	cbz	r4, 2405032a <play_noise+0x70>
2405030e:	f1bc 0f00 	cmp.w	ip, #0
24050312:	f104 34ff 	add.w	r4, r4, #4294967295
24050316:	f103 0828 	add.w	r8, r3, #40	; 0x28
2405031a:	bf0c      	ite	eq
2405031c:	46f1      	moveq	r9, lr
2405031e:	46b1      	movne	r9, r6
24050320:	b2a4      	uxth	r4, r4
24050322:	f820 9018 	strh.w	r9, [r0, r8, lsl #1]
24050326:	3301      	adds	r3, #1
24050328:	e7e8      	b.n	240502fc <play_noise+0x42>
2405032a:	ea85 0455 	eor.w	r4, r5, r5, lsr #1
2405032e:	3b01      	subs	r3, #1
24050330:	f004 0401 	and.w	r4, r4, #1
24050334:	03a4      	lsls	r4, r4, #14
24050336:	ea44 0555 	orr.w	r5, r4, r5, lsr #1
2405033a:	460c      	mov	r4, r1
2405033c:	ea6f 0c05 	mvn.w	ip, r5
24050340:	f00c 0c01 	and.w	ip, ip, #1
24050344:	e7ef      	b.n	24050326 <play_noise+0x6c>
	...

24050348 <HAL_SAI_TxCpltCallback>:
24050348:	4a1b      	ldr	r2, [pc, #108]	; (240503b8 <HAL_SAI_TxCpltCallback+0x70>)
2405034a:	481c      	ldr	r0, [pc, #112]	; (240503bc <HAL_SAI_TxCpltCallback+0x74>)
2405034c:	b5f8      	push	{r3, r4, r5, r6, r7, lr}
2405034e:	6813      	ldr	r3, [r2, #0]
24050350:	f241 3438 	movw	r4, #4920	; 0x1338
24050354:	4f1a      	ldr	r7, [pc, #104]	; (240503c0 <HAL_SAI_TxCpltCallback+0x78>)
24050356:	3301      	adds	r3, #1
24050358:	4e1a      	ldr	r6, [pc, #104]	; (240503c4 <HAL_SAI_TxCpltCallback+0x7c>)
2405035a:	6013      	str	r3, [r2, #0]
2405035c:	f44f 6296 	mov.w	r2, #1200	; 0x4b0
24050360:	4611      	mov	r1, r2
24050362:	f7ff ff39 	bl	240501d8 <play_generator>
24050366:	f44f 6296 	mov.w	r2, #1200	; 0x4b0
2405036a:	4815      	ldr	r0, [pc, #84]	; (240503c0 <HAL_SAI_TxCpltCallback+0x78>)
2405036c:	4611      	mov	r1, r2
2405036e:	f7ff ff33 	bl	240501d8 <play_generator>
24050372:	f44f 6296 	mov.w	r2, #1200	; 0x4b0
24050376:	4813      	ldr	r0, [pc, #76]	; (240503c4 <HAL_SAI_TxCpltCallback+0x7c>)
24050378:	4611      	mov	r1, r2
2405037a:	f7ff ff2d 	bl	240501d8 <play_generator>
2405037e:	f44f 6296 	mov.w	r2, #1200	; 0x4b0
24050382:	4811      	ldr	r0, [pc, #68]	; (240503c8 <HAL_SAI_TxCpltCallback+0x80>)
24050384:	4611      	mov	r1, r2
24050386:	f7ff ff98 	bl	240502ba <play_noise>
2405038a:	4810      	ldr	r0, [pc, #64]	; (240503cc <HAL_SAI_TxCpltCallback+0x84>)
2405038c:	4910      	ldr	r1, [pc, #64]	; (240503d0 <HAL_SAI_TxCpltCallback+0x88>)
2405038e:	f640 12d8 	movw	r2, #2520	; 0x9d8
24050392:	f8df c028 	ldr.w	ip, [pc, #40]	; 240503bc <HAL_SAI_TxCpltCallback+0x74>
24050396:	5ebd      	ldrsh	r5, [r7, r2]
24050398:	f93c 3002 	ldrsh.w	r3, [ip, r2]
2405039c:	442b      	add	r3, r5
2405039e:	5eb5      	ldrsh	r5, [r6, r2]
240503a0:	3202      	adds	r2, #2
240503a2:	442b      	add	r3, r5
240503a4:	f930 5f02 	ldrsh.w	r5, [r0, #2]!
240503a8:	42a2      	cmp	r2, r4
240503aa:	442b      	add	r3, r5
240503ac:	ea4f 0343 	mov.w	r3, r3, lsl #1
240503b0:	f821 3f02 	strh.w	r3, [r1, #2]!
240503b4:	d1ef      	bne.n	24050396 <HAL_SAI_TxCpltCallback+0x4e>
240503b6:	bdf8      	pop	{r3, r4, r5, r6, r7, pc}
240503b8:	200000cc 	.word	0x200000cc
240503bc:	300039a0 	.word	0x300039a0
240503c0:	30002660 	.word	0x30002660
240503c4:	30001320 	.word	0x30001320
240503c8:	30000000 	.word	0x30000000
240503cc:	300009ae 	.word	0x300009ae
240503d0:	3000563e 	.word	0x3000563e

240503d4 <move_noise>:
240503d4:	4601      	mov	r1, r0
240503d6:	2227      	movs	r2, #39	; 0x27
240503d8:	b538      	push	{r3, r4, r5, lr}
240503da:	4604      	mov	r4, r0
240503dc:	f811 5b01 	ldrb.w	r5, [r1], #1
240503e0:	f009 f836 	bl	24059450 <memmove>
240503e4:	2227      	movs	r2, #39	; 0x27
240503e6:	f884 5027 	strb.w	r5, [r4, #39]	; 0x27
240503ea:	f104 0129 	add.w	r1, r4, #41	; 0x29
240503ee:	f894 5028 	ldrb.w	r5, [r4, #40]	; 0x28
240503f2:	f104 0028 	add.w	r0, r4, #40	; 0x28
240503f6:	f009 f82b 	bl	24059450 <memmove>
240503fa:	f884 504f 	strb.w	r5, [r4, #79]	; 0x4f
240503fe:	bd38      	pop	{r3, r4, r5, pc}

24050400 <HAL_SAI_TxHalfCpltCallback>:
24050400:	b5f8      	push	{r3, r4, r5, r6, r7, lr}
24050402:	481f      	ldr	r0, [pc, #124]	; (24050480 <HAL_SAI_TxHalfCpltCallback+0x80>)
24050404:	f640 14d8 	movw	r4, #2520	; 0x9d8
24050408:	f7ff ff36 	bl	24050278 <move_generator>
2405040c:	f44f 6296 	mov.w	r2, #1200	; 0x4b0
24050410:	2100      	movs	r1, #0
24050412:	481b      	ldr	r0, [pc, #108]	; (24050480 <HAL_SAI_TxHalfCpltCallback+0x80>)
24050414:	f7ff fee0 	bl	240501d8 <play_generator>
24050418:	481a      	ldr	r0, [pc, #104]	; (24050484 <HAL_SAI_TxHalfCpltCallback+0x84>)
2405041a:	f7ff ff2d 	bl	24050278 <move_generator>
2405041e:	f44f 6296 	mov.w	r2, #1200	; 0x4b0
24050422:	2100      	movs	r1, #0
24050424:	4817      	ldr	r0, [pc, #92]	; (24050484 <HAL_SAI_TxHalfCpltCallback+0x84>)
24050426:	f7ff fed7 	bl	240501d8 <play_generator>
2405042a:	4817      	ldr	r0, [pc, #92]	; (24050488 <HAL_SAI_TxHalfCpltCallback+0x88>)
2405042c:	f7ff ff24 	bl	24050278 <move_generator>
24050430:	f44f 6296 	mov.w	r2, #1200	; 0x4b0
24050434:	2100      	movs	r1, #0
24050436:	4814      	ldr	r0, [pc, #80]	; (24050488 <HAL_SAI_TxHalfCpltCallback+0x88>)
24050438:	f7ff fece 	bl	240501d8 <play_generator>
2405043c:	4813      	ldr	r0, [pc, #76]	; (2405048c <HAL_SAI_TxHalfCpltCallback+0x8c>)
2405043e:	f7ff ffc9 	bl	240503d4 <move_noise>
24050442:	f44f 6296 	mov.w	r2, #1200	; 0x4b0
24050446:	2100      	movs	r1, #0
24050448:	4810      	ldr	r0, [pc, #64]	; (2405048c <HAL_SAI_TxHalfCpltCallback+0x8c>)
2405044a:	f7ff ff36 	bl	240502ba <play_noise>
2405044e:	4f0d      	ldr	r7, [pc, #52]	; (24050484 <HAL_SAI_TxHalfCpltCallback+0x84>)
24050450:	480f      	ldr	r0, [pc, #60]	; (24050490 <HAL_SAI_TxHalfCpltCallback+0x90>)
24050452:	2278      	movs	r2, #120	; 0x78
24050454:	490f      	ldr	r1, [pc, #60]	; (24050494 <HAL_SAI_TxHalfCpltCallback+0x94>)
24050456:	f8df c028 	ldr.w	ip, [pc, #40]	; 24050480 <HAL_SAI_TxHalfCpltCallback+0x80>
2405045a:	4e0b      	ldr	r6, [pc, #44]	; (24050488 <HAL_SAI_TxHalfCpltCallback+0x88>)
2405045c:	5ebd      	ldrsh	r5, [r7, r2]
2405045e:	f93c 3002 	ldrsh.w	r3, [ip, r2]
24050462:	442b      	add	r3, r5
24050464:	5eb5      	ldrsh	r5, [r6, r2]
24050466:	3202      	adds	r2, #2
24050468:	442b      	add	r3, r5
2405046a:	f930 5f02 	ldrsh.w	r5, [r0, #2]!
2405046e:	42a2      	cmp	r2, r4
24050470:	442b      	add	r3, r5
24050472:	ea4f 0383 	mov.w	r3, r3, lsl #2
24050476:	f821 3b02 	strh.w	r3, [r1], #2
2405047a:	d1ef      	bne.n	2405045c <HAL_SAI_TxHalfCpltCallback+0x5c>
2405047c:	bdf8      	pop	{r3, r4, r5, r6, r7, pc}
2405047e:	bf00      	nop
24050480:	300039a0 	.word	0x300039a0
24050484:	30002660 	.word	0x30002660
24050488:	30001320 	.word	0x30001320
2405048c:	30000000 	.word	0x30000000
24050490:	3000004e 	.word	0x3000004e
24050494:	30004ce0 	.word	0x30004ce0

24050498 <HAL_ADC_ConvCpltCallback>:
24050498:	b510      	push	{r4, lr}
2405049a:	4604      	mov	r4, r0
2405049c:	f002 fae6 	bl	24052a6c <HAL_ADC_GetValue>
240504a0:	4b03      	ldr	r3, [pc, #12]	; (240504b0 <HAL_ADC_ConvCpltCallback+0x18>)
240504a2:	8018      	strh	r0, [r3, #0]
240504a4:	4620      	mov	r0, r4
240504a6:	e8bd 4010 	ldmia.w	sp!, {r4, lr}
240504aa:	f002 bfaa 	b.w	24053402 <HAL_ADC_Stop_IT>
240504ae:	bf00      	nop
240504b0:	200000d0 	.word	0x200000d0

240504b4 <bq24072_handle_power_good>:
240504b4:	b508      	push	{r3, lr}
240504b6:	2104      	movs	r1, #4
240504b8:	4804      	ldr	r0, [pc, #16]	; (240504cc <bq24072_handle_power_good+0x18>)
240504ba:	f004 fccf 	bl	24054e5c <HAL_GPIO_ReadPin>
240504be:	3801      	subs	r0, #1
240504c0:	4b03      	ldr	r3, [pc, #12]	; (240504d0 <bq24072_handle_power_good+0x1c>)
240504c2:	bf18      	it	ne
240504c4:	2001      	movne	r0, #1
240504c6:	70d8      	strb	r0, [r3, #3]
240504c8:	bd08      	pop	{r3, pc}
240504ca:	bf00      	nop
240504cc:	58020000 	.word	0x58020000
240504d0:	200000d0 	.word	0x200000d0

240504d4 <bq24072_handle_charging>:
240504d4:	b508      	push	{r3, lr}
240504d6:	2180      	movs	r1, #128	; 0x80
240504d8:	4804      	ldr	r0, [pc, #16]	; (240504ec <bq24072_handle_charging+0x18>)
240504da:	f004 fcbf 	bl	24054e5c <HAL_GPIO_ReadPin>
240504de:	3801      	subs	r0, #1
240504e0:	4b03      	ldr	r3, [pc, #12]	; (240504f0 <bq24072_handle_charging+0x1c>)
240504e2:	bf18      	it	ne
240504e4:	2001      	movne	r0, #1
240504e6:	7098      	strb	r0, [r3, #2]
240504e8:	bd08      	pop	{r3, pc}
240504ea:	bf00      	nop
240504ec:	58021000 	.word	0x58021000
240504f0:	200000d0 	.word	0x200000d0

240504f4 <bq24072_poll>:
240504f4:	4801      	ldr	r0, [pc, #4]	; (240504fc <bq24072_poll+0x8>)
240504f6:	f002 beab 	b.w	24053250 <HAL_ADC_Start_IT>
240504fa:	bf00      	nop
240504fc:	2000020c 	.word	0x2000020c

24050500 <bq24072_init>:
24050500:	b508      	push	{r3, lr}
24050502:	f7ff ffd7 	bl	240504b4 <bq24072_handle_power_good>
24050506:	f7ff ffe5 	bl	240504d4 <bq24072_handle_charging>
2405050a:	f7ff fff3 	bl	240504f4 <bq24072_poll>
2405050e:	4802      	ldr	r0, [pc, #8]	; (24050518 <bq24072_init+0x18>)
24050510:	f008 fa3a 	bl	24058988 <HAL_TIM_Base_Start_IT>
24050514:	2000      	movs	r0, #0
24050516:	bd08      	pop	{r3, pc}
24050518:	200005c4 	.word	0x200005c4

2405051c <buttons_get>:
2405051c:	e92d 4ff7 	stmdb	sp!, {r0, r1, r2, r4, r5, r6, r7, r8, r9, sl, fp, lr}
24050520:	4d38      	ldr	r5, [pc, #224]	; (24050604 <buttons_get+0xe8>)
24050522:	f44f 6100 	mov.w	r1, #2048	; 0x800
24050526:	4628      	mov	r0, r5
24050528:	f004 fc98 	bl	24054e5c <HAL_GPIO_ReadPin>
2405052c:	f44f 4100 	mov.w	r1, #32768	; 0x8000
24050530:	4683      	mov	fp, r0
24050532:	4628      	mov	r0, r5
24050534:	f004 fc92 	bl	24054e5c <HAL_GPIO_ReadPin>
24050538:	2101      	movs	r1, #1
2405053a:	4604      	mov	r4, r0
2405053c:	4628      	mov	r0, r5
2405053e:	f004 fc8d 	bl	24054e5c <HAL_GPIO_ReadPin>
24050542:	f44f 4180 	mov.w	r1, #16384	; 0x4000
24050546:	9001      	str	r0, [sp, #4]
24050548:	4628      	mov	r0, r5
2405054a:	f004 fc87 	bl	24054e5c <HAL_GPIO_ReadPin>
2405054e:	f44f 7100 	mov.w	r1, #512	; 0x200
24050552:	4682      	mov	sl, r0
24050554:	4628      	mov	r0, r5
24050556:	f004 fc81 	bl	24054e5c <HAL_GPIO_ReadPin>
2405055a:	4681      	mov	r9, r0
2405055c:	4628      	mov	r0, r5
2405055e:	f5a5 6580 	sub.w	r5, r5, #1024	; 0x400
24050562:	2120      	movs	r1, #32
24050564:	faba fa8a 	clz	sl, sl
24050568:	f004 fc78 	bl	24054e5c <HAL_GPIO_ReadPin>
2405056c:	2120      	movs	r1, #32
2405056e:	4680      	mov	r8, r0
24050570:	4628      	mov	r0, r5
24050572:	f004 fc73 	bl	24054e5c <HAL_GPIO_ReadPin>
24050576:	2102      	movs	r1, #2
24050578:	4607      	mov	r7, r0
2405057a:	4628      	mov	r0, r5
2405057c:	f004 fc6e 	bl	24054e5c <HAL_GPIO_ReadPin>
24050580:	f44f 5100 	mov.w	r1, #8192	; 0x2000
24050584:	4606      	mov	r6, r0
24050586:	4628      	mov	r0, r5
24050588:	f004 fc68 	bl	24054e5c <HAL_GPIO_ReadPin>
2405058c:	2101      	movs	r1, #1
2405058e:	4605      	mov	r5, r0
24050590:	481d      	ldr	r0, [pc, #116]	; (24050608 <buttons_get+0xec>)
24050592:	f004 fc63 	bl	24054e5c <HAL_GPIO_ReadPin>
24050596:	9a01      	ldr	r2, [sp, #4]
24050598:	fab4 f384 	clz	r3, r4
2405059c:	ea4f 1a5a 	mov.w	sl, sl, lsr #5
240505a0:	fab2 f282 	clz	r2, r2
240505a4:	fab9 f989 	clz	r9, r9
240505a8:	095b      	lsrs	r3, r3, #5
240505aa:	fab8 f888 	clz	r8, r8
240505ae:	0952      	lsrs	r2, r2, #5
240505b0:	fab7 f787 	clz	r7, r7
240505b4:	009b      	lsls	r3, r3, #2
240505b6:	fab6 f686 	clz	r6, r6
240505ba:	ea4f 1959 	mov.w	r9, r9, lsr #5
240505be:	fab5 f585 	clz	r5, r5
240505c2:	ea43 0342 	orr.w	r3, r3, r2, lsl #1
240505c6:	fab0 f080 	clz	r0, r0
240505ca:	ea4f 1858 	mov.w	r8, r8, lsr #5
240505ce:	f1bb 0f00 	cmp.w	fp, #0
240505d2:	bf08      	it	eq
240505d4:	f043 0301 	orreq.w	r3, r3, #1
240505d8:	097f      	lsrs	r7, r7, #5
240505da:	0976      	lsrs	r6, r6, #5
240505dc:	ea43 03ca 	orr.w	r3, r3, sl, lsl #3
240505e0:	096d      	lsrs	r5, r5, #5
240505e2:	ea43 1309 	orr.w	r3, r3, r9, lsl #4
240505e6:	0940      	lsrs	r0, r0, #5
240505e8:	ea43 1348 	orr.w	r3, r3, r8, lsl #5
240505ec:	ea43 1387 	orr.w	r3, r3, r7, lsl #6
240505f0:	ea43 13c6 	orr.w	r3, r3, r6, lsl #7
240505f4:	ea43 2305 	orr.w	r3, r3, r5, lsl #8
240505f8:	ea43 2040 	orr.w	r0, r3, r0, lsl #9
240505fc:	b003      	add	sp, #12
240505fe:	e8bd 8ff0 	ldmia.w	sp!, {r4, r5, r6, r7, r8, r9, sl, fp, pc}
24050602:	bf00      	nop
24050604:	58020c00 	.word	0x58020c00
24050608:	58020000 	.word	0x58020000

2405060c <set_ospi_cmd.constprop.0>:
2405060c:	b5f8      	push	{r3, r4, r5, r6, r7, lr}
2405060e:	460d      	mov	r5, r1
24050610:	4617      	mov	r7, r2
24050612:	2100      	movs	r1, #0
24050614:	2250      	movs	r2, #80	; 0x50
24050616:	4604      	mov	r4, r0
24050618:	461e      	mov	r6, r3
2405061a:	f008 ff33 	bl	24059484 <memset>
2405061e:	782b      	ldrb	r3, [r5, #0]
24050620:	4a10      	ldr	r2, [pc, #64]	; (24050664 <set_ospi_cmd.constprop.0+0x58>)
24050622:	60a3      	str	r3, [r4, #8]
24050624:	786b      	ldrb	r3, [r5, #1]
24050626:	f003 0303 	and.w	r3, r3, #3
2405062a:	f852 3023 	ldr.w	r3, [r2, r3, lsl #2]
2405062e:	4a0e      	ldr	r2, [pc, #56]	; (24050668 <set_ospi_cmd.constprop.0+0x5c>)
24050630:	60e3      	str	r3, [r4, #12]
24050632:	78ab      	ldrb	r3, [r5, #2]
24050634:	61a7      	str	r7, [r4, #24]
24050636:	6463      	str	r3, [r4, #68]	; 0x44
24050638:	786b      	ldrb	r3, [r5, #1]
2405063a:	f3c3 1301 	ubfx	r3, r3, #4, #2
2405063e:	f852 3023 	ldr.w	r3, [r2, r3, lsl #2]
24050642:	4a0a      	ldr	r2, [pc, #40]	; (2405066c <set_ospi_cmd.constprop.0+0x60>)
24050644:	6223      	str	r3, [r4, #32]
24050646:	786b      	ldrb	r3, [r5, #1]
24050648:	63e6      	str	r6, [r4, #60]	; 0x3c
2405064a:	f3c3 0381 	ubfx	r3, r3, #2, #2
2405064e:	f852 3023 	ldr.w	r3, [r2, r3, lsl #2]
24050652:	4a07      	ldr	r2, [pc, #28]	; (24050670 <set_ospi_cmd.constprop.0+0x64>)
24050654:	61e3      	str	r3, [r4, #28]
24050656:	786b      	ldrb	r3, [r5, #1]
24050658:	099b      	lsrs	r3, r3, #6
2405065a:	f852 3023 	ldr.w	r3, [r2, r3, lsl #2]
2405065e:	63a3      	str	r3, [r4, #56]	; 0x38
24050660:	bdf8      	pop	{r3, r4, r5, r6, r7, pc}
24050662:	bf00      	nop
24050664:	2405ba38 	.word	0x2405ba38
24050668:	2405b7d4 	.word	0x2405b7d4
2405066c:	2405b7c8 	.word	0x2405b7c8
24050670:	2405ba2c 	.word	0x2405ba2c

24050674 <OSPI_ReadBytes>:
24050674:	b530      	push	{r4, r5, lr}
24050676:	4c12      	ldr	r4, [pc, #72]	; (240506c0 <OSPI_ReadBytes+0x4c>)
24050678:	4615      	mov	r5, r2
2405067a:	b095      	sub	sp, #84	; 0x54
2405067c:	7c22      	ldrb	r2, [r4, #16]
2405067e:	b132      	cbz	r2, 2405068e <OSPI_ReadBytes+0x1a>
24050680:	4b10      	ldr	r3, [pc, #64]	; (240506c4 <OSPI_ReadBytes+0x50>)
24050682:	f240 11a3 	movw	r1, #419	; 0x1a3
24050686:	4a10      	ldr	r2, [pc, #64]	; (240506c8 <OSPI_ReadBytes+0x54>)
24050688:	4810      	ldr	r0, [pc, #64]	; (240506cc <OSPI_ReadBytes+0x58>)
2405068a:	f008 fc1d 	bl	24058ec8 <__assert_func>
2405068e:	460a      	mov	r2, r1
24050690:	4601      	mov	r1, r0
24050692:	4668      	mov	r0, sp
24050694:	f7ff ffba 	bl	2405060c <set_ospi_cmd.constprop.0>
24050698:	f241 3288 	movw	r2, #5000	; 0x1388
2405069c:	4669      	mov	r1, sp
2405069e:	6820      	ldr	r0, [r4, #0]
240506a0:	f004 ff38 	bl	24055514 <HAL_OSPI_Command>
240506a4:	b108      	cbz	r0, 240506aa <OSPI_ReadBytes+0x36>
240506a6:	f001 fc31 	bl	24051f0c <Error_Handler>
240506aa:	f241 3288 	movw	r2, #5000	; 0x1388
240506ae:	4629      	mov	r1, r5
240506b0:	6820      	ldr	r0, [r4, #0]
240506b2:	f004 ffbe 	bl	24055632 <HAL_OSPI_Receive>
240506b6:	b108      	cbz	r0, 240506bc <OSPI_ReadBytes+0x48>
240506b8:	f001 fc28 	bl	24051f0c <Error_Handler>
240506bc:	b015      	add	sp, #84	; 0x54
240506be:	bd30      	pop	{r4, r5, pc}
240506c0:	20000010 	.word	0x20000010
240506c4:	2405b40f 	.word	0x2405b40f
240506c8:	2405b796 	.word	0x2405b796
240506cc:	2405b431 	.word	0x2405b431

240506d0 <wait_for_status>:
240506d0:	e92d 41f3 	stmdb	sp!, {r0, r1, r4, r5, r6, r7, r8, lr}
240506d4:	4606      	mov	r6, r0
240506d6:	460d      	mov	r5, r1
240506d8:	4614      	mov	r4, r2
240506da:	f8df 8054 	ldr.w	r8, [pc, #84]	; 24050730 <wait_for_status+0x60>
240506de:	f002 f921 	bl	24052924 <HAL_GetTick>
240506e2:	4607      	mov	r7, r0
240506e4:	f8d8 3008 	ldr.w	r3, [r8, #8]
240506e8:	f10d 0207 	add.w	r2, sp, #7
240506ec:	2100      	movs	r1, #0
240506ee:	6818      	ldr	r0, [r3, #0]
240506f0:	2301      	movs	r3, #1
240506f2:	3003      	adds	r0, #3
240506f4:	f7ff ffbe 	bl	24050674 <OSPI_ReadBytes>
240506f8:	b15c      	cbz	r4, 24050712 <wait_for_status+0x42>
240506fa:	f002 f913 	bl	24052924 <HAL_GetTick>
240506fe:	193b      	adds	r3, r7, r4
24050700:	4298      	cmp	r0, r3
24050702:	d906      	bls.n	24050712 <wait_for_status+0x42>
24050704:	4b07      	ldr	r3, [pc, #28]	; (24050724 <wait_for_status+0x54>)
24050706:	f240 11e5 	movw	r1, #485	; 0x1e5
2405070a:	4a07      	ldr	r2, [pc, #28]	; (24050728 <wait_for_status+0x58>)
2405070c:	4807      	ldr	r0, [pc, #28]	; (2405072c <wait_for_status+0x5c>)
2405070e:	f008 fbdb 	bl	24058ec8 <__assert_func>
24050712:	f89d 3007 	ldrb.w	r3, [sp, #7]
24050716:	4033      	ands	r3, r6
24050718:	42ab      	cmp	r3, r5
2405071a:	d1e3      	bne.n	240506e4 <wait_for_status+0x14>
2405071c:	b002      	add	sp, #8
2405071e:	e8bd 81f0 	ldmia.w	sp!, {r4, r5, r6, r7, r8, pc}
24050722:	bf00      	nop
24050724:	2405b454 	.word	0x2405b454
24050728:	2405b7a5 	.word	0x2405b7a5
2405072c:	2405b431 	.word	0x2405b431
24050730:	20000010 	.word	0x20000010

24050734 <OSPI_WriteBytes>:
24050734:	b570      	push	{r4, r5, r6, lr}
24050736:	4c13      	ldr	r4, [pc, #76]	; (24050784 <OSPI_WriteBytes+0x50>)
24050738:	4615      	mov	r5, r2
2405073a:	b094      	sub	sp, #80	; 0x50
2405073c:	461e      	mov	r6, r3
2405073e:	7c22      	ldrb	r2, [r4, #16]
24050740:	b132      	cbz	r2, 24050750 <OSPI_WriteBytes+0x1c>
24050742:	4b11      	ldr	r3, [pc, #68]	; (24050788 <OSPI_WriteBytes+0x54>)
24050744:	f240 11c1 	movw	r1, #449	; 0x1c1
24050748:	4a10      	ldr	r2, [pc, #64]	; (2405078c <OSPI_WriteBytes+0x58>)
2405074a:	4811      	ldr	r0, [pc, #68]	; (24050790 <OSPI_WriteBytes+0x5c>)
2405074c:	f008 fbbc 	bl	24058ec8 <__assert_func>
24050750:	460a      	mov	r2, r1
24050752:	4601      	mov	r1, r0
24050754:	4668      	mov	r0, sp
24050756:	f7ff ff59 	bl	2405060c <set_ospi_cmd.constprop.0>
2405075a:	f241 3288 	movw	r2, #5000	; 0x1388
2405075e:	4669      	mov	r1, sp
24050760:	6820      	ldr	r0, [r4, #0]
24050762:	f004 fed7 	bl	24055514 <HAL_OSPI_Command>
24050766:	b108      	cbz	r0, 2405076c <OSPI_WriteBytes+0x38>
24050768:	f001 fbd0 	bl	24051f0c <Error_Handler>
2405076c:	b146      	cbz	r6, 24050780 <OSPI_WriteBytes+0x4c>
2405076e:	f241 3288 	movw	r2, #5000	; 0x1388
24050772:	4629      	mov	r1, r5
24050774:	6820      	ldr	r0, [r4, #0]
24050776:	f004 ff1c 	bl	240555b2 <HAL_OSPI_Transmit>
2405077a:	b108      	cbz	r0, 24050780 <OSPI_WriteBytes+0x4c>
2405077c:	f001 fbc6 	bl	24051f0c <Error_Handler>
24050780:	b014      	add	sp, #80	; 0x50
24050782:	bd70      	pop	{r4, r5, r6, pc}
24050784:	20000010 	.word	0x20000010
24050788:	2405b40f 	.word	0x2405b40f
2405078c:	2405b7b5 	.word	0x2405b7b5
24050790:	2405b431 	.word	0x2405b431

24050794 <OSPI_EnableMemoryMappedMode>:
24050794:	b510      	push	{r4, lr}
24050796:	4c1b      	ldr	r4, [pc, #108]	; (24050804 <OSPI_EnableMemoryMappedMode+0x70>)
24050798:	b096      	sub	sp, #88	; 0x58
2405079a:	68a3      	ldr	r3, [r4, #8]
2405079c:	6819      	ldr	r1, [r3, #0]
2405079e:	7c23      	ldrb	r3, [r4, #16]
240507a0:	312a      	adds	r1, #42	; 0x2a
240507a2:	b133      	cbz	r3, 240507b2 <OSPI_EnableMemoryMappedMode+0x1e>
240507a4:	4b18      	ldr	r3, [pc, #96]	; (24050808 <OSPI_EnableMemoryMappedMode+0x74>)
240507a6:	f240 11f1 	movw	r1, #497	; 0x1f1
240507aa:	4a18      	ldr	r2, [pc, #96]	; (2405080c <OSPI_EnableMemoryMappedMode+0x78>)
240507ac:	4818      	ldr	r0, [pc, #96]	; (24050810 <OSPI_EnableMemoryMappedMode+0x7c>)
240507ae:	f008 fb8b 	bl	24058ec8 <__assert_func>
240507b2:	461a      	mov	r2, r3
240507b4:	a802      	add	r0, sp, #8
240507b6:	f7ff ff29 	bl	2405060c <set_ospi_cmd.constprop.0>
240507ba:	2301      	movs	r3, #1
240507bc:	f241 3288 	movw	r2, #5000	; 0x1388
240507c0:	a902      	add	r1, sp, #8
240507c2:	6820      	ldr	r0, [r4, #0]
240507c4:	9302      	str	r3, [sp, #8]
240507c6:	f004 fea5 	bl	24055514 <HAL_OSPI_Command>
240507ca:	b108      	cbz	r0, 240507d0 <OSPI_EnableMemoryMappedMode+0x3c>
240507cc:	f001 fb9e 	bl	24051f0c <Error_Handler>
240507d0:	2302      	movs	r3, #2
240507d2:	f241 3288 	movw	r2, #5000	; 0x1388
240507d6:	a902      	add	r1, sp, #8
240507d8:	6820      	ldr	r0, [r4, #0]
240507da:	9302      	str	r3, [sp, #8]
240507dc:	f004 fe9a 	bl	24055514 <HAL_OSPI_Command>
240507e0:	b108      	cbz	r0, 240507e6 <OSPI_EnableMemoryMappedMode+0x52>
240507e2:	f001 fb93 	bl	24051f0c <Error_Handler>
240507e6:	2300      	movs	r3, #0
240507e8:	4669      	mov	r1, sp
240507ea:	6820      	ldr	r0, [r4, #0]
240507ec:	e9cd 3300 	strd	r3, r3, [sp]
240507f0:	f004 ff71 	bl	240556d6 <HAL_OSPI_MemoryMapped>
240507f4:	b108      	cbz	r0, 240507fa <OSPI_EnableMemoryMappedMode+0x66>
240507f6:	f001 fb89 	bl	24051f0c <Error_Handler>
240507fa:	2301      	movs	r3, #1
240507fc:	7423      	strb	r3, [r4, #16]
240507fe:	b016      	add	sp, #88	; 0x58
24050800:	bd10      	pop	{r4, pc}
24050802:	bf00      	nop
24050804:	20000010 	.word	0x20000010
24050808:	2405b40f 	.word	0x2405b40f
2405080c:	2405b77a 	.word	0x2405b77a
24050810:	2405b431 	.word	0x2405b431

24050814 <OSPI_NOR_WriteEnable>:
24050814:	b508      	push	{r3, lr}
24050816:	4b08      	ldr	r3, [pc, #32]	; (24050838 <OSPI_NOR_WriteEnable+0x24>)
24050818:	689b      	ldr	r3, [r3, #8]
2405081a:	6818      	ldr	r0, [r3, #0]
2405081c:	2300      	movs	r3, #0
2405081e:	300c      	adds	r0, #12
24050820:	461a      	mov	r2, r3
24050822:	4619      	mov	r1, r3
24050824:	f7ff ff86 	bl	24050734 <OSPI_WriteBytes>
24050828:	2102      	movs	r1, #2
2405082a:	f44f 727a 	mov.w	r2, #1000	; 0x3e8
2405082e:	4608      	mov	r0, r1
24050830:	e8bd 4008 	ldmia.w	sp!, {r3, lr}
24050834:	f7ff bf4c 	b.w	240506d0 <wait_for_status>
24050838:	20000010 	.word	0x20000010

2405083c <init_mx_issi>:
2405083c:	b51f      	push	{r0, r1, r2, r3, r4, lr}
2405083e:	4c1e      	ldr	r4, [pc, #120]	; (240508b8 <init_mx_issi+0x7c>)
24050840:	481e      	ldr	r0, [pc, #120]	; (240508bc <init_mx_issi+0x80>)
24050842:	f008 fd05 	bl	24059250 <puts>
24050846:	68a3      	ldr	r3, [r4, #8]
24050848:	f10d 020e 	add.w	r2, sp, #14
2405084c:	2100      	movs	r1, #0
2405084e:	6818      	ldr	r0, [r3, #0]
24050850:	2301      	movs	r3, #1
24050852:	3003      	adds	r0, #3
24050854:	f7ff ff0e 	bl	24050674 <OSPI_ReadBytes>
24050858:	68a3      	ldr	r3, [r4, #8]
2405085a:	7d1b      	ldrb	r3, [r3, #20]
2405085c:	b34b      	cbz	r3, 240508b2 <init_mx_issi+0x76>
2405085e:	f89d 100e 	ldrb.w	r1, [sp, #14]
24050862:	f011 0140 	ands.w	r1, r1, #64	; 0x40
24050866:	d124      	bne.n	240508b2 <init_mx_issi+0x76>
24050868:	2340      	movs	r3, #64	; 0x40
2405086a:	4815      	ldr	r0, [pc, #84]	; (240508c0 <init_mx_issi+0x84>)
2405086c:	9101      	str	r1, [sp, #4]
2405086e:	f88d 300f 	strb.w	r3, [sp, #15]
24050872:	f008 fced 	bl	24059250 <puts>
24050876:	f7ff ffcd 	bl	24050814 <OSPI_NOR_WriteEnable>
2405087a:	68a0      	ldr	r0, [r4, #8]
2405087c:	2301      	movs	r3, #1
2405087e:	f10d 020f 	add.w	r2, sp, #15
24050882:	9901      	ldr	r1, [sp, #4]
24050884:	6800      	ldr	r0, [r0, #0]
24050886:	f7ff ff55 	bl	24050734 <OSPI_WriteBytes>
2405088a:	f44f 727a 	mov.w	r2, #1000	; 0x3e8
2405088e:	9901      	ldr	r1, [sp, #4]
24050890:	2001      	movs	r0, #1
24050892:	f7ff ff1d 	bl	240506d0 <wait_for_status>
24050896:	68a3      	ldr	r3, [r4, #8]
24050898:	9901      	ldr	r1, [sp, #4]
2405089a:	f10d 020e 	add.w	r2, sp, #14
2405089e:	6818      	ldr	r0, [r3, #0]
240508a0:	2301      	movs	r3, #1
240508a2:	3003      	adds	r0, #3
240508a4:	f7ff fee6 	bl	24050674 <OSPI_ReadBytes>
240508a8:	f89d 100e 	ldrb.w	r1, [sp, #14]
240508ac:	4805      	ldr	r0, [pc, #20]	; (240508c4 <init_mx_issi+0x88>)
240508ae:	f008 fc69 	bl	24059184 <iprintf>
240508b2:	b004      	add	sp, #16
240508b4:	bd10      	pop	{r4, pc}
240508b6:	bf00      	nop
240508b8:	20000010 	.word	0x20000010
240508bc:	2405b763 	.word	0x2405b763
240508c0:	2405b46c 	.word	0x2405b46c
240508c4:	2405b47c 	.word	0x2405b47c

240508c8 <init_spansion>:
240508c8:	b530      	push	{r4, r5, lr}
240508ca:	4c40      	ldr	r4, [pc, #256]	; (240509cc <init_spansion+0x104>)
240508cc:	b089      	sub	sp, #36	; 0x24
240508ce:	2100      	movs	r1, #0
240508d0:	68a3      	ldr	r3, [r4, #8]
240508d2:	f10d 0216 	add.w	r2, sp, #22
240508d6:	6818      	ldr	r0, [r3, #0]
240508d8:	2301      	movs	r3, #1
240508da:	3003      	adds	r0, #3
240508dc:	f7ff feca 	bl	24050674 <OSPI_ReadBytes>
240508e0:	68a3      	ldr	r3, [r4, #8]
240508e2:	f10d 0217 	add.w	r2, sp, #23
240508e6:	493a      	ldr	r1, [pc, #232]	; (240509d0 <init_spansion+0x108>)
240508e8:	6818      	ldr	r0, [r3, #0]
240508ea:	2301      	movs	r3, #1
240508ec:	3009      	adds	r0, #9
240508ee:	f7ff fec1 	bl	24050674 <OSPI_ReadBytes>
240508f2:	68a3      	ldr	r3, [r4, #8]
240508f4:	aa06      	add	r2, sp, #24
240508f6:	2100      	movs	r1, #0
240508f8:	6818      	ldr	r0, [r3, #0]
240508fa:	2301      	movs	r3, #1
240508fc:	3006      	adds	r0, #6
240508fe:	f7ff feb9 	bl	24050674 <OSPI_ReadBytes>
24050902:	68a3      	ldr	r3, [r4, #8]
24050904:	f10d 0219 	add.w	r2, sp, #25
24050908:	2103      	movs	r1, #3
2405090a:	6818      	ldr	r0, [r3, #0]
2405090c:	2301      	movs	r3, #1
2405090e:	3009      	adds	r0, #9
24050910:	f7ff feb0 	bl	24050674 <OSPI_ReadBytes>
24050914:	68a3      	ldr	r3, [r4, #8]
24050916:	f10d 021a 	add.w	r2, sp, #26
2405091a:	2104      	movs	r1, #4
2405091c:	6818      	ldr	r0, [r3, #0]
2405091e:	2301      	movs	r3, #1
24050920:	3009      	adds	r0, #9
24050922:	f7ff fea7 	bl	24050674 <OSPI_ReadBytes>
24050926:	68a3      	ldr	r3, [r4, #8]
24050928:	f10d 021b 	add.w	r2, sp, #27
2405092c:	2105      	movs	r1, #5
2405092e:	6818      	ldr	r0, [r3, #0]
24050930:	2301      	movs	r3, #1
24050932:	3009      	adds	r0, #9
24050934:	f7ff fe9e 	bl	24050674 <OSPI_ReadBytes>
24050938:	f89d 301b 	ldrb.w	r3, [sp, #27]
2405093c:	f89d 2017 	ldrb.w	r2, [sp, #23]
24050940:	9302      	str	r3, [sp, #8]
24050942:	f89d 301a 	ldrb.w	r3, [sp, #26]
24050946:	f89d 1016 	ldrb.w	r1, [sp, #22]
2405094a:	9301      	str	r3, [sp, #4]
2405094c:	f89d 3019 	ldrb.w	r3, [sp, #25]
24050950:	4820      	ldr	r0, [pc, #128]	; (240509d4 <init_spansion+0x10c>)
24050952:	9300      	str	r3, [sp, #0]
24050954:	f89d 3018 	ldrb.w	r3, [sp, #24]
24050958:	f008 fc14 	bl	24059184 <iprintf>
2405095c:	68a3      	ldr	r3, [r4, #8]
2405095e:	7d1b      	ldrb	r3, [r3, #20]
24050960:	b393      	cbz	r3, 240509c8 <init_spansion+0x100>
24050962:	f89d 5018 	ldrb.w	r5, [sp, #24]
24050966:	f015 0502 	ands.w	r5, r5, #2
2405096a:	d12d      	bne.n	240509c8 <init_spansion+0x100>
2405096c:	f44f 7300 	mov.w	r3, #512	; 0x200
24050970:	4819      	ldr	r0, [pc, #100]	; (240509d8 <init_spansion+0x110>)
24050972:	f8ad 301c 	strh.w	r3, [sp, #28]
24050976:	f008 fc6b 	bl	24059250 <puts>
2405097a:	f7ff ff4b 	bl	24050814 <OSPI_NOR_WriteEnable>
2405097e:	68a0      	ldr	r0, [r4, #8]
24050980:	2302      	movs	r3, #2
24050982:	aa07      	add	r2, sp, #28
24050984:	4629      	mov	r1, r5
24050986:	6800      	ldr	r0, [r0, #0]
24050988:	f7ff fed4 	bl	24050734 <OSPI_WriteBytes>
2405098c:	f44f 727a 	mov.w	r2, #1000	; 0x3e8
24050990:	4629      	mov	r1, r5
24050992:	2001      	movs	r0, #1
24050994:	f7ff fe9c 	bl	240506d0 <wait_for_status>
24050998:	68a3      	ldr	r3, [r4, #8]
2405099a:	f10d 0216 	add.w	r2, sp, #22
2405099e:	4629      	mov	r1, r5
240509a0:	6818      	ldr	r0, [r3, #0]
240509a2:	2301      	movs	r3, #1
240509a4:	3003      	adds	r0, #3
240509a6:	f7ff fe65 	bl	24050674 <OSPI_ReadBytes>
240509aa:	68a3      	ldr	r3, [r4, #8]
240509ac:	aa06      	add	r2, sp, #24
240509ae:	4629      	mov	r1, r5
240509b0:	6818      	ldr	r0, [r3, #0]
240509b2:	2301      	movs	r3, #1
240509b4:	3006      	adds	r0, #6
240509b6:	f7ff fe5d 	bl	24050674 <OSPI_ReadBytes>
240509ba:	f89d 2018 	ldrb.w	r2, [sp, #24]
240509be:	f89d 1016 	ldrb.w	r1, [sp, #22]
240509c2:	4806      	ldr	r0, [pc, #24]	; (240509dc <init_spansion+0x114>)
240509c4:	f008 fbde 	bl	24059184 <iprintf>
240509c8:	b009      	add	sp, #36	; 0x24
240509ca:	bd30      	pop	{r4, r5, pc}
240509cc:	20000010 	.word	0x20000010
240509d0:	00800001 	.word	0x00800001
240509d4:	2405b496 	.word	0x2405b496
240509d8:	2405b4c3 	.word	0x2405b4c3
240509dc:	2405b4d9 	.word	0x2405b4d9

240509e0 <init_winbond>:
240509e0:	4b6c      	ldr	r3, [pc, #432]	; (24050b94 <init_winbond+0x1b4>)
240509e2:	b570      	push	{r4, r5, r6, lr}
240509e4:	789a      	ldrb	r2, [r3, #2]
240509e6:	b086      	sub	sp, #24
240509e8:	8819      	ldrh	r1, [r3, #0]
240509ea:	f88d 200a 	strb.w	r2, [sp, #10]
240509ee:	795a      	ldrb	r2, [r3, #5]
240509f0:	f8ad 1008 	strh.w	r1, [sp, #8]
240509f4:	f88d 200e 	strb.w	r2, [sp, #14]
240509f8:	f8b3 1003 	ldrh.w	r1, [r3, #3]
240509fc:	7a1a      	ldrb	r2, [r3, #8]
240509fe:	f8ad 100c 	strh.w	r1, [sp, #12]
24050a02:	f88d 2012 	strb.w	r2, [sp, #18]
24050a06:	88d9      	ldrh	r1, [r3, #6]
24050a08:	f8b3 2009 	ldrh.w	r2, [r3, #9]
24050a0c:	4c62      	ldr	r4, [pc, #392]	; (24050b98 <init_winbond+0x1b8>)
24050a0e:	7adb      	ldrb	r3, [r3, #11]
24050a10:	f8ad 1010 	strh.w	r1, [sp, #16]
24050a14:	2100      	movs	r1, #0
24050a16:	f88d 3016 	strb.w	r3, [sp, #22]
24050a1a:	68a3      	ldr	r3, [r4, #8]
24050a1c:	f8ad 2014 	strh.w	r2, [sp, #20]
24050a20:	f10d 0205 	add.w	r2, sp, #5
24050a24:	6818      	ldr	r0, [r3, #0]
24050a26:	7d1d      	ldrb	r5, [r3, #20]
24050a28:	2301      	movs	r3, #1
24050a2a:	3003      	adds	r0, #3
24050a2c:	f7ff fe22 	bl	24050674 <OSPI_ReadBytes>
24050a30:	2301      	movs	r3, #1
24050a32:	f10d 0206 	add.w	r2, sp, #6
24050a36:	2100      	movs	r1, #0
24050a38:	a802      	add	r0, sp, #8
24050a3a:	f7ff fe1b 	bl	24050674 <OSPI_ReadBytes>
24050a3e:	2301      	movs	r3, #1
24050a40:	f10d 0207 	add.w	r2, sp, #7
24050a44:	2100      	movs	r1, #0
24050a46:	a803      	add	r0, sp, #12
24050a48:	f7ff fe14 	bl	24050674 <OSPI_ReadBytes>
24050a4c:	f89d 3007 	ldrb.w	r3, [sp, #7]
24050a50:	f89d 2006 	ldrb.w	r2, [sp, #6]
24050a54:	f89d 1005 	ldrb.w	r1, [sp, #5]
24050a58:	4850      	ldr	r0, [pc, #320]	; (24050b9c <init_winbond+0x1bc>)
24050a5a:	f008 fb93 	bl	24059184 <iprintf>
24050a5e:	f89d 3005 	ldrb.w	r3, [sp, #5]
24050a62:	f013 0ffc 	tst.w	r3, #252	; 0xfc
24050a66:	d026      	beq.n	24050ab6 <init_winbond+0xd6>
24050a68:	2600      	movs	r6, #0
24050a6a:	484d      	ldr	r0, [pc, #308]	; (24050ba0 <init_winbond+0x1c0>)
24050a6c:	f008 fbf0 	bl	24059250 <puts>
24050a70:	f88d 6005 	strb.w	r6, [sp, #5]
24050a74:	f7ff fece 	bl	24050814 <OSPI_NOR_WriteEnable>
24050a78:	68a0      	ldr	r0, [r4, #8]
24050a7a:	2301      	movs	r3, #1
24050a7c:	f10d 0205 	add.w	r2, sp, #5
24050a80:	4631      	mov	r1, r6
24050a82:	6800      	ldr	r0, [r0, #0]
24050a84:	f7ff fe56 	bl	24050734 <OSPI_WriteBytes>
24050a88:	f44f 727a 	mov.w	r2, #1000	; 0x3e8
24050a8c:	4631      	mov	r1, r6
24050a8e:	2001      	movs	r0, #1
24050a90:	f7ff fe1e 	bl	240506d0 <wait_for_status>
24050a94:	68a3      	ldr	r3, [r4, #8]
24050a96:	4631      	mov	r1, r6
24050a98:	f10d 0205 	add.w	r2, sp, #5
24050a9c:	6818      	ldr	r0, [r3, #0]
24050a9e:	2301      	movs	r3, #1
24050aa0:	3003      	adds	r0, #3
24050aa2:	f7ff fde7 	bl	24050674 <OSPI_ReadBytes>
24050aa6:	f89d 1005 	ldrb.w	r1, [sp, #5]
24050aaa:	f011 0ffc 	tst.w	r1, #252	; 0xfc
24050aae:	d002      	beq.n	24050ab6 <init_winbond+0xd6>
24050ab0:	483c      	ldr	r0, [pc, #240]	; (24050ba4 <init_winbond+0x1c4>)
24050ab2:	f008 fb67 	bl	24059184 <iprintf>
24050ab6:	f89d 3006 	ldrb.w	r3, [sp, #6]
24050aba:	f013 0f41 	tst.w	r3, #65	; 0x41
24050abe:	d102      	bne.n	24050ac6 <init_winbond+0xe6>
24050ac0:	b37d      	cbz	r5, 24050b22 <init_winbond+0x142>
24050ac2:	0799      	lsls	r1, r3, #30
24050ac4:	d42d      	bmi.n	24050b22 <init_winbond+0x142>
24050ac6:	4838      	ldr	r0, [pc, #224]	; (24050ba8 <init_winbond+0x1c8>)
24050ac8:	f008 fbc2 	bl	24059250 <puts>
24050acc:	2300      	movs	r3, #0
24050ace:	f88d 3006 	strb.w	r3, [sp, #6]
24050ad2:	b12d      	cbz	r5, 24050ae0 <init_winbond+0x100>
24050ad4:	4835      	ldr	r0, [pc, #212]	; (24050bac <init_winbond+0x1cc>)
24050ad6:	f008 fbbb 	bl	24059250 <puts>
24050ada:	2302      	movs	r3, #2
24050adc:	f88d 3006 	strb.w	r3, [sp, #6]
24050ae0:	f7ff fe98 	bl	24050814 <OSPI_NOR_WriteEnable>
24050ae4:	2301      	movs	r3, #1
24050ae6:	f10d 0206 	add.w	r2, sp, #6
24050aea:	2100      	movs	r1, #0
24050aec:	a804      	add	r0, sp, #16
24050aee:	f7ff fe21 	bl	24050734 <OSPI_WriteBytes>
24050af2:	f44f 727a 	mov.w	r2, #1000	; 0x3e8
24050af6:	2100      	movs	r1, #0
24050af8:	2001      	movs	r0, #1
24050afa:	f7ff fde9 	bl	240506d0 <wait_for_status>
24050afe:	2100      	movs	r1, #0
24050b00:	2301      	movs	r3, #1
24050b02:	f10d 0206 	add.w	r2, sp, #6
24050b06:	a802      	add	r0, sp, #8
24050b08:	f7ff fdb4 	bl	24050674 <OSPI_ReadBytes>
24050b0c:	f89d 1006 	ldrb.w	r1, [sp, #6]
24050b10:	f011 0f41 	tst.w	r1, #65	; 0x41
24050b14:	d102      	bne.n	24050b1c <init_winbond+0x13c>
24050b16:	b125      	cbz	r5, 24050b22 <init_winbond+0x142>
24050b18:	078a      	lsls	r2, r1, #30
24050b1a:	d402      	bmi.n	24050b22 <init_winbond+0x142>
24050b1c:	4824      	ldr	r0, [pc, #144]	; (24050bb0 <init_winbond+0x1d0>)
24050b1e:	f008 fb31 	bl	24059184 <iprintf>
24050b22:	f89d 3007 	ldrb.w	r3, [sp, #7]
24050b26:	f003 0364 	and.w	r3, r3, #100	; 0x64
24050b2a:	2b40      	cmp	r3, #64	; 0x40
24050b2c:	d024      	beq.n	24050b78 <init_winbond+0x198>
24050b2e:	4821      	ldr	r0, [pc, #132]	; (24050bb4 <init_winbond+0x1d4>)
24050b30:	f008 fb28 	bl	24059184 <iprintf>
24050b34:	2340      	movs	r3, #64	; 0x40
24050b36:	f88d 3007 	strb.w	r3, [sp, #7]
24050b3a:	f7ff fe6b 	bl	24050814 <OSPI_NOR_WriteEnable>
24050b3e:	2301      	movs	r3, #1
24050b40:	f10d 0207 	add.w	r2, sp, #7
24050b44:	2100      	movs	r1, #0
24050b46:	a805      	add	r0, sp, #20
24050b48:	f7ff fdf4 	bl	24050734 <OSPI_WriteBytes>
24050b4c:	f44f 727a 	mov.w	r2, #1000	; 0x3e8
24050b50:	2100      	movs	r1, #0
24050b52:	2001      	movs	r0, #1
24050b54:	f7ff fdbc 	bl	240506d0 <wait_for_status>
24050b58:	2301      	movs	r3, #1
24050b5a:	2100      	movs	r1, #0
24050b5c:	f10d 0207 	add.w	r2, sp, #7
24050b60:	a803      	add	r0, sp, #12
24050b62:	f7ff fd87 	bl	24050674 <OSPI_ReadBytes>
24050b66:	f89d 1007 	ldrb.w	r1, [sp, #7]
24050b6a:	f001 0364 	and.w	r3, r1, #100	; 0x64
24050b6e:	2b40      	cmp	r3, #64	; 0x40
24050b70:	d002      	beq.n	24050b78 <init_winbond+0x198>
24050b72:	4811      	ldr	r0, [pc, #68]	; (24050bb8 <init_winbond+0x1d8>)
24050b74:	f008 fb06 	bl	24059184 <iprintf>
24050b78:	b155      	cbz	r5, 24050b90 <init_winbond+0x1b0>
24050b7a:	f89d 3006 	ldrb.w	r3, [sp, #6]
24050b7e:	079b      	lsls	r3, r3, #30
24050b80:	d406      	bmi.n	24050b90 <init_winbond+0x1b0>
24050b82:	480e      	ldr	r0, [pc, #56]	; (24050bbc <init_winbond+0x1dc>)
24050b84:	f008 fb64 	bl	24059250 <puts>
24050b88:	4b0d      	ldr	r3, [pc, #52]	; (24050bc0 <init_winbond+0x1e0>)
24050b8a:	60a3      	str	r3, [r4, #8]
24050b8c:	4b0d      	ldr	r3, [pc, #52]	; (24050bc4 <init_winbond+0x1e4>)
24050b8e:	60e3      	str	r3, [r4, #12]
24050b90:	b006      	add	sp, #24
24050b92:	bd70      	pop	{r4, r5, r6, pc}
24050b94:	2405a3a0 	.word	0x2405a3a0
24050b98:	20000010 	.word	0x20000010
24050b9c:	2405b4fa 	.word	0x2405b4fa
24050ba0:	2405b521 	.word	0x2405b521
24050ba4:	2405b53b 	.word	0x2405b53b
24050ba8:	2405b555 	.word	0x2405b555
24050bac:	2405b56f 	.word	0x2405b56f
24050bb0:	2405b586 	.word	0x2405b586
24050bb4:	2405b5a0 	.word	0x2405b5a0
24050bb8:	2405b5d8 	.word	0x2405b5d8
24050bbc:	2405b5f2 	.word	0x2405b5f2
24050bc0:	2405ba10 	.word	0x2405ba10
24050bc4:	2405b626 	.word	0x2405b626

24050bc8 <OSPI_Init>:
24050bc8:	b573      	push	{r0, r1, r4, r5, r6, lr}
24050bca:	4c31      	ldr	r4, [pc, #196]	; (24050c90 <OSPI_Init+0xc8>)
24050bcc:	68a3      	ldr	r3, [r4, #8]
24050bce:	6020      	str	r0, [r4, #0]
24050bd0:	6818      	ldr	r0, [r3, #0]
24050bd2:	2300      	movs	r3, #0
24050bd4:	3012      	adds	r0, #18
24050bd6:	461a      	mov	r2, r3
24050bd8:	4619      	mov	r1, r3
24050bda:	f7ff fdab 	bl	24050734 <OSPI_WriteBytes>
24050bde:	2002      	movs	r0, #2
24050be0:	f001 fea6 	bl	24052930 <HAL_Delay>
24050be4:	68a3      	ldr	r3, [r4, #8]
24050be6:	6818      	ldr	r0, [r3, #0]
24050be8:	2300      	movs	r3, #0
24050bea:	3015      	adds	r0, #21
24050bec:	461a      	mov	r2, r3
24050bee:	4619      	mov	r1, r3
24050bf0:	f7ff fda0 	bl	24050734 <OSPI_WriteBytes>
24050bf4:	2014      	movs	r0, #20
24050bf6:	f001 fe9b 	bl	24052930 <HAL_Delay>
24050bfa:	68a3      	ldr	r3, [r4, #8]
24050bfc:	1d22      	adds	r2, r4, #4
24050bfe:	2100      	movs	r1, #0
24050c00:	6818      	ldr	r0, [r3, #0]
24050c02:	2303      	movs	r3, #3
24050c04:	300f      	adds	r0, #15
24050c06:	f7ff fd35 	bl	24050674 <OSPI_ReadBytes>
24050c0a:	79a3      	ldrb	r3, [r4, #6]
24050c0c:	7962      	ldrb	r2, [r4, #5]
24050c0e:	7921      	ldrb	r1, [r4, #4]
24050c10:	4820      	ldr	r0, [pc, #128]	; (24050c94 <OSPI_Init+0xcc>)
24050c12:	f008 fab7 	bl	24059184 <iprintf>
24050c16:	6863      	ldr	r3, [r4, #4]
24050c18:	f06f 427f 	mvn.w	r2, #4278190080	; 0xff000000
24050c1c:	f023 437f 	bic.w	r3, r3, #4278190080	; 0xff000000
24050c20:	4293      	cmp	r3, r2
24050c22:	d000      	beq.n	24050c26 <OSPI_Init+0x5e>
24050c24:	b933      	cbnz	r3, 24050c34 <OSPI_Init+0x6c>
24050c26:	4b1c      	ldr	r3, [pc, #112]	; (24050c98 <OSPI_Init+0xd0>)
24050c28:	f240 3149 	movw	r1, #841	; 0x349
24050c2c:	4a1b      	ldr	r2, [pc, #108]	; (24050c9c <OSPI_Init+0xd4>)
24050c2e:	481c      	ldr	r0, [pc, #112]	; (24050ca0 <OSPI_Init+0xd8>)
24050c30:	f008 f94a 	bl	24058ec8 <__assert_func>
24050c34:	68a3      	ldr	r3, [r4, #8]
24050c36:	f10d 0207 	add.w	r2, sp, #7
24050c3a:	2100      	movs	r1, #0
24050c3c:	260c      	movs	r6, #12
24050c3e:	6818      	ldr	r0, [r3, #0]
24050c40:	2301      	movs	r3, #1
24050c42:	3003      	adds	r0, #3
24050c44:	f7ff fd16 	bl	24050674 <OSPI_ReadBytes>
24050c48:	f89d 1007 	ldrb.w	r1, [sp, #7]
24050c4c:	4815      	ldr	r0, [pc, #84]	; (24050ca4 <OSPI_Init+0xdc>)
24050c4e:	f008 fa99 	bl	24059184 <iprintf>
24050c52:	6865      	ldr	r5, [r4, #4]
24050c54:	2200      	movs	r2, #0
24050c56:	4b14      	ldr	r3, [pc, #80]	; (24050ca8 <OSPI_Init+0xe0>)
24050c58:	fb06 f002 	mul.w	r0, r6, r2
24050c5c:	58c1      	ldr	r1, [r0, r3]
24050c5e:	4069      	eors	r1, r5
24050c60:	f031 417f 	bics.w	r1, r1, #4278190080	; 0xff000000
24050c64:	d10f      	bne.n	24050c86 <OSPI_Init+0xbe>
24050c66:	4403      	add	r3, r0
24050c68:	4810      	ldr	r0, [pc, #64]	; (24050cac <OSPI_Init+0xe4>)
24050c6a:	689a      	ldr	r2, [r3, #8]
24050c6c:	6859      	ldr	r1, [r3, #4]
24050c6e:	60a2      	str	r2, [r4, #8]
24050c70:	60e1      	str	r1, [r4, #12]
24050c72:	f008 fa87 	bl	24059184 <iprintf>
24050c76:	68a3      	ldr	r3, [r4, #8]
24050c78:	699b      	ldr	r3, [r3, #24]
24050c7a:	b103      	cbz	r3, 24050c7e <OSPI_Init+0xb6>
24050c7c:	4798      	blx	r3
24050c7e:	f7ff fd89 	bl	24050794 <OSPI_EnableMemoryMappedMode>
24050c82:	b002      	add	sp, #8
24050c84:	bd70      	pop	{r4, r5, r6, pc}
24050c86:	3201      	adds	r2, #1
24050c88:	2a11      	cmp	r2, #17
24050c8a:	d1e5      	bne.n	24050c58 <OSPI_Init+0x90>
24050c8c:	e7f3      	b.n	24050c76 <OSPI_Init+0xae>
24050c8e:	bf00      	nop
24050c90:	20000010 	.word	0x20000010
24050c94:	2405b632 	.word	0x2405b632
24050c98:	2405b64c 	.word	0x2405b64c
24050c9c:	2405b770 	.word	0x2405b770
24050ca0:	2405b431 	.word	0x2405b431
24050ca4:	2405b488 	.word	0x2405b488
24050ca8:	2405ba44 	.word	0x2405ba44
24050cac:	2405b696 	.word	0x2405b696

24050cb0 <lcd_backlight_set>:
24050cb0:	b537      	push	{r0, r1, r2, r4, r5, lr}
24050cb2:	4c12      	ldr	r4, [pc, #72]	; (24050cfc <lcd_backlight_set+0x4c>)
24050cb4:	4603      	mov	r3, r0
24050cb6:	4d12      	ldr	r5, [pc, #72]	; (24050d00 <lcd_backlight_set+0x50>)
24050cb8:	2208      	movs	r2, #8
24050cba:	9001      	str	r0, [sp, #4]
24050cbc:	2100      	movs	r1, #0
24050cbe:	4620      	mov	r0, r4
24050cc0:	f002 fe40 	bl	24053944 <HAL_DAC_SetValue>
24050cc4:	9b01      	ldr	r3, [sp, #4]
24050cc6:	2208      	movs	r2, #8
24050cc8:	2110      	movs	r1, #16
24050cca:	4620      	mov	r0, r4
24050ccc:	f002 fe3a 	bl	24053944 <HAL_DAC_SetValue>
24050cd0:	9b01      	ldr	r3, [sp, #4]
24050cd2:	2208      	movs	r2, #8
24050cd4:	2100      	movs	r1, #0
24050cd6:	4628      	mov	r0, r5
24050cd8:	f002 fe34 	bl	24053944 <HAL_DAC_SetValue>
24050cdc:	2100      	movs	r1, #0
24050cde:	4620      	mov	r0, r4
24050ce0:	f002 fe07 	bl	240538f2 <HAL_DAC_Start>
24050ce4:	2110      	movs	r1, #16
24050ce6:	4620      	mov	r0, r4
24050ce8:	f002 fe03 	bl	240538f2 <HAL_DAC_Start>
24050cec:	2100      	movs	r1, #0
24050cee:	4628      	mov	r0, r5
24050cf0:	b003      	add	sp, #12
24050cf2:	e8bd 4030 	ldmia.w	sp!, {r4, r5, lr}
24050cf6:	f002 bdfc 	b.w	240538f2 <HAL_DAC_Start>
24050cfa:	bf00      	nop
24050cfc:	20000270 	.word	0x20000270
24050d00:	20000284 	.word	0x20000284

24050d04 <lcd_init>:
24050d04:	b5f8      	push	{r3, r4, r5, r6, r7, lr}
24050d06:	4e9e      	ldr	r6, [pc, #632]	; (24050f80 <lcd_init+0x27c>)
24050d08:	4605      	mov	r5, r0
24050d0a:	460f      	mov	r7, r1
24050d0c:	2200      	movs	r2, #0
24050d0e:	2102      	movs	r1, #2
24050d10:	4630      	mov	r0, r6
24050d12:	4c9c      	ldr	r4, [pc, #624]	; (24050f84 <lcd_init+0x280>)
24050d14:	f004 f8a8 	bl	24054e68 <HAL_GPIO_WritePin>
24050d18:	2001      	movs	r0, #1
24050d1a:	f001 fe09 	bl	24052930 <HAL_Delay>
24050d1e:	4630      	mov	r0, r6
24050d20:	2201      	movs	r2, #1
24050d22:	2110      	movs	r1, #16
24050d24:	f004 f8a0 	bl	24054e68 <HAL_GPIO_WritePin>
24050d28:	2201      	movs	r2, #1
24050d2a:	f44f 5180 	mov.w	r1, #4096	; 0x1000
24050d2e:	4620      	mov	r0, r4
24050d30:	f004 f89a 	bl	24054e68 <HAL_GPIO_WritePin>
24050d34:	2007      	movs	r0, #7
24050d36:	f001 fdfb 	bl	24052930 <HAL_Delay>
24050d3a:	2201      	movs	r2, #1
24050d3c:	f44f 7180 	mov.w	r1, #256	; 0x100
24050d40:	4630      	mov	r0, r6
24050d42:	f004 f891 	bl	24054e68 <HAL_GPIO_WritePin>
24050d46:	2002      	movs	r0, #2
24050d48:	f001 fdf2 	bl	24052930 <HAL_Delay>
24050d4c:	2200      	movs	r2, #0
24050d4e:	f44f 7180 	mov.w	r1, #256	; 0x100
24050d52:	4630      	mov	r0, r6
24050d54:	f004 f888 	bl	24054e68 <HAL_GPIO_WritePin>
24050d58:	2002      	movs	r0, #2
24050d5a:	f001 fde9 	bl	24052930 <HAL_Delay>
24050d5e:	2201      	movs	r2, #1
24050d60:	f44f 7180 	mov.w	r1, #256	; 0x100
24050d64:	4630      	mov	r0, r6
24050d66:	f004 f87f 	bl	24054e68 <HAL_GPIO_WritePin>
24050d6a:	200a      	movs	r0, #10
24050d6c:	f001 fde0 	bl	24052930 <HAL_Delay>
24050d70:	2200      	movs	r2, #0
24050d72:	f44f 5180 	mov.w	r1, #4096	; 0x1000
24050d76:	4620      	mov	r0, r4
24050d78:	f004 f876 	bl	24054e68 <HAL_GPIO_WritePin>
24050d7c:	202d      	movs	r0, #45	; 0x2d
24050d7e:	f001 fdd7 	bl	24052930 <HAL_Delay>
24050d82:	2364      	movs	r3, #100	; 0x64
24050d84:	2202      	movs	r2, #2
24050d86:	4980      	ldr	r1, [pc, #512]	; (24050f88 <lcd_init+0x284>)
24050d88:	4628      	mov	r0, r5
24050d8a:	4e80      	ldr	r6, [pc, #512]	; (24050f8c <lcd_init+0x288>)
24050d8c:	f007 fcd6 	bl	2405873c <HAL_SPI_Transmit>
24050d90:	2002      	movs	r0, #2
24050d92:	f001 fdcd 	bl	24052930 <HAL_Delay>
24050d96:	4620      	mov	r0, r4
24050d98:	2201      	movs	r2, #1
24050d9a:	f44f 5180 	mov.w	r1, #4096	; 0x1000
24050d9e:	f004 f863 	bl	24054e68 <HAL_GPIO_WritePin>
24050da2:	2200      	movs	r2, #0
24050da4:	f44f 5180 	mov.w	r1, #4096	; 0x1000
24050da8:	4620      	mov	r0, r4
24050daa:	f004 f85d 	bl	24054e68 <HAL_GPIO_WritePin>
24050dae:	2002      	movs	r0, #2
24050db0:	f001 fdbe 	bl	24052930 <HAL_Delay>
24050db4:	2364      	movs	r3, #100	; 0x64
24050db6:	2202      	movs	r2, #2
24050db8:	4975      	ldr	r1, [pc, #468]	; (24050f90 <lcd_init+0x28c>)
24050dba:	4628      	mov	r0, r5
24050dbc:	f007 fcbe 	bl	2405873c <HAL_SPI_Transmit>
24050dc0:	2002      	movs	r0, #2
24050dc2:	f001 fdb5 	bl	24052930 <HAL_Delay>
24050dc6:	4620      	mov	r0, r4
24050dc8:	2201      	movs	r2, #1
24050dca:	f44f 5180 	mov.w	r1, #4096	; 0x1000
24050dce:	f004 f84b 	bl	24054e68 <HAL_GPIO_WritePin>
24050dd2:	2200      	movs	r2, #0
24050dd4:	f44f 5180 	mov.w	r1, #4096	; 0x1000
24050dd8:	4620      	mov	r0, r4
24050dda:	f004 f845 	bl	24054e68 <HAL_GPIO_WritePin>
24050dde:	2002      	movs	r0, #2
24050de0:	f001 fda6 	bl	24052930 <HAL_Delay>
24050de4:	2364      	movs	r3, #100	; 0x64
24050de6:	2202      	movs	r2, #2
24050de8:	496a      	ldr	r1, [pc, #424]	; (24050f94 <lcd_init+0x290>)
24050dea:	4628      	mov	r0, r5
24050dec:	f007 fca6 	bl	2405873c <HAL_SPI_Transmit>
24050df0:	2002      	movs	r0, #2
24050df2:	f001 fd9d 	bl	24052930 <HAL_Delay>
24050df6:	4620      	mov	r0, r4
24050df8:	2201      	movs	r2, #1
24050dfa:	f44f 5180 	mov.w	r1, #4096	; 0x1000
24050dfe:	f004 f833 	bl	24054e68 <HAL_GPIO_WritePin>
24050e02:	2200      	movs	r2, #0
24050e04:	f44f 5180 	mov.w	r1, #4096	; 0x1000
24050e08:	4620      	mov	r0, r4
24050e0a:	f004 f82d 	bl	24054e68 <HAL_GPIO_WritePin>
24050e0e:	2002      	movs	r0, #2
24050e10:	f001 fd8e 	bl	24052930 <HAL_Delay>
24050e14:	2364      	movs	r3, #100	; 0x64
24050e16:	4631      	mov	r1, r6
24050e18:	2202      	movs	r2, #2
24050e1a:	4628      	mov	r0, r5
24050e1c:	f007 fc8e 	bl	2405873c <HAL_SPI_Transmit>
24050e20:	2002      	movs	r0, #2
24050e22:	f001 fd85 	bl	24052930 <HAL_Delay>
24050e26:	4620      	mov	r0, r4
24050e28:	2201      	movs	r2, #1
24050e2a:	f44f 5180 	mov.w	r1, #4096	; 0x1000
24050e2e:	f004 f81b 	bl	24054e68 <HAL_GPIO_WritePin>
24050e32:	2200      	movs	r2, #0
24050e34:	f44f 5180 	mov.w	r1, #4096	; 0x1000
24050e38:	4620      	mov	r0, r4
24050e3a:	f004 f815 	bl	24054e68 <HAL_GPIO_WritePin>
24050e3e:	2002      	movs	r0, #2
24050e40:	f001 fd76 	bl	24052930 <HAL_Delay>
24050e44:	2364      	movs	r3, #100	; 0x64
24050e46:	1cf1      	adds	r1, r6, #3
24050e48:	2202      	movs	r2, #2
24050e4a:	4628      	mov	r0, r5
24050e4c:	f007 fc76 	bl	2405873c <HAL_SPI_Transmit>
24050e50:	2002      	movs	r0, #2
24050e52:	f001 fd6d 	bl	24052930 <HAL_Delay>
24050e56:	4620      	mov	r0, r4
24050e58:	2201      	movs	r2, #1
24050e5a:	f44f 5180 	mov.w	r1, #4096	; 0x1000
24050e5e:	f004 f803 	bl	24054e68 <HAL_GPIO_WritePin>
24050e62:	2200      	movs	r2, #0
24050e64:	f44f 5180 	mov.w	r1, #4096	; 0x1000
24050e68:	4620      	mov	r0, r4
24050e6a:	f003 fffd 	bl	24054e68 <HAL_GPIO_WritePin>
24050e6e:	2002      	movs	r0, #2
24050e70:	f001 fd5e 	bl	24052930 <HAL_Delay>
24050e74:	2364      	movs	r3, #100	; 0x64
24050e76:	1db1      	adds	r1, r6, #6
24050e78:	2202      	movs	r2, #2
24050e7a:	4628      	mov	r0, r5
24050e7c:	f007 fc5e 	bl	2405873c <HAL_SPI_Transmit>
24050e80:	2002      	movs	r0, #2
24050e82:	f001 fd55 	bl	24052930 <HAL_Delay>
24050e86:	4620      	mov	r0, r4
24050e88:	2201      	movs	r2, #1
24050e8a:	f44f 5180 	mov.w	r1, #4096	; 0x1000
24050e8e:	f003 ffeb 	bl	24054e68 <HAL_GPIO_WritePin>
24050e92:	2200      	movs	r2, #0
24050e94:	f44f 5180 	mov.w	r1, #4096	; 0x1000
24050e98:	4620      	mov	r0, r4
24050e9a:	f003 ffe5 	bl	24054e68 <HAL_GPIO_WritePin>
24050e9e:	2002      	movs	r0, #2
24050ea0:	f001 fd46 	bl	24052930 <HAL_Delay>
24050ea4:	2364      	movs	r3, #100	; 0x64
24050ea6:	f106 0109 	add.w	r1, r6, #9
24050eaa:	2202      	movs	r2, #2
24050eac:	4628      	mov	r0, r5
24050eae:	f007 fc45 	bl	2405873c <HAL_SPI_Transmit>
24050eb2:	2002      	movs	r0, #2
24050eb4:	f001 fd3c 	bl	24052930 <HAL_Delay>
24050eb8:	4620      	mov	r0, r4
24050eba:	2201      	movs	r2, #1
24050ebc:	f44f 5180 	mov.w	r1, #4096	; 0x1000
24050ec0:	f003 ffd2 	bl	24054e68 <HAL_GPIO_WritePin>
24050ec4:	2200      	movs	r2, #0
24050ec6:	f44f 5180 	mov.w	r1, #4096	; 0x1000
24050eca:	4620      	mov	r0, r4
24050ecc:	f003 ffcc 	bl	24054e68 <HAL_GPIO_WritePin>
24050ed0:	2002      	movs	r0, #2
24050ed2:	f001 fd2d 	bl	24052930 <HAL_Delay>
24050ed6:	2364      	movs	r3, #100	; 0x64
24050ed8:	2202      	movs	r2, #2
24050eda:	492f      	ldr	r1, [pc, #188]	; (24050f98 <lcd_init+0x294>)
24050edc:	4628      	mov	r0, r5
24050ede:	f007 fc2d 	bl	2405873c <HAL_SPI_Transmit>
24050ee2:	2002      	movs	r0, #2
24050ee4:	f001 fd24 	bl	24052930 <HAL_Delay>
24050ee8:	4620      	mov	r0, r4
24050eea:	2201      	movs	r2, #1
24050eec:	f44f 5180 	mov.w	r1, #4096	; 0x1000
24050ef0:	f003 ffba 	bl	24054e68 <HAL_GPIO_WritePin>
24050ef4:	2200      	movs	r2, #0
24050ef6:	f44f 5180 	mov.w	r1, #4096	; 0x1000
24050efa:	4620      	mov	r0, r4
24050efc:	f003 ffb4 	bl	24054e68 <HAL_GPIO_WritePin>
24050f00:	2002      	movs	r0, #2
24050f02:	f001 fd15 	bl	24052930 <HAL_Delay>
24050f06:	2364      	movs	r3, #100	; 0x64
24050f08:	f106 010c 	add.w	r1, r6, #12
24050f0c:	2202      	movs	r2, #2
24050f0e:	4628      	mov	r0, r5
24050f10:	f007 fc14 	bl	2405873c <HAL_SPI_Transmit>
24050f14:	2002      	movs	r0, #2
24050f16:	f001 fd0b 	bl	24052930 <HAL_Delay>
24050f1a:	4620      	mov	r0, r4
24050f1c:	2201      	movs	r2, #1
24050f1e:	f44f 5180 	mov.w	r1, #4096	; 0x1000
24050f22:	f003 ffa1 	bl	24054e68 <HAL_GPIO_WritePin>
24050f26:	2200      	movs	r2, #0
24050f28:	f44f 5180 	mov.w	r1, #4096	; 0x1000
24050f2c:	4620      	mov	r0, r4
24050f2e:	f003 ff9b 	bl	24054e68 <HAL_GPIO_WritePin>
24050f32:	2002      	movs	r0, #2
24050f34:	f001 fcfc 	bl	24052930 <HAL_Delay>
24050f38:	2364      	movs	r3, #100	; 0x64
24050f3a:	2202      	movs	r2, #2
24050f3c:	4917      	ldr	r1, [pc, #92]	; (24050f9c <lcd_init+0x298>)
24050f3e:	4628      	mov	r0, r5
24050f40:	f007 fbfc 	bl	2405873c <HAL_SPI_Transmit>
24050f44:	2002      	movs	r0, #2
24050f46:	f001 fcf3 	bl	24052930 <HAL_Delay>
24050f4a:	4620      	mov	r0, r4
24050f4c:	4c14      	ldr	r4, [pc, #80]	; (24050fa0 <lcd_init+0x29c>)
24050f4e:	2201      	movs	r2, #1
24050f50:	f44f 5180 	mov.w	r1, #4096	; 0x1000
24050f54:	f003 ff88 	bl	24054e68 <HAL_GPIO_WritePin>
24050f58:	4621      	mov	r1, r4
24050f5a:	2200      	movs	r2, #0
24050f5c:	4638      	mov	r0, r7
24050f5e:	f004 f90f 	bl	24055180 <HAL_LTDC_SetAddress>
24050f62:	f44f 3216 	mov.w	r2, #153600	; 0x25800
24050f66:	2100      	movs	r1, #0
24050f68:	6820      	ldr	r0, [r4, #0]
24050f6a:	f008 fa8b 	bl	24059484 <memset>
24050f6e:	4b0d      	ldr	r3, [pc, #52]	; (24050fa4 <lcd_init+0x2a0>)
24050f70:	f44f 3216 	mov.w	r2, #153600	; 0x25800
24050f74:	2100      	movs	r1, #0
24050f76:	6818      	ldr	r0, [r3, #0]
24050f78:	e8bd 40f8 	ldmia.w	sp!, {r3, r4, r5, r6, r7, lr}
24050f7c:	f008 ba82 	b.w	24059484 <memset>
24050f80:	58020c00 	.word	0x58020c00
24050f84:	58020400 	.word	0x58020400
24050f88:	2405bb10 	.word	0x2405bb10
24050f8c:	2405a3ac 	.word	0x2405a3ac
24050f90:	2405bb13 	.word	0x2405bb13
24050f94:	2405bb16 	.word	0x2405bb16
24050f98:	2405bb19 	.word	0x2405bb19
24050f9c:	2405bb1c 	.word	0x2405bb1c
24050fa0:	20000024 	.word	0x20000024
24050fa4:	20000028 	.word	0x20000028

24050fa8 <HAL_LTDC_ReloadEventCallback>:
24050fa8:	4a06      	ldr	r2, [pc, #24]	; (24050fc4 <HAL_LTDC_ReloadEventCallback+0x1c>)
24050faa:	6813      	ldr	r3, [r2, #0]
24050fac:	3301      	adds	r3, #1
24050fae:	6013      	str	r3, [r2, #0]
24050fb0:	4b05      	ldr	r3, [pc, #20]	; (24050fc8 <HAL_LTDC_ReloadEventCallback+0x20>)
24050fb2:	681a      	ldr	r2, [r3, #0]
24050fb4:	b91a      	cbnz	r2, 24050fbe <HAL_LTDC_ReloadEventCallback+0x16>
24050fb6:	4b05      	ldr	r3, [pc, #20]	; (24050fcc <HAL_LTDC_ReloadEventCallback+0x24>)
24050fb8:	6819      	ldr	r1, [r3, #0]
24050fba:	f004 b8e1 	b.w	24055180 <HAL_LTDC_SetAddress>
24050fbe:	2200      	movs	r2, #0
24050fc0:	4b03      	ldr	r3, [pc, #12]	; (24050fd0 <HAL_LTDC_ReloadEventCallback+0x28>)
24050fc2:	e7f9      	b.n	24050fb8 <HAL_LTDC_ReloadEventCallback+0x10>
24050fc4:	200000e0 	.word	0x200000e0
24050fc8:	200000dc 	.word	0x200000dc
24050fcc:	20000028 	.word	0x20000028
24050fd0:	20000024 	.word	0x20000024

24050fd4 <lcd_swap>:
24050fd4:	b508      	push	{r3, lr}
24050fd6:	2102      	movs	r1, #2
24050fd8:	4804      	ldr	r0, [pc, #16]	; (24050fec <lcd_swap+0x18>)
24050fda:	f004 f8f1 	bl	240551c0 <HAL_LTDC_Reload>
24050fde:	4a04      	ldr	r2, [pc, #16]	; (24050ff0 <lcd_swap+0x1c>)
24050fe0:	6813      	ldr	r3, [r2, #0]
24050fe2:	fab3 f383 	clz	r3, r3
24050fe6:	095b      	lsrs	r3, r3, #5
24050fe8:	6013      	str	r3, [r2, #0]
24050fea:	bd08      	pop	{r3, pc}
24050fec:	20000378 	.word	0x20000378
24050ff0:	200000dc 	.word	0x200000dc

24050ff4 <lcd_get_active_buffer>:
24050ff4:	4b03      	ldr	r3, [pc, #12]	; (24051004 <lcd_get_active_buffer+0x10>)
24050ff6:	681b      	ldr	r3, [r3, #0]
24050ff8:	b113      	cbz	r3, 24051000 <lcd_get_active_buffer+0xc>
24050ffa:	4b03      	ldr	r3, [pc, #12]	; (24051008 <lcd_get_active_buffer+0x14>)
24050ffc:	6818      	ldr	r0, [r3, #0]
24050ffe:	4770      	bx	lr
24051000:	4b02      	ldr	r3, [pc, #8]	; (2405100c <lcd_get_active_buffer+0x18>)
24051002:	e7fb      	b.n	24050ffc <lcd_get_active_buffer+0x8>
24051004:	200000dc 	.word	0x200000dc
24051008:	20000028 	.word	0x20000028
2405100c:	20000024 	.word	0x20000024

24051010 <lcd_get_inactive_buffer>:
24051010:	4b03      	ldr	r3, [pc, #12]	; (24051020 <lcd_get_inactive_buffer+0x10>)
24051012:	681b      	ldr	r3, [r3, #0]
24051014:	b113      	cbz	r3, 2405101c <lcd_get_inactive_buffer+0xc>
24051016:	4b03      	ldr	r3, [pc, #12]	; (24051024 <lcd_get_inactive_buffer+0x14>)
24051018:	6818      	ldr	r0, [r3, #0]
2405101a:	4770      	bx	lr
2405101c:	4b02      	ldr	r3, [pc, #8]	; (24051028 <lcd_get_inactive_buffer+0x18>)
2405101e:	e7fb      	b.n	24051018 <lcd_get_inactive_buffer+0x8>
24051020:	200000dc 	.word	0x200000dc
24051024:	20000024 	.word	0x20000024
24051028:	20000028 	.word	0x20000028

2405102c <lcd_sync>:
2405102c:	b508      	push	{r3, lr}
2405102e:	f7ff ffe1 	bl	24050ff4 <lcd_get_active_buffer>
24051032:	4601      	mov	r1, r0
24051034:	f7ff ffec 	bl	24051010 <lcd_get_inactive_buffer>
24051038:	4281      	cmp	r1, r0
2405103a:	d005      	beq.n	24051048 <lcd_sync+0x1c>
2405103c:	f44f 3216 	mov.w	r2, #153600	; 0x25800
24051040:	e8bd 4008 	ldmia.w	sp!, {r3, lr}
24051044:	f008 baa1 	b.w	2405958a <memcpy>
24051048:	bd08      	pop	{r3, pc}
	...

2405104c <lcd_wait_for_vblank>:
2405104c:	4b03      	ldr	r3, [pc, #12]	; (2405105c <lcd_wait_for_vblank+0x10>)
2405104e:	681a      	ldr	r2, [r3, #0]
24051050:	bf00      	nop
24051052:	6819      	ldr	r1, [r3, #0]
24051054:	4291      	cmp	r1, r2
24051056:	d0fb      	beq.n	24051050 <lcd_wait_for_vblank+0x4>
24051058:	4770      	bx	lr
2405105a:	bf00      	nop
2405105c:	200000e0 	.word	0x200000e0

24051060 <draw_score>:
24051060:	b537      	push	{r0, r1, r2, r4, r5, lr}
24051062:	4604      	mov	r4, r0
24051064:	4817      	ldr	r0, [pc, #92]	; (240510c4 <draw_score+0x64>)
24051066:	f000 f9e9 	bl	2405143c <LCD_SetFont>
2405106a:	4d17      	ldr	r5, [pc, #92]	; (240510c8 <draw_score+0x68>)
2405106c:	4b17      	ldr	r3, [pc, #92]	; (240510cc <draw_score+0x6c>)
2405106e:	4a18      	ldr	r2, [pc, #96]	; (240510d0 <draw_score+0x70>)
24051070:	4629      	mov	r1, r5
24051072:	4618      	mov	r0, r3
24051074:	6812      	ldr	r2, [r2, #0]
24051076:	f008 f8f3 	bl	24059260 <siprintf>
2405107a:	2203      	movs	r2, #3
2405107c:	4620      	mov	r0, r4
2405107e:	4b13      	ldr	r3, [pc, #76]	; (240510cc <draw_score+0x6c>)
24051080:	9200      	str	r2, [sp, #0]
24051082:	2100      	movs	r1, #0
24051084:	2204      	movs	r2, #4
24051086:	f000 fa47 	bl	24051518 <LCD_DisplayStringAt>
2405108a:	4b12      	ldr	r3, [pc, #72]	; (240510d4 <draw_score+0x74>)
2405108c:	4a12      	ldr	r2, [pc, #72]	; (240510d8 <draw_score+0x78>)
2405108e:	4629      	mov	r1, r5
24051090:	4618      	mov	r0, r3
24051092:	6812      	ldr	r2, [r2, #0]
24051094:	f008 f8e4 	bl	24059260 <siprintf>
24051098:	2102      	movs	r1, #2
2405109a:	2204      	movs	r2, #4
2405109c:	4620      	mov	r0, r4
2405109e:	9100      	str	r1, [sp, #0]
240510a0:	4b0c      	ldr	r3, [pc, #48]	; (240510d4 <draw_score+0x74>)
240510a2:	f000 fa39 	bl	24051518 <LCD_DisplayStringAt>
240510a6:	4b0d      	ldr	r3, [pc, #52]	; (240510dc <draw_score+0x7c>)
240510a8:	490d      	ldr	r1, [pc, #52]	; (240510e0 <draw_score+0x80>)
240510aa:	4618      	mov	r0, r3
240510ac:	f008 fa65 	bl	2405957a <strcpy>
240510b0:	2101      	movs	r1, #1
240510b2:	4603      	mov	r3, r0
240510b4:	2204      	movs	r2, #4
240510b6:	4620      	mov	r0, r4
240510b8:	9100      	str	r1, [sp, #0]
240510ba:	f000 fa2d 	bl	24051518 <LCD_DisplayStringAt>
240510be:	b003      	add	sp, #12
240510c0:	bd30      	pop	{r4, r5, pc}
240510c2:	bf00      	nop
240510c4:	20000008 	.word	0x20000008
240510c8:	2405bb1f 	.word	0x2405bb1f
240510cc:	200000f8 	.word	0x200000f8
240510d0:	200000f4 	.word	0x200000f4
240510d4:	20000104 	.word	0x20000104
240510d8:	20000100 	.word	0x20000100
240510dc:	2000010a 	.word	0x2000010a
240510e0:	2405bb22 	.word	0x2405bb22

240510e4 <draw_background>:
240510e4:	b537      	push	{r0, r1, r2, r4, r5, lr}
240510e6:	2100      	movs	r1, #0
240510e8:	4605      	mov	r5, r0
240510ea:	f000 f9b8 	bl	2405145e <LCD_Clear>
240510ee:	f000 f99f 	bl	24051430 <LCD_GetXSize>
240510f2:	4604      	mov	r4, r0
240510f4:	f000 f99f 	bl	24051436 <LCD_GetYSize>
240510f8:	f64f 72ff 	movw	r2, #65535	; 0xffff
240510fc:	1e63      	subs	r3, r4, #1
240510fe:	2100      	movs	r1, #0
24051100:	9201      	str	r2, [sp, #4]
24051102:	f1a0 0215 	sub.w	r2, r0, #21
24051106:	b29b      	uxth	r3, r3
24051108:	4628      	mov	r0, r5
2405110a:	b292      	uxth	r2, r2
2405110c:	9200      	str	r2, [sp, #0]
2405110e:	2214      	movs	r2, #20
24051110:	f000 fa65 	bl	240515de <LCD_DrawRect>
24051114:	4628      	mov	r0, r5
24051116:	b003      	add	sp, #12
24051118:	e8bd 4030 	ldmia.w	sp!, {r4, r5, lr}
2405111c:	f7ff bfa0 	b.w	24051060 <draw_score>

24051120 <game_init>:
24051120:	b508      	push	{r3, lr}
24051122:	f7ff ff67 	bl	24050ff4 <lcd_get_active_buffer>
24051126:	f7ff ffdd 	bl	240510e4 <draw_background>
2405112a:	f007 ff19 	bl	24058f60 <rand>
2405112e:	f1b0 4f80 	cmp.w	r0, #1073741824	; 0x40000000
24051132:	4b12      	ldr	r3, [pc, #72]	; (2405117c <game_init+0x5c>)
24051134:	bfac      	ite	ge
24051136:	f06f 0202 	mvnge.w	r2, #2
2405113a:	2203      	movlt	r2, #3
2405113c:	601a      	str	r2, [r3, #0]
2405113e:	f007 ff0f 	bl	24058f60 <rand>
24051142:	f1b0 4f80 	cmp.w	r0, #1073741824	; 0x40000000
24051146:	4b0e      	ldr	r3, [pc, #56]	; (24051180 <game_init+0x60>)
24051148:	bfac      	ite	ge
2405114a:	f06f 0202 	mvnge.w	r2, #2
2405114e:	2203      	movlt	r2, #3
24051150:	601a      	str	r2, [r3, #0]
24051152:	22a0      	movs	r2, #160	; 0xa0
24051154:	4b0b      	ldr	r3, [pc, #44]	; (24051184 <game_init+0x64>)
24051156:	601a      	str	r2, [r3, #0]
24051158:	f007 ff02 	bl	24058f60 <rand>
2405115c:	2379      	movs	r3, #121	; 0x79
2405115e:	fb90 f2f3 	sdiv	r2, r0, r3
24051162:	fb02 0013 	mls	r0, r2, r3, r0
24051166:	4b08      	ldr	r3, [pc, #32]	; (24051188 <game_init+0x68>)
24051168:	3046      	adds	r0, #70	; 0x46
2405116a:	6018      	str	r0, [r3, #0]
2405116c:	f7ff ff5e 	bl	2405102c <lcd_sync>
24051170:	f7ff ff30 	bl	24050fd4 <lcd_swap>
24051174:	e8bd 4008 	ldmia.w	sp!, {r3, lr}
24051178:	f7ff bf68 	b.w	2405104c <lcd_wait_for_vblank>
2405117c:	200000e8 	.word	0x200000e8
24051180:	200000f0 	.word	0x200000f0
24051184:	200000e4 	.word	0x200000e4
24051188:	200000ec 	.word	0x200000ec

2405118c <update_player>:
2405118c:	b5f7      	push	{r0, r1, r2, r4, r5, r6, r7, lr}
2405118e:	4606      	mov	r6, r0
24051190:	f7ff f9c4 	bl	2405051c <buttons_get>
24051194:	f010 0f02 	tst.w	r0, #2
24051198:	4605      	mov	r5, r0
2405119a:	4c1d      	ldr	r4, [pc, #116]	; (24051210 <update_player+0x84>)
2405119c:	d004      	beq.n	240511a8 <update_player+0x1c>
2405119e:	6823      	ldr	r3, [r4, #0]
240511a0:	2b17      	cmp	r3, #23
240511a2:	bfc4      	itt	gt
240511a4:	3b02      	subgt	r3, #2
240511a6:	6023      	strgt	r3, [r4, #0]
240511a8:	0728      	lsls	r0, r5, #28
240511aa:	d507      	bpl.n	240511bc <update_player+0x30>
240511ac:	f000 f943 	bl	24051436 <LCD_GetYSize>
240511b0:	6823      	ldr	r3, [r4, #0]
240511b2:	382b      	subs	r0, #43	; 0x2b
240511b4:	4298      	cmp	r0, r3
240511b6:	bfc4      	itt	gt
240511b8:	3302      	addgt	r3, #2
240511ba:	6023      	strgt	r3, [r4, #0]
240511bc:	f015 0f80 	tst.w	r5, #128	; 0x80
240511c0:	4f14      	ldr	r7, [pc, #80]	; (24051214 <update_player+0x88>)
240511c2:	d014      	beq.n	240511ee <update_player+0x62>
240511c4:	2300      	movs	r3, #0
240511c6:	4a14      	ldr	r2, [pc, #80]	; (24051218 <update_player+0x8c>)
240511c8:	f44f 719c 	mov.w	r1, #312	; 0x138
240511cc:	f44f 70fa 	mov.w	r0, #500	; 0x1f4
240511d0:	6013      	str	r3, [r2, #0]
240511d2:	4a12      	ldr	r2, [pc, #72]	; (2405121c <update_player+0x90>)
240511d4:	6013      	str	r3, [r2, #0]
240511d6:	2303      	movs	r3, #3
240511d8:	4a11      	ldr	r2, [pc, #68]	; (24051220 <update_player+0x94>)
240511da:	603b      	str	r3, [r7, #0]
240511dc:	236e      	movs	r3, #110	; 0x6e
240511de:	6011      	str	r1, [r2, #0]
240511e0:	4a10      	ldr	r2, [pc, #64]	; (24051224 <update_player+0x98>)
240511e2:	6023      	str	r3, [r4, #0]
240511e4:	6013      	str	r3, [r2, #0]
240511e6:	f001 fba3 	bl	24052930 <HAL_Delay>
240511ea:	f7ff ff99 	bl	24051120 <game_init>
240511ee:	05a9      	lsls	r1, r5, #22
240511f0:	d501      	bpl.n	240511f6 <update_player+0x6a>
240511f2:	f002 fb45 	bl	24053880 <HAL_NVIC_SystemReset>
240511f6:	2328      	movs	r3, #40	; 0x28
240511f8:	f64f 72ff 	movw	r2, #65535	; 0xffff
240511fc:	8839      	ldrh	r1, [r7, #0]
240511fe:	4630      	mov	r0, r6
24051200:	e9cd 3200 	strd	r3, r2, [sp]
24051204:	2305      	movs	r3, #5
24051206:	8822      	ldrh	r2, [r4, #0]
24051208:	f000 fa72 	bl	240516f0 <LCD_FillRect>
2405120c:	b003      	add	sp, #12
2405120e:	bdf0      	pop	{r4, r5, r6, r7, pc}
24051210:	20000030 	.word	0x20000030
24051214:	2000002c 	.word	0x2000002c
24051218:	200000f4 	.word	0x200000f4
2405121c:	20000100 	.word	0x20000100
24051220:	20000034 	.word	0x20000034
24051224:	20000038 	.word	0x20000038

24051228 <update_ball>:
24051228:	4b48      	ldr	r3, [pc, #288]	; (2405134c <update_ball+0x124>)
2405122a:	e92d 41f3 	stmdb	sp!, {r0, r1, r4, r5, r6, r7, r8, lr}
2405122e:	681b      	ldr	r3, [r3, #0]
24051230:	4604      	mov	r4, r0
24051232:	4e47      	ldr	r6, [pc, #284]	; (24051350 <update_ball+0x128>)
24051234:	330d      	adds	r3, #13
24051236:	4d47      	ldr	r5, [pc, #284]	; (24051354 <update_ball+0x12c>)
24051238:	6831      	ldr	r1, [r6, #0]
2405123a:	682a      	ldr	r2, [r5, #0]
2405123c:	428b      	cmp	r3, r1
2405123e:	f8df 8130 	ldr.w	r8, [pc, #304]	; 24051370 <update_ball+0x148>
24051242:	db28      	blt.n	24051296 <update_ball+0x6e>
24051244:	f8d8 3000 	ldr.w	r3, [r8]
24051248:	3303      	adds	r3, #3
2405124a:	d124      	bne.n	24051296 <update_ball+0x6e>
2405124c:	2303      	movs	r3, #3
2405124e:	f8c8 3000 	str.w	r3, [r8]
24051252:	4b41      	ldr	r3, [pc, #260]	; (24051358 <update_ball+0x130>)
24051254:	681b      	ldr	r3, [r3, #0]
24051256:	1e99      	subs	r1, r3, #2
24051258:	4291      	cmp	r1, r2
2405125a:	dc02      	bgt.n	24051262 <update_ball+0x3a>
2405125c:	332a      	adds	r3, #42	; 0x2a
2405125e:	4293      	cmp	r3, r2
24051260:	da19      	bge.n	24051296 <update_ball+0x6e>
24051262:	4a3e      	ldr	r2, [pc, #248]	; (2405135c <update_ball+0x134>)
24051264:	4620      	mov	r0, r4
24051266:	6813      	ldr	r3, [r2, #0]
24051268:	3301      	adds	r3, #1
2405126a:	6013      	str	r3, [r2, #0]
2405126c:	f7ff fef8 	bl	24051060 <draw_score>
24051270:	f44f 4378 	mov.w	r3, #63488	; 0xf800
24051274:	882a      	ldrh	r2, [r5, #0]
24051276:	8831      	ldrh	r1, [r6, #0]
24051278:	4620      	mov	r0, r4
2405127a:	9300      	str	r3, [sp, #0]
2405127c:	2308      	movs	r3, #8
2405127e:	f000 fa4a 	bl	24051716 <LCD_FillCircle>
24051282:	f7ff fea7 	bl	24050fd4 <lcd_swap>
24051286:	f7ff fee1 	bl	2405104c <lcd_wait_for_vblank>
2405128a:	f44f 707a 	mov.w	r0, #1000	; 0x3e8
2405128e:	f001 fb4f 	bl	24052930 <HAL_Delay>
24051292:	f7ff ff45 	bl	24051120 <game_init>
24051296:	4b32      	ldr	r3, [pc, #200]	; (24051360 <update_ball+0x138>)
24051298:	6831      	ldr	r1, [r6, #0]
2405129a:	681b      	ldr	r3, [r3, #0]
2405129c:	682a      	ldr	r2, [r5, #0]
2405129e:	3b09      	subs	r3, #9
240512a0:	428b      	cmp	r3, r1
240512a2:	dc29      	bgt.n	240512f8 <update_ball+0xd0>
240512a4:	f8d8 3000 	ldr.w	r3, [r8]
240512a8:	2b03      	cmp	r3, #3
240512aa:	d125      	bne.n	240512f8 <update_ball+0xd0>
240512ac:	f06f 0302 	mvn.w	r3, #2
240512b0:	f8c8 3000 	str.w	r3, [r8]
240512b4:	4b2b      	ldr	r3, [pc, #172]	; (24051364 <update_ball+0x13c>)
240512b6:	681b      	ldr	r3, [r3, #0]
240512b8:	1e99      	subs	r1, r3, #2
240512ba:	4291      	cmp	r1, r2
240512bc:	dc02      	bgt.n	240512c4 <update_ball+0x9c>
240512be:	332a      	adds	r3, #42	; 0x2a
240512c0:	4293      	cmp	r3, r2
240512c2:	da19      	bge.n	240512f8 <update_ball+0xd0>
240512c4:	4a28      	ldr	r2, [pc, #160]	; (24051368 <update_ball+0x140>)
240512c6:	4620      	mov	r0, r4
240512c8:	6813      	ldr	r3, [r2, #0]
240512ca:	3301      	adds	r3, #1
240512cc:	6013      	str	r3, [r2, #0]
240512ce:	f7ff fec7 	bl	24051060 <draw_score>
240512d2:	f44f 4378 	mov.w	r3, #63488	; 0xf800
240512d6:	882a      	ldrh	r2, [r5, #0]
240512d8:	8831      	ldrh	r1, [r6, #0]
240512da:	4620      	mov	r0, r4
240512dc:	9300      	str	r3, [sp, #0]
240512de:	2308      	movs	r3, #8
240512e0:	f000 fa19 	bl	24051716 <LCD_FillCircle>
240512e4:	f7ff fe76 	bl	24050fd4 <lcd_swap>
240512e8:	f7ff feb0 	bl	2405104c <lcd_wait_for_vblank>
240512ec:	f44f 707a 	mov.w	r0, #1000	; 0x3e8
240512f0:	f001 fb1e 	bl	24052930 <HAL_Delay>
240512f4:	f7ff ff14 	bl	24051120 <game_init>
240512f8:	682b      	ldr	r3, [r5, #0]
240512fa:	4f1c      	ldr	r7, [pc, #112]	; (2405136c <update_ball+0x144>)
240512fc:	2b1f      	cmp	r3, #31
240512fe:	dc04      	bgt.n	2405130a <update_ball+0xe2>
24051300:	683b      	ldr	r3, [r7, #0]
24051302:	3303      	adds	r3, #3
24051304:	bf04      	itt	eq
24051306:	2303      	moveq	r3, #3
24051308:	603b      	streq	r3, [r7, #0]
2405130a:	f000 f894 	bl	24051436 <LCD_GetYSize>
2405130e:	682a      	ldr	r2, [r5, #0]
24051310:	380b      	subs	r0, #11
24051312:	4290      	cmp	r0, r2
24051314:	dc05      	bgt.n	24051322 <update_ball+0xfa>
24051316:	683b      	ldr	r3, [r7, #0]
24051318:	2b03      	cmp	r3, #3
2405131a:	bf04      	itt	eq
2405131c:	f06f 0302 	mvneq.w	r3, #2
24051320:	603b      	streq	r3, [r7, #0]
24051322:	6831      	ldr	r1, [r6, #0]
24051324:	4620      	mov	r0, r4
24051326:	f8d8 3000 	ldr.w	r3, [r8]
2405132a:	4419      	add	r1, r3
2405132c:	683b      	ldr	r3, [r7, #0]
2405132e:	441a      	add	r2, r3
24051330:	f64f 73ff 	movw	r3, #65535	; 0xffff
24051334:	6031      	str	r1, [r6, #0]
24051336:	b289      	uxth	r1, r1
24051338:	602a      	str	r2, [r5, #0]
2405133a:	b292      	uxth	r2, r2
2405133c:	9300      	str	r3, [sp, #0]
2405133e:	2308      	movs	r3, #8
24051340:	f000 f9e9 	bl	24051716 <LCD_FillCircle>
24051344:	b002      	add	sp, #8
24051346:	e8bd 81f0 	ldmia.w	sp!, {r4, r5, r6, r7, r8, pc}
2405134a:	bf00      	nop
2405134c:	2000002c 	.word	0x2000002c
24051350:	200000e4 	.word	0x200000e4
24051354:	200000ec 	.word	0x200000ec
24051358:	20000030 	.word	0x20000030
2405135c:	20000100 	.word	0x20000100
24051360:	20000034 	.word	0x20000034
24051364:	20000038 	.word	0x20000038
24051368:	200000f4 	.word	0x200000f4
2405136c:	200000f0 	.word	0x200000f0
24051370:	200000e8 	.word	0x200000e8

24051374 <update_ai>:
24051374:	b537      	push	{r0, r1, r2, r4, r5, lr}
24051376:	4c13      	ldr	r4, [pc, #76]	; (240513c4 <update_ai+0x50>)
24051378:	4605      	mov	r5, r0
2405137a:	4a13      	ldr	r2, [pc, #76]	; (240513c8 <update_ai+0x54>)
2405137c:	6823      	ldr	r3, [r4, #0]
2405137e:	6812      	ldr	r2, [r2, #0]
24051380:	f103 0113 	add.w	r1, r3, #19
24051384:	4291      	cmp	r1, r2
24051386:	db03      	blt.n	24051390 <update_ai+0x1c>
24051388:	2b17      	cmp	r3, #23
2405138a:	bfc4      	itt	gt
2405138c:	3b02      	subgt	r3, #2
2405138e:	6023      	strgt	r3, [r4, #0]
24051390:	6823      	ldr	r3, [r4, #0]
24051392:	3314      	adds	r3, #20
24051394:	429a      	cmp	r2, r3
24051396:	dd07      	ble.n	240513a8 <update_ai+0x34>
24051398:	f000 f84d 	bl	24051436 <LCD_GetYSize>
2405139c:	6823      	ldr	r3, [r4, #0]
2405139e:	382b      	subs	r0, #43	; 0x2b
240513a0:	4298      	cmp	r0, r3
240513a2:	bfc4      	itt	gt
240513a4:	3302      	addgt	r3, #2
240513a6:	6023      	strgt	r3, [r4, #0]
240513a8:	2328      	movs	r3, #40	; 0x28
240513aa:	f64f 72ff 	movw	r2, #65535	; 0xffff
240513ae:	4907      	ldr	r1, [pc, #28]	; (240513cc <update_ai+0x58>)
240513b0:	4628      	mov	r0, r5
240513b2:	e9cd 3200 	strd	r3, r2, [sp]
240513b6:	2305      	movs	r3, #5
240513b8:	8822      	ldrh	r2, [r4, #0]
240513ba:	8809      	ldrh	r1, [r1, #0]
240513bc:	f000 f998 	bl	240516f0 <LCD_FillRect>
240513c0:	b003      	add	sp, #12
240513c2:	bd30      	pop	{r4, r5, pc}
240513c4:	20000038 	.word	0x20000038
240513c8:	200000ec 	.word	0x200000ec
240513cc:	20000034 	.word	0x20000034

240513d0 <game_loop>:
240513d0:	b510      	push	{r4, lr}
240513d2:	f7ff fe0f 	bl	24050ff4 <lcd_get_active_buffer>
240513d6:	4604      	mov	r4, r0
240513d8:	f7ff fe84 	bl	240510e4 <draw_background>
240513dc:	4620      	mov	r0, r4
240513de:	f7ff fed5 	bl	2405118c <update_player>
240513e2:	4620      	mov	r0, r4
240513e4:	f7ff ffc6 	bl	24051374 <update_ai>
240513e8:	4620      	mov	r0, r4
240513ea:	f7ff ff1d 	bl	24051228 <update_ball>
240513ee:	f7ff fdf1 	bl	24050fd4 <lcd_swap>
240513f2:	e8bd 4010 	ldmia.w	sp!, {r4, lr}
240513f6:	f7ff be29 	b.w	2405104c <lcd_wait_for_vblank>
	...

240513fc <FillBuffer>:
240513fc:	b530      	push	{r4, r5, lr}
240513fe:	4c0b      	ldr	r4, [pc, #44]	; (2405142c <FillBuffer+0x30>)
24051400:	f44f 3540 	mov.w	r5, #196608	; 0x30000
24051404:	ea42 4101 	orr.w	r1, r2, r1, lsl #16
24051408:	6025      	str	r5, [r4, #0]
2405140a:	f8bd 500c 	ldrh.w	r5, [sp, #12]
2405140e:	63a5      	str	r5, [r4, #56]	; 0x38
24051410:	63e0      	str	r0, [r4, #60]	; 0x3c
24051412:	6423      	str	r3, [r4, #64]	; 0x40
24051414:	2302      	movs	r3, #2
24051416:	6363      	str	r3, [r4, #52]	; 0x34
24051418:	6461      	str	r1, [r4, #68]	; 0x44
2405141a:	6823      	ldr	r3, [r4, #0]
2405141c:	f043 0301 	orr.w	r3, r3, #1
24051420:	6023      	str	r3, [r4, #0]
24051422:	6823      	ldr	r3, [r4, #0]
24051424:	07db      	lsls	r3, r3, #31
24051426:	d4fc      	bmi.n	24051422 <FillBuffer+0x26>
24051428:	bd30      	pop	{r4, r5, pc}
2405142a:	bf00      	nop
2405142c:	52001000 	.word	0x52001000

24051430 <LCD_GetXSize>:
24051430:	f44f 70a0 	mov.w	r0, #320	; 0x140
24051434:	4770      	bx	lr

24051436 <LCD_GetYSize>:
24051436:	20f0      	movs	r0, #240	; 0xf0
24051438:	4770      	bx	lr
	...

2405143c <LCD_SetFont>:
2405143c:	4b01      	ldr	r3, [pc, #4]	; (24051444 <LCD_SetFont+0x8>)
2405143e:	6018      	str	r0, [r3, #0]
24051440:	4770      	bx	lr
24051442:	bf00      	nop
24051444:	2000003c 	.word	0x2000003c

24051448 <LCD_DrawPixel>:
24051448:	b510      	push	{r4, lr}
2405144a:	f44f 74a0 	mov.w	r4, #320	; 0x140
2405144e:	fb04 1102 	mla	r1, r4, r2, r1
24051452:	f5b1 3f96 	cmp.w	r1, #76800	; 0x12c00
24051456:	bfd8      	it	le
24051458:	f820 3011 	strhle.w	r3, [r0, r1, lsl #1]
2405145c:	bd10      	pop	{r4, pc}

2405145e <LCD_Clear>:
2405145e:	b507      	push	{r0, r1, r2, lr}
24051460:	2300      	movs	r3, #0
24051462:	9100      	str	r1, [sp, #0]
24051464:	22f0      	movs	r2, #240	; 0xf0
24051466:	f44f 71a0 	mov.w	r1, #320	; 0x140
2405146a:	f7ff ffc7 	bl	240513fc <FillBuffer>
2405146e:	b003      	add	sp, #12
24051470:	f85d fb04 	ldr.w	pc, [sp], #4

24051474 <LCD_DisplayChar>:
24051474:	e92d 4ff7 	stmdb	sp!, {r0, r1, r2, r4, r5, r6, r7, r8, r9, sl, fp, lr}
24051478:	4693      	mov	fp, r2
2405147a:	4a24      	ldr	r2, [pc, #144]	; (2405150c <LCD_DisplayChar+0x98>)
2405147c:	3b20      	subs	r3, #32
2405147e:	9100      	str	r1, [sp, #0]
24051480:	6812      	ldr	r2, [r2, #0]
24051482:	f04f 0800 	mov.w	r8, #0
24051486:	f8b2 9004 	ldrh.w	r9, [r2, #4]
2405148a:	f8b2 a006 	ldrh.w	sl, [r2, #6]
2405148e:	f109 0607 	add.w	r6, r9, #7
24051492:	6815      	ldr	r5, [r2, #0]
24051494:	fb0a f303 	mul.w	r3, sl, r3
24051498:	10f6      	asrs	r6, r6, #3
2405149a:	ebc9 01c6 	rsb	r1, r9, r6, lsl #3
2405149e:	fb06 5503 	mla	r5, r6, r3, r5
240514a2:	f109 33ff 	add.w	r3, r9, #4294967295
240514a6:	fa53 f381 	uxtab	r3, r3, r1
240514aa:	9301      	str	r3, [sp, #4]
240514ac:	eb0b 0208 	add.w	r2, fp, r8
240514b0:	45d0      	cmp	r8, sl
240514b2:	b292      	uxth	r2, r2
240514b4:	d302      	bcc.n	240514bc <LCD_DisplayChar+0x48>
240514b6:	b003      	add	sp, #12
240514b8:	e8bd 8ff0 	ldmia.w	sp!, {r4, r5, r6, r7, r8, r9, sl, fp, pc}
240514bc:	2e01      	cmp	r6, #1
240514be:	782c      	ldrb	r4, [r5, #0]
240514c0:	d004      	beq.n	240514cc <LCD_DisplayChar+0x58>
240514c2:	2e02      	cmp	r6, #2
240514c4:	d109      	bne.n	240514da <LCD_DisplayChar+0x66>
240514c6:	882c      	ldrh	r4, [r5, #0]
240514c8:	ba64      	rev16	r4, r4
240514ca:	b2a4      	uxth	r4, r4
240514cc:	2700      	movs	r7, #0
240514ce:	45b9      	cmp	r9, r7
240514d0:	d80a      	bhi.n	240514e8 <LCD_DisplayChar+0x74>
240514d2:	f108 0801 	add.w	r8, r8, #1
240514d6:	4435      	add	r5, r6
240514d8:	e7e8      	b.n	240514ac <LCD_DisplayChar+0x38>
240514da:	786b      	ldrb	r3, [r5, #1]
240514dc:	0424      	lsls	r4, r4, #16
240514de:	ea44 2403 	orr.w	r4, r4, r3, lsl #8
240514e2:	78ab      	ldrb	r3, [r5, #2]
240514e4:	431c      	orrs	r4, r3
240514e6:	e7f1      	b.n	240514cc <LCD_DisplayChar+0x58>
240514e8:	9b00      	ldr	r3, [sp, #0]
240514ea:	19d9      	adds	r1, r3, r7
240514ec:	9b01      	ldr	r3, [sp, #4]
240514ee:	eba3 0c07 	sub.w	ip, r3, r7
240514f2:	2301      	movs	r3, #1
240514f4:	b289      	uxth	r1, r1
240514f6:	3701      	adds	r7, #1
240514f8:	fa03 f30c 	lsl.w	r3, r3, ip
240514fc:	4223      	tst	r3, r4
240514fe:	bf14      	ite	ne
24051500:	4b03      	ldrne	r3, [pc, #12]	; (24051510 <LCD_DisplayChar+0x9c>)
24051502:	4b04      	ldreq	r3, [pc, #16]	; (24051514 <LCD_DisplayChar+0xa0>)
24051504:	881b      	ldrh	r3, [r3, #0]
24051506:	f7ff ff9f 	bl	24051448 <LCD_DrawPixel>
2405150a:	e7e0      	b.n	240514ce <LCD_DisplayChar+0x5a>
2405150c:	2000003c 	.word	0x2000003c
24051510:	20000040 	.word	0x20000040
24051514:	2000020a 	.word	0x2000020a

24051518 <LCD_DisplayStringAt>:
24051518:	e92d 41f0 	stmdb	sp!, {r4, r5, r6, r7, r8, lr}
2405151c:	460d      	mov	r5, r1
2405151e:	4690      	mov	r8, r2
24051520:	461e      	mov	r6, r3
24051522:	f89d 1018 	ldrb.w	r1, [sp, #24]
24051526:	461c      	mov	r4, r3
24051528:	f813 2b01 	ldrb.w	r2, [r3], #1
2405152c:	2a00      	cmp	r2, #0
2405152e:	d1fa      	bne.n	24051526 <LCD_DisplayStringAt+0xe>
24051530:	4b18      	ldr	r3, [pc, #96]	; (24051594 <LCD_DisplayStringAt+0x7c>)
24051532:	2901      	cmp	r1, #1
24051534:	681f      	ldr	r7, [r3, #0]
24051536:	f44f 73a0 	mov.w	r3, #320	; 0x140
2405153a:	88ba      	ldrh	r2, [r7, #4]
2405153c:	fbb3 f3f2 	udiv	r3, r3, r2
24051540:	d014      	beq.n	2405156c <LCD_DisplayStringAt+0x54>
24051542:	2902      	cmp	r1, #2
24051544:	d019      	beq.n	2405157a <LCD_DisplayStringAt+0x62>
24051546:	2400      	movs	r4, #0
24051548:	88b9      	ldrh	r1, [r7, #4]
2405154a:	b2a2      	uxth	r2, r4
2405154c:	5d33      	ldrb	r3, [r6, r4]
2405154e:	3401      	adds	r4, #1
24051550:	434a      	muls	r2, r1
24051552:	f5c2 72a0 	rsb	r2, r2, #320	; 0x140
24051556:	b292      	uxth	r2, r2
24051558:	4291      	cmp	r1, r2
2405155a:	bfcc      	ite	gt
2405155c:	2100      	movgt	r1, #0
2405155e:	2101      	movle	r1, #1
24051560:	2b00      	cmp	r3, #0
24051562:	bf08      	it	eq
24051564:	2100      	moveq	r1, #0
24051566:	b969      	cbnz	r1, 24051584 <LCD_DisplayStringAt+0x6c>
24051568:	e8bd 81f0 	ldmia.w	sp!, {r4, r5, r6, r7, r8, pc}
2405156c:	1b34      	subs	r4, r6, r4
2405156e:	441c      	add	r4, r3
24051570:	4354      	muls	r4, r2
24051572:	eb05 0454 	add.w	r4, r5, r4, lsr #1
24051576:	b2a5      	uxth	r5, r4
24051578:	e7e5      	b.n	24051546 <LCD_DisplayStringAt+0x2e>
2405157a:	1b34      	subs	r4, r6, r4
2405157c:	441c      	add	r4, r3
2405157e:	fb14 5402 	smlabb	r4, r4, r2, r5
24051582:	e7f8      	b.n	24051576 <LCD_DisplayStringAt+0x5e>
24051584:	4629      	mov	r1, r5
24051586:	4642      	mov	r2, r8
24051588:	f7ff ff74 	bl	24051474 <LCD_DisplayChar>
2405158c:	88bb      	ldrh	r3, [r7, #4]
2405158e:	442b      	add	r3, r5
24051590:	b29d      	uxth	r5, r3
24051592:	e7d9      	b.n	24051548 <LCD_DisplayStringAt+0x30>
24051594:	2000003c 	.word	0x2000003c

24051598 <LCD_DrawHLine>:
24051598:	b430      	push	{r4, r5}
2405159a:	460c      	mov	r4, r1
2405159c:	f44f 75a0 	mov.w	r5, #320	; 0x140
240515a0:	4619      	mov	r1, r3
240515a2:	f8bd 3008 	ldrh.w	r3, [sp, #8]
240515a6:	fb05 4402 	mla	r4, r5, r2, r4
240515aa:	2201      	movs	r2, #1
240515ac:	9302      	str	r3, [sp, #8]
240515ae:	2300      	movs	r3, #0
240515b0:	eb00 0044 	add.w	r0, r0, r4, lsl #1
240515b4:	bc30      	pop	{r4, r5}
240515b6:	f7ff bf21 	b.w	240513fc <FillBuffer>

240515ba <LCD_DrawVLine>:
240515ba:	b430      	push	{r4, r5}
240515bc:	4614      	mov	r4, r2
240515be:	f44f 75a0 	mov.w	r5, #320	; 0x140
240515c2:	461a      	mov	r2, r3
240515c4:	f8bd 3008 	ldrh.w	r3, [sp, #8]
240515c8:	fb05 1404 	mla	r4, r5, r4, r1
240515cc:	2101      	movs	r1, #1
240515ce:	9302      	str	r3, [sp, #8]
240515d0:	f240 133f 	movw	r3, #319	; 0x13f
240515d4:	eb00 0044 	add.w	r0, r0, r4, lsl #1
240515d8:	bc30      	pop	{r4, r5}
240515da:	f7ff bf0f 	b.w	240513fc <FillBuffer>

240515de <LCD_DrawRect>:
240515de:	e92d 43f7 	stmdb	sp!, {r0, r1, r2, r4, r5, r6, r7, r8, r9, lr}
240515e2:	f8bd 702c 	ldrh.w	r7, [sp, #44]	; 0x2c
240515e6:	4616      	mov	r6, r2
240515e8:	f8bd 9028 	ldrh.w	r9, [sp, #40]	; 0x28
240515ec:	4605      	mov	r5, r0
240515ee:	9700      	str	r7, [sp, #0]
240515f0:	460c      	mov	r4, r1
240515f2:	4698      	mov	r8, r3
240515f4:	f7ff ffd0 	bl	24051598 <LCD_DrawHLine>
240515f8:	eb06 0209 	add.w	r2, r6, r9
240515fc:	4621      	mov	r1, r4
240515fe:	4643      	mov	r3, r8
24051600:	4628      	mov	r0, r5
24051602:	b292      	uxth	r2, r2
24051604:	9700      	str	r7, [sp, #0]
24051606:	f7ff ffc7 	bl	24051598 <LCD_DrawHLine>
2405160a:	464b      	mov	r3, r9
2405160c:	4632      	mov	r2, r6
2405160e:	4621      	mov	r1, r4
24051610:	4628      	mov	r0, r5
24051612:	9700      	str	r7, [sp, #0]
24051614:	f7ff ffd1 	bl	240515ba <LCD_DrawVLine>
24051618:	eb04 0108 	add.w	r1, r4, r8
2405161c:	464b      	mov	r3, r9
2405161e:	4632      	mov	r2, r6
24051620:	b289      	uxth	r1, r1
24051622:	4628      	mov	r0, r5
24051624:	970a      	str	r7, [sp, #40]	; 0x28
24051626:	b003      	add	sp, #12
24051628:	e8bd 43f0 	ldmia.w	sp!, {r4, r5, r6, r7, r8, r9, lr}
2405162c:	f7ff bfc5 	b.w	240515ba <LCD_DrawVLine>

24051630 <LCD_DrawCircle>:
24051630:	e92d 4ff0 	stmdb	sp!, {r4, r5, r6, r7, r8, r9, sl, fp, lr}
24051634:	461d      	mov	r5, r3
24051636:	b085      	sub	sp, #20
24051638:	2600      	movs	r6, #0
2405163a:	006c      	lsls	r4, r5, #1
2405163c:	f8bd 3038 	ldrh.w	r3, [sp, #56]	; 0x38
24051640:	9501      	str	r5, [sp, #4]
24051642:	f1c4 0403 	rsb	r4, r4, #3
24051646:	e9cd 1202 	strd	r1, r2, [sp, #8]
2405164a:	9a02      	ldr	r2, [sp, #8]
2405164c:	fa1f f886 	uxth.w	r8, r6
24051650:	f8bd 7004 	ldrh.w	r7, [sp, #4]
24051654:	fa12 fb86 	uxtah	fp, r2, r6
24051658:	9a03      	ldr	r2, [sp, #12]
2405165a:	4645      	mov	r5, r8
2405165c:	fa1f fb8b 	uxth.w	fp, fp
24051660:	1bd2      	subs	r2, r2, r7
24051662:	4659      	mov	r1, fp
24051664:	b292      	uxth	r2, r2
24051666:	f7ff feef 	bl	24051448 <LCD_DrawPixel>
2405166a:	9902      	ldr	r1, [sp, #8]
2405166c:	eba1 0a08 	sub.w	sl, r1, r8
24051670:	fa1f fa8a 	uxth.w	sl, sl
24051674:	4651      	mov	r1, sl
24051676:	f7ff fee7 	bl	24051448 <LCD_DrawPixel>
2405167a:	9a02      	ldr	r2, [sp, #8]
2405167c:	eb07 0902 	add.w	r9, r7, r2
24051680:	9a03      	ldr	r2, [sp, #12]
24051682:	fa1f f989 	uxth.w	r9, r9
24051686:	1b52      	subs	r2, r2, r5
24051688:	4649      	mov	r1, r9
2405168a:	b292      	uxth	r2, r2
2405168c:	f7ff fedc 	bl	24051448 <LCD_DrawPixel>
24051690:	9902      	ldr	r1, [sp, #8]
24051692:	eba1 0807 	sub.w	r8, r1, r7
24051696:	fa1f f888 	uxth.w	r8, r8
2405169a:	4641      	mov	r1, r8
2405169c:	f7ff fed4 	bl	24051448 <LCD_DrawPixel>
240516a0:	9a03      	ldr	r2, [sp, #12]
240516a2:	4659      	mov	r1, fp
240516a4:	18ba      	adds	r2, r7, r2
240516a6:	b292      	uxth	r2, r2
240516a8:	f7ff fece 	bl	24051448 <LCD_DrawPixel>
240516ac:	4651      	mov	r1, sl
240516ae:	f7ff fecb 	bl	24051448 <LCD_DrawPixel>
240516b2:	9903      	ldr	r1, [sp, #12]
240516b4:	462a      	mov	r2, r5
240516b6:	440a      	add	r2, r1
240516b8:	4649      	mov	r1, r9
240516ba:	b292      	uxth	r2, r2
240516bc:	f7ff fec4 	bl	24051448 <LCD_DrawPixel>
240516c0:	4641      	mov	r1, r8
240516c2:	f7ff fec1 	bl	24051448 <LCD_DrawPixel>
240516c6:	2c00      	cmp	r4, #0
240516c8:	da09      	bge.n	240516de <LCD_DrawCircle+0xae>
240516ca:	3406      	adds	r4, #6
240516cc:	eb04 0486 	add.w	r4, r4, r6, lsl #2
240516d0:	3601      	adds	r6, #1
240516d2:	9a01      	ldr	r2, [sp, #4]
240516d4:	42b2      	cmp	r2, r6
240516d6:	d2b8      	bcs.n	2405164a <LCD_DrawCircle+0x1a>
240516d8:	b005      	add	sp, #20
240516da:	e8bd 8ff0 	ldmia.w	sp!, {r4, r5, r6, r7, r8, r9, sl, fp, pc}
240516de:	9a01      	ldr	r2, [sp, #4]
240516e0:	340a      	adds	r4, #10
240516e2:	1ab2      	subs	r2, r6, r2
240516e4:	eb04 0482 	add.w	r4, r4, r2, lsl #2
240516e8:	9a01      	ldr	r2, [sp, #4]
240516ea:	3a01      	subs	r2, #1
240516ec:	9201      	str	r2, [sp, #4]
240516ee:	e7ef      	b.n	240516d0 <LCD_DrawCircle+0xa0>

240516f0 <LCD_FillRect>:
240516f0:	b470      	push	{r4, r5, r6}
240516f2:	f44f 76a0 	mov.w	r6, #320	; 0x140
240516f6:	4615      	mov	r5, r2
240516f8:	461c      	mov	r4, r3
240516fa:	f8bd 3010 	ldrh.w	r3, [sp, #16]
240516fe:	fb06 1505 	mla	r5, r6, r5, r1
24051702:	f8bd 200c 	ldrh.w	r2, [sp, #12]
24051706:	4621      	mov	r1, r4
24051708:	9303      	str	r3, [sp, #12]
2405170a:	eb00 0045 	add.w	r0, r0, r5, lsl #1
2405170e:	1b33      	subs	r3, r6, r4
24051710:	bc70      	pop	{r4, r5, r6}
24051712:	f7ff be73 	b.w	240513fc <FillBuffer>

24051716 <LCD_FillCircle>:
24051716:	e92d 4ff0 	stmdb	sp!, {r4, r5, r6, r7, r8, r9, sl, fp, lr}
2405171a:	005c      	lsls	r4, r3, #1
2405171c:	b087      	sub	sp, #28
2405171e:	4689      	mov	r9, r1
24051720:	4616      	mov	r6, r2
24051722:	469a      	mov	sl, r3
24051724:	f8bd b040 	ldrh.w	fp, [sp, #64]	; 0x40
24051728:	f1c4 0403 	rsb	r4, r4, #3
2405172c:	461f      	mov	r7, r3
2405172e:	2500      	movs	r5, #0
24051730:	b1e7      	cbz	r7, 2405176c <LCD_FillCircle+0x56>
24051732:	b2bb      	uxth	r3, r7
24051734:	fa16 f285 	uxtah	r2, r6, r5
24051738:	fa1f f885 	uxth.w	r8, r5
2405173c:	f8cd b000 	str.w	fp, [sp]
24051740:	eba9 0103 	sub.w	r1, r9, r3
24051744:	005b      	lsls	r3, r3, #1
24051746:	b292      	uxth	r2, r2
24051748:	b289      	uxth	r1, r1
2405174a:	b29b      	uxth	r3, r3
2405174c:	e9cd 0103 	strd	r0, r1, [sp, #12]
24051750:	9305      	str	r3, [sp, #20]
24051752:	f7ff ff21 	bl	24051598 <LCD_DrawHLine>
24051756:	eba6 0208 	sub.w	r2, r6, r8
2405175a:	9b05      	ldr	r3, [sp, #20]
2405175c:	f8cd b000 	str.w	fp, [sp]
24051760:	b292      	uxth	r2, r2
24051762:	e9dd 0103 	ldrd	r0, r1, [sp, #12]
24051766:	f7ff ff17 	bl	24051598 <LCD_DrawHLine>
2405176a:	9803      	ldr	r0, [sp, #12]
2405176c:	b1e5      	cbz	r5, 240517a8 <LCD_FillCircle+0x92>
2405176e:	b2ab      	uxth	r3, r5
24051770:	f8cd b000 	str.w	fp, [sp]
24051774:	fa1f f887 	uxth.w	r8, r7
24051778:	eba9 0103 	sub.w	r1, r9, r3
2405177c:	005b      	lsls	r3, r3, #1
2405177e:	eba6 0208 	sub.w	r2, r6, r8
24051782:	b289      	uxth	r1, r1
24051784:	b29b      	uxth	r3, r3
24051786:	b292      	uxth	r2, r2
24051788:	9305      	str	r3, [sp, #20]
2405178a:	e9cd 0103 	strd	r0, r1, [sp, #12]
2405178e:	f7ff ff03 	bl	24051598 <LCD_DrawHLine>
24051792:	eb08 0206 	add.w	r2, r8, r6
24051796:	9b05      	ldr	r3, [sp, #20]
24051798:	b292      	uxth	r2, r2
2405179a:	f8cd b000 	str.w	fp, [sp]
2405179e:	e9dd 0103 	ldrd	r0, r1, [sp, #12]
240517a2:	f7ff fef9 	bl	24051598 <LCD_DrawHLine>
240517a6:	9803      	ldr	r0, [sp, #12]
240517a8:	2c00      	cmp	r4, #0
240517aa:	bfb1      	iteee	lt
240517ac:	3406      	addlt	r4, #6
240517ae:	1beb      	subge	r3, r5, r7
240517b0:	340a      	addge	r4, #10
240517b2:	f107 37ff 	addge.w	r7, r7, #4294967295
240517b6:	bfb8      	it	lt
240517b8:	eb04 0485 	addlt.w	r4, r4, r5, lsl #2
240517bc:	f105 0501 	add.w	r5, r5, #1
240517c0:	bfa8      	it	ge
240517c2:	eb04 0483 	addge.w	r4, r4, r3, lsl #2
240517c6:	42af      	cmp	r7, r5
240517c8:	d2b2      	bcs.n	24051730 <LCD_FillCircle+0x1a>
240517ca:	4653      	mov	r3, sl
240517cc:	4632      	mov	r2, r6
240517ce:	4649      	mov	r1, r9
240517d0:	f8cd b040 	str.w	fp, [sp, #64]	; 0x40
240517d4:	b007      	add	sp, #28
240517d6:	e8bd 4ff0 	ldmia.w	sp!, {r4, r5, r6, r7, r8, r9, sl, fp, lr}
240517da:	f7ff bf29 	b.w	24051630 <LCD_DrawCircle>
	...

240517e0 <SystemClock_Config>:
240517e0:	b510      	push	{r4, lr}
240517e2:	b09c      	sub	sp, #112	; 0x70
240517e4:	224c      	movs	r2, #76	; 0x4c
240517e6:	2100      	movs	r1, #0
240517e8:	4c2b      	ldr	r4, [pc, #172]	; (24051898 <SystemClock_Config+0xb8>)
240517ea:	a809      	add	r0, sp, #36	; 0x24
240517ec:	f007 fe4a 	bl	24059484 <memset>
240517f0:	2220      	movs	r2, #32
240517f2:	2100      	movs	r1, #0
240517f4:	a801      	add	r0, sp, #4
240517f6:	f007 fe45 	bl	24059484 <memset>
240517fa:	f04f 33ff 	mov.w	r3, #4294967295
240517fe:	2002      	movs	r0, #2
24051800:	f8c4 30b0 	str.w	r3, [r4, #176]	; 0xb0
24051804:	f004 fafa 	bl	24055dfc <HAL_PWREx_ConfigSupply>
24051808:	2300      	movs	r3, #0
2405180a:	9300      	str	r3, [sp, #0]
2405180c:	4b23      	ldr	r3, [pc, #140]	; (2405189c <SystemClock_Config+0xbc>)
2405180e:	699a      	ldr	r2, [r3, #24]
24051810:	f442 4240 	orr.w	r2, r2, #49152	; 0xc000
24051814:	619a      	str	r2, [r3, #24]
24051816:	699a      	ldr	r2, [r3, #24]
24051818:	f402 4240 	and.w	r2, r2, #49152	; 0xc000
2405181c:	9200      	str	r2, [sp, #0]
2405181e:	9a00      	ldr	r2, [sp, #0]
24051820:	699a      	ldr	r2, [r3, #24]
24051822:	0492      	lsls	r2, r2, #18
24051824:	d5fc      	bpl.n	24051820 <SystemClock_Config+0x40>
24051826:	f004 fae1 	bl	24055dec <HAL_PWR_EnableBkUpAccess>
2405182a:	6f23      	ldr	r3, [r4, #112]	; 0x70
2405182c:	2200      	movs	r2, #0
2405182e:	2010      	movs	r0, #16
24051830:	f023 0318 	bic.w	r3, r3, #24
24051834:	218c      	movs	r1, #140	; 0x8c
24051836:	6723      	str	r3, [r4, #112]	; 0x70
24051838:	230e      	movs	r3, #14
2405183a:	2440      	movs	r4, #64	; 0x40
2405183c:	921b      	str	r2, [sp, #108]	; 0x6c
2405183e:	9309      	str	r3, [sp, #36]	; 0x24
24051840:	2301      	movs	r3, #1
24051842:	e9cd 330b 	strd	r3, r3, [sp, #44]	; 0x2c
24051846:	e9cd 430d 	strd	r4, r3, [sp, #52]	; 0x34
2405184a:	2302      	movs	r3, #2
2405184c:	e9cd 3212 	strd	r3, r2, [sp, #72]	; 0x48
24051850:	e9cd 3316 	strd	r3, r3, [sp, #88]	; 0x58
24051854:	9318      	str	r3, [sp, #96]	; 0x60
24051856:	2308      	movs	r3, #8
24051858:	e9cd 0114 	strd	r0, r1, [sp, #80]	; 0x50
2405185c:	a809      	add	r0, sp, #36	; 0x24
2405185e:	e9cd 3219 	strd	r3, r2, [sp, #100]	; 0x64
24051862:	f004 faef 	bl	24055e44 <HAL_RCC_OscConfig>
24051866:	b108      	cbz	r0, 2405186c <SystemClock_Config+0x8c>
24051868:	b672      	cpsid	i
2405186a:	e7fe      	b.n	2405186a <SystemClock_Config+0x8a>
2405186c:	2303      	movs	r3, #3
2405186e:	223f      	movs	r2, #63	; 0x3f
24051870:	2106      	movs	r1, #6
24051872:	e9cd 2301 	strd	r2, r3, [sp, #4]
24051876:	f44f 6380 	mov.w	r3, #1024	; 0x400
2405187a:	e9cd 0003 	strd	r0, r0, [sp, #12]
2405187e:	a801      	add	r0, sp, #4
24051880:	e9cd 4405 	strd	r4, r4, [sp, #20]
24051884:	e9cd 3407 	strd	r3, r4, [sp, #28]
24051888:	f004 fe28 	bl	240564dc <HAL_RCC_ClockConfig>
2405188c:	b108      	cbz	r0, 24051892 <SystemClock_Config+0xb2>
2405188e:	b672      	cpsid	i
24051890:	e7fe      	b.n	24051890 <SystemClock_Config+0xb0>
24051892:	b01c      	add	sp, #112	; 0x70
24051894:	bd10      	pop	{r4, pc}
24051896:	bf00      	nop
24051898:	58024400 	.word	0x58024400
2405189c:	58024800 	.word	0x58024800

240518a0 <PeriphCommonClock_Config>:
240518a0:	b500      	push	{lr}
240518a2:	b0b1      	sub	sp, #196	; 0xc4
240518a4:	22b8      	movs	r2, #184	; 0xb8
240518a6:	2100      	movs	r1, #0
240518a8:	a802      	add	r0, sp, #8
240518aa:	f007 fdeb 	bl	24059484 <memset>
240518ae:	4a0f      	ldr	r2, [pc, #60]	; (240518ec <PeriphCommonClock_Config+0x4c>)
240518b0:	2300      	movs	r3, #0
240518b2:	2118      	movs	r1, #24
240518b4:	4668      	mov	r0, sp
240518b6:	e9cd 2300 	strd	r2, r3, [sp]
240518ba:	2309      	movs	r3, #9
240518bc:	2204      	movs	r2, #4
240518be:	e9cd 230a 	strd	r2, r3, [sp, #40]	; 0x28
240518c2:	2302      	movs	r3, #2
240518c4:	e9cd 330c 	strd	r3, r3, [sp, #48]	; 0x30
240518c8:	f44f 6340 	mov.w	r3, #3072	; 0xc00
240518cc:	e9cd 130e 	strd	r1, r3, [sp, #56]	; 0x38
240518d0:	f44f 3380 	mov.w	r3, #65536	; 0x10000
240518d4:	932b      	str	r3, [sp, #172]	; 0xac
240518d6:	f44f 4300 	mov.w	r3, #32768	; 0x8000
240518da:	932e      	str	r3, [sp, #184]	; 0xb8
240518dc:	f005 f848 	bl	24056970 <HAL_RCCEx_PeriphCLKConfig>
240518e0:	b108      	cbz	r0, 240518e6 <PeriphCommonClock_Config+0x46>
240518e2:	b672      	cpsid	i
240518e4:	e7fe      	b.n	240518e4 <PeriphCommonClock_Config+0x44>
240518e6:	b031      	add	sp, #196	; 0xc4
240518e8:	f85d fb04 	ldr.w	pc, [sp], #4
240518ec:	a0080000 	.word	0xa0080000

240518f0 <main>:
240518f0:	e92d 4ff0 	stmdb	sp!, {r4, r5, r6, r7, r8, r9, sl, fp, lr}
240518f4:	b099      	sub	sp, #100	; 0x64
240518f6:	4dcb      	ldr	r5, [pc, #812]	; (24051c24 <main+0x334>)
240518f8:	f000 ffda 	bl	240528b0 <HAL_Init>
240518fc:	2400      	movs	r4, #0
240518fe:	f7ff ff6f 	bl	240517e0 <SystemClock_Config>
24051902:	2601      	movs	r6, #1
24051904:	f7ff ffcc 	bl	240518a0 <PeriphCommonClock_Config>
24051908:	2214      	movs	r2, #20
2405190a:	2100      	movs	r1, #0
2405190c:	a80b      	add	r0, sp, #44	; 0x2c
2405190e:	f007 fdb9 	bl	24059484 <memset>
24051912:	f8d5 3140 	ldr.w	r3, [r5, #320]	; 0x140
24051916:	2201      	movs	r2, #1
24051918:	2108      	movs	r1, #8
2405191a:	f043 0310 	orr.w	r3, r3, #16
2405191e:	48c2      	ldr	r0, [pc, #776]	; (24051c28 <main+0x338>)
24051920:	f44f 1744 	mov.w	r7, #3211264	; 0x310000
24051924:	f04f 0804 	mov.w	r8, #4
24051928:	f8c5 3140 	str.w	r3, [r5, #320]	; 0x140
2405192c:	f44f 5980 	mov.w	r9, #4096	; 0x1000
24051930:	f8d5 3140 	ldr.w	r3, [r5, #320]	; 0x140
24051934:	f04f 0a07 	mov.w	sl, #7
24051938:	f8df b314 	ldr.w	fp, [pc, #788]	; 24051c50 <main+0x360>
2405193c:	f003 0310 	and.w	r3, r3, #16
24051940:	9303      	str	r3, [sp, #12]
24051942:	9b03      	ldr	r3, [sp, #12]
24051944:	f8d5 3140 	ldr.w	r3, [r5, #320]	; 0x140
24051948:	f043 0304 	orr.w	r3, r3, #4
2405194c:	f8c5 3140 	str.w	r3, [r5, #320]	; 0x140
24051950:	f8d5 3140 	ldr.w	r3, [r5, #320]	; 0x140
24051954:	f003 0304 	and.w	r3, r3, #4
24051958:	9304      	str	r3, [sp, #16]
2405195a:	9b04      	ldr	r3, [sp, #16]
2405195c:	f8d5 3140 	ldr.w	r3, [r5, #320]	; 0x140
24051960:	f043 0301 	orr.w	r3, r3, #1
24051964:	f8c5 3140 	str.w	r3, [r5, #320]	; 0x140
24051968:	f8d5 3140 	ldr.w	r3, [r5, #320]	; 0x140
2405196c:	f003 0301 	and.w	r3, r3, #1
24051970:	9305      	str	r3, [sp, #20]
24051972:	9b05      	ldr	r3, [sp, #20]
24051974:	f8d5 3140 	ldr.w	r3, [r5, #320]	; 0x140
24051978:	f043 0302 	orr.w	r3, r3, #2
2405197c:	f8c5 3140 	str.w	r3, [r5, #320]	; 0x140
24051980:	f8d5 3140 	ldr.w	r3, [r5, #320]	; 0x140
24051984:	f003 0302 	and.w	r3, r3, #2
24051988:	9306      	str	r3, [sp, #24]
2405198a:	9b06      	ldr	r3, [sp, #24]
2405198c:	f8d5 3140 	ldr.w	r3, [r5, #320]	; 0x140
24051990:	f043 0308 	orr.w	r3, r3, #8
24051994:	f8c5 3140 	str.w	r3, [r5, #320]	; 0x140
24051998:	f8d5 3140 	ldr.w	r3, [r5, #320]	; 0x140
2405199c:	f003 0308 	and.w	r3, r3, #8
240519a0:	9307      	str	r3, [sp, #28]
240519a2:	9b07      	ldr	r3, [sp, #28]
240519a4:	f003 fa60 	bl	24054e68 <HAL_GPIO_WritePin>
240519a8:	2200      	movs	r2, #0
240519aa:	f44f 7180 	mov.w	r1, #256	; 0x100
240519ae:	489e      	ldr	r0, [pc, #632]	; (24051c28 <main+0x338>)
240519b0:	f003 fa5a 	bl	24054e68 <HAL_GPIO_WritePin>
240519b4:	2201      	movs	r2, #1
240519b6:	f44f 5180 	mov.w	r1, #4096	; 0x1000
240519ba:	489c      	ldr	r0, [pc, #624]	; (24051c2c <main+0x33c>)
240519bc:	f003 fa54 	bl	24054e68 <HAL_GPIO_WritePin>
240519c0:	2201      	movs	r2, #1
240519c2:	f44f 7180 	mov.w	r1, #256	; 0x100
240519c6:	489a      	ldr	r0, [pc, #616]	; (24051c30 <main+0x340>)
240519c8:	f003 fa4e 	bl	24054e68 <HAL_GPIO_WritePin>
240519cc:	2200      	movs	r2, #0
240519ce:	2112      	movs	r1, #18
240519d0:	4897      	ldr	r0, [pc, #604]	; (24051c30 <main+0x340>)
240519d2:	f003 fa49 	bl	24054e68 <HAL_GPIO_WritePin>
240519d6:	f44f 7384 	mov.w	r3, #264	; 0x108
240519da:	a90b      	add	r1, sp, #44	; 0x2c
240519dc:	4892      	ldr	r0, [pc, #584]	; (24051c28 <main+0x338>)
240519de:	e9cd 360b 	strd	r3, r6, [sp, #44]	; 0x2c
240519e2:	e9cd 440d 	strd	r4, r4, [sp, #52]	; 0x34
240519e6:	f003 f94f 	bl	24054c88 <HAL_GPIO_Init>
240519ea:	f242 0322 	movw	r3, #8226	; 0x2022
240519ee:	a90b      	add	r1, sp, #44	; 0x2c
240519f0:	4890      	ldr	r0, [pc, #576]	; (24051c34 <main+0x344>)
240519f2:	960d      	str	r6, [sp, #52]	; 0x34
240519f4:	e9cd 340b 	strd	r3, r4, [sp, #44]	; 0x2c
240519f8:	f003 f946 	bl	24054c88 <HAL_GPIO_Init>
240519fc:	a90b      	add	r1, sp, #44	; 0x2c
240519fe:	488e      	ldr	r0, [pc, #568]	; (24051c38 <main+0x348>)
24051a00:	940d      	str	r4, [sp, #52]	; 0x34
24051a02:	e9cd 640b 	strd	r6, r4, [sp, #44]	; 0x2c
24051a06:	f003 f93f 	bl	24054c88 <HAL_GPIO_Init>
24051a0a:	a90b      	add	r1, sp, #44	; 0x2c
24051a0c:	488a      	ldr	r0, [pc, #552]	; (24051c38 <main+0x348>)
24051a0e:	940d      	str	r4, [sp, #52]	; 0x34
24051a10:	e9cd 870b 	strd	r8, r7, [sp, #44]	; 0x2c
24051a14:	f003 f938 	bl	24054c88 <HAL_GPIO_Init>
24051a18:	2380      	movs	r3, #128	; 0x80
24051a1a:	a90b      	add	r1, sp, #44	; 0x2c
24051a1c:	4882      	ldr	r0, [pc, #520]	; (24051c28 <main+0x338>)
24051a1e:	940d      	str	r4, [sp, #52]	; 0x34
24051a20:	e9cd 370b 	strd	r3, r7, [sp, #44]	; 0x2c
24051a24:	f003 f930 	bl	24054c88 <HAL_GPIO_Init>
24051a28:	a90b      	add	r1, sp, #44	; 0x2c
24051a2a:	4880      	ldr	r0, [pc, #512]	; (24051c2c <main+0x33c>)
24051a2c:	27ff      	movs	r7, #255	; 0xff
24051a2e:	e9cd 960b 	strd	r9, r6, [sp, #44]	; 0x2c
24051a32:	e9cd 440d 	strd	r4, r4, [sp, #52]	; 0x34
24051a36:	f003 f927 	bl	24054c88 <HAL_GPIO_Init>
24051a3a:	f44f 7389 	mov.w	r3, #274	; 0x112
24051a3e:	a90b      	add	r1, sp, #44	; 0x2c
24051a40:	487b      	ldr	r0, [pc, #492]	; (24051c30 <main+0x340>)
24051a42:	e9cd 360b 	strd	r3, r6, [sp, #44]	; 0x2c
24051a46:	e9cd 440d 	strd	r4, r4, [sp, #52]	; 0x34
24051a4a:	f003 f91d 	bl	24054c88 <HAL_GPIO_Init>
24051a4e:	f64c 2321 	movw	r3, #51745	; 0xca21
24051a52:	a90b      	add	r1, sp, #44	; 0x2c
24051a54:	4876      	ldr	r0, [pc, #472]	; (24051c30 <main+0x340>)
24051a56:	960d      	str	r6, [sp, #52]	; 0x34
24051a58:	e9cd 340b 	strd	r3, r4, [sp, #44]	; 0x2c
24051a5c:	f003 f914 	bl	24054c88 <HAL_GPIO_Init>
24051a60:	4622      	mov	r2, r4
24051a62:	4621      	mov	r1, r4
24051a64:	2008      	movs	r0, #8
24051a66:	f001 fecb 	bl	24053800 <HAL_NVIC_SetPriority>
24051a6a:	2008      	movs	r0, #8
24051a6c:	f001 fefa 	bl	24053864 <HAL_NVIC_EnableIRQ>
24051a70:	4622      	mov	r2, r4
24051a72:	4621      	mov	r1, r4
24051a74:	2017      	movs	r0, #23
24051a76:	f001 fec3 	bl	24053800 <HAL_NVIC_SetPriority>
24051a7a:	2017      	movs	r0, #23
24051a7c:	f001 fef2 	bl	24053864 <HAL_NVIC_EnableIRQ>
24051a80:	f8d5 3138 	ldr.w	r3, [r5, #312]	; 0x138
24051a84:	4622      	mov	r2, r4
24051a86:	4621      	mov	r1, r4
24051a88:	4333      	orrs	r3, r6
24051a8a:	200b      	movs	r0, #11
24051a8c:	f8c5 3138 	str.w	r3, [r5, #312]	; 0x138
24051a90:	f8d5 3138 	ldr.w	r3, [r5, #312]	; 0x138
24051a94:	4033      	ands	r3, r6
24051a96:	9302      	str	r3, [sp, #8]
24051a98:	9b02      	ldr	r3, [sp, #8]
24051a9a:	f001 feb1 	bl	24053800 <HAL_NVIC_SetPriority>
24051a9e:	200b      	movs	r0, #11
24051aa0:	f001 fee0 	bl	24053864 <HAL_NVIC_EnableIRQ>
24051aa4:	2234      	movs	r2, #52	; 0x34
24051aa6:	4621      	mov	r1, r4
24051aa8:	a80b      	add	r0, sp, #44	; 0x2c
24051aaa:	f007 fceb 	bl	24059484 <memset>
24051aae:	4b63      	ldr	r3, [pc, #396]	; (24051c3c <main+0x34c>)
24051ab0:	f04f 5e80 	mov.w	lr, #268435456	; 0x10000000
24051ab4:	f44f 72be 	mov.w	r2, #380	; 0x17c
24051ab8:	4658      	mov	r0, fp
24051aba:	f8ab 4034 	strh.w	r4, [fp, #52]	; 0x34
24051abe:	f8cb 6018 	str.w	r6, [fp, #24]
24051ac2:	f88b 4036 	strb.w	r4, [fp, #54]	; 0x36
24051ac6:	e9cb 3400 	strd	r3, r4, [fp]
24051aca:	2309      	movs	r3, #9
24051acc:	e9cb e304 	strd	lr, r3, [fp, #16]
24051ad0:	233c      	movs	r3, #60	; 0x3c
24051ad2:	e9cb 3a07 	strd	r3, sl, [fp, #28]
24051ad6:	23f7      	movs	r3, #247	; 0xf7
24051ad8:	e9cb 2309 	strd	r2, r3, [fp, #36]	; 0x24
24051adc:	f44f 73c4 	mov.w	r3, #392	; 0x188
24051ae0:	e9cb 4402 	strd	r4, r4, [fp, #8]
24051ae4:	e9cb 370b 	strd	r3, r7, [fp, #44]	; 0x2c
24051ae8:	f003 fa52 	bl	24054f90 <HAL_LTDC_Init>
24051aec:	4602      	mov	r2, r0
24051aee:	b108      	cbz	r0, 24051af4 <main+0x204>
24051af0:	b672      	cpsid	i
24051af2:	e7fe      	b.n	24051af2 <main+0x202>
24051af4:	f44f 71a0 	mov.w	r1, #320	; 0x140
24051af8:	f44f 6c80 	mov.w	ip, #1024	; 0x400
24051afc:	900b      	str	r0, [sp, #44]	; 0x2c
24051afe:	23f0      	movs	r3, #240	; 0xf0
24051b00:	2402      	movs	r4, #2
24051b02:	f88d 205e 	strb.w	r2, [sp, #94]	; 0x5e
24051b06:	9316      	str	r3, [sp, #88]	; 0x58
24051b08:	e9cd 100c 	strd	r1, r0, [sp, #48]	; 0x30
24051b0c:	2005      	movs	r0, #5
24051b0e:	e9cd c012 	strd	ip, r0, [sp, #72]	; 0x48
24051b12:	f04f 5010 	mov.w	r0, #603979776	; 0x24000000
24051b16:	e9cd 340e 	strd	r3, r4, [sp, #56]	; 0x38
24051b1a:	f44f 437f 	mov.w	r3, #65280	; 0xff00
24051b1e:	e9cd 0114 	strd	r0, r1, [sp, #80]	; 0x50
24051b22:	a90b      	add	r1, sp, #44	; 0x2c
24051b24:	4658      	mov	r0, fp
24051b26:	f8ad 305c 	strh.w	r3, [sp, #92]	; 0x5c
24051b2a:	e9cd 7710 	strd	r7, r7, [sp, #64]	; 0x40
24051b2e:	f003 fafa 	bl	24055126 <HAL_LTDC_ConfigLayer>
24051b32:	b108      	cbz	r0, 24051b38 <main+0x248>
24051b34:	b672      	cpsid	i
24051b36:	e7fe      	b.n	24051b36 <main+0x246>
24051b38:	4b41      	ldr	r3, [pc, #260]	; (24051c40 <main+0x350>)
24051b3a:	f44f 0280 	mov.w	r2, #4194304	; 0x400000
24051b3e:	f8df c114 	ldr.w	ip, [pc, #276]	; 24051c54 <main+0x364>
24051b42:	f04f 6e80 	mov.w	lr, #67108864	; 0x4000000
24051b46:	e9c3 c200 	strd	ip, r2, [r3]
24051b4a:	f44f 3200 	mov.w	r2, #131072	; 0x20000
24051b4e:	e9c3 2a02 	strd	r2, sl, [r3, #8]
24051b52:	f04f 5240 	mov.w	r2, #805306368	; 0x30000000
24051b56:	e9c3 0004 	strd	r0, r0, [r3, #16]
24051b5a:	e9c3 0008 	strd	r0, r0, [r3, #32]
24051b5e:	e9c3 000a 	strd	r0, r0, [r3, #40]	; 0x28
24051b62:	e9c3 000d 	strd	r0, r0, [r3, #52]	; 0x34
24051b66:	e9c3 000f 	strd	r0, r0, [r3, #60]	; 0x3c
24051b6a:	e9c3 0011 	strd	r0, r0, [r3, #68]	; 0x44
24051b6e:	e9c3 0013 	strd	r0, r0, [r3, #76]	; 0x4c
24051b72:	e9c3 0015 	strd	r0, r0, [r3, #84]	; 0x54
24051b76:	4618      	mov	r0, r3
24051b78:	e9c3 e206 	strd	lr, r2, [r3, #24]
24051b7c:	f006 fd3a 	bl	240585f4 <HAL_SPI_Init>
24051b80:	4601      	mov	r1, r0
24051b82:	b108      	cbz	r0, 24051b88 <main+0x298>
24051b84:	b672      	cpsid	i
24051b86:	e7fe      	b.n	24051b86 <main+0x296>
24051b88:	f04f 0b18 	mov.w	fp, #24
24051b8c:	9001      	str	r0, [sp, #4]
24051b8e:	a80b      	add	r0, sp, #44	; 0x2c
24051b90:	f8df a0c4 	ldr.w	sl, [pc, #196]	; 24051c58 <main+0x368>
24051b94:	465a      	mov	r2, fp
24051b96:	f007 fc75 	bl	24059484 <memset>
24051b9a:	4b2a      	ldr	r3, [pc, #168]	; (24051c44 <main+0x354>)
24051b9c:	9901      	ldr	r1, [sp, #4]
24051b9e:	4650      	mov	r0, sl
24051ba0:	e9ca 3800 	strd	r3, r8, [sl]
24051ba4:	f04f 7380 	mov.w	r3, #16777216	; 0x1000000
24051ba8:	f8ca 1008 	str.w	r1, [sl, #8]
24051bac:	f8ca 103c 	str.w	r1, [sl, #60]	; 0x3c
24051bb0:	e9ca 3b03 	strd	r3, fp, [sl, #12]
24051bb4:	2308      	movs	r3, #8
24051bb6:	e9ca 4105 	strd	r4, r1, [sl, #20]
24051bba:	e9ca 1107 	strd	r1, r1, [sl, #28]
24051bbe:	e9ca 6109 	strd	r6, r1, [sl, #36]	; 0x24
24051bc2:	e9ca 110b 	strd	r1, r1, [sl, #44]	; 0x2c
24051bc6:	e9ca 310d 	strd	r3, r1, [sl, #52]	; 0x34
24051bca:	f003 fc2f 	bl	2405542c <HAL_OSPI_Init>
24051bce:	b108      	cbz	r0, 24051bd4 <main+0x2e4>
24051bd0:	b672      	cpsid	i
24051bd2:	e7fe      	b.n	24051bd2 <main+0x2e2>
24051bd4:	f04f 1301 	mov.w	r3, #65537	; 0x10001
24051bd8:	f241 3288 	movw	r2, #5000	; 0x1388
24051bdc:	a90b      	add	r1, sp, #44	; 0x2c
24051bde:	4650      	mov	r0, sl
24051be0:	960b      	str	r6, [sp, #44]	; 0x2c
24051be2:	960d      	str	r6, [sp, #52]	; 0x34
24051be4:	930e      	str	r3, [sp, #56]	; 0x38
24051be6:	f003 fe77 	bl	240558d8 <HAL_OSPIM_Config>
24051bea:	4602      	mov	r2, r0
24051bec:	b108      	cbz	r0, 24051bf2 <main+0x302>
24051bee:	b672      	cpsid	i
24051bf0:	e7fe      	b.n	24051bf0 <main+0x300>
24051bf2:	4815      	ldr	r0, [pc, #84]	; (24051c48 <main+0x358>)
24051bf4:	4611      	mov	r1, r2
24051bf6:	4b15      	ldr	r3, [pc, #84]	; (24051c4c <main+0x35c>)
24051bf8:	6082      	str	r2, [r0, #8]
24051bfa:	f8c0 801c 	str.w	r8, [r0, #28]
24051bfe:	60c2      	str	r2, [r0, #12]
24051c00:	6342      	str	r2, [r0, #52]	; 0x34
24051c02:	e9c0 3200 	strd	r3, r2, [r0]
24051c06:	f64b 3380 	movw	r3, #48000	; 0xbb80
24051c0a:	6203      	str	r3, [r0, #32]
24051c0c:	4623      	mov	r3, r4
24051c0e:	e9c0 2205 	strd	r2, r2, [r0, #20]
24051c12:	e9c0 920b 	strd	r9, r2, [r0, #44]	; 0x2c
24051c16:	f006 fa41 	bl	2405809c <HAL_SAI_InitProtocol>
24051c1a:	4606      	mov	r6, r0
24051c1c:	b1f0      	cbz	r0, 24051c5c <main+0x36c>
24051c1e:	b672      	cpsid	i
24051c20:	e7fe      	b.n	24051c20 <main+0x330>
24051c22:	bf00      	nop
24051c24:	58024400 	.word	0x58024400
24051c28:	58021000 	.word	0x58021000
24051c2c:	58020400 	.word	0x58020400
24051c30:	58020c00 	.word	0x58020c00
24051c34:	58020800 	.word	0x58020800
24051c38:	58020000 	.word	0x58020000
24051c3c:	50001000 	.word	0x50001000
24051c40:	2000053c 	.word	0x2000053c
24051c44:	52005000 	.word	0x52005000
24051c48:	200004a4 	.word	0x200004a4
24051c4c:	40015804 	.word	0x40015804
24051c50:	20000378 	.word	0x20000378
24051c54:	40003800 	.word	0x40003800
24051c58:	20000420 	.word	0x20000420
24051c5c:	4601      	mov	r1, r0
24051c5e:	2214      	movs	r2, #20
24051c60:	a80b      	add	r0, sp, #44	; 0x2c
24051c62:	4c99      	ldr	r4, [pc, #612]	; (24051ec8 <main+0x5d8>)
24051c64:	f007 fc0e 	bl	24059484 <memset>
24051c68:	4b98      	ldr	r3, [pc, #608]	; (24051ecc <main+0x5dc>)
24051c6a:	6126      	str	r6, [r4, #16]
24051c6c:	61a6      	str	r6, [r4, #24]
24051c6e:	6166      	str	r6, [r4, #20]
24051c70:	9608      	str	r6, [sp, #32]
24051c72:	e9c4 3600 	strd	r3, r6, [r4]
24051c76:	237f      	movs	r3, #127	; 0x7f
24051c78:	e9c4 3702 	strd	r3, r7, [r4, #8]
24051c7c:	f04f 4380 	mov.w	r3, #1073741824	; 0x40000000
24051c80:	61e3      	str	r3, [r4, #28]
24051c82:	6f2b      	ldr	r3, [r5, #112]	; 0x70
24051c84:	041d      	lsls	r5, r3, #16
24051c86:	d510      	bpl.n	24051caa <main+0x3ba>
24051c88:	f004 f8b0 	bl	24055dec <HAL_PWR_EnableBkUpAccess>
24051c8c:	2224      	movs	r2, #36	; 0x24
24051c8e:	2100      	movs	r1, #0
24051c90:	4c8f      	ldr	r4, [pc, #572]	; (24051ed0 <main+0x5e0>)
24051c92:	a80b      	add	r0, sp, #44	; 0x2c
24051c94:	f007 fbf6 	bl	24059484 <memset>
24051c98:	4b8e      	ldr	r3, [pc, #568]	; (24051ed4 <main+0x5e4>)
24051c9a:	4620      	mov	r0, r4
24051c9c:	6023      	str	r3, [r4, #0]
24051c9e:	f001 fe15 	bl	240538cc <HAL_DAC_Init>
24051ca2:	4602      	mov	r2, r0
24051ca4:	b300      	cbz	r0, 24051ce8 <main+0x3f8>
24051ca6:	b672      	cpsid	i
24051ca8:	e7fe      	b.n	24051ca8 <main+0x3b8>
24051caa:	4620      	mov	r0, r4
24051cac:	f005 ff14 	bl	24057ad8 <HAL_RTC_Init>
24051cb0:	4602      	mov	r2, r0
24051cb2:	b108      	cbz	r0, 24051cb8 <main+0x3c8>
24051cb4:	b672      	cpsid	i
24051cb6:	e7fe      	b.n	24051cb6 <main+0x3c6>
24051cb8:	f8ad 002c 	strh.w	r0, [sp, #44]	; 0x2c
24051cbc:	a90b      	add	r1, sp, #44	; 0x2c
24051cbe:	f88d 002e 	strb.w	r0, [sp, #46]	; 0x2e
24051cc2:	e9cd 000e 	strd	r0, r0, [sp, #56]	; 0x38
24051cc6:	4620      	mov	r0, r4
24051cc8:	f005 ff5f 	bl	24057b8a <HAL_RTC_SetTime>
24051ccc:	4602      	mov	r2, r0
24051cce:	b108      	cbz	r0, 24051cd4 <main+0x3e4>
24051cd0:	b672      	cpsid	i
24051cd2:	e7fe      	b.n	24051cd2 <main+0x3e2>
24051cd4:	4b80      	ldr	r3, [pc, #512]	; (24051ed8 <main+0x5e8>)
24051cd6:	a908      	add	r1, sp, #32
24051cd8:	4620      	mov	r0, r4
24051cda:	9308      	str	r3, [sp, #32]
24051cdc:	f005 ffb7 	bl	24057c4e <HAL_RTC_SetDate>
24051ce0:	2800      	cmp	r0, #0
24051ce2:	d0d3      	beq.n	24051c8c <main+0x39c>
24051ce4:	b672      	cpsid	i
24051ce6:	e7fe      	b.n	24051ce6 <main+0x3f6>
24051ce8:	2601      	movs	r6, #1
24051cea:	900d      	str	r0, [sp, #52]	; 0x34
24051cec:	a90b      	add	r1, sp, #44	; 0x2c
24051cee:	e9cd 000b 	strd	r0, r0, [sp, #44]	; 0x2c
24051cf2:	e9cd 600e 	strd	r6, r0, [sp, #56]	; 0x38
24051cf6:	4620      	mov	r0, r4
24051cf8:	f001 fe36 	bl	24053968 <HAL_DAC_ConfigChannel>
24051cfc:	b108      	cbz	r0, 24051d02 <main+0x412>
24051cfe:	b672      	cpsid	i
24051d00:	e7fe      	b.n	24051d00 <main+0x410>
24051d02:	a90b      	add	r1, sp, #44	; 0x2c
24051d04:	2210      	movs	r2, #16
24051d06:	4620      	mov	r0, r4
24051d08:	f001 fe2e 	bl	24053968 <HAL_DAC_ConfigChannel>
24051d0c:	4601      	mov	r1, r0
24051d0e:	b108      	cbz	r0, 24051d14 <main+0x424>
24051d10:	b672      	cpsid	i
24051d12:	e7fe      	b.n	24051d12 <main+0x422>
24051d14:	2224      	movs	r2, #36	; 0x24
24051d16:	4c71      	ldr	r4, [pc, #452]	; (24051edc <main+0x5ec>)
24051d18:	a80b      	add	r0, sp, #44	; 0x2c
24051d1a:	f007 fbb3 	bl	24059484 <memset>
24051d1e:	4b70      	ldr	r3, [pc, #448]	; (24051ee0 <main+0x5f0>)
24051d20:	4620      	mov	r0, r4
24051d22:	6023      	str	r3, [r4, #0]
24051d24:	f001 fdd2 	bl	240538cc <HAL_DAC_Init>
24051d28:	4602      	mov	r2, r0
24051d2a:	b108      	cbz	r0, 24051d30 <main+0x440>
24051d2c:	b672      	cpsid	i
24051d2e:	e7fe      	b.n	24051d2e <main+0x43e>
24051d30:	e9cd 000b 	strd	r0, r0, [sp, #44]	; 0x2c
24051d34:	e9cd 060d 	strd	r0, r6, [sp, #52]	; 0x34
24051d38:	900f      	str	r0, [sp, #60]	; 0x3c
24051d3a:	a90b      	add	r1, sp, #44	; 0x2c
24051d3c:	4620      	mov	r0, r4
24051d3e:	f001 fe13 	bl	24053968 <HAL_DAC_ConfigChannel>
24051d42:	4604      	mov	r4, r0
24051d44:	b108      	cbz	r0, 24051d4a <main+0x45a>
24051d46:	b672      	cpsid	i
24051d48:	e7fe      	b.n	24051d48 <main+0x458>
24051d4a:	4d66      	ldr	r5, [pc, #408]	; (24051ee4 <main+0x5f4>)
24051d4c:	4601      	mov	r1, r0
24051d4e:	900a      	str	r0, [sp, #40]	; 0x28
24051d50:	221c      	movs	r2, #28
24051d52:	2704      	movs	r7, #4
24051d54:	e9cd 0008 	strd	r0, r0, [sp, #32]
24051d58:	a80b      	add	r0, sp, #44	; 0x2c
24051d5a:	f007 fb93 	bl	24059484 <memset>
24051d5e:	4b62      	ldr	r3, [pc, #392]	; (24051ee8 <main+0x5f8>)
24051d60:	4628      	mov	r0, r5
24051d62:	82ac      	strh	r4, [r5, #20]
24051d64:	612f      	str	r7, [r5, #16]
24051d66:	61ae      	str	r6, [r5, #24]
24051d68:	772c      	strb	r4, [r5, #28]
24051d6a:	636c      	str	r4, [r5, #52]	; 0x34
24051d6c:	f885 4038 	strb.w	r4, [r5, #56]	; 0x38
24051d70:	e9c5 3400 	strd	r3, r4, [r5]
24051d74:	e9c5 4402 	strd	r4, r4, [r5, #8]
24051d78:	e9c5 4409 	strd	r4, r4, [r5, #36]	; 0x24
24051d7c:	e9c5 440b 	strd	r4, r4, [r5, #44]	; 0x2c
24051d80:	f001 fbda 	bl	24053538 <HAL_ADC_Init>
24051d84:	b108      	cbz	r0, 24051d8a <main+0x49a>
24051d86:	b672      	cpsid	i
24051d88:	e7fe      	b.n	24051d88 <main+0x498>
24051d8a:	9008      	str	r0, [sp, #32]
24051d8c:	a908      	add	r1, sp, #32
24051d8e:	4628      	mov	r0, r5
24051d90:	f001 fcc0 	bl	24053714 <HAL_ADCEx_MultiModeConfigChannel>
24051d94:	b108      	cbz	r0, 24051d9a <main+0x4aa>
24051d96:	b672      	cpsid	i
24051d98:	e7fe      	b.n	24051d98 <main+0x4a8>
24051d9a:	4c54      	ldr	r4, [pc, #336]	; (24051eec <main+0x5fc>)
24051d9c:	2306      	movs	r3, #6
24051d9e:	900d      	str	r0, [sp, #52]	; 0x34
24051da0:	a90b      	add	r1, sp, #44	; 0x2c
24051da2:	9010      	str	r0, [sp, #64]	; 0x40
24051da4:	f88d 0045 	strb.w	r0, [sp, #69]	; 0x45
24051da8:	4628      	mov	r0, r5
24051daa:	e9cd 430b 	strd	r4, r3, [sp, #44]	; 0x2c
24051dae:	f240 73ff 	movw	r3, #2047	; 0x7ff
24051db2:	e9cd 370e 	strd	r3, r7, [sp, #56]	; 0x38
24051db6:	f000 ff81 	bl	24052cbc <HAL_ADC_ConfigChannel>
24051dba:	4604      	mov	r4, r0
24051dbc:	b108      	cbz	r0, 24051dc2 <main+0x4d2>
24051dbe:	b672      	cpsid	i
24051dc0:	e7fe      	b.n	24051dc0 <main+0x4d0>
24051dc2:	4601      	mov	r1, r0
24051dc4:	2210      	movs	r2, #16
24051dc6:	a80b      	add	r0, sp, #44	; 0x2c
24051dc8:	4d49      	ldr	r5, [pc, #292]	; (24051ef0 <main+0x600>)
24051dca:	f007 fb5b 	bl	24059484 <memset>
24051dce:	4849      	ldr	r0, [pc, #292]	; (24051ef4 <main+0x604>)
24051dd0:	f243 63b0 	movw	r3, #14000	; 0x36b0
24051dd4:	940a      	str	r4, [sp, #40]	; 0x28
24051dd6:	60ac      	str	r4, [r5, #8]
24051dd8:	e9c5 0300 	strd	r0, r3, [r5]
24051ddc:	f24c 3350 	movw	r3, #50000	; 0xc350
24051de0:	4628      	mov	r0, r5
24051de2:	e9cd 4408 	strd	r4, r4, [sp, #32]
24051de6:	e9c5 3403 	strd	r3, r4, [r5, #12]
24051dea:	e9c5 4405 	strd	r4, r4, [r5, #20]
24051dee:	f006 ff25 	bl	24058c3c <HAL_TIM_Base_Init>
24051df2:	b108      	cbz	r0, 24051df8 <main+0x508>
24051df4:	b672      	cpsid	i
24051df6:	e7fe      	b.n	24051df6 <main+0x506>
24051df8:	f44f 5380 	mov.w	r3, #4096	; 0x1000
24051dfc:	a90b      	add	r1, sp, #44	; 0x2c
24051dfe:	4628      	mov	r0, r5
24051e00:	930b      	str	r3, [sp, #44]	; 0x2c
24051e02:	f006 ff55 	bl	24058cb0 <HAL_TIM_ConfigClockSource>
24051e06:	b108      	cbz	r0, 24051e0c <main+0x51c>
24051e08:	b672      	cpsid	i
24051e0a:	e7fe      	b.n	24051e0a <main+0x51a>
24051e0c:	2300      	movs	r3, #0
24051e0e:	a908      	add	r1, sp, #32
24051e10:	4837      	ldr	r0, [pc, #220]	; (24051ef0 <main+0x600>)
24051e12:	930a      	str	r3, [sp, #40]	; 0x28
24051e14:	e9cd 3308 	strd	r3, r3, [sp, #32]
24051e18:	f007 f806 	bl	24058e28 <HAL_TIMEx_MasterConfigSynchronization>
24051e1c:	b108      	cbz	r0, 24051e22 <main+0x532>
24051e1e:	b672      	cpsid	i
24051e20:	e7fe      	b.n	24051e20 <main+0x530>
24051e22:	4b35      	ldr	r3, [pc, #212]	; (24051ef8 <main+0x608>)
24051e24:	f44f 3240 	mov.w	r2, #196608	; 0x30000
24051e28:	4934      	ldr	r1, [pc, #208]	; (24051efc <main+0x60c>)
24051e2a:	e9c3 1200 	strd	r1, r2, [r3]
24051e2e:	2202      	movs	r2, #2
24051e30:	e9c3 2002 	strd	r2, r0, [r3, #8]
24051e34:	4618      	mov	r0, r3
24051e36:	f002 fee9 	bl	24054c0c <HAL_DMA2D_Init>
24051e3a:	4604      	mov	r4, r0
24051e3c:	b108      	cbz	r0, 24051e42 <main+0x552>
24051e3e:	b672      	cpsid	i
24051e40:	e7fe      	b.n	24051e40 <main+0x550>
24051e42:	4602      	mov	r2, r0
24051e44:	4601      	mov	r1, r0
24051e46:	205c      	movs	r0, #92	; 0x5c
24051e48:	f001 fcda 	bl	24053800 <HAL_NVIC_SetPriority>
24051e4c:	205c      	movs	r0, #92	; 0x5c
24051e4e:	f001 fd09 	bl	24053864 <HAL_NVIC_EnableIRQ>
24051e52:	492b      	ldr	r1, [pc, #172]	; (24051f00 <main+0x610>)
24051e54:	482b      	ldr	r0, [pc, #172]	; (24051f04 <main+0x614>)
24051e56:	f7fe ff55 	bl	24050d04 <lcd_init>
24051e5a:	20b2      	movs	r0, #178	; 0xb2
24051e5c:	f7fe ff28 	bl	24050cb0 <lcd_backlight_set>
24051e60:	4829      	ldr	r0, [pc, #164]	; (24051f08 <main+0x618>)
24051e62:	f7fe feb1 	bl	24050bc8 <OSPI_Init>
24051e66:	f04f 4310 	mov.w	r3, #2415919104	; 0x90000000
24051e6a:	681b      	ldr	r3, [r3, #0]
24051e6c:	f1b3 3f88 	cmp.w	r3, #2290649224	; 0x88888888
24051e70:	d101      	bne.n	24051e76 <main+0x586>
24051e72:	b672      	cpsid	i
24051e74:	e7fe      	b.n	24051e74 <main+0x584>
24051e76:	f7fe fb43 	bl	24050500 <bq24072_init>
24051e7a:	f7fe f931 	bl	240500e0 <gw_audio_init>
24051e7e:	2214      	movs	r2, #20
24051e80:	4621      	mov	r1, r4
24051e82:	a80b      	add	r0, sp, #44	; 0x2c
24051e84:	f007 fafe 	bl	24059484 <memset>
24051e88:	4622      	mov	r2, r4
24051e8a:	a90b      	add	r1, sp, #44	; 0x2c
24051e8c:	480e      	ldr	r0, [pc, #56]	; (24051ec8 <main+0x5d8>)
24051e8e:	9408      	str	r4, [sp, #32]
24051e90:	f005 ff34 	bl	24057cfc <HAL_RTC_GetTime>
24051e94:	4622      	mov	r2, r4
24051e96:	a908      	add	r1, sp, #32
24051e98:	480b      	ldr	r0, [pc, #44]	; (24051ec8 <main+0x5d8>)
24051e9a:	f005 ff52 	bl	24057d42 <HAL_RTC_GetDate>
24051e9e:	4811      	ldr	r0, [pc, #68]	; (24051ee4 <main+0x5f4>)
24051ea0:	f001 f968 	bl	24053174 <HAL_ADC_Start>
24051ea4:	f04f 31ff 	mov.w	r1, #4294967295
24051ea8:	480e      	ldr	r0, [pc, #56]	; (24051ee4 <main+0x5f4>)
24051eaa:	f000 fd6b 	bl	24052984 <HAL_ADC_PollForConversion>
24051eae:	480d      	ldr	r0, [pc, #52]	; (24051ee4 <main+0x5f4>)
24051eb0:	f000 fddc 	bl	24052a6c <HAL_ADC_GetValue>
24051eb4:	9b0c      	ldr	r3, [sp, #48]	; 0x30
24051eb6:	4058      	eors	r0, r3
24051eb8:	f007 f824 	bl	24058f04 <srand>
24051ebc:	f7ff f930 	bl	24051120 <game_init>
24051ec0:	f7ff fa86 	bl	240513d0 <game_loop>
24051ec4:	e7fc      	b.n	24051ec0 <main+0x5d0>
24051ec6:	bf00      	nop
24051ec8:	2000047c 	.word	0x2000047c
24051ecc:	58004000 	.word	0x58004000
24051ed0:	20000270 	.word	0x20000270
24051ed4:	40007400 	.word	0x40007400
24051ed8:	00010101 	.word	0x00010101
24051edc:	20000284 	.word	0x20000284
24051ee0:	58003400 	.word	0x58003400
24051ee4:	2000020c 	.word	0x2000020c
24051ee8:	40022000 	.word	0x40022000
24051eec:	10c00010 	.word	0x10c00010
24051ef0:	200005c4 	.word	0x200005c4
24051ef4:	40010000 	.word	0x40010000
24051ef8:	20000298 	.word	0x20000298
24051efc:	52001000 	.word	0x52001000
24051f00:	20000378 	.word	0x20000378
24051f04:	2000053c 	.word	0x2000053c
24051f08:	20000420 	.word	0x20000420

24051f0c <Error_Handler>:
24051f0c:	b672      	cpsid	i
24051f0e:	e7fe      	b.n	24051f0e <Error_Handler+0x2>

24051f10 <HAL_MspInit>:
24051f10:	4b07      	ldr	r3, [pc, #28]	; (24051f30 <HAL_MspInit+0x20>)
24051f12:	b082      	sub	sp, #8
24051f14:	f8d3 2154 	ldr.w	r2, [r3, #340]	; 0x154
24051f18:	f042 0202 	orr.w	r2, r2, #2
24051f1c:	f8c3 2154 	str.w	r2, [r3, #340]	; 0x154
24051f20:	f8d3 3154 	ldr.w	r3, [r3, #340]	; 0x154
24051f24:	f003 0302 	and.w	r3, r3, #2
24051f28:	9301      	str	r3, [sp, #4]
24051f2a:	9b01      	ldr	r3, [sp, #4]
24051f2c:	b002      	add	sp, #8
24051f2e:	4770      	bx	lr
24051f30:	58024400 	.word	0x58024400

24051f34 <HAL_ADC_MspInit>:
24051f34:	b510      	push	{r4, lr}
24051f36:	b088      	sub	sp, #32
24051f38:	4604      	mov	r4, r0
24051f3a:	2214      	movs	r2, #20
24051f3c:	2100      	movs	r1, #0
24051f3e:	a803      	add	r0, sp, #12
24051f40:	f007 faa0 	bl	24059484 <memset>
24051f44:	6822      	ldr	r2, [r4, #0]
24051f46:	4b17      	ldr	r3, [pc, #92]	; (24051fa4 <HAL_ADC_MspInit+0x70>)
24051f48:	429a      	cmp	r2, r3
24051f4a:	d128      	bne.n	24051f9e <HAL_ADC_MspInit+0x6a>
24051f4c:	4b16      	ldr	r3, [pc, #88]	; (24051fa8 <HAL_ADC_MspInit+0x74>)
24051f4e:	a903      	add	r1, sp, #12
24051f50:	4816      	ldr	r0, [pc, #88]	; (24051fac <HAL_ADC_MspInit+0x78>)
24051f52:	f8d3 2138 	ldr.w	r2, [r3, #312]	; 0x138
24051f56:	f042 0220 	orr.w	r2, r2, #32
24051f5a:	f8c3 2138 	str.w	r2, [r3, #312]	; 0x138
24051f5e:	f8d3 2138 	ldr.w	r2, [r3, #312]	; 0x138
24051f62:	f002 0220 	and.w	r2, r2, #32
24051f66:	9201      	str	r2, [sp, #4]
24051f68:	9a01      	ldr	r2, [sp, #4]
24051f6a:	f8d3 2140 	ldr.w	r2, [r3, #320]	; 0x140
24051f6e:	f042 0204 	orr.w	r2, r2, #4
24051f72:	f8c3 2140 	str.w	r2, [r3, #320]	; 0x140
24051f76:	2210      	movs	r2, #16
24051f78:	f8d3 3140 	ldr.w	r3, [r3, #320]	; 0x140
24051f7c:	f003 0304 	and.w	r3, r3, #4
24051f80:	9302      	str	r3, [sp, #8]
24051f82:	9b02      	ldr	r3, [sp, #8]
24051f84:	2303      	movs	r3, #3
24051f86:	e9cd 2303 	strd	r2, r3, [sp, #12]
24051f8a:	f002 fe7d 	bl	24054c88 <HAL_GPIO_Init>
24051f8e:	2200      	movs	r2, #0
24051f90:	2012      	movs	r0, #18
24051f92:	4611      	mov	r1, r2
24051f94:	f001 fc34 	bl	24053800 <HAL_NVIC_SetPriority>
24051f98:	2012      	movs	r0, #18
24051f9a:	f001 fc63 	bl	24053864 <HAL_NVIC_EnableIRQ>
24051f9e:	b008      	add	sp, #32
24051fa0:	bd10      	pop	{r4, pc}
24051fa2:	bf00      	nop
24051fa4:	40022000 	.word	0x40022000
24051fa8:	58024400 	.word	0x58024400
24051fac:	58020800 	.word	0x58020800

24051fb0 <HAL_DAC_MspInit>:
24051fb0:	2214      	movs	r2, #20
24051fb2:	2100      	movs	r1, #0
24051fb4:	b510      	push	{r4, lr}
24051fb6:	b08a      	sub	sp, #40	; 0x28
24051fb8:	4604      	mov	r4, r0
24051fba:	eb0d 0002 	add.w	r0, sp, r2
24051fbe:	f007 fa61 	bl	24059484 <memset>
24051fc2:	6823      	ldr	r3, [r4, #0]
24051fc4:	4a21      	ldr	r2, [pc, #132]	; (2405204c <HAL_DAC_MspInit+0x9c>)
24051fc6:	4293      	cmp	r3, r2
24051fc8:	d122      	bne.n	24052010 <HAL_DAC_MspInit+0x60>
24051fca:	4b21      	ldr	r3, [pc, #132]	; (24052050 <HAL_DAC_MspInit+0xa0>)
24051fcc:	f8d3 2148 	ldr.w	r2, [r3, #328]	; 0x148
24051fd0:	f042 5200 	orr.w	r2, r2, #536870912	; 0x20000000
24051fd4:	f8c3 2148 	str.w	r2, [r3, #328]	; 0x148
24051fd8:	f8d3 2148 	ldr.w	r2, [r3, #328]	; 0x148
24051fdc:	f002 5200 	and.w	r2, r2, #536870912	; 0x20000000
24051fe0:	9201      	str	r2, [sp, #4]
24051fe2:	9a01      	ldr	r2, [sp, #4]
24051fe4:	f8d3 2140 	ldr.w	r2, [r3, #320]	; 0x140
24051fe8:	f042 0201 	orr.w	r2, r2, #1
24051fec:	f8c3 2140 	str.w	r2, [r3, #320]	; 0x140
24051ff0:	f8d3 3140 	ldr.w	r3, [r3, #320]	; 0x140
24051ff4:	f003 0301 	and.w	r3, r3, #1
24051ff8:	9302      	str	r3, [sp, #8]
24051ffa:	9b02      	ldr	r3, [sp, #8]
24051ffc:	2330      	movs	r3, #48	; 0x30
24051ffe:	9305      	str	r3, [sp, #20]
24052000:	2303      	movs	r3, #3
24052002:	a905      	add	r1, sp, #20
24052004:	4813      	ldr	r0, [pc, #76]	; (24052054 <HAL_DAC_MspInit+0xa4>)
24052006:	9306      	str	r3, [sp, #24]
24052008:	f002 fe3e 	bl	24054c88 <HAL_GPIO_Init>
2405200c:	b00a      	add	sp, #40	; 0x28
2405200e:	bd10      	pop	{r4, pc}
24052010:	4a11      	ldr	r2, [pc, #68]	; (24052058 <HAL_DAC_MspInit+0xa8>)
24052012:	4293      	cmp	r3, r2
24052014:	d1fa      	bne.n	2405200c <HAL_DAC_MspInit+0x5c>
24052016:	4b0e      	ldr	r3, [pc, #56]	; (24052050 <HAL_DAC_MspInit+0xa0>)
24052018:	f8d3 2154 	ldr.w	r2, [r3, #340]	; 0x154
2405201c:	f442 5200 	orr.w	r2, r2, #8192	; 0x2000
24052020:	f8c3 2154 	str.w	r2, [r3, #340]	; 0x154
24052024:	f8d3 2154 	ldr.w	r2, [r3, #340]	; 0x154
24052028:	f402 5200 	and.w	r2, r2, #8192	; 0x2000
2405202c:	9203      	str	r2, [sp, #12]
2405202e:	9a03      	ldr	r2, [sp, #12]
24052030:	f8d3 2140 	ldr.w	r2, [r3, #320]	; 0x140
24052034:	f042 0201 	orr.w	r2, r2, #1
24052038:	f8c3 2140 	str.w	r2, [r3, #320]	; 0x140
2405203c:	f8d3 3140 	ldr.w	r3, [r3, #320]	; 0x140
24052040:	f003 0301 	and.w	r3, r3, #1
24052044:	9304      	str	r3, [sp, #16]
24052046:	9b04      	ldr	r3, [sp, #16]
24052048:	2340      	movs	r3, #64	; 0x40
2405204a:	e7d8      	b.n	24051ffe <HAL_DAC_MspInit+0x4e>
2405204c:	40007400 	.word	0x40007400
24052050:	58024400 	.word	0x58024400
24052054:	58020000 	.word	0x58020000
24052058:	58003400 	.word	0x58003400

2405205c <HAL_DMA2D_MspInit>:
2405205c:	6802      	ldr	r2, [r0, #0]
2405205e:	b082      	sub	sp, #8
24052060:	4b08      	ldr	r3, [pc, #32]	; (24052084 <HAL_DMA2D_MspInit+0x28>)
24052062:	429a      	cmp	r2, r3
24052064:	d10c      	bne.n	24052080 <HAL_DMA2D_MspInit+0x24>
24052066:	4b08      	ldr	r3, [pc, #32]	; (24052088 <HAL_DMA2D_MspInit+0x2c>)
24052068:	f8d3 2134 	ldr.w	r2, [r3, #308]	; 0x134
2405206c:	f042 0210 	orr.w	r2, r2, #16
24052070:	f8c3 2134 	str.w	r2, [r3, #308]	; 0x134
24052074:	f8d3 3134 	ldr.w	r3, [r3, #308]	; 0x134
24052078:	f003 0310 	and.w	r3, r3, #16
2405207c:	9301      	str	r3, [sp, #4]
2405207e:	9b01      	ldr	r3, [sp, #4]
24052080:	b002      	add	sp, #8
24052082:	4770      	bx	lr
24052084:	52001000 	.word	0x52001000
24052088:	58024400 	.word	0x58024400

2405208c <HAL_LTDC_MspInit>:
2405208c:	e92d 41f0 	stmdb	sp!, {r4, r5, r6, r7, r8, lr}
24052090:	b08c      	sub	sp, #48	; 0x30
24052092:	4604      	mov	r4, r0
24052094:	2214      	movs	r2, #20
24052096:	2100      	movs	r1, #0
24052098:	a807      	add	r0, sp, #28
2405209a:	f007 f9f3 	bl	24059484 <memset>
2405209e:	6822      	ldr	r2, [r4, #0]
240520a0:	4b6a      	ldr	r3, [pc, #424]	; (2405224c <HAL_LTDC_MspInit+0x1c0>)
240520a2:	429a      	cmp	r2, r3
240520a4:	f040 80ce 	bne.w	24052244 <HAL_LTDC_MspInit+0x1b8>
240520a8:	4b69      	ldr	r3, [pc, #420]	; (24052250 <HAL_LTDC_MspInit+0x1c4>)
240520aa:	2502      	movs	r5, #2
240520ac:	f04f 0801 	mov.w	r8, #1
240520b0:	270b      	movs	r7, #11
240520b2:	f8d3 2144 	ldr.w	r2, [r3, #324]	; 0x144
240520b6:	a907      	add	r1, sp, #28
240520b8:	4866      	ldr	r0, [pc, #408]	; (24052254 <HAL_LTDC_MspInit+0x1c8>)
240520ba:	2400      	movs	r4, #0
240520bc:	f042 0208 	orr.w	r2, r2, #8
240520c0:	260e      	movs	r6, #14
240520c2:	f8c3 2144 	str.w	r2, [r3, #324]	; 0x144
240520c6:	f8d3 2144 	ldr.w	r2, [r3, #324]	; 0x144
240520ca:	f002 0208 	and.w	r2, r2, #8
240520ce:	9201      	str	r2, [sp, #4]
240520d0:	9a01      	ldr	r2, [sp, #4]
240520d2:	f8d3 2140 	ldr.w	r2, [r3, #320]	; 0x140
240520d6:	f042 0204 	orr.w	r2, r2, #4
240520da:	f8c3 2140 	str.w	r2, [r3, #320]	; 0x140
240520de:	f8d3 2140 	ldr.w	r2, [r3, #320]	; 0x140
240520e2:	f002 0204 	and.w	r2, r2, #4
240520e6:	9202      	str	r2, [sp, #8]
240520e8:	9a02      	ldr	r2, [sp, #8]
240520ea:	f8d3 2140 	ldr.w	r2, [r3, #320]	; 0x140
240520ee:	f042 0201 	orr.w	r2, r2, #1
240520f2:	f8c3 2140 	str.w	r2, [r3, #320]	; 0x140
240520f6:	f8d3 2140 	ldr.w	r2, [r3, #320]	; 0x140
240520fa:	f002 0201 	and.w	r2, r2, #1
240520fe:	9203      	str	r2, [sp, #12]
24052100:	9a03      	ldr	r2, [sp, #12]
24052102:	f8d3 2140 	ldr.w	r2, [r3, #320]	; 0x140
24052106:	f042 0202 	orr.w	r2, r2, #2
2405210a:	f8c3 2140 	str.w	r2, [r3, #320]	; 0x140
2405210e:	f8d3 2140 	ldr.w	r2, [r3, #320]	; 0x140
24052112:	f002 0202 	and.w	r2, r2, #2
24052116:	9204      	str	r2, [sp, #16]
24052118:	9a04      	ldr	r2, [sp, #16]
2405211a:	f8d3 2140 	ldr.w	r2, [r3, #320]	; 0x140
2405211e:	f042 0210 	orr.w	r2, r2, #16
24052122:	f8c3 2140 	str.w	r2, [r3, #320]	; 0x140
24052126:	f8d3 2140 	ldr.w	r2, [r3, #320]	; 0x140
2405212a:	f002 0210 	and.w	r2, r2, #16
2405212e:	9205      	str	r2, [sp, #20]
24052130:	9a05      	ldr	r2, [sp, #20]
24052132:	f8d3 2140 	ldr.w	r2, [r3, #320]	; 0x140
24052136:	f042 0208 	orr.w	r2, r2, #8
2405213a:	f8c3 2140 	str.w	r2, [r3, #320]	; 0x140
2405213e:	f8d3 3140 	ldr.w	r3, [r3, #320]	; 0x140
24052142:	f003 0308 	and.w	r3, r3, #8
24052146:	9306      	str	r3, [sp, #24]
24052148:	9b06      	ldr	r3, [sp, #24]
2405214a:	e9cd 8507 	strd	r8, r5, [sp, #28]
2405214e:	970b      	str	r7, [sp, #44]	; 0x2c
24052150:	f002 fd9a 	bl	24054c88 <HAL_GPIO_Init>
24052154:	f44f 6338 	mov.w	r3, #2944	; 0xb80
24052158:	a907      	add	r1, sp, #28
2405215a:	483f      	ldr	r0, [pc, #252]	; (24052258 <HAL_LTDC_MspInit+0x1cc>)
2405215c:	960b      	str	r6, [sp, #44]	; 0x2c
2405215e:	e9cd 3507 	strd	r3, r5, [sp, #28]
24052162:	e9cd 4409 	strd	r4, r4, [sp, #36]	; 0x24
24052166:	f002 fd8f 	bl	24054c88 <HAL_GPIO_Init>
2405216a:	a907      	add	r1, sp, #28
2405216c:	483b      	ldr	r0, [pc, #236]	; (2405225c <HAL_LTDC_MspInit+0x1d0>)
2405216e:	e9cd 8507 	strd	r8, r5, [sp, #28]
24052172:	f04f 0809 	mov.w	r8, #9
24052176:	e9cd 4409 	strd	r4, r4, [sp, #36]	; 0x24
2405217a:	f8cd 802c 	str.w	r8, [sp, #44]	; 0x2c
2405217e:	f002 fd83 	bl	24054c88 <HAL_GPIO_Init>
24052182:	f44f 4320 	mov.w	r3, #40960	; 0xa000
24052186:	a907      	add	r1, sp, #28
24052188:	4835      	ldr	r0, [pc, #212]	; (24052260 <HAL_LTDC_MspInit+0x1d4>)
2405218a:	960b      	str	r6, [sp, #44]	; 0x2c
2405218c:	e9cd 3507 	strd	r3, r5, [sp, #28]
24052190:	e9cd 4409 	strd	r4, r4, [sp, #36]	; 0x24
24052194:	f002 fd78 	bl	24054c88 <HAL_GPIO_Init>
24052198:	f44f 439a 	mov.w	r3, #19712	; 0x4d00
2405219c:	a907      	add	r1, sp, #28
2405219e:	482f      	ldr	r0, [pc, #188]	; (2405225c <HAL_LTDC_MspInit+0x1d0>)
240521a0:	960b      	str	r6, [sp, #44]	; 0x2c
240521a2:	e9cd 3507 	strd	r3, r5, [sp, #28]
240521a6:	e9cd 4409 	strd	r4, r4, [sp, #36]	; 0x24
240521aa:	f002 fd6d 	bl	24054c88 <HAL_GPIO_Init>
240521ae:	f44f 6389 	mov.w	r3, #1096	; 0x448
240521b2:	a907      	add	r1, sp, #28
240521b4:	482b      	ldr	r0, [pc, #172]	; (24052264 <HAL_LTDC_MspInit+0x1d8>)
240521b6:	960b      	str	r6, [sp, #44]	; 0x2c
240521b8:	e9cd 3507 	strd	r3, r5, [sp, #28]
240521bc:	e9cd 4409 	strd	r4, r4, [sp, #36]	; 0x24
240521c0:	f002 fd62 	bl	24054c88 <HAL_GPIO_Init>
240521c4:	f44f 6398 	mov.w	r3, #1216	; 0x4c0
240521c8:	a907      	add	r1, sp, #28
240521ca:	4822      	ldr	r0, [pc, #136]	; (24052254 <HAL_LTDC_MspInit+0x1c8>)
240521cc:	960b      	str	r6, [sp, #44]	; 0x2c
240521ce:	e9cd 3507 	strd	r3, r5, [sp, #28]
240521d2:	e9cd 4409 	strd	r4, r4, [sp, #36]	; 0x24
240521d6:	f002 fd57 	bl	24054c88 <HAL_GPIO_Init>
240521da:	f44f 7300 	mov.w	r3, #512	; 0x200
240521de:	a907      	add	r1, sp, #28
240521e0:	481c      	ldr	r0, [pc, #112]	; (24052254 <HAL_LTDC_MspInit+0x1c8>)
240521e2:	e9cd 3507 	strd	r3, r5, [sp, #28]
240521e6:	230a      	movs	r3, #10
240521e8:	e9cd 4409 	strd	r4, r4, [sp, #36]	; 0x24
240521ec:	930b      	str	r3, [sp, #44]	; 0x2c
240521ee:	f002 fd4b 	bl	24054c88 <HAL_GPIO_Init>
240521f2:	f44f 6380 	mov.w	r3, #1024	; 0x400
240521f6:	a907      	add	r1, sp, #28
240521f8:	4817      	ldr	r0, [pc, #92]	; (24052258 <HAL_LTDC_MspInit+0x1cc>)
240521fa:	e9cd 3507 	strd	r3, r5, [sp, #28]
240521fe:	230c      	movs	r3, #12
24052200:	e9cd 4409 	strd	r4, r4, [sp, #36]	; 0x24
24052204:	930b      	str	r3, [sp, #44]	; 0x2c
24052206:	f002 fd3f 	bl	24054c88 <HAL_GPIO_Init>
2405220a:	2304      	movs	r3, #4
2405220c:	a907      	add	r1, sp, #28
2405220e:	4815      	ldr	r0, [pc, #84]	; (24052264 <HAL_LTDC_MspInit+0x1d8>)
24052210:	f8cd 802c 	str.w	r8, [sp, #44]	; 0x2c
24052214:	e9cd 3507 	strd	r3, r5, [sp, #28]
24052218:	e9cd 4409 	strd	r4, r4, [sp, #36]	; 0x24
2405221c:	f002 fd34 	bl	24054c88 <HAL_GPIO_Init>
24052220:	2320      	movs	r3, #32
24052222:	a907      	add	r1, sp, #28
24052224:	480d      	ldr	r0, [pc, #52]	; (2405225c <HAL_LTDC_MspInit+0x1d0>)
24052226:	970b      	str	r7, [sp, #44]	; 0x2c
24052228:	e9cd 3507 	strd	r3, r5, [sp, #28]
2405222c:	e9cd 4409 	strd	r4, r4, [sp, #36]	; 0x24
24052230:	f002 fd2a 	bl	24054c88 <HAL_GPIO_Init>
24052234:	2058      	movs	r0, #88	; 0x58
24052236:	4622      	mov	r2, r4
24052238:	4621      	mov	r1, r4
2405223a:	f001 fae1 	bl	24053800 <HAL_NVIC_SetPriority>
2405223e:	2058      	movs	r0, #88	; 0x58
24052240:	f001 fb10 	bl	24053864 <HAL_NVIC_EnableIRQ>
24052244:	b00c      	add	sp, #48	; 0x30
24052246:	e8bd 81f0 	ldmia.w	sp!, {r4, r5, r6, r7, r8, pc}
2405224a:	bf00      	nop
2405224c:	50001000 	.word	0x50001000
24052250:	58024400 	.word	0x58024400
24052254:	58020800 	.word	0x58020800
24052258:	58020000 	.word	0x58020000
2405225c:	58020400 	.word	0x58020400
24052260:	58021000 	.word	0x58021000
24052264:	58020c00 	.word	0x58020c00

24052268 <HAL_OSPI_MspInit>:
24052268:	e92d 43f0 	stmdb	sp!, {r4, r5, r6, r7, r8, r9, lr}
2405226c:	b0bd      	sub	sp, #244	; 0xf4
2405226e:	4604      	mov	r4, r0
24052270:	2214      	movs	r2, #20
24052272:	2100      	movs	r1, #0
24052274:	a807      	add	r0, sp, #28
24052276:	f007 f905 	bl	24059484 <memset>
2405227a:	22c0      	movs	r2, #192	; 0xc0
2405227c:	2100      	movs	r1, #0
2405227e:	a80c      	add	r0, sp, #48	; 0x30
24052280:	f007 f900 	bl	24059484 <memset>
24052284:	6822      	ldr	r2, [r4, #0]
24052286:	4b51      	ldr	r3, [pc, #324]	; (240523cc <HAL_OSPI_MspInit+0x164>)
24052288:	429a      	cmp	r2, r3
2405228a:	f040 809b 	bne.w	240523c4 <HAL_OSPI_MspInit+0x15c>
2405228e:	2300      	movs	r3, #0
24052290:	f04f 7200 	mov.w	r2, #33554432	; 0x2000000
24052294:	e9cd 230c 	strd	r2, r3, [sp, #48]	; 0x30
24052298:	2330      	movs	r3, #48	; 0x30
2405229a:	eb0d 0003 	add.w	r0, sp, r3
2405229e:	931f      	str	r3, [sp, #124]	; 0x7c
240522a0:	f004 fb66 	bl	24056970 <HAL_RCCEx_PeriphCLKConfig>
240522a4:	b108      	cbz	r0, 240522aa <HAL_OSPI_MspInit+0x42>
240522a6:	f7ff fe31 	bl	24051f0c <Error_Handler>
240522aa:	4b49      	ldr	r3, [pc, #292]	; (240523d0 <HAL_OSPI_MspInit+0x168>)
240522ac:	2402      	movs	r4, #2
240522ae:	2600      	movs	r6, #0
240522b0:	2503      	movs	r5, #3
240522b2:	f8d3 2134 	ldr.w	r2, [r3, #308]	; 0x134
240522b6:	2709      	movs	r7, #9
240522b8:	f04f 0904 	mov.w	r9, #4
240522bc:	a907      	add	r1, sp, #28
240522be:	f442 1200 	orr.w	r2, r2, #2097152	; 0x200000
240522c2:	4844      	ldr	r0, [pc, #272]	; (240523d4 <HAL_OSPI_MspInit+0x16c>)
240522c4:	f04f 080b 	mov.w	r8, #11
240522c8:	f8c3 2134 	str.w	r2, [r3, #308]	; 0x134
240522cc:	f8d3 2134 	ldr.w	r2, [r3, #308]	; 0x134
240522d0:	f402 1200 	and.w	r2, r2, #2097152	; 0x200000
240522d4:	9201      	str	r2, [sp, #4]
240522d6:	9a01      	ldr	r2, [sp, #4]
240522d8:	f8d3 2134 	ldr.w	r2, [r3, #308]	; 0x134
240522dc:	f442 4280 	orr.w	r2, r2, #16384	; 0x4000
240522e0:	f8c3 2134 	str.w	r2, [r3, #308]	; 0x134
240522e4:	f8d3 2134 	ldr.w	r2, [r3, #308]	; 0x134
240522e8:	f402 4280 	and.w	r2, r2, #16384	; 0x4000
240522ec:	9202      	str	r2, [sp, #8]
240522ee:	9a02      	ldr	r2, [sp, #8]
240522f0:	f8d3 2140 	ldr.w	r2, [r3, #320]	; 0x140
240522f4:	f042 0210 	orr.w	r2, r2, #16
240522f8:	f8c3 2140 	str.w	r2, [r3, #320]	; 0x140
240522fc:	f8d3 2140 	ldr.w	r2, [r3, #320]	; 0x140
24052300:	f002 0210 	and.w	r2, r2, #16
24052304:	9203      	str	r2, [sp, #12]
24052306:	9a03      	ldr	r2, [sp, #12]
24052308:	f8d3 2140 	ldr.w	r2, [r3, #320]	; 0x140
2405230c:	f042 0201 	orr.w	r2, r2, #1
24052310:	f8c3 2140 	str.w	r2, [r3, #320]	; 0x140
24052314:	f8d3 2140 	ldr.w	r2, [r3, #320]	; 0x140
24052318:	f002 0201 	and.w	r2, r2, #1
2405231c:	9204      	str	r2, [sp, #16]
2405231e:	9a04      	ldr	r2, [sp, #16]
24052320:	f8d3 2140 	ldr.w	r2, [r3, #320]	; 0x140
24052324:	f042 0202 	orr.w	r2, r2, #2
24052328:	f8c3 2140 	str.w	r2, [r3, #320]	; 0x140
2405232c:	f8d3 2140 	ldr.w	r2, [r3, #320]	; 0x140
24052330:	f002 0202 	and.w	r2, r2, #2
24052334:	9205      	str	r2, [sp, #20]
24052336:	9a05      	ldr	r2, [sp, #20]
24052338:	f8d3 2140 	ldr.w	r2, [r3, #320]	; 0x140
2405233c:	f042 0208 	orr.w	r2, r2, #8
24052340:	f8c3 2140 	str.w	r2, [r3, #320]	; 0x140
24052344:	f8d3 3140 	ldr.w	r3, [r3, #320]	; 0x140
24052348:	f003 0308 	and.w	r3, r3, #8
2405234c:	9306      	str	r3, [sp, #24]
2405234e:	9b06      	ldr	r3, [sp, #24]
24052350:	e9cd 9407 	strd	r9, r4, [sp, #28]
24052354:	e9cd 6509 	strd	r6, r5, [sp, #36]	; 0x24
24052358:	970b      	str	r7, [sp, #44]	; 0x2c
2405235a:	f002 fc95 	bl	24054c88 <HAL_GPIO_Init>
2405235e:	a907      	add	r1, sp, #28
24052360:	481d      	ldr	r0, [pc, #116]	; (240523d8 <HAL_OSPI_MspInit+0x170>)
24052362:	970b      	str	r7, [sp, #44]	; 0x2c
24052364:	e9cd 4407 	strd	r4, r4, [sp, #28]
24052368:	e9cd 6509 	strd	r6, r5, [sp, #36]	; 0x24
2405236c:	f002 fc8c 	bl	24054c88 <HAL_GPIO_Init>
24052370:	a907      	add	r1, sp, #28
24052372:	481a      	ldr	r0, [pc, #104]	; (240523dc <HAL_OSPI_MspInit+0x174>)
24052374:	f8cd 802c 	str.w	r8, [sp, #44]	; 0x2c
24052378:	e9cd 4407 	strd	r4, r4, [sp, #28]
2405237c:	e9cd 6509 	strd	r6, r5, [sp, #36]	; 0x24
24052380:	f002 fc82 	bl	24054c88 <HAL_GPIO_Init>
24052384:	a907      	add	r1, sp, #28
24052386:	4815      	ldr	r0, [pc, #84]	; (240523dc <HAL_OSPI_MspInit+0x174>)
24052388:	970b      	str	r7, [sp, #44]	; 0x2c
2405238a:	e9cd 9407 	strd	r9, r4, [sp, #28]
2405238e:	e9cd 6509 	strd	r6, r5, [sp, #36]	; 0x24
24052392:	f002 fc79 	bl	24054c88 <HAL_GPIO_Init>
24052396:	f44f 6300 	mov.w	r3, #2048	; 0x800
2405239a:	a907      	add	r1, sp, #28
2405239c:	480d      	ldr	r0, [pc, #52]	; (240523d4 <HAL_OSPI_MspInit+0x16c>)
2405239e:	f8cd 802c 	str.w	r8, [sp, #44]	; 0x2c
240523a2:	e9cd 3407 	strd	r3, r4, [sp, #28]
240523a6:	e9cd 6509 	strd	r6, r5, [sp, #36]	; 0x24
240523aa:	f002 fc6d 	bl	24054c88 <HAL_GPIO_Init>
240523ae:	f44f 5380 	mov.w	r3, #4096	; 0x1000
240523b2:	a907      	add	r1, sp, #28
240523b4:	480a      	ldr	r0, [pc, #40]	; (240523e0 <HAL_OSPI_MspInit+0x178>)
240523b6:	970b      	str	r7, [sp, #44]	; 0x2c
240523b8:	e9cd 3407 	strd	r3, r4, [sp, #28]
240523bc:	e9cd 6509 	strd	r6, r5, [sp, #36]	; 0x24
240523c0:	f002 fc62 	bl	24054c88 <HAL_GPIO_Init>
240523c4:	b03d      	add	sp, #244	; 0xf4
240523c6:	e8bd 83f0 	ldmia.w	sp!, {r4, r5, r6, r7, r8, r9, pc}
240523ca:	bf00      	nop
240523cc:	52005000 	.word	0x52005000
240523d0:	58024400 	.word	0x58024400
240523d4:	58021000 	.word	0x58021000
240523d8:	58020000 	.word	0x58020000
240523dc:	58020400 	.word	0x58020400
240523e0:	58020c00 	.word	0x58020c00

240523e4 <HAL_RTC_MspInit>:
240523e4:	b510      	push	{r4, lr}
240523e6:	b0b0      	sub	sp, #192	; 0xc0
240523e8:	4604      	mov	r4, r0
240523ea:	22c0      	movs	r2, #192	; 0xc0
240523ec:	2100      	movs	r1, #0
240523ee:	4668      	mov	r0, sp
240523f0:	f007 f848 	bl	24059484 <memset>
240523f4:	6822      	ldr	r2, [r4, #0]
240523f6:	4b0c      	ldr	r3, [pc, #48]	; (24052428 <HAL_RTC_MspInit+0x44>)
240523f8:	429a      	cmp	r2, r3
240523fa:	d112      	bne.n	24052422 <HAL_RTC_MspInit+0x3e>
240523fc:	2300      	movs	r3, #0
240523fe:	f44f 0280 	mov.w	r2, #4194304	; 0x400000
24052402:	4668      	mov	r0, sp
24052404:	e9cd 2300 	strd	r2, r3, [sp]
24052408:	f44f 7380 	mov.w	r3, #256	; 0x100
2405240c:	932d      	str	r3, [sp, #180]	; 0xb4
2405240e:	f004 faaf 	bl	24056970 <HAL_RCCEx_PeriphCLKConfig>
24052412:	b108      	cbz	r0, 24052418 <HAL_RTC_MspInit+0x34>
24052414:	f7ff fd7a 	bl	24051f0c <Error_Handler>
24052418:	4a04      	ldr	r2, [pc, #16]	; (2405242c <HAL_RTC_MspInit+0x48>)
2405241a:	6f13      	ldr	r3, [r2, #112]	; 0x70
2405241c:	f443 4300 	orr.w	r3, r3, #32768	; 0x8000
24052420:	6713      	str	r3, [r2, #112]	; 0x70
24052422:	b030      	add	sp, #192	; 0xc0
24052424:	bd10      	pop	{r4, pc}
24052426:	bf00      	nop
24052428:	58004000 	.word	0x58004000
2405242c:	58024400 	.word	0x58024400

24052430 <HAL_SPI_MspInit>:
24052430:	b510      	push	{r4, lr}
24052432:	b0b8      	sub	sp, #224	; 0xe0
24052434:	4604      	mov	r4, r0
24052436:	2214      	movs	r2, #20
24052438:	2100      	movs	r1, #0
2405243a:	a803      	add	r0, sp, #12
2405243c:	f007 f822 	bl	24059484 <memset>
24052440:	22c0      	movs	r2, #192	; 0xc0
24052442:	2100      	movs	r1, #0
24052444:	a808      	add	r0, sp, #32
24052446:	f007 f81d 	bl	24059484 <memset>
2405244a:	6822      	ldr	r2, [r4, #0]
2405244c:	4b1c      	ldr	r3, [pc, #112]	; (240524c0 <HAL_SPI_MspInit+0x90>)
2405244e:	429a      	cmp	r2, r3
24052450:	d134      	bne.n	240524bc <HAL_SPI_MspInit+0x8c>
24052452:	2300      	movs	r3, #0
24052454:	f44f 5280 	mov.w	r2, #4096	; 0x1000
24052458:	a808      	add	r0, sp, #32
2405245a:	e9cd 2308 	strd	r2, r3, [sp, #32]
2405245e:	f44f 4380 	mov.w	r3, #16384	; 0x4000
24052462:	9321      	str	r3, [sp, #132]	; 0x84
24052464:	f004 fa84 	bl	24056970 <HAL_RCCEx_PeriphCLKConfig>
24052468:	b108      	cbz	r0, 2405246e <HAL_SPI_MspInit+0x3e>
2405246a:	f7ff fd4f 	bl	24051f0c <Error_Handler>
2405246e:	4b15      	ldr	r3, [pc, #84]	; (240524c4 <HAL_SPI_MspInit+0x94>)
24052470:	a903      	add	r1, sp, #12
24052472:	4815      	ldr	r0, [pc, #84]	; (240524c8 <HAL_SPI_MspInit+0x98>)
24052474:	f8d3 2148 	ldr.w	r2, [r3, #328]	; 0x148
24052478:	f442 4280 	orr.w	r2, r2, #16384	; 0x4000
2405247c:	f8c3 2148 	str.w	r2, [r3, #328]	; 0x148
24052480:	f8d3 2148 	ldr.w	r2, [r3, #328]	; 0x148
24052484:	f402 4280 	and.w	r2, r2, #16384	; 0x4000
24052488:	9201      	str	r2, [sp, #4]
2405248a:	9a01      	ldr	r2, [sp, #4]
2405248c:	f8d3 2140 	ldr.w	r2, [r3, #320]	; 0x140
24052490:	f042 0202 	orr.w	r2, r2, #2
24052494:	f8c3 2140 	str.w	r2, [r3, #320]	; 0x140
24052498:	f44f 4220 	mov.w	r2, #40960	; 0xa000
2405249c:	f8d3 3140 	ldr.w	r3, [r3, #320]	; 0x140
240524a0:	f003 0302 	and.w	r3, r3, #2
240524a4:	9302      	str	r3, [sp, #8]
240524a6:	9b02      	ldr	r3, [sp, #8]
240524a8:	2302      	movs	r3, #2
240524aa:	e9cd 2303 	strd	r2, r3, [sp, #12]
240524ae:	2300      	movs	r3, #0
240524b0:	e9cd 3305 	strd	r3, r3, [sp, #20]
240524b4:	2305      	movs	r3, #5
240524b6:	9307      	str	r3, [sp, #28]
240524b8:	f002 fbe6 	bl	24054c88 <HAL_GPIO_Init>
240524bc:	b038      	add	sp, #224	; 0xe0
240524be:	bd10      	pop	{r4, pc}
240524c0:	40003800 	.word	0x40003800
240524c4:	58024400 	.word	0x58024400
240524c8:	58020400 	.word	0x58020400

240524cc <HAL_TIM_Base_MspInit>:
240524cc:	4b0f      	ldr	r3, [pc, #60]	; (2405250c <HAL_TIM_Base_MspInit+0x40>)
240524ce:	b507      	push	{r0, r1, r2, lr}
240524d0:	6802      	ldr	r2, [r0, #0]
240524d2:	429a      	cmp	r2, r3
240524d4:	d117      	bne.n	24052506 <HAL_TIM_Base_MspInit+0x3a>
240524d6:	4b0e      	ldr	r3, [pc, #56]	; (24052510 <HAL_TIM_Base_MspInit+0x44>)
240524d8:	2019      	movs	r0, #25
240524da:	f8d3 2150 	ldr.w	r2, [r3, #336]	; 0x150
240524de:	f042 0201 	orr.w	r2, r2, #1
240524e2:	f8c3 2150 	str.w	r2, [r3, #336]	; 0x150
240524e6:	2200      	movs	r2, #0
240524e8:	f8d3 3150 	ldr.w	r3, [r3, #336]	; 0x150
240524ec:	4611      	mov	r1, r2
240524ee:	f003 0301 	and.w	r3, r3, #1
240524f2:	9301      	str	r3, [sp, #4]
240524f4:	9b01      	ldr	r3, [sp, #4]
240524f6:	f001 f983 	bl	24053800 <HAL_NVIC_SetPriority>
240524fa:	2019      	movs	r0, #25
240524fc:	b003      	add	sp, #12
240524fe:	f85d eb04 	ldr.w	lr, [sp], #4
24052502:	f001 b9af 	b.w	24053864 <HAL_NVIC_EnableIRQ>
24052506:	b003      	add	sp, #12
24052508:	f85d fb04 	ldr.w	pc, [sp], #4
2405250c:	40010000 	.word	0x40010000
24052510:	58024400 	.word	0x58024400

24052514 <HAL_SAI_MspInit>:
24052514:	b570      	push	{r4, r5, r6, lr}
24052516:	24c0      	movs	r4, #192	; 0xc0
24052518:	b0b6      	sub	sp, #216	; 0xd8
2405251a:	4605      	mov	r5, r0
2405251c:	2100      	movs	r1, #0
2405251e:	4622      	mov	r2, r4
24052520:	a806      	add	r0, sp, #24
24052522:	f006 ffaf 	bl	24059484 <memset>
24052526:	682a      	ldr	r2, [r5, #0]
24052528:	4b34      	ldr	r3, [pc, #208]	; (240525fc <HAL_SAI_MspInit+0xe8>)
2405252a:	429a      	cmp	r2, r3
2405252c:	d164      	bne.n	240525f8 <HAL_SAI_MspInit+0xe4>
2405252e:	f44f 7280 	mov.w	r2, #256	; 0x100
24052532:	2300      	movs	r3, #0
24052534:	a806      	add	r0, sp, #24
24052536:	e9cd 2306 	strd	r2, r3, [sp, #24]
2405253a:	2319      	movs	r3, #25
2405253c:	2202      	movs	r2, #2
2405253e:	e9cd 3408 	strd	r3, r4, [sp, #32]
24052542:	2305      	movs	r3, #5
24052544:	e9cd 320a 	strd	r3, r2, [sp, #40]	; 0x28
24052548:	930c      	str	r3, [sp, #48]	; 0x30
2405254a:	2340      	movs	r3, #64	; 0x40
2405254c:	930d      	str	r3, [sp, #52]	; 0x34
2405254e:	2301      	movs	r3, #1
24052550:	931c      	str	r3, [sp, #112]	; 0x70
24052552:	f004 fa0d 	bl	24056970 <HAL_RCCEx_PeriphCLKConfig>
24052556:	b108      	cbz	r0, 2405255c <HAL_SAI_MspInit+0x48>
24052558:	f7ff fcd8 	bl	24051f0c <Error_Handler>
2405255c:	4c28      	ldr	r4, [pc, #160]	; (24052600 <HAL_SAI_MspInit+0xec>)
2405255e:	6822      	ldr	r2, [r4, #0]
24052560:	b99a      	cbnz	r2, 2405258a <HAL_SAI_MspInit+0x76>
24052562:	4b28      	ldr	r3, [pc, #160]	; (24052604 <HAL_SAI_MspInit+0xf0>)
24052564:	2057      	movs	r0, #87	; 0x57
24052566:	f8d3 1150 	ldr.w	r1, [r3, #336]	; 0x150
2405256a:	f441 0180 	orr.w	r1, r1, #4194304	; 0x400000
2405256e:	f8c3 1150 	str.w	r1, [r3, #336]	; 0x150
24052572:	4611      	mov	r1, r2
24052574:	f8d3 3150 	ldr.w	r3, [r3, #336]	; 0x150
24052578:	f403 0380 	and.w	r3, r3, #4194304	; 0x400000
2405257c:	9300      	str	r3, [sp, #0]
2405257e:	9b00      	ldr	r3, [sp, #0]
24052580:	f001 f93e 	bl	24053800 <HAL_NVIC_SetPriority>
24052584:	2057      	movs	r0, #87	; 0x57
24052586:	f001 f96d 	bl	24053864 <HAL_NVIC_EnableIRQ>
2405258a:	6823      	ldr	r3, [r4, #0]
2405258c:	2270      	movs	r2, #112	; 0x70
2405258e:	2600      	movs	r6, #0
24052590:	a901      	add	r1, sp, #4
24052592:	3301      	adds	r3, #1
24052594:	481c      	ldr	r0, [pc, #112]	; (24052608 <HAL_SAI_MspInit+0xf4>)
24052596:	6023      	str	r3, [r4, #0]
24052598:	2302      	movs	r3, #2
2405259a:	4c1c      	ldr	r4, [pc, #112]	; (2405260c <HAL_SAI_MspInit+0xf8>)
2405259c:	e9cd 2301 	strd	r2, r3, [sp, #4]
240525a0:	2306      	movs	r3, #6
240525a2:	e9cd 6603 	strd	r6, r6, [sp, #12]
240525a6:	9305      	str	r3, [sp, #20]
240525a8:	f002 fb6e 	bl	24054c88 <HAL_GPIO_Init>
240525ac:	2357      	movs	r3, #87	; 0x57
240525ae:	4918      	ldr	r1, [pc, #96]	; (24052610 <HAL_SAI_MspInit+0xfc>)
240525b0:	f44f 6080 	mov.w	r0, #1024	; 0x400
240525b4:	f44f 5c00 	mov.w	ip, #8192	; 0x2000
240525b8:	f04f 0e04 	mov.w	lr, #4
240525bc:	6226      	str	r6, [r4, #32]
240525be:	e9c4 1300 	strd	r1, r3, [r4]
240525c2:	2340      	movs	r3, #64	; 0x40
240525c4:	e9c4 3602 	strd	r3, r6, [r4, #8]
240525c8:	f44f 6300 	mov.w	r3, #2048	; 0x800
240525cc:	e9c4 0304 	strd	r0, r3, [r4, #16]
240525d0:	f44f 7380 	mov.w	r3, #256	; 0x100
240525d4:	4620      	mov	r0, r4
240525d6:	e9c4 c306 	strd	ip, r3, [r4, #24]
240525da:	2303      	movs	r3, #3
240525dc:	e9c4 660b 	strd	r6, r6, [r4, #44]	; 0x2c
240525e0:	e9c4 e309 	strd	lr, r3, [r4, #36]	; 0x24
240525e4:	f001 fc10 	bl	24053e08 <HAL_DMA_Init>
240525e8:	b108      	cbz	r0, 240525ee <HAL_SAI_MspInit+0xda>
240525ea:	f7ff fc8f 	bl	24051f0c <Error_Handler>
240525ee:	f8c5 4084 	str.w	r4, [r5, #132]	; 0x84
240525f2:	63a5      	str	r5, [r4, #56]	; 0x38
240525f4:	f8c5 4080 	str.w	r4, [r5, #128]	; 0x80
240525f8:	b036      	add	sp, #216	; 0xd8
240525fa:	bd70      	pop	{r4, r5, r6, pc}
240525fc:	40015804 	.word	0x40015804
24052600:	20000610 	.word	0x20000610
24052604:	58024400 	.word	0x58024400
24052608:	58021000 	.word	0x58021000
2405260c:	20000300 	.word	0x20000300
24052610:	40020010 	.word	0x40020010

24052614 <NMI_Handler>:
24052614:	e7fe      	b.n	24052614 <NMI_Handler>

24052616 <HardFault_Handler>:
24052616:	e7fe      	b.n	24052616 <HardFault_Handler>

24052618 <MemManage_Handler>:
24052618:	e7fe      	b.n	24052618 <MemManage_Handler>

2405261a <BusFault_Handler>:
2405261a:	e7fe      	b.n	2405261a <BusFault_Handler>

2405261c <UsageFault_Handler>:
2405261c:	e7fe      	b.n	2405261c <UsageFault_Handler>

2405261e <SVC_Handler>:
2405261e:	4770      	bx	lr

24052620 <DebugMon_Handler>:
24052620:	4770      	bx	lr

24052622 <PendSV_Handler>:
24052622:	4770      	bx	lr

24052624 <SysTick_Handler>:
24052624:	b508      	push	{r3, lr}
24052626:	f000 f971 	bl	2405290c <HAL_IncTick>
2405262a:	2101      	movs	r1, #1
2405262c:	4809      	ldr	r0, [pc, #36]	; (24052654 <SysTick_Handler+0x30>)
2405262e:	f002 fc15 	bl	24054e5c <HAL_GPIO_ReadPin>
24052632:	4a09      	ldr	r2, [pc, #36]	; (24052658 <SysTick_Handler+0x34>)
24052634:	b950      	cbnz	r0, 2405264c <SysTick_Handler+0x28>
24052636:	6813      	ldr	r3, [r2, #0]
24052638:	3301      	adds	r3, #1
2405263a:	6013      	str	r3, [r2, #0]
2405263c:	f241 3287 	movw	r2, #4999	; 0x1387
24052640:	4293      	cmp	r3, r2
24052642:	dd05      	ble.n	24052650 <SysTick_Handler+0x2c>
24052644:	e8bd 4008 	ldmia.w	sp!, {r3, lr}
24052648:	f001 b91a 	b.w	24053880 <HAL_NVIC_SystemReset>
2405264c:	2300      	movs	r3, #0
2405264e:	6013      	str	r3, [r2, #0]
24052650:	bd08      	pop	{r3, pc}
24052652:	bf00      	nop
24052654:	58020000 	.word	0x58020000
24052658:	20000614 	.word	0x20000614

2405265c <EXTI2_IRQHandler>:
2405265c:	2004      	movs	r0, #4
2405265e:	f002 bc09 	b.w	24054e74 <HAL_GPIO_EXTI_IRQHandler>
	...

24052664 <DMA1_Stream0_IRQHandler>:
24052664:	4801      	ldr	r0, [pc, #4]	; (2405266c <DMA1_Stream0_IRQHandler+0x8>)
24052666:	f002 b8dd 	b.w	24054824 <HAL_DMA_IRQHandler>
2405266a:	bf00      	nop
2405266c:	20000300 	.word	0x20000300

24052670 <ADC_IRQHandler>:
24052670:	4801      	ldr	r0, [pc, #4]	; (24052678 <ADC_IRQHandler+0x8>)
24052672:	f000 ba01 	b.w	24052a78 <HAL_ADC_IRQHandler>
24052676:	bf00      	nop
24052678:	2000020c 	.word	0x2000020c

2405267c <EXTI9_5_IRQHandler>:
2405267c:	2080      	movs	r0, #128	; 0x80
2405267e:	f002 bbf9 	b.w	24054e74 <HAL_GPIO_EXTI_IRQHandler>
	...

24052684 <TIM1_UP_IRQHandler>:
24052684:	4801      	ldr	r0, [pc, #4]	; (2405268c <TIM1_UP_IRQHandler+0x8>)
24052686:	f006 b9c2 	b.w	24058a0e <HAL_TIM_IRQHandler>
2405268a:	bf00      	nop
2405268c:	200005c4 	.word	0x200005c4

24052690 <SAI1_IRQHandler>:
24052690:	4801      	ldr	r0, [pc, #4]	; (24052698 <SAI1_IRQHandler+0x8>)
24052692:	f005 bea3 	b.w	240583dc <HAL_SAI_IRQHandler>
24052696:	bf00      	nop
24052698:	200004a4 	.word	0x200004a4

2405269c <LTDC_IRQHandler>:
2405269c:	4801      	ldr	r0, [pc, #4]	; (240526a4 <LTDC_IRQHandler+0x8>)
2405269e:	f002 bce5 	b.w	2405506c <HAL_LTDC_IRQHandler>
240526a2:	bf00      	nop
240526a4:	20000378 	.word	0x20000378

240526a8 <OCTOSPI1_IRQHandler>:
240526a8:	4801      	ldr	r0, [pc, #4]	; (240526b0 <OCTOSPI1_IRQHandler+0x8>)
240526aa:	f003 b86d 	b.w	24055788 <HAL_OSPI_IRQHandler>
240526ae:	bf00      	nop
240526b0:	20000420 	.word	0x20000420

240526b4 <_getpid>:
240526b4:	2001      	movs	r0, #1
240526b6:	4770      	bx	lr

240526b8 <_kill>:
240526b8:	b508      	push	{r3, lr}
240526ba:	f006 ff31 	bl	24059520 <__errno>
240526be:	2316      	movs	r3, #22
240526c0:	6003      	str	r3, [r0, #0]
240526c2:	f04f 30ff 	mov.w	r0, #4294967295
240526c6:	bd08      	pop	{r3, pc}

240526c8 <_exit>:
240526c8:	b508      	push	{r3, lr}
240526ca:	f006 ff29 	bl	24059520 <__errno>
240526ce:	2316      	movs	r3, #22
240526d0:	6003      	str	r3, [r0, #0]
240526d2:	e7fe      	b.n	240526d2 <_exit+0xa>

240526d4 <_read>:
240526d4:	b570      	push	{r4, r5, r6, lr}
240526d6:	460d      	mov	r5, r1
240526d8:	4614      	mov	r4, r2
240526da:	460e      	mov	r6, r1
240526dc:	1b73      	subs	r3, r6, r5
240526de:	429c      	cmp	r4, r3
240526e0:	dc01      	bgt.n	240526e6 <_read+0x12>
240526e2:	4620      	mov	r0, r4
240526e4:	bd70      	pop	{r4, r5, r6, pc}
240526e6:	f3af 8000 	nop.w
240526ea:	f806 0b01 	strb.w	r0, [r6], #1
240526ee:	e7f5      	b.n	240526dc <_read+0x8>

240526f0 <_write>:
240526f0:	b570      	push	{r4, r5, r6, lr}
240526f2:	460d      	mov	r5, r1
240526f4:	4614      	mov	r4, r2
240526f6:	460e      	mov	r6, r1
240526f8:	1b73      	subs	r3, r6, r5
240526fa:	429c      	cmp	r4, r3
240526fc:	dc01      	bgt.n	24052702 <_write+0x12>
240526fe:	4620      	mov	r0, r4
24052700:	bd70      	pop	{r4, r5, r6, pc}
24052702:	f816 0b01 	ldrb.w	r0, [r6], #1
24052706:	f3af 8000 	nop.w
2405270a:	e7f5      	b.n	240526f8 <_write+0x8>

2405270c <_close>:
2405270c:	f04f 30ff 	mov.w	r0, #4294967295
24052710:	4770      	bx	lr

24052712 <_fstat>:
24052712:	f44f 5300 	mov.w	r3, #8192	; 0x2000
24052716:	2000      	movs	r0, #0
24052718:	604b      	str	r3, [r1, #4]
2405271a:	4770      	bx	lr

2405271c <_isatty>:
2405271c:	2001      	movs	r0, #1
2405271e:	4770      	bx	lr

24052720 <_lseek>:
24052720:	2000      	movs	r0, #0
24052722:	4770      	bx	lr

24052724 <_sbrk>:
24052724:	4a0b      	ldr	r2, [pc, #44]	; (24052754 <_sbrk+0x30>)
24052726:	4603      	mov	r3, r0
24052728:	6811      	ldr	r1, [r2, #0]
2405272a:	b510      	push	{r4, lr}
2405272c:	b909      	cbnz	r1, 24052732 <_sbrk+0xe>
2405272e:	490a      	ldr	r1, [pc, #40]	; (24052758 <_sbrk+0x34>)
24052730:	6011      	str	r1, [r2, #0]
24052732:	6810      	ldr	r0, [r2, #0]
24052734:	4909      	ldr	r1, [pc, #36]	; (2405275c <_sbrk+0x38>)
24052736:	4c0a      	ldr	r4, [pc, #40]	; (24052760 <_sbrk+0x3c>)
24052738:	4403      	add	r3, r0
2405273a:	1b09      	subs	r1, r1, r4
2405273c:	428b      	cmp	r3, r1
2405273e:	d906      	bls.n	2405274e <_sbrk+0x2a>
24052740:	f006 feee 	bl	24059520 <__errno>
24052744:	230c      	movs	r3, #12
24052746:	6003      	str	r3, [r0, #0]
24052748:	f04f 30ff 	mov.w	r0, #4294967295
2405274c:	bd10      	pop	{r4, pc}
2405274e:	6013      	str	r3, [r2, #0]
24052750:	e7fc      	b.n	2405274c <_sbrk+0x28>
24052752:	bf00      	nop
24052754:	20000618 	.word	0x20000618
24052758:	20000770 	.word	0x20000770
2405275c:	20020000 	.word	0x20020000
24052760:	00005000 	.word	0x00005000

24052764 <SystemInit>:
24052764:	4a22      	ldr	r2, [pc, #136]	; (240527f0 <SystemInit+0x8c>)
24052766:	f8d2 3088 	ldr.w	r3, [r2, #136]	; 0x88
2405276a:	f443 0370 	orr.w	r3, r3, #15728640	; 0xf00000
2405276e:	f8c2 3088 	str.w	r3, [r2, #136]	; 0x88
24052772:	4a20      	ldr	r2, [pc, #128]	; (240527f4 <SystemInit+0x90>)
24052774:	6813      	ldr	r3, [r2, #0]
24052776:	f003 030f 	and.w	r3, r3, #15
2405277a:	2b02      	cmp	r3, #2
2405277c:	d805      	bhi.n	2405278a <SystemInit+0x26>
2405277e:	6813      	ldr	r3, [r2, #0]
24052780:	f023 030f 	bic.w	r3, r3, #15
24052784:	f043 0303 	orr.w	r3, r3, #3
24052788:	6013      	str	r3, [r2, #0]
2405278a:	4b1b      	ldr	r3, [pc, #108]	; (240527f8 <SystemInit+0x94>)
2405278c:	681a      	ldr	r2, [r3, #0]
2405278e:	f042 0201 	orr.w	r2, r2, #1
24052792:	601a      	str	r2, [r3, #0]
24052794:	2200      	movs	r2, #0
24052796:	611a      	str	r2, [r3, #16]
24052798:	4a18      	ldr	r2, [pc, #96]	; (240527fc <SystemInit+0x98>)
2405279a:	6819      	ldr	r1, [r3, #0]
2405279c:	400a      	ands	r2, r1
2405279e:	4915      	ldr	r1, [pc, #84]	; (240527f4 <SystemInit+0x90>)
240527a0:	601a      	str	r2, [r3, #0]
240527a2:	680a      	ldr	r2, [r1, #0]
240527a4:	f012 0f0c 	tst.w	r2, #12
240527a8:	d005      	beq.n	240527b6 <SystemInit+0x52>
240527aa:	680a      	ldr	r2, [r1, #0]
240527ac:	f022 020f 	bic.w	r2, r2, #15
240527b0:	f042 0203 	orr.w	r2, r2, #3
240527b4:	600a      	str	r2, [r1, #0]
240527b6:	2200      	movs	r2, #0
240527b8:	4911      	ldr	r1, [pc, #68]	; (24052800 <SystemInit+0x9c>)
240527ba:	619a      	str	r2, [r3, #24]
240527bc:	61da      	str	r2, [r3, #28]
240527be:	621a      	str	r2, [r3, #32]
240527c0:	6299      	str	r1, [r3, #40]	; 0x28
240527c2:	4910      	ldr	r1, [pc, #64]	; (24052804 <SystemInit+0xa0>)
240527c4:	62d9      	str	r1, [r3, #44]	; 0x2c
240527c6:	4910      	ldr	r1, [pc, #64]	; (24052808 <SystemInit+0xa4>)
240527c8:	6319      	str	r1, [r3, #48]	; 0x30
240527ca:	635a      	str	r2, [r3, #52]	; 0x34
240527cc:	6399      	str	r1, [r3, #56]	; 0x38
240527ce:	63da      	str	r2, [r3, #60]	; 0x3c
240527d0:	6419      	str	r1, [r3, #64]	; 0x40
240527d2:	645a      	str	r2, [r3, #68]	; 0x44
240527d4:	6819      	ldr	r1, [r3, #0]
240527d6:	f421 2180 	bic.w	r1, r1, #262144	; 0x40000
240527da:	6019      	str	r1, [r3, #0]
240527dc:	661a      	str	r2, [r3, #96]	; 0x60
240527de:	f243 02d2 	movw	r2, #12498	; 0x30d2
240527e2:	4b0a      	ldr	r3, [pc, #40]	; (2405280c <SystemInit+0xa8>)
240527e4:	601a      	str	r2, [r3, #0]
240527e6:	f04f 5210 	mov.w	r2, #603979776	; 0x24000000
240527ea:	4b01      	ldr	r3, [pc, #4]	; (240527f0 <SystemInit+0x8c>)
240527ec:	609a      	str	r2, [r3, #8]
240527ee:	4770      	bx	lr
240527f0:	e000ed00 	.word	0xe000ed00
240527f4:	52002000 	.word	0x52002000
240527f8:	58024400 	.word	0x58024400
240527fc:	eaf6ed7f 	.word	0xeaf6ed7f
24052800:	02020200 	.word	0x02020200
24052804:	01ff0000 	.word	0x01ff0000
24052808:	01010280 	.word	0x01010280
2405280c:	52004000 	.word	0x52004000

24052810 <Reset_Handler>:
24052810:	f8df d034 	ldr.w	sp, [pc, #52]	; 24052848 <LoopFillZerobss+0xe>
24052814:	f7ff ffa6 	bl	24052764 <SystemInit>
24052818:	480c      	ldr	r0, [pc, #48]	; (2405284c <LoopFillZerobss+0x12>)
2405281a:	490d      	ldr	r1, [pc, #52]	; (24052850 <LoopFillZerobss+0x16>)
2405281c:	4a0d      	ldr	r2, [pc, #52]	; (24052854 <LoopFillZerobss+0x1a>)
2405281e:	2300      	movs	r3, #0
24052820:	e002      	b.n	24052828 <LoopCopyDataInit>

24052822 <CopyDataInit>:
24052822:	58d4      	ldr	r4, [r2, r3]
24052824:	50c4      	str	r4, [r0, r3]
24052826:	3304      	adds	r3, #4

24052828 <LoopCopyDataInit>:
24052828:	18c4      	adds	r4, r0, r3
2405282a:	428c      	cmp	r4, r1
2405282c:	d3f9      	bcc.n	24052822 <CopyDataInit>
2405282e:	4a0a      	ldr	r2, [pc, #40]	; (24052858 <LoopFillZerobss+0x1e>)
24052830:	4c0a      	ldr	r4, [pc, #40]	; (2405285c <LoopFillZerobss+0x22>)
24052832:	2300      	movs	r3, #0
24052834:	e001      	b.n	2405283a <LoopFillZerobss>

24052836 <FillZerobss>:
24052836:	6013      	str	r3, [r2, #0]
24052838:	3204      	adds	r2, #4

2405283a <LoopFillZerobss>:
2405283a:	42a2      	cmp	r2, r4
2405283c:	d3fb      	bcc.n	24052836 <FillZerobss>
2405283e:	f006 fe75 	bl	2405952c <__libc_init_array>
24052842:	f7ff f855 	bl	240518f0 <main>
24052846:	4770      	bx	lr
24052848:	20020000 	.word	0x20020000
2405284c:	20000000 	.word	0x20000000
24052850:	200000b0 	.word	0x200000b0
24052854:	2405bc30 	.word	0x2405bc30
24052858:	200000b0 	.word	0x200000b0
2405285c:	2000076c 	.word	0x2000076c

24052860 <BDMA1_IRQHandler>:
24052860:	e7fe      	b.n	24052860 <BDMA1_IRQHandler>
	...

24052864 <HAL_InitTick>:
24052864:	b538      	push	{r3, r4, r5, lr}
24052866:	4b0f      	ldr	r3, [pc, #60]	; (240528a4 <HAL_InitTick+0x40>)
24052868:	4605      	mov	r5, r0
2405286a:	781a      	ldrb	r2, [r3, #0]
2405286c:	b90a      	cbnz	r2, 24052872 <HAL_InitTick+0xe>
2405286e:	2001      	movs	r0, #1
24052870:	bd38      	pop	{r3, r4, r5, pc}
24052872:	f44f 737a 	mov.w	r3, #1000	; 0x3e8
24052876:	fbb3 f3f2 	udiv	r3, r3, r2
2405287a:	4a0b      	ldr	r2, [pc, #44]	; (240528a8 <HAL_InitTick+0x44>)
2405287c:	6810      	ldr	r0, [r2, #0]
2405287e:	fbb0 f0f3 	udiv	r0, r0, r3
24052882:	f001 f80f 	bl	240538a4 <HAL_SYSTICK_Config>
24052886:	4604      	mov	r4, r0
24052888:	2800      	cmp	r0, #0
2405288a:	d1f0      	bne.n	2405286e <HAL_InitTick+0xa>
2405288c:	2d0f      	cmp	r5, #15
2405288e:	d8ee      	bhi.n	2405286e <HAL_InitTick+0xa>
24052890:	4602      	mov	r2, r0
24052892:	4629      	mov	r1, r5
24052894:	f04f 30ff 	mov.w	r0, #4294967295
24052898:	f000 ffb2 	bl	24053800 <HAL_NVIC_SetPriority>
2405289c:	4b03      	ldr	r3, [pc, #12]	; (240528ac <HAL_InitTick+0x48>)
2405289e:	4620      	mov	r0, r4
240528a0:	601d      	str	r5, [r3, #0]
240528a2:	e7e5      	b.n	24052870 <HAL_InitTick+0xc>
240528a4:	2000004c 	.word	0x2000004c
240528a8:	20000044 	.word	0x20000044
240528ac:	20000050 	.word	0x20000050

240528b0 <HAL_Init>:
240528b0:	b510      	push	{r4, lr}
240528b2:	2003      	movs	r0, #3
240528b4:	f000 ff92 	bl	240537dc <HAL_NVIC_SetPriorityGrouping>
240528b8:	f003 fd6e 	bl	24056398 <HAL_RCC_GetSysClockFreq>
240528bc:	490f      	ldr	r1, [pc, #60]	; (240528fc <HAL_Init+0x4c>)
240528be:	4a10      	ldr	r2, [pc, #64]	; (24052900 <HAL_Init+0x50>)
240528c0:	698b      	ldr	r3, [r1, #24]
240528c2:	f3c3 2303 	ubfx	r3, r3, #8, #4
240528c6:	5cd3      	ldrb	r3, [r2, r3]
240528c8:	f003 031f 	and.w	r3, r3, #31
240528cc:	40d8      	lsrs	r0, r3
240528ce:	698b      	ldr	r3, [r1, #24]
240528d0:	f003 030f 	and.w	r3, r3, #15
240528d4:	5cd3      	ldrb	r3, [r2, r3]
240528d6:	4a0b      	ldr	r2, [pc, #44]	; (24052904 <HAL_Init+0x54>)
240528d8:	f003 031f 	and.w	r3, r3, #31
240528dc:	fa20 f303 	lsr.w	r3, r0, r3
240528e0:	6013      	str	r3, [r2, #0]
240528e2:	4b09      	ldr	r3, [pc, #36]	; (24052908 <HAL_Init+0x58>)
240528e4:	6018      	str	r0, [r3, #0]
240528e6:	2000      	movs	r0, #0
240528e8:	f7ff ffbc 	bl	24052864 <HAL_InitTick>
240528ec:	4604      	mov	r4, r0
240528ee:	b918      	cbnz	r0, 240528f8 <HAL_Init+0x48>
240528f0:	f7ff fb0e 	bl	24051f10 <HAL_MspInit>
240528f4:	4620      	mov	r0, r4
240528f6:	bd10      	pop	{r4, pc}
240528f8:	2401      	movs	r4, #1
240528fa:	e7fb      	b.n	240528f4 <HAL_Init+0x44>
240528fc:	58024400 	.word	0x58024400
24052900:	2405bb28 	.word	0x2405bb28
24052904:	20000048 	.word	0x20000048
24052908:	20000044 	.word	0x20000044

2405290c <HAL_IncTick>:
2405290c:	4a03      	ldr	r2, [pc, #12]	; (2405291c <HAL_IncTick+0x10>)
2405290e:	4b04      	ldr	r3, [pc, #16]	; (24052920 <HAL_IncTick+0x14>)
24052910:	6811      	ldr	r1, [r2, #0]
24052912:	781b      	ldrb	r3, [r3, #0]
24052914:	440b      	add	r3, r1
24052916:	6013      	str	r3, [r2, #0]
24052918:	4770      	bx	lr
2405291a:	bf00      	nop
2405291c:	2000061c 	.word	0x2000061c
24052920:	2000004c 	.word	0x2000004c

24052924 <HAL_GetTick>:
24052924:	4b01      	ldr	r3, [pc, #4]	; (2405292c <HAL_GetTick+0x8>)
24052926:	6818      	ldr	r0, [r3, #0]
24052928:	4770      	bx	lr
2405292a:	bf00      	nop
2405292c:	2000061c 	.word	0x2000061c

24052930 <HAL_Delay>:
24052930:	b538      	push	{r3, r4, r5, lr}
24052932:	4604      	mov	r4, r0
24052934:	f7ff fff6 	bl	24052924 <HAL_GetTick>
24052938:	4605      	mov	r5, r0
2405293a:	1c63      	adds	r3, r4, #1
2405293c:	bf1e      	ittt	ne
2405293e:	4b04      	ldrne	r3, [pc, #16]	; (24052950 <HAL_Delay+0x20>)
24052940:	781b      	ldrbne	r3, [r3, #0]
24052942:	18e4      	addne	r4, r4, r3
24052944:	f7ff ffee 	bl	24052924 <HAL_GetTick>
24052948:	1b43      	subs	r3, r0, r5
2405294a:	42a3      	cmp	r3, r4
2405294c:	d3fa      	bcc.n	24052944 <HAL_Delay+0x14>
2405294e:	bd38      	pop	{r3, r4, r5, pc}
24052950:	2000004c 	.word	0x2000004c

24052954 <LL_ADC_SetChannelSamplingTime>:
24052954:	b530      	push	{r4, r5, lr}
24052956:	0dcc      	lsrs	r4, r1, #23
24052958:	3014      	adds	r0, #20
2405295a:	f3c1 5104 	ubfx	r1, r1, #20, #5
2405295e:	2507      	movs	r5, #7
24052960:	f004 0404 	and.w	r4, r4, #4
24052964:	408d      	lsls	r5, r1
24052966:	408a      	lsls	r2, r1
24052968:	5903      	ldr	r3, [r0, r4]
2405296a:	ea23 0305 	bic.w	r3, r3, r5
2405296e:	4313      	orrs	r3, r2
24052970:	5103      	str	r3, [r0, r4]
24052972:	bd30      	pop	{r4, r5, pc}

24052974 <LL_ADC_IsEnabled>:
24052974:	6880      	ldr	r0, [r0, #8]
24052976:	f000 0001 	and.w	r0, r0, #1
2405297a:	4770      	bx	lr

2405297c <LL_ADC_REG_IsConversionOngoing>:
2405297c:	6880      	ldr	r0, [r0, #8]
2405297e:	f3c0 0080 	ubfx	r0, r0, #2, #1
24052982:	4770      	bx	lr

24052984 <HAL_ADC_PollForConversion>:
24052984:	e92d 41f0 	stmdb	sp!, {r4, r5, r6, r7, r8, lr}
24052988:	4a35      	ldr	r2, [pc, #212]	; (24052a60 <HAL_ADC_PollForConversion+0xdc>)
2405298a:	4604      	mov	r4, r0
2405298c:	6905      	ldr	r5, [r0, #16]
2405298e:	460e      	mov	r6, r1
24052990:	6897      	ldr	r7, [r2, #8]
24052992:	2d08      	cmp	r5, #8
24052994:	f007 071f 	and.w	r7, r7, #31
24052998:	d015      	beq.n	240529c6 <HAL_ADC_PollForConversion+0x42>
2405299a:	f240 2321 	movw	r3, #545	; 0x221
2405299e:	40fb      	lsrs	r3, r7
240529a0:	07d9      	lsls	r1, r3, #31
240529a2:	d50b      	bpl.n	240529bc <HAL_ADC_PollForConversion+0x38>
240529a4:	6803      	ldr	r3, [r0, #0]
240529a6:	68db      	ldr	r3, [r3, #12]
240529a8:	f013 0f01 	tst.w	r3, #1
240529ac:	d00a      	beq.n	240529c4 <HAL_ADC_PollForConversion+0x40>
240529ae:	6d63      	ldr	r3, [r4, #84]	; 0x54
240529b0:	2001      	movs	r0, #1
240529b2:	f043 0320 	orr.w	r3, r3, #32
240529b6:	6563      	str	r3, [r4, #84]	; 0x54
240529b8:	e8bd 81f0 	ldmia.w	sp!, {r4, r5, r6, r7, r8, pc}
240529bc:	6893      	ldr	r3, [r2, #8]
240529be:	f413 4f40 	tst.w	r3, #49152	; 0xc000
240529c2:	e7f3      	b.n	240529ac <HAL_ADC_PollForConversion+0x28>
240529c4:	2504      	movs	r5, #4
240529c6:	f7ff ffad 	bl	24052924 <HAL_GetTick>
240529ca:	4680      	mov	r8, r0
240529cc:	6823      	ldr	r3, [r4, #0]
240529ce:	681a      	ldr	r2, [r3, #0]
240529d0:	422a      	tst	r2, r5
240529d2:	d020      	beq.n	24052a16 <HAL_ADC_PollForConversion+0x92>
240529d4:	6d62      	ldr	r2, [r4, #84]	; 0x54
240529d6:	f442 7200 	orr.w	r2, r2, #512	; 0x200
240529da:	6562      	str	r2, [r4, #84]	; 0x54
240529dc:	68da      	ldr	r2, [r3, #12]
240529de:	f412 6f40 	tst.w	r2, #3072	; 0xc00
240529e2:	d10f      	bne.n	24052a04 <HAL_ADC_PollForConversion+0x80>
240529e4:	7d62      	ldrb	r2, [r4, #21]
240529e6:	b96a      	cbnz	r2, 24052a04 <HAL_ADC_PollForConversion+0x80>
240529e8:	681a      	ldr	r2, [r3, #0]
240529ea:	0710      	lsls	r0, r2, #28
240529ec:	d50a      	bpl.n	24052a04 <HAL_ADC_PollForConversion+0x80>
240529ee:	6d62      	ldr	r2, [r4, #84]	; 0x54
240529f0:	f422 7280 	bic.w	r2, r2, #256	; 0x100
240529f4:	6562      	str	r2, [r4, #84]	; 0x54
240529f6:	6d62      	ldr	r2, [r4, #84]	; 0x54
240529f8:	04d1      	lsls	r1, r2, #19
240529fa:	d403      	bmi.n	24052a04 <HAL_ADC_PollForConversion+0x80>
240529fc:	6d62      	ldr	r2, [r4, #84]	; 0x54
240529fe:	f042 0201 	orr.w	r2, r2, #1
24052a02:	6562      	str	r2, [r4, #84]	; 0x54
24052a04:	4a17      	ldr	r2, [pc, #92]	; (24052a64 <HAL_ADC_PollForConversion+0xe0>)
24052a06:	4293      	cmp	r3, r2
24052a08:	d021      	beq.n	24052a4e <HAL_ADC_PollForConversion+0xca>
24052a0a:	68d8      	ldr	r0, [r3, #12]
24052a0c:	2d08      	cmp	r5, #8
24052a0e:	d118      	bne.n	24052a42 <HAL_ADC_PollForConversion+0xbe>
24052a10:	601d      	str	r5, [r3, #0]
24052a12:	2000      	movs	r0, #0
24052a14:	e7d0      	b.n	240529b8 <HAL_ADC_PollForConversion+0x34>
24052a16:	1c72      	adds	r2, r6, #1
24052a18:	d0d9      	beq.n	240529ce <HAL_ADC_PollForConversion+0x4a>
24052a1a:	f7ff ff83 	bl	24052924 <HAL_GetTick>
24052a1e:	eba0 0008 	sub.w	r0, r0, r8
24052a22:	42b0      	cmp	r0, r6
24052a24:	d801      	bhi.n	24052a2a <HAL_ADC_PollForConversion+0xa6>
24052a26:	2e00      	cmp	r6, #0
24052a28:	d1d0      	bne.n	240529cc <HAL_ADC_PollForConversion+0x48>
24052a2a:	6823      	ldr	r3, [r4, #0]
24052a2c:	681b      	ldr	r3, [r3, #0]
24052a2e:	402b      	ands	r3, r5
24052a30:	d1cc      	bne.n	240529cc <HAL_ADC_PollForConversion+0x48>
24052a32:	6d62      	ldr	r2, [r4, #84]	; 0x54
24052a34:	2003      	movs	r0, #3
24052a36:	f884 3050 	strb.w	r3, [r4, #80]	; 0x50
24052a3a:	f042 0204 	orr.w	r2, r2, #4
24052a3e:	6562      	str	r2, [r4, #84]	; 0x54
24052a40:	e7ba      	b.n	240529b8 <HAL_ADC_PollForConversion+0x34>
24052a42:	f410 4080 	ands.w	r0, r0, #16384	; 0x4000
24052a46:	d1e4      	bne.n	24052a12 <HAL_ADC_PollForConversion+0x8e>
24052a48:	220c      	movs	r2, #12
24052a4a:	601a      	str	r2, [r3, #0]
24052a4c:	e7b4      	b.n	240529b8 <HAL_ADC_PollForConversion+0x34>
24052a4e:	f240 2221 	movw	r2, #545	; 0x221
24052a52:	40fa      	lsrs	r2, r7
24052a54:	07d2      	lsls	r2, r2, #31
24052a56:	d4d8      	bmi.n	24052a0a <HAL_ADC_PollForConversion+0x86>
24052a58:	4a03      	ldr	r2, [pc, #12]	; (24052a68 <HAL_ADC_PollForConversion+0xe4>)
24052a5a:	68d0      	ldr	r0, [r2, #12]
24052a5c:	e7d6      	b.n	24052a0c <HAL_ADC_PollForConversion+0x88>
24052a5e:	bf00      	nop
24052a60:	40022300 	.word	0x40022300
24052a64:	40022100 	.word	0x40022100
24052a68:	40022000 	.word	0x40022000

24052a6c <HAL_ADC_GetValue>:
24052a6c:	6803      	ldr	r3, [r0, #0]
24052a6e:	6c18      	ldr	r0, [r3, #64]	; 0x40
24052a70:	4770      	bx	lr

24052a72 <HAL_ADC_LevelOutOfWindowCallback>:
24052a72:	4770      	bx	lr

24052a74 <HAL_ADC_ErrorCallback>:
24052a74:	4770      	bx	lr
	...

24052a78 <HAL_ADC_IRQHandler>:
24052a78:	6803      	ldr	r3, [r0, #0]
24052a7a:	e92d 41f0 	stmdb	sp!, {r4, r5, r6, r7, r8, lr}
24052a7e:	681d      	ldr	r5, [r3, #0]
24052a80:	4604      	mov	r4, r0
24052a82:	f8df 8234 	ldr.w	r8, [pc, #564]	; 24052cb8 <HAL_ADC_IRQHandler+0x240>
24052a86:	685e      	ldr	r6, [r3, #4]
24052a88:	07a9      	lsls	r1, r5, #30
24052a8a:	f8d8 7008 	ldr.w	r7, [r8, #8]
24052a8e:	f007 071f 	and.w	r7, r7, #31
24052a92:	d50e      	bpl.n	24052ab2 <HAL_ADC_IRQHandler+0x3a>
24052a94:	07b2      	lsls	r2, r6, #30
24052a96:	d50c      	bpl.n	24052ab2 <HAL_ADC_IRQHandler+0x3a>
24052a98:	6d43      	ldr	r3, [r0, #84]	; 0x54
24052a9a:	06db      	lsls	r3, r3, #27
24052a9c:	d403      	bmi.n	24052aa6 <HAL_ADC_IRQHandler+0x2e>
24052a9e:	6d43      	ldr	r3, [r0, #84]	; 0x54
24052aa0:	f443 6300 	orr.w	r3, r3, #2048	; 0x800
24052aa4:	6543      	str	r3, [r0, #84]	; 0x54
24052aa6:	4620      	mov	r0, r4
24052aa8:	f000 fe32 	bl	24053710 <HAL_ADCEx_EndOfSamplingCallback>
24052aac:	6823      	ldr	r3, [r4, #0]
24052aae:	2202      	movs	r2, #2
24052ab0:	601a      	str	r2, [r3, #0]
24052ab2:	0768      	lsls	r0, r5, #29
24052ab4:	d501      	bpl.n	24052aba <HAL_ADC_IRQHandler+0x42>
24052ab6:	0771      	lsls	r1, r6, #29
24052ab8:	d403      	bmi.n	24052ac2 <HAL_ADC_IRQHandler+0x4a>
24052aba:	072a      	lsls	r2, r5, #28
24052abc:	d532      	bpl.n	24052b24 <HAL_ADC_IRQHandler+0xac>
24052abe:	0733      	lsls	r3, r6, #28
24052ac0:	d530      	bpl.n	24052b24 <HAL_ADC_IRQHandler+0xac>
24052ac2:	6d63      	ldr	r3, [r4, #84]	; 0x54
24052ac4:	06d8      	lsls	r0, r3, #27
24052ac6:	d403      	bmi.n	24052ad0 <HAL_ADC_IRQHandler+0x58>
24052ac8:	6d63      	ldr	r3, [r4, #84]	; 0x54
24052aca:	f443 7300 	orr.w	r3, r3, #512	; 0x200
24052ace:	6563      	str	r3, [r4, #84]	; 0x54
24052ad0:	6823      	ldr	r3, [r4, #0]
24052ad2:	68da      	ldr	r2, [r3, #12]
24052ad4:	f412 6f40 	tst.w	r2, #3072	; 0xc00
24052ad8:	d11e      	bne.n	24052b18 <HAL_ADC_IRQHandler+0xa0>
24052ada:	4a75      	ldr	r2, [pc, #468]	; (24052cb0 <HAL_ADC_IRQHandler+0x238>)
24052adc:	4293      	cmp	r3, r2
24052ade:	f000 80dc 	beq.w	24052c9a <HAL_ADC_IRQHandler+0x222>
24052ae2:	68da      	ldr	r2, [r3, #12]
24052ae4:	0491      	lsls	r1, r2, #18
24052ae6:	d417      	bmi.n	24052b18 <HAL_ADC_IRQHandler+0xa0>
24052ae8:	681a      	ldr	r2, [r3, #0]
24052aea:	0712      	lsls	r2, r2, #28
24052aec:	d514      	bpl.n	24052b18 <HAL_ADC_IRQHandler+0xa0>
24052aee:	4618      	mov	r0, r3
24052af0:	f7ff ff44 	bl	2405297c <LL_ADC_REG_IsConversionOngoing>
24052af4:	2800      	cmp	r0, #0
24052af6:	f040 80b2 	bne.w	24052c5e <HAL_ADC_IRQHandler+0x1e6>
24052afa:	685a      	ldr	r2, [r3, #4]
24052afc:	f022 020c 	bic.w	r2, r2, #12
24052b00:	605a      	str	r2, [r3, #4]
24052b02:	6d63      	ldr	r3, [r4, #84]	; 0x54
24052b04:	f423 7380 	bic.w	r3, r3, #256	; 0x100
24052b08:	6563      	str	r3, [r4, #84]	; 0x54
24052b0a:	6d63      	ldr	r3, [r4, #84]	; 0x54
24052b0c:	04db      	lsls	r3, r3, #19
24052b0e:	d403      	bmi.n	24052b18 <HAL_ADC_IRQHandler+0xa0>
24052b10:	6d63      	ldr	r3, [r4, #84]	; 0x54
24052b12:	f043 0301 	orr.w	r3, r3, #1
24052b16:	6563      	str	r3, [r4, #84]	; 0x54
24052b18:	4620      	mov	r0, r4
24052b1a:	f7fd fcbd 	bl	24050498 <HAL_ADC_ConvCpltCallback>
24052b1e:	6823      	ldr	r3, [r4, #0]
24052b20:	220c      	movs	r2, #12
24052b22:	601a      	str	r2, [r3, #0]
24052b24:	06a8      	lsls	r0, r5, #26
24052b26:	d501      	bpl.n	24052b2c <HAL_ADC_IRQHandler+0xb4>
24052b28:	06b1      	lsls	r1, r6, #26
24052b2a:	d403      	bmi.n	24052b34 <HAL_ADC_IRQHandler+0xbc>
24052b2c:	066a      	lsls	r2, r5, #25
24052b2e:	d53a      	bpl.n	24052ba6 <HAL_ADC_IRQHandler+0x12e>
24052b30:	0673      	lsls	r3, r6, #25
24052b32:	d538      	bpl.n	24052ba6 <HAL_ADC_IRQHandler+0x12e>
24052b34:	6d63      	ldr	r3, [r4, #84]	; 0x54
24052b36:	06d8      	lsls	r0, r3, #27
24052b38:	d403      	bmi.n	24052b42 <HAL_ADC_IRQHandler+0xca>
24052b3a:	6d63      	ldr	r3, [r4, #84]	; 0x54
24052b3c:	f443 5300 	orr.w	r3, r3, #8192	; 0x2000
24052b40:	6563      	str	r3, [r4, #84]	; 0x54
24052b42:	6823      	ldr	r3, [r4, #0]
24052b44:	4a5a      	ldr	r2, [pc, #360]	; (24052cb0 <HAL_ADC_IRQHandler+0x238>)
24052b46:	6cd9      	ldr	r1, [r3, #76]	; 0x4c
24052b48:	4293      	cmp	r3, r2
24052b4a:	68d8      	ldr	r0, [r3, #12]
24052b4c:	f401 71c0 	and.w	r1, r1, #384	; 0x180
24052b50:	f040 808e 	bne.w	24052c70 <HAL_ADC_IRQHandler+0x1f8>
24052b54:	22c1      	movs	r2, #193	; 0xc1
24052b56:	40fa      	lsrs	r2, r7
24052b58:	07d2      	lsls	r2, r2, #31
24052b5a:	f100 8089 	bmi.w	24052c70 <HAL_ADC_IRQHandler+0x1f8>
24052b5e:	4a55      	ldr	r2, [pc, #340]	; (24052cb4 <HAL_ADC_IRQHandler+0x23c>)
24052b60:	68d2      	ldr	r2, [r2, #12]
24052b62:	b9d1      	cbnz	r1, 24052b9a <HAL_ADC_IRQHandler+0x122>
24052b64:	0191      	lsls	r1, r2, #6
24052b66:	d505      	bpl.n	24052b74 <HAL_ADC_IRQHandler+0xfc>
24052b68:	f402 5100 	and.w	r1, r2, #8192	; 0x2000
24052b6c:	f400 6040 	and.w	r0, r0, #3072	; 0xc00
24052b70:	4301      	orrs	r1, r0
24052b72:	d112      	bne.n	24052b9a <HAL_ADC_IRQHandler+0x122>
24052b74:	6819      	ldr	r1, [r3, #0]
24052b76:	0648      	lsls	r0, r1, #25
24052b78:	d50f      	bpl.n	24052b9a <HAL_ADC_IRQHandler+0x122>
24052b7a:	0291      	lsls	r1, r2, #10
24052b7c:	d40d      	bmi.n	24052b9a <HAL_ADC_IRQHandler+0x122>
24052b7e:	689a      	ldr	r2, [r3, #8]
24052b80:	0712      	lsls	r2, r2, #28
24052b82:	d477      	bmi.n	24052c74 <HAL_ADC_IRQHandler+0x1fc>
24052b84:	685a      	ldr	r2, [r3, #4]
24052b86:	f022 0260 	bic.w	r2, r2, #96	; 0x60
24052b8a:	605a      	str	r2, [r3, #4]
24052b8c:	6d63      	ldr	r3, [r4, #84]	; 0x54
24052b8e:	f423 5380 	bic.w	r3, r3, #4096	; 0x1000
24052b92:	6563      	str	r3, [r4, #84]	; 0x54
24052b94:	6d63      	ldr	r3, [r4, #84]	; 0x54
24052b96:	05db      	lsls	r3, r3, #23
24052b98:	d575      	bpl.n	24052c86 <HAL_ADC_IRQHandler+0x20e>
24052b9a:	4620      	mov	r0, r4
24052b9c:	f000 fdb4 	bl	24053708 <HAL_ADCEx_InjectedConvCpltCallback>
24052ba0:	6823      	ldr	r3, [r4, #0]
24052ba2:	2260      	movs	r2, #96	; 0x60
24052ba4:	601a      	str	r2, [r3, #0]
24052ba6:	0628      	lsls	r0, r5, #24
24052ba8:	d50b      	bpl.n	24052bc2 <HAL_ADC_IRQHandler+0x14a>
24052baa:	0631      	lsls	r1, r6, #24
24052bac:	d509      	bpl.n	24052bc2 <HAL_ADC_IRQHandler+0x14a>
24052bae:	6d63      	ldr	r3, [r4, #84]	; 0x54
24052bb0:	4620      	mov	r0, r4
24052bb2:	f443 3380 	orr.w	r3, r3, #65536	; 0x10000
24052bb6:	6563      	str	r3, [r4, #84]	; 0x54
24052bb8:	f7ff ff5b 	bl	24052a72 <HAL_ADC_LevelOutOfWindowCallback>
24052bbc:	6823      	ldr	r3, [r4, #0]
24052bbe:	2280      	movs	r2, #128	; 0x80
24052bc0:	601a      	str	r2, [r3, #0]
24052bc2:	05ea      	lsls	r2, r5, #23
24052bc4:	d50c      	bpl.n	24052be0 <HAL_ADC_IRQHandler+0x168>
24052bc6:	05f3      	lsls	r3, r6, #23
24052bc8:	d50a      	bpl.n	24052be0 <HAL_ADC_IRQHandler+0x168>
24052bca:	6d63      	ldr	r3, [r4, #84]	; 0x54
24052bcc:	4620      	mov	r0, r4
24052bce:	f443 3300 	orr.w	r3, r3, #131072	; 0x20000
24052bd2:	6563      	str	r3, [r4, #84]	; 0x54
24052bd4:	f000 fd9a 	bl	2405370c <HAL_ADCEx_LevelOutOfWindow2Callback>
24052bd8:	6823      	ldr	r3, [r4, #0]
24052bda:	f44f 7280 	mov.w	r2, #256	; 0x100
24052bde:	601a      	str	r2, [r3, #0]
24052be0:	05a8      	lsls	r0, r5, #22
24052be2:	d50c      	bpl.n	24052bfe <HAL_ADC_IRQHandler+0x186>
24052be4:	05b1      	lsls	r1, r6, #22
24052be6:	d50a      	bpl.n	24052bfe <HAL_ADC_IRQHandler+0x186>
24052be8:	6d63      	ldr	r3, [r4, #84]	; 0x54
24052bea:	4620      	mov	r0, r4
24052bec:	f443 2380 	orr.w	r3, r3, #262144	; 0x40000
24052bf0:	6563      	str	r3, [r4, #84]	; 0x54
24052bf2:	f000 fd8c 	bl	2405370e <HAL_ADCEx_LevelOutOfWindow3Callback>
24052bf6:	6823      	ldr	r3, [r4, #0]
24052bf8:	f44f 7200 	mov.w	r2, #512	; 0x200
24052bfc:	601a      	str	r2, [r3, #0]
24052bfe:	06ea      	lsls	r2, r5, #27
24052c00:	d518      	bpl.n	24052c34 <HAL_ADC_IRQHandler+0x1bc>
24052c02:	06f3      	lsls	r3, r6, #27
24052c04:	d516      	bpl.n	24052c34 <HAL_ADC_IRQHandler+0x1bc>
24052c06:	6b23      	ldr	r3, [r4, #48]	; 0x30
24052c08:	b133      	cbz	r3, 24052c18 <HAL_ADC_IRQHandler+0x1a0>
24052c0a:	2f00      	cmp	r7, #0
24052c0c:	d040      	beq.n	24052c90 <HAL_ADC_IRQHandler+0x218>
24052c0e:	f8d8 3008 	ldr.w	r3, [r8, #8]
24052c12:	f413 4f40 	tst.w	r3, #49152	; 0xc000
24052c16:	d00a      	beq.n	24052c2e <HAL_ADC_IRQHandler+0x1b6>
24052c18:	6d63      	ldr	r3, [r4, #84]	; 0x54
24052c1a:	4620      	mov	r0, r4
24052c1c:	f443 6380 	orr.w	r3, r3, #1024	; 0x400
24052c20:	6563      	str	r3, [r4, #84]	; 0x54
24052c22:	6da3      	ldr	r3, [r4, #88]	; 0x58
24052c24:	f043 0302 	orr.w	r3, r3, #2
24052c28:	65a3      	str	r3, [r4, #88]	; 0x58
24052c2a:	f7ff ff23 	bl	24052a74 <HAL_ADC_ErrorCallback>
24052c2e:	6823      	ldr	r3, [r4, #0]
24052c30:	2210      	movs	r2, #16
24052c32:	601a      	str	r2, [r3, #0]
24052c34:	0568      	lsls	r0, r5, #21
24052c36:	d539      	bpl.n	24052cac <HAL_ADC_IRQHandler+0x234>
24052c38:	0571      	lsls	r1, r6, #21
24052c3a:	d537      	bpl.n	24052cac <HAL_ADC_IRQHandler+0x234>
24052c3c:	6d63      	ldr	r3, [r4, #84]	; 0x54
24052c3e:	f44f 6280 	mov.w	r2, #1024	; 0x400
24052c42:	4620      	mov	r0, r4
24052c44:	f443 4380 	orr.w	r3, r3, #16384	; 0x4000
24052c48:	6563      	str	r3, [r4, #84]	; 0x54
24052c4a:	6da3      	ldr	r3, [r4, #88]	; 0x58
24052c4c:	f043 0308 	orr.w	r3, r3, #8
24052c50:	65a3      	str	r3, [r4, #88]	; 0x58
24052c52:	6823      	ldr	r3, [r4, #0]
24052c54:	e8bd 41f0 	ldmia.w	sp!, {r4, r5, r6, r7, r8, lr}
24052c58:	601a      	str	r2, [r3, #0]
24052c5a:	f000 bd56 	b.w	2405370a <HAL_ADCEx_InjectedQueueOverflowCallback>
24052c5e:	6d63      	ldr	r3, [r4, #84]	; 0x54
24052c60:	f043 0310 	orr.w	r3, r3, #16
24052c64:	6563      	str	r3, [r4, #84]	; 0x54
24052c66:	6da3      	ldr	r3, [r4, #88]	; 0x58
24052c68:	f043 0301 	orr.w	r3, r3, #1
24052c6c:	65a3      	str	r3, [r4, #88]	; 0x58
24052c6e:	e753      	b.n	24052b18 <HAL_ADC_IRQHandler+0xa0>
24052c70:	68da      	ldr	r2, [r3, #12]
24052c72:	e776      	b.n	24052b62 <HAL_ADC_IRQHandler+0xea>
24052c74:	6d63      	ldr	r3, [r4, #84]	; 0x54
24052c76:	f043 0310 	orr.w	r3, r3, #16
24052c7a:	6563      	str	r3, [r4, #84]	; 0x54
24052c7c:	6da3      	ldr	r3, [r4, #88]	; 0x58
24052c7e:	f043 0301 	orr.w	r3, r3, #1
24052c82:	65a3      	str	r3, [r4, #88]	; 0x58
24052c84:	e789      	b.n	24052b9a <HAL_ADC_IRQHandler+0x122>
24052c86:	6d63      	ldr	r3, [r4, #84]	; 0x54
24052c88:	f043 0301 	orr.w	r3, r3, #1
24052c8c:	6563      	str	r3, [r4, #84]	; 0x54
24052c8e:	e784      	b.n	24052b9a <HAL_ADC_IRQHandler+0x122>
24052c90:	6823      	ldr	r3, [r4, #0]
24052c92:	68db      	ldr	r3, [r3, #12]
24052c94:	f013 0f03 	tst.w	r3, #3
24052c98:	e7bd      	b.n	24052c16 <HAL_ADC_IRQHandler+0x19e>
24052c9a:	f240 2221 	movw	r2, #545	; 0x221
24052c9e:	40fa      	lsrs	r2, r7
24052ca0:	07d2      	lsls	r2, r2, #31
24052ca2:	f53f af1e 	bmi.w	24052ae2 <HAL_ADC_IRQHandler+0x6a>
24052ca6:	4a03      	ldr	r2, [pc, #12]	; (24052cb4 <HAL_ADC_IRQHandler+0x23c>)
24052ca8:	68d2      	ldr	r2, [r2, #12]
24052caa:	e71b      	b.n	24052ae4 <HAL_ADC_IRQHandler+0x6c>
24052cac:	e8bd 81f0 	ldmia.w	sp!, {r4, r5, r6, r7, r8, pc}
24052cb0:	40022100 	.word	0x40022100
24052cb4:	40022000 	.word	0x40022000
24052cb8:	40022300 	.word	0x40022300

24052cbc <HAL_ADC_ConfigChannel>:
24052cbc:	2300      	movs	r3, #0
24052cbe:	b5f7      	push	{r0, r1, r2, r4, r5, r6, r7, lr}
24052cc0:	9301      	str	r3, [sp, #4]
24052cc2:	4605      	mov	r5, r0
24052cc4:	f890 3050 	ldrb.w	r3, [r0, #80]	; 0x50
24052cc8:	460e      	mov	r6, r1
24052cca:	2b01      	cmp	r3, #1
24052ccc:	f000 8189 	beq.w	24052fe2 <HAL_ADC_ConfigChannel+0x326>
24052cd0:	2301      	movs	r3, #1
24052cd2:	6804      	ldr	r4, [r0, #0]
24052cd4:	f880 3050 	strb.w	r3, [r0, #80]	; 0x50
24052cd8:	4620      	mov	r0, r4
24052cda:	f7ff fe4f 	bl	2405297c <LL_ADC_REG_IsConversionOngoing>
24052cde:	2800      	cmp	r0, #0
24052ce0:	f040 817a 	bne.w	24052fd8 <HAL_ADC_ConfigChannel+0x31c>
24052ce4:	680a      	ldr	r2, [r1, #0]
24052ce6:	f3c2 0013 	ubfx	r0, r2, #0, #20
24052cea:	f3c2 6184 	ubfx	r1, r2, #26, #5
24052cee:	2800      	cmp	r0, #0
24052cf0:	d16b      	bne.n	24052dca <HAL_ADC_ConfigChannel+0x10e>
24052cf2:	408b      	lsls	r3, r1
24052cf4:	69e2      	ldr	r2, [r4, #28]
24052cf6:	f104 0c30 	add.w	ip, r4, #48	; 0x30
24052cfa:	271f      	movs	r7, #31
24052cfc:	4313      	orrs	r3, r2
24052cfe:	6872      	ldr	r2, [r6, #4]
24052d00:	0990      	lsrs	r0, r2, #6
24052d02:	f002 021f 	and.w	r2, r2, #31
24052d06:	61e3      	str	r3, [r4, #28]
24052d08:	f000 000c 	and.w	r0, r0, #12
24052d0c:	4097      	lsls	r7, r2
24052d0e:	4091      	lsls	r1, r2
24052d10:	f85c 3000 	ldr.w	r3, [ip, r0]
24052d14:	ea23 0307 	bic.w	r3, r3, r7
24052d18:	430b      	orrs	r3, r1
24052d1a:	f84c 3000 	str.w	r3, [ip, r0]
24052d1e:	4620      	mov	r0, r4
24052d20:	f7ff fe2c 	bl	2405297c <LL_ADC_REG_IsConversionOngoing>
24052d24:	68a3      	ldr	r3, [r4, #8]
24052d26:	f003 0308 	and.w	r3, r3, #8
24052d2a:	4318      	orrs	r0, r3
24052d2c:	d141      	bne.n	24052db2 <HAL_ADC_ConfigChannel+0xf6>
24052d2e:	68b2      	ldr	r2, [r6, #8]
24052d30:	4620      	mov	r0, r4
24052d32:	6831      	ldr	r1, [r6, #0]
24052d34:	f7ff fe0e 	bl	24052954 <LL_ADC_SetChannelSamplingTime>
24052d38:	68e3      	ldr	r3, [r4, #12]
24052d3a:	6937      	ldr	r7, [r6, #16]
24052d3c:	f013 0f10 	tst.w	r3, #16
24052d40:	68e3      	ldr	r3, [r4, #12]
24052d42:	6971      	ldr	r1, [r6, #20]
24052d44:	bf0c      	ite	eq
24052d46:	f3c3 0382 	ubfxeq	r3, r3, #2, #3
24052d4a:	085b      	lsrne	r3, r3, #1
24052d4c:	6832      	ldr	r2, [r6, #0]
24052d4e:	bf0c      	ite	eq
24052d50:	005b      	lsleq	r3, r3, #1
24052d52:	f003 0308 	andne.w	r3, r3, #8
24052d56:	2f04      	cmp	r7, #4
24052d58:	fa01 f103 	lsl.w	r1, r1, r3
24052d5c:	d03e      	beq.n	24052ddc <HAL_ADC_ConfigChannel+0x120>
24052d5e:	f104 0060 	add.w	r0, r4, #96	; 0x60
24052d62:	f002 42f8 	and.w	r2, r2, #2080374784	; 0x7c000000
24052d66:	f850 3027 	ldr.w	r3, [r0, r7, lsl #2]
24052d6a:	f003 4300 	and.w	r3, r3, #2147483648	; 0x80000000
24052d6e:	4313      	orrs	r3, r2
24052d70:	430b      	orrs	r3, r1
24052d72:	f840 3027 	str.w	r3, [r0, r7, lsl #2]
24052d76:	7e72      	ldrb	r2, [r6, #25]
24052d78:	6931      	ldr	r1, [r6, #16]
24052d7a:	1e57      	subs	r7, r2, #1
24052d7c:	f850 3021 	ldr.w	r3, [r0, r1, lsl #2]
24052d80:	427a      	negs	r2, r7
24052d82:	f023 4300 	bic.w	r3, r3, #2147483648	; 0x80000000
24052d86:	417a      	adcs	r2, r7
24052d88:	ea43 73c2 	orr.w	r3, r3, r2, lsl #31
24052d8c:	f840 3021 	str.w	r3, [r0, r1, lsl #2]
24052d90:	7e33      	ldrb	r3, [r6, #24]
24052d92:	6931      	ldr	r1, [r6, #16]
24052d94:	f103 3cff 	add.w	ip, r3, #4294967295
24052d98:	6922      	ldr	r2, [r4, #16]
24052d9a:	f001 011f 	and.w	r1, r1, #31
24052d9e:	f1dc 0300 	rsbs	r3, ip, #0
24052da2:	f422 42f0 	bic.w	r2, r2, #30720	; 0x7800
24052da6:	eb43 030c 	adc.w	r3, r3, ip
24052daa:	02db      	lsls	r3, r3, #11
24052dac:	408b      	lsls	r3, r1
24052dae:	4313      	orrs	r3, r2
24052db0:	6123      	str	r3, [r4, #16]
24052db2:	4620      	mov	r0, r4
24052db4:	f7ff fdde 	bl	24052974 <LL_ADC_IsEnabled>
24052db8:	2800      	cmp	r0, #0
24052dba:	d036      	beq.n	24052e2a <HAL_ADC_ConfigChannel+0x16e>
24052dbc:	2300      	movs	r3, #0
24052dbe:	2200      	movs	r2, #0
24052dc0:	f885 2050 	strb.w	r2, [r5, #80]	; 0x50
24052dc4:	4618      	mov	r0, r3
24052dc6:	b003      	add	sp, #12
24052dc8:	bdf0      	pop	{r4, r5, r6, r7, pc}
24052dca:	fa92 f2a2 	rbit	r2, r2
24052dce:	fab2 f282 	clz	r2, r2
24052dd2:	2301      	movs	r3, #1
24052dd4:	f002 021f 	and.w	r2, r2, #31
24052dd8:	4093      	lsls	r3, r2
24052dda:	e78b      	b.n	24052cf4 <HAL_ADC_ConfigChannel+0x38>
24052ddc:	6e23      	ldr	r3, [r4, #96]	; 0x60
24052dde:	0691      	lsls	r1, r2, #26
24052de0:	f003 43f8 	and.w	r3, r3, #2080374784	; 0x7c000000
24052de4:	ebb3 6f82 	cmp.w	r3, r2, lsl #26
24052de8:	d103      	bne.n	24052df2 <HAL_ADC_ConfigChannel+0x136>
24052dea:	6e23      	ldr	r3, [r4, #96]	; 0x60
24052dec:	f023 4300 	bic.w	r3, r3, #2147483648	; 0x80000000
24052df0:	6623      	str	r3, [r4, #96]	; 0x60
24052df2:	6e63      	ldr	r3, [r4, #100]	; 0x64
24052df4:	f003 43f8 	and.w	r3, r3, #2080374784	; 0x7c000000
24052df8:	4299      	cmp	r1, r3
24052dfa:	d103      	bne.n	24052e04 <HAL_ADC_ConfigChannel+0x148>
24052dfc:	6e63      	ldr	r3, [r4, #100]	; 0x64
24052dfe:	f023 4300 	bic.w	r3, r3, #2147483648	; 0x80000000
24052e02:	6663      	str	r3, [r4, #100]	; 0x64
24052e04:	6ea3      	ldr	r3, [r4, #104]	; 0x68
24052e06:	f003 43f8 	and.w	r3, r3, #2080374784	; 0x7c000000
24052e0a:	4299      	cmp	r1, r3
24052e0c:	d103      	bne.n	24052e16 <HAL_ADC_ConfigChannel+0x15a>
24052e0e:	6ea3      	ldr	r3, [r4, #104]	; 0x68
24052e10:	f023 4300 	bic.w	r3, r3, #2147483648	; 0x80000000
24052e14:	66a3      	str	r3, [r4, #104]	; 0x68
24052e16:	6ee3      	ldr	r3, [r4, #108]	; 0x6c
24052e18:	f003 43f8 	and.w	r3, r3, #2080374784	; 0x7c000000
24052e1c:	4299      	cmp	r1, r3
24052e1e:	d1c8      	bne.n	24052db2 <HAL_ADC_ConfigChannel+0xf6>
24052e20:	6ee3      	ldr	r3, [r4, #108]	; 0x6c
24052e22:	f023 4300 	bic.w	r3, r3, #2147483648	; 0x80000000
24052e26:	66e3      	str	r3, [r4, #108]	; 0x6c
24052e28:	e7c3      	b.n	24052db2 <HAL_ADC_ConfigChannel+0xf6>
24052e2a:	68f7      	ldr	r7, [r6, #12]
24052e2c:	6833      	ldr	r3, [r6, #0]
24052e2e:	f007 0c18 	and.w	ip, r7, #24
24052e32:	4a6d      	ldr	r2, [pc, #436]	; (24052fe8 <HAL_ADC_ConfigChannel+0x32c>)
24052e34:	f8d4 10c0 	ldr.w	r1, [r4, #192]	; 0xc0
24052e38:	f3c3 0013 	ubfx	r0, r3, #0, #20
24052e3c:	fa22 f20c 	lsr.w	r2, r2, ip
24052e40:	ea21 0100 	bic.w	r1, r1, r0
24052e44:	401a      	ands	r2, r3
24052e46:	430a      	orrs	r2, r1
24052e48:	f8c4 20c0 	str.w	r2, [r4, #192]	; 0xc0
24052e4c:	4a67      	ldr	r2, [pc, #412]	; (24052fec <HAL_ADC_ConfigChannel+0x330>)
24052e4e:	4297      	cmp	r7, r2
24052e50:	d11c      	bne.n	24052e8c <HAL_ADC_ConfigChannel+0x1d0>
24052e52:	2800      	cmp	r0, #0
24052e54:	d14a      	bne.n	24052eec <HAL_ADC_ConfigChannel+0x230>
24052e56:	0e9a      	lsrs	r2, r3, #26
24052e58:	2101      	movs	r1, #1
24052e5a:	3201      	adds	r2, #1
24052e5c:	f002 071f 	and.w	r7, r2, #31
24052e60:	0692      	lsls	r2, r2, #26
24052e62:	2f09      	cmp	r7, #9
24052e64:	f002 42f8 	and.w	r2, r2, #2080374784	; 0x7c000000
24052e68:	fa01 f107 	lsl.w	r1, r1, r7
24052e6c:	d870      	bhi.n	24052f50 <HAL_ADC_ConfigChannel+0x294>
24052e6e:	4311      	orrs	r1, r2
24052e70:	2800      	cmp	r0, #0
24052e72:	d157      	bne.n	24052f24 <HAL_ADC_ConfigChannel+0x268>
24052e74:	0e9b      	lsrs	r3, r3, #26
24052e76:	3301      	adds	r3, #1
24052e78:	f003 031f 	and.w	r3, r3, #31
24052e7c:	eb03 0343 	add.w	r3, r3, r3, lsl #1
24052e80:	051b      	lsls	r3, r3, #20
24052e82:	4319      	orrs	r1, r3
24052e84:	68b2      	ldr	r2, [r6, #8]
24052e86:	4620      	mov	r0, r4
24052e88:	f7ff fd64 	bl	24052954 <LL_ADC_SetChannelSamplingTime>
24052e8c:	6836      	ldr	r6, [r6, #0]
24052e8e:	2e00      	cmp	r6, #0
24052e90:	da94      	bge.n	24052dbc <HAL_ADC_ConfigChannel+0x100>
24052e92:	4a57      	ldr	r2, [pc, #348]	; (24052ff0 <HAL_ADC_ConfigChannel+0x334>)
24052e94:	4857      	ldr	r0, [pc, #348]	; (24052ff4 <HAL_ADC_ConfigChannel+0x338>)
24052e96:	4958      	ldr	r1, [pc, #352]	; (24052ff8 <HAL_ADC_ConfigChannel+0x33c>)
24052e98:	6893      	ldr	r3, [r2, #8]
24052e9a:	f7ff fd6b 	bl	24052974 <LL_ADC_IsEnabled>
24052e9e:	4607      	mov	r7, r0
24052ea0:	4608      	mov	r0, r1
24052ea2:	f7ff fd67 	bl	24052974 <LL_ADC_IsEnabled>
24052ea6:	4338      	orrs	r0, r7
24052ea8:	f040 8090 	bne.w	24052fcc <HAL_ADC_ConfigChannel+0x310>
24052eac:	4f53      	ldr	r7, [pc, #332]	; (24052ffc <HAL_ADC_ConfigChannel+0x340>)
24052eae:	f003 70e0 	and.w	r0, r3, #29360128	; 0x1c00000
24052eb2:	42be      	cmp	r6, r7
24052eb4:	d166      	bne.n	24052f84 <HAL_ADC_ConfigChannel+0x2c8>
24052eb6:	021b      	lsls	r3, r3, #8
24052eb8:	d480      	bmi.n	24052dbc <HAL_ADC_ConfigChannel+0x100>
24052eba:	428c      	cmp	r4, r1
24052ebc:	f47f af7e 	bne.w	24052dbc <HAL_ADC_ConfigChannel+0x100>
24052ec0:	6893      	ldr	r3, [r2, #8]
24052ec2:	f023 73e0 	bic.w	r3, r3, #29360128	; 0x1c00000
24052ec6:	4303      	orrs	r3, r0
24052ec8:	f443 0300 	orr.w	r3, r3, #8388608	; 0x800000
24052ecc:	6093      	str	r3, [r2, #8]
24052ece:	4b4c      	ldr	r3, [pc, #304]	; (24053000 <HAL_ADC_ConfigChannel+0x344>)
24052ed0:	4a4c      	ldr	r2, [pc, #304]	; (24053004 <HAL_ADC_ConfigChannel+0x348>)
24052ed2:	681b      	ldr	r3, [r3, #0]
24052ed4:	fbb3 f3f2 	udiv	r3, r3, r2
24052ed8:	3301      	adds	r3, #1
24052eda:	005b      	lsls	r3, r3, #1
24052edc:	9301      	str	r3, [sp, #4]
24052ede:	9b01      	ldr	r3, [sp, #4]
24052ee0:	2b00      	cmp	r3, #0
24052ee2:	f43f af6b 	beq.w	24052dbc <HAL_ADC_ConfigChannel+0x100>
24052ee6:	9b01      	ldr	r3, [sp, #4]
24052ee8:	3b01      	subs	r3, #1
24052eea:	e7f7      	b.n	24052edc <HAL_ADC_ConfigChannel+0x220>
24052eec:	fa93 f2a3 	rbit	r2, r3
24052ef0:	b132      	cbz	r2, 24052f00 <HAL_ADC_ConfigChannel+0x244>
24052ef2:	fab2 f282 	clz	r2, r2
24052ef6:	3201      	adds	r2, #1
24052ef8:	f002 021f 	and.w	r2, r2, #31
24052efc:	2a09      	cmp	r2, #9
24052efe:	d816      	bhi.n	24052f2e <HAL_ADC_ConfigChannel+0x272>
24052f00:	fa93 f2a3 	rbit	r2, r3
24052f04:	fab2 f282 	clz	r2, r2
24052f08:	3201      	adds	r2, #1
24052f0a:	0692      	lsls	r2, r2, #26
24052f0c:	f002 42f8 	and.w	r2, r2, #2080374784	; 0x7c000000
24052f10:	fa93 f7a3 	rbit	r7, r3
24052f14:	fab7 f787 	clz	r7, r7
24052f18:	2101      	movs	r1, #1
24052f1a:	3701      	adds	r7, #1
24052f1c:	f007 071f 	and.w	r7, r7, #31
24052f20:	40b9      	lsls	r1, r7
24052f22:	e7a4      	b.n	24052e6e <HAL_ADC_ConfigChannel+0x1b2>
24052f24:	fa93 f3a3 	rbit	r3, r3
24052f28:	fab3 f383 	clz	r3, r3
24052f2c:	e7a3      	b.n	24052e76 <HAL_ADC_ConfigChannel+0x1ba>
24052f2e:	fa93 f2a3 	rbit	r2, r3
24052f32:	fab2 f282 	clz	r2, r2
24052f36:	3201      	adds	r2, #1
24052f38:	0692      	lsls	r2, r2, #26
24052f3a:	f002 42f8 	and.w	r2, r2, #2080374784	; 0x7c000000
24052f3e:	fa93 f7a3 	rbit	r7, r3
24052f42:	fab7 f787 	clz	r7, r7
24052f46:	2101      	movs	r1, #1
24052f48:	3701      	adds	r7, #1
24052f4a:	f007 071f 	and.w	r7, r7, #31
24052f4e:	40b9      	lsls	r1, r7
24052f50:	4311      	orrs	r1, r2
24052f52:	b950      	cbnz	r0, 24052f6a <HAL_ADC_ConfigChannel+0x2ae>
24052f54:	0e9b      	lsrs	r3, r3, #26
24052f56:	3301      	adds	r3, #1
24052f58:	f003 031f 	and.w	r3, r3, #31
24052f5c:	eb03 0343 	add.w	r3, r3, r3, lsl #1
24052f60:	3b1e      	subs	r3, #30
24052f62:	051b      	lsls	r3, r3, #20
24052f64:	f043 7300 	orr.w	r3, r3, #33554432	; 0x2000000
24052f68:	e78b      	b.n	24052e82 <HAL_ADC_ConfigChannel+0x1c6>
24052f6a:	fa93 f2a3 	rbit	r2, r3
24052f6e:	fab2 f282 	clz	r2, r2
24052f72:	2303      	movs	r3, #3
24052f74:	f06f 001d 	mvn.w	r0, #29
24052f78:	3201      	adds	r2, #1
24052f7a:	f002 021f 	and.w	r2, r2, #31
24052f7e:	fb13 0302 	smlabb	r3, r3, r2, r0
24052f82:	e7ee      	b.n	24052f62 <HAL_ADC_ConfigChannel+0x2a6>
24052f84:	4f20      	ldr	r7, [pc, #128]	; (24053008 <HAL_ADC_ConfigChannel+0x34c>)
24052f86:	42be      	cmp	r6, r7
24052f88:	d10e      	bne.n	24052fa8 <HAL_ADC_ConfigChannel+0x2ec>
24052f8a:	f013 7380 	ands.w	r3, r3, #16777216	; 0x1000000
24052f8e:	f47f af15 	bne.w	24052dbc <HAL_ADC_ConfigChannel+0x100>
24052f92:	428c      	cmp	r4, r1
24052f94:	f47f af12 	bne.w	24052dbc <HAL_ADC_ConfigChannel+0x100>
24052f98:	6891      	ldr	r1, [r2, #8]
24052f9a:	f021 71e0 	bic.w	r1, r1, #29360128	; 0x1c00000
24052f9e:	4301      	orrs	r1, r0
24052fa0:	f041 7180 	orr.w	r1, r1, #16777216	; 0x1000000
24052fa4:	6091      	str	r1, [r2, #8]
24052fa6:	e70a      	b.n	24052dbe <HAL_ADC_ConfigChannel+0x102>
24052fa8:	4f18      	ldr	r7, [pc, #96]	; (2405300c <HAL_ADC_ConfigChannel+0x350>)
24052faa:	42be      	cmp	r6, r7
24052fac:	f47f af06 	bne.w	24052dbc <HAL_ADC_ConfigChannel+0x100>
24052fb0:	f413 0380 	ands.w	r3, r3, #4194304	; 0x400000
24052fb4:	f47f af02 	bne.w	24052dbc <HAL_ADC_ConfigChannel+0x100>
24052fb8:	428c      	cmp	r4, r1
24052fba:	f47f aeff 	bne.w	24052dbc <HAL_ADC_ConfigChannel+0x100>
24052fbe:	6891      	ldr	r1, [r2, #8]
24052fc0:	f021 71e0 	bic.w	r1, r1, #29360128	; 0x1c00000
24052fc4:	4301      	orrs	r1, r0
24052fc6:	f441 0180 	orr.w	r1, r1, #4194304	; 0x400000
24052fca:	e7eb      	b.n	24052fa4 <HAL_ADC_ConfigChannel+0x2e8>
24052fcc:	6d6b      	ldr	r3, [r5, #84]	; 0x54
24052fce:	f043 0320 	orr.w	r3, r3, #32
24052fd2:	656b      	str	r3, [r5, #84]	; 0x54
24052fd4:	2301      	movs	r3, #1
24052fd6:	e6f2      	b.n	24052dbe <HAL_ADC_ConfigChannel+0x102>
24052fd8:	6d6a      	ldr	r2, [r5, #84]	; 0x54
24052fda:	f042 0220 	orr.w	r2, r2, #32
24052fde:	656a      	str	r2, [r5, #84]	; 0x54
24052fe0:	e6ed      	b.n	24052dbe <HAL_ADC_ConfigChannel+0x102>
24052fe2:	2302      	movs	r3, #2
24052fe4:	e6ee      	b.n	24052dc4 <HAL_ADC_ConfigChannel+0x108>
24052fe6:	bf00      	nop
24052fe8:	000fffff 	.word	0x000fffff
24052fec:	47ff0000 	.word	0x47ff0000
24052ff0:	40022300 	.word	0x40022300
24052ff4:	40022000 	.word	0x40022000
24052ff8:	40022100 	.word	0x40022100
24052ffc:	cb840000 	.word	0xcb840000
24053000:	20000044 	.word	0x20000044
24053004:	00030d40 	.word	0x00030d40
24053008:	bac04000 	.word	0xbac04000
2405300c:	cfb80000 	.word	0xcfb80000

24053010 <ADC_ConversionStop>:
24053010:	6803      	ldr	r3, [r0, #0]
24053012:	b570      	push	{r4, r5, r6, lr}
24053014:	4604      	mov	r4, r0
24053016:	4618      	mov	r0, r3
24053018:	f7ff fcb0 	bl	2405297c <LL_ADC_REG_IsConversionOngoing>
2405301c:	689a      	ldr	r2, [r3, #8]
2405301e:	f002 0208 	and.w	r2, r2, #8
24053022:	4310      	orrs	r0, r2
24053024:	d101      	bne.n	2405302a <ADC_ConversionStop+0x1a>
24053026:	2000      	movs	r0, #0
24053028:	bd70      	pop	{r4, r5, r6, pc}
2405302a:	68da      	ldr	r2, [r3, #12]
2405302c:	0190      	lsls	r0, r2, #6
2405302e:	d52a      	bpl.n	24053086 <ADC_ConversionStop+0x76>
24053030:	8aa0      	ldrh	r0, [r4, #20]
24053032:	f240 1201 	movw	r2, #257	; 0x101
24053036:	4290      	cmp	r0, r2
24053038:	d125      	bne.n	24053086 <ADC_ConversionStop+0x76>
2405303a:	4a27      	ldr	r2, [pc, #156]	; (240530d8 <ADC_ConversionStop+0xc8>)
2405303c:	6819      	ldr	r1, [r3, #0]
2405303e:	0649      	lsls	r1, r1, #25
24053040:	d515      	bpl.n	2405306e <ADC_ConversionStop+0x5e>
24053042:	2240      	movs	r2, #64	; 0x40
24053044:	2101      	movs	r1, #1
24053046:	601a      	str	r2, [r3, #0]
24053048:	4618      	mov	r0, r3
2405304a:	f7ff fc97 	bl	2405297c <LL_ADC_REG_IsConversionOngoing>
2405304e:	b150      	cbz	r0, 24053066 <ADC_ConversionStop+0x56>
24053050:	689a      	ldr	r2, [r3, #8]
24053052:	0796      	lsls	r6, r2, #30
24053054:	d407      	bmi.n	24053066 <ADC_ConversionStop+0x56>
24053056:	689a      	ldr	r2, [r3, #8]
24053058:	f022 4200 	bic.w	r2, r2, #2147483648	; 0x80000000
2405305c:	f022 023f 	bic.w	r2, r2, #63	; 0x3f
24053060:	f042 0210 	orr.w	r2, r2, #16
24053064:	609a      	str	r2, [r3, #8]
24053066:	2901      	cmp	r1, #1
24053068:	d10f      	bne.n	2405308a <ADC_ConversionStop+0x7a>
2405306a:	2504      	movs	r5, #4
2405306c:	e021      	b.n	240530b2 <ADC_ConversionStop+0xa2>
2405306e:	3a01      	subs	r2, #1
24053070:	d1e4      	bne.n	2405303c <ADC_ConversionStop+0x2c>
24053072:	6d63      	ldr	r3, [r4, #84]	; 0x54
24053074:	2001      	movs	r0, #1
24053076:	f043 0310 	orr.w	r3, r3, #16
2405307a:	6563      	str	r3, [r4, #84]	; 0x54
2405307c:	6da3      	ldr	r3, [r4, #88]	; 0x58
2405307e:	f043 0301 	orr.w	r3, r3, #1
24053082:	65a3      	str	r3, [r4, #88]	; 0x58
24053084:	e7d0      	b.n	24053028 <ADC_ConversionStop+0x18>
24053086:	2902      	cmp	r1, #2
24053088:	d1de      	bne.n	24053048 <ADC_ConversionStop+0x38>
2405308a:	689a      	ldr	r2, [r3, #8]
2405308c:	0710      	lsls	r0, r2, #28
2405308e:	d50a      	bpl.n	240530a6 <ADC_ConversionStop+0x96>
24053090:	689a      	ldr	r2, [r3, #8]
24053092:	0792      	lsls	r2, r2, #30
24053094:	d407      	bmi.n	240530a6 <ADC_ConversionStop+0x96>
24053096:	689a      	ldr	r2, [r3, #8]
24053098:	f022 4200 	bic.w	r2, r2, #2147483648	; 0x80000000
2405309c:	f022 023f 	bic.w	r2, r2, #63	; 0x3f
240530a0:	f042 0220 	orr.w	r2, r2, #32
240530a4:	609a      	str	r2, [r3, #8]
240530a6:	2902      	cmp	r1, #2
240530a8:	d014      	beq.n	240530d4 <ADC_ConversionStop+0xc4>
240530aa:	2903      	cmp	r1, #3
240530ac:	bf14      	ite	ne
240530ae:	2504      	movne	r5, #4
240530b0:	250c      	moveq	r5, #12
240530b2:	f7ff fc37 	bl	24052924 <HAL_GetTick>
240530b6:	4606      	mov	r6, r0
240530b8:	6823      	ldr	r3, [r4, #0]
240530ba:	689b      	ldr	r3, [r3, #8]
240530bc:	422b      	tst	r3, r5
240530be:	d0b2      	beq.n	24053026 <ADC_ConversionStop+0x16>
240530c0:	f7ff fc30 	bl	24052924 <HAL_GetTick>
240530c4:	1b80      	subs	r0, r0, r6
240530c6:	2805      	cmp	r0, #5
240530c8:	d9f6      	bls.n	240530b8 <ADC_ConversionStop+0xa8>
240530ca:	6823      	ldr	r3, [r4, #0]
240530cc:	689b      	ldr	r3, [r3, #8]
240530ce:	422b      	tst	r3, r5
240530d0:	d0f2      	beq.n	240530b8 <ADC_ConversionStop+0xa8>
240530d2:	e7ce      	b.n	24053072 <ADC_ConversionStop+0x62>
240530d4:	2508      	movs	r5, #8
240530d6:	e7ec      	b.n	240530b2 <ADC_ConversionStop+0xa2>
240530d8:	000cdc01 	.word	0x000cdc01

240530dc <ADC_Enable>:
240530dc:	6802      	ldr	r2, [r0, #0]
240530de:	b570      	push	{r4, r5, r6, lr}
240530e0:	4604      	mov	r4, r0
240530e2:	4610      	mov	r0, r2
240530e4:	f7ff fc46 	bl	24052974 <LL_ADC_IsEnabled>
240530e8:	b108      	cbz	r0, 240530ee <ADC_Enable+0x12>
240530ea:	2000      	movs	r0, #0
240530ec:	bd70      	pop	{r4, r5, r6, pc}
240530ee:	6891      	ldr	r1, [r2, #8]
240530f0:	4b1c      	ldr	r3, [pc, #112]	; (24053164 <ADC_Enable+0x88>)
240530f2:	4219      	tst	r1, r3
240530f4:	d009      	beq.n	2405310a <ADC_Enable+0x2e>
240530f6:	6d63      	ldr	r3, [r4, #84]	; 0x54
240530f8:	2001      	movs	r0, #1
240530fa:	f043 0310 	orr.w	r3, r3, #16
240530fe:	6563      	str	r3, [r4, #84]	; 0x54
24053100:	6da3      	ldr	r3, [r4, #88]	; 0x58
24053102:	f043 0301 	orr.w	r3, r3, #1
24053106:	65a3      	str	r3, [r4, #88]	; 0x58
24053108:	e7f0      	b.n	240530ec <ADC_Enable+0x10>
2405310a:	6893      	ldr	r3, [r2, #8]
2405310c:	f023 4300 	bic.w	r3, r3, #2147483648	; 0x80000000
24053110:	f023 033f 	bic.w	r3, r3, #63	; 0x3f
24053114:	f043 0301 	orr.w	r3, r3, #1
24053118:	6093      	str	r3, [r2, #8]
2405311a:	f7ff fc03 	bl	24052924 <HAL_GetTick>
2405311e:	6821      	ldr	r1, [r4, #0]
24053120:	4a11      	ldr	r2, [pc, #68]	; (24053168 <ADC_Enable+0x8c>)
24053122:	4605      	mov	r5, r0
24053124:	4b11      	ldr	r3, [pc, #68]	; (2405316c <ADC_Enable+0x90>)
24053126:	4291      	cmp	r1, r2
24053128:	689b      	ldr	r3, [r3, #8]
2405312a:	d101      	bne.n	24053130 <ADC_Enable+0x54>
2405312c:	06db      	lsls	r3, r3, #27
2405312e:	d1dc      	bne.n	240530ea <ADC_Enable+0xe>
24053130:	4e0f      	ldr	r6, [pc, #60]	; (24053170 <ADC_Enable+0x94>)
24053132:	e011      	b.n	24053158 <ADC_Enable+0x7c>
24053134:	4610      	mov	r0, r2
24053136:	f7ff fc1d 	bl	24052974 <LL_ADC_IsEnabled>
2405313a:	b920      	cbnz	r0, 24053146 <ADC_Enable+0x6a>
2405313c:	6893      	ldr	r3, [r2, #8]
2405313e:	4033      	ands	r3, r6
24053140:	f043 0301 	orr.w	r3, r3, #1
24053144:	6093      	str	r3, [r2, #8]
24053146:	f7ff fbed 	bl	24052924 <HAL_GetTick>
2405314a:	1b40      	subs	r0, r0, r5
2405314c:	2802      	cmp	r0, #2
2405314e:	d903      	bls.n	24053158 <ADC_Enable+0x7c>
24053150:	6823      	ldr	r3, [r4, #0]
24053152:	681b      	ldr	r3, [r3, #0]
24053154:	07d8      	lsls	r0, r3, #31
24053156:	d5ce      	bpl.n	240530f6 <ADC_Enable+0x1a>
24053158:	6822      	ldr	r2, [r4, #0]
2405315a:	6813      	ldr	r3, [r2, #0]
2405315c:	07d9      	lsls	r1, r3, #31
2405315e:	d5e9      	bpl.n	24053134 <ADC_Enable+0x58>
24053160:	e7c3      	b.n	240530ea <ADC_Enable+0xe>
24053162:	bf00      	nop
24053164:	8000003f 	.word	0x8000003f
24053168:	40022100 	.word	0x40022100
2405316c:	40022300 	.word	0x40022300
24053170:	7fffffc0 	.word	0x7fffffc0

24053174 <HAL_ADC_Start>:
24053174:	4b33      	ldr	r3, [pc, #204]	; (24053244 <HAL_ADC_Start+0xd0>)
24053176:	b570      	push	{r4, r5, r6, lr}
24053178:	4604      	mov	r4, r0
2405317a:	6800      	ldr	r0, [r0, #0]
2405317c:	689e      	ldr	r6, [r3, #8]
2405317e:	f7ff fbfd 	bl	2405297c <LL_ADC_REG_IsConversionOngoing>
24053182:	4605      	mov	r5, r0
24053184:	2800      	cmp	r0, #0
24053186:	d157      	bne.n	24053238 <HAL_ADC_Start+0xc4>
24053188:	f894 3050 	ldrb.w	r3, [r4, #80]	; 0x50
2405318c:	2b01      	cmp	r3, #1
2405318e:	d053      	beq.n	24053238 <HAL_ADC_Start+0xc4>
24053190:	2301      	movs	r3, #1
24053192:	4620      	mov	r0, r4
24053194:	f884 3050 	strb.w	r3, [r4, #80]	; 0x50
24053198:	f7ff ffa0 	bl	240530dc <ADC_Enable>
2405319c:	2800      	cmp	r0, #0
2405319e:	d148      	bne.n	24053232 <HAL_ADC_Start+0xbe>
240531a0:	6d63      	ldr	r3, [r4, #84]	; 0x54
240531a2:	f006 011f 	and.w	r1, r6, #31
240531a6:	4a28      	ldr	r2, [pc, #160]	; (24053248 <HAL_ADC_Start+0xd4>)
240531a8:	f423 6370 	bic.w	r3, r3, #3840	; 0xf00
240531ac:	f023 0301 	bic.w	r3, r3, #1
240531b0:	f443 7380 	orr.w	r3, r3, #256	; 0x100
240531b4:	6563      	str	r3, [r4, #84]	; 0x54
240531b6:	6823      	ldr	r3, [r4, #0]
240531b8:	4293      	cmp	r3, r2
240531ba:	d03f      	beq.n	2405323c <HAL_ADC_Start+0xc8>
240531bc:	461a      	mov	r2, r3
240531be:	6d65      	ldr	r5, [r4, #84]	; 0x54
240531c0:	f425 1580 	bic.w	r5, r5, #1048576	; 0x100000
240531c4:	6565      	str	r5, [r4, #84]	; 0x54
240531c6:	6d65      	ldr	r5, [r4, #84]	; 0x54
240531c8:	f415 5580 	ands.w	r5, r5, #4096	; 0x1000
240531cc:	d002      	beq.n	240531d4 <HAL_ADC_Start+0x60>
240531ce:	6da5      	ldr	r5, [r4, #88]	; 0x58
240531d0:	f025 0506 	bic.w	r5, r5, #6
240531d4:	65a5      	str	r5, [r4, #88]	; 0x58
240531d6:	251c      	movs	r5, #28
240531d8:	4293      	cmp	r3, r2
240531da:	601d      	str	r5, [r3, #0]
240531dc:	f04f 0500 	mov.w	r5, #0
240531e0:	f884 5050 	strb.w	r5, [r4, #80]	; 0x50
240531e4:	d005      	beq.n	240531f2 <HAL_ADC_Start+0x7e>
240531e6:	f240 2521 	movw	r5, #545	; 0x221
240531ea:	fa25 f101 	lsr.w	r1, r5, r1
240531ee:	07c9      	lsls	r1, r1, #31
240531f0:	d511      	bpl.n	24053216 <HAL_ADC_Start+0xa2>
240531f2:	68da      	ldr	r2, [r3, #12]
240531f4:	0192      	lsls	r2, r2, #6
240531f6:	d505      	bpl.n	24053204 <HAL_ADC_Start+0x90>
240531f8:	6d62      	ldr	r2, [r4, #84]	; 0x54
240531fa:	f422 5240 	bic.w	r2, r2, #12288	; 0x3000
240531fe:	f442 5280 	orr.w	r2, r2, #4096	; 0x1000
24053202:	6562      	str	r2, [r4, #84]	; 0x54
24053204:	689a      	ldr	r2, [r3, #8]
24053206:	f022 4200 	bic.w	r2, r2, #2147483648	; 0x80000000
2405320a:	f022 023f 	bic.w	r2, r2, #63	; 0x3f
2405320e:	f042 0204 	orr.w	r2, r2, #4
24053212:	609a      	str	r2, [r3, #8]
24053214:	bd70      	pop	{r4, r5, r6, pc}
24053216:	6d63      	ldr	r3, [r4, #84]	; 0x54
24053218:	f443 1380 	orr.w	r3, r3, #1048576	; 0x100000
2405321c:	6563      	str	r3, [r4, #84]	; 0x54
2405321e:	68d3      	ldr	r3, [r2, #12]
24053220:	019b      	lsls	r3, r3, #6
24053222:	d5f7      	bpl.n	24053214 <HAL_ADC_Start+0xa0>
24053224:	6d63      	ldr	r3, [r4, #84]	; 0x54
24053226:	f423 5340 	bic.w	r3, r3, #12288	; 0x3000
2405322a:	f443 5380 	orr.w	r3, r3, #4096	; 0x1000
2405322e:	6563      	str	r3, [r4, #84]	; 0x54
24053230:	e7f0      	b.n	24053214 <HAL_ADC_Start+0xa0>
24053232:	f884 5050 	strb.w	r5, [r4, #80]	; 0x50
24053236:	e7ed      	b.n	24053214 <HAL_ADC_Start+0xa0>
24053238:	2002      	movs	r0, #2
2405323a:	e7eb      	b.n	24053214 <HAL_ADC_Start+0xa0>
2405323c:	4a03      	ldr	r2, [pc, #12]	; (2405324c <HAL_ADC_Start+0xd8>)
2405323e:	2900      	cmp	r1, #0
24053240:	d0bd      	beq.n	240531be <HAL_ADC_Start+0x4a>
24053242:	e7c0      	b.n	240531c6 <HAL_ADC_Start+0x52>
24053244:	40022300 	.word	0x40022300
24053248:	40022100 	.word	0x40022100
2405324c:	40022000 	.word	0x40022000

24053250 <HAL_ADC_Start_IT>:
24053250:	4b4e      	ldr	r3, [pc, #312]	; (2405338c <HAL_ADC_Start_IT+0x13c>)
24053252:	b570      	push	{r4, r5, r6, lr}
24053254:	4604      	mov	r4, r0
24053256:	6800      	ldr	r0, [r0, #0]
24053258:	689e      	ldr	r6, [r3, #8]
2405325a:	f7ff fb8f 	bl	2405297c <LL_ADC_REG_IsConversionOngoing>
2405325e:	4605      	mov	r5, r0
24053260:	2800      	cmp	r0, #0
24053262:	f040 808d 	bne.w	24053380 <HAL_ADC_Start_IT+0x130>
24053266:	f894 3050 	ldrb.w	r3, [r4, #80]	; 0x50
2405326a:	2b01      	cmp	r3, #1
2405326c:	f000 8088 	beq.w	24053380 <HAL_ADC_Start_IT+0x130>
24053270:	2301      	movs	r3, #1
24053272:	4620      	mov	r0, r4
24053274:	f884 3050 	strb.w	r3, [r4, #80]	; 0x50
24053278:	f7ff ff30 	bl	240530dc <ADC_Enable>
2405327c:	2800      	cmp	r0, #0
2405327e:	d17c      	bne.n	2405337a <HAL_ADC_Start_IT+0x12a>
24053280:	6d63      	ldr	r3, [r4, #84]	; 0x54
24053282:	f006 011f 	and.w	r1, r6, #31
24053286:	4a42      	ldr	r2, [pc, #264]	; (24053390 <HAL_ADC_Start_IT+0x140>)
24053288:	f423 6370 	bic.w	r3, r3, #3840	; 0xf00
2405328c:	f023 0301 	bic.w	r3, r3, #1
24053290:	f443 7380 	orr.w	r3, r3, #256	; 0x100
24053294:	6563      	str	r3, [r4, #84]	; 0x54
24053296:	6823      	ldr	r3, [r4, #0]
24053298:	4293      	cmp	r3, r2
2405329a:	d073      	beq.n	24053384 <HAL_ADC_Start_IT+0x134>
2405329c:	461a      	mov	r2, r3
2405329e:	6d65      	ldr	r5, [r4, #84]	; 0x54
240532a0:	f425 1580 	bic.w	r5, r5, #1048576	; 0x100000
240532a4:	6565      	str	r5, [r4, #84]	; 0x54
240532a6:	6d65      	ldr	r5, [r4, #84]	; 0x54
240532a8:	f415 5580 	ands.w	r5, r5, #4096	; 0x1000
240532ac:	d002      	beq.n	240532b4 <HAL_ADC_Start_IT+0x64>
240532ae:	6da5      	ldr	r5, [r4, #88]	; 0x58
240532b0:	f025 0506 	bic.w	r5, r5, #6
240532b4:	65a5      	str	r5, [r4, #88]	; 0x58
240532b6:	251c      	movs	r5, #28
240532b8:	601d      	str	r5, [r3, #0]
240532ba:	2500      	movs	r5, #0
240532bc:	f884 5050 	strb.w	r5, [r4, #80]	; 0x50
240532c0:	685d      	ldr	r5, [r3, #4]
240532c2:	f025 051c 	bic.w	r5, r5, #28
240532c6:	605d      	str	r5, [r3, #4]
240532c8:	6925      	ldr	r5, [r4, #16]
240532ca:	685e      	ldr	r6, [r3, #4]
240532cc:	2d08      	cmp	r5, #8
240532ce:	bf0c      	ite	eq
240532d0:	f046 0608 	orreq.w	r6, r6, #8
240532d4:	f046 0604 	orrne.w	r6, r6, #4
240532d8:	605e      	str	r6, [r3, #4]
240532da:	6b26      	ldr	r6, [r4, #48]	; 0x30
240532dc:	b91e      	cbnz	r6, 240532e6 <HAL_ADC_Start_IT+0x96>
240532de:	685e      	ldr	r6, [r3, #4]
240532e0:	f046 0610 	orr.w	r6, r6, #16
240532e4:	605e      	str	r6, [r3, #4]
240532e6:	4293      	cmp	r3, r2
240532e8:	d005      	beq.n	240532f6 <HAL_ADC_Start_IT+0xa6>
240532ea:	f240 2621 	movw	r6, #545	; 0x221
240532ee:	fa26 f101 	lsr.w	r1, r6, r1
240532f2:	07ce      	lsls	r6, r1, #31
240532f4:	d522      	bpl.n	2405333c <HAL_ADC_Start_IT+0xec>
240532f6:	68da      	ldr	r2, [r3, #12]
240532f8:	0191      	lsls	r1, r2, #6
240532fa:	d50f      	bpl.n	2405331c <HAL_ADC_Start_IT+0xcc>
240532fc:	6d62      	ldr	r2, [r4, #84]	; 0x54
240532fe:	2d08      	cmp	r5, #8
24053300:	f422 5240 	bic.w	r2, r2, #12288	; 0x3000
24053304:	f442 5280 	orr.w	r2, r2, #4096	; 0x1000
24053308:	6562      	str	r2, [r4, #84]	; 0x54
2405330a:	685a      	ldr	r2, [r3, #4]
2405330c:	d10f      	bne.n	2405332e <HAL_ADC_Start_IT+0xde>
2405330e:	f022 0220 	bic.w	r2, r2, #32
24053312:	605a      	str	r2, [r3, #4]
24053314:	685a      	ldr	r2, [r3, #4]
24053316:	f042 0240 	orr.w	r2, r2, #64	; 0x40
2405331a:	605a      	str	r2, [r3, #4]
2405331c:	689a      	ldr	r2, [r3, #8]
2405331e:	f022 4200 	bic.w	r2, r2, #2147483648	; 0x80000000
24053322:	f022 023f 	bic.w	r2, r2, #63	; 0x3f
24053326:	f042 0204 	orr.w	r2, r2, #4
2405332a:	609a      	str	r2, [r3, #8]
2405332c:	bd70      	pop	{r4, r5, r6, pc}
2405332e:	f022 0240 	bic.w	r2, r2, #64	; 0x40
24053332:	605a      	str	r2, [r3, #4]
24053334:	685a      	ldr	r2, [r3, #4]
24053336:	f042 0220 	orr.w	r2, r2, #32
2405333a:	e7ee      	b.n	2405331a <HAL_ADC_Start_IT+0xca>
2405333c:	6d61      	ldr	r1, [r4, #84]	; 0x54
2405333e:	f441 1180 	orr.w	r1, r1, #1048576	; 0x100000
24053342:	6561      	str	r1, [r4, #84]	; 0x54
24053344:	68d2      	ldr	r2, [r2, #12]
24053346:	0192      	lsls	r2, r2, #6
24053348:	d5f0      	bpl.n	2405332c <HAL_ADC_Start_IT+0xdc>
2405334a:	6d62      	ldr	r2, [r4, #84]	; 0x54
2405334c:	2d08      	cmp	r5, #8
2405334e:	f422 5240 	bic.w	r2, r2, #12288	; 0x3000
24053352:	f442 5280 	orr.w	r2, r2, #4096	; 0x1000
24053356:	6562      	str	r2, [r4, #84]	; 0x54
24053358:	685a      	ldr	r2, [r3, #4]
2405335a:	d107      	bne.n	2405336c <HAL_ADC_Start_IT+0x11c>
2405335c:	f022 0220 	bic.w	r2, r2, #32
24053360:	605a      	str	r2, [r3, #4]
24053362:	685a      	ldr	r2, [r3, #4]
24053364:	f042 0240 	orr.w	r2, r2, #64	; 0x40
24053368:	605a      	str	r2, [r3, #4]
2405336a:	e7df      	b.n	2405332c <HAL_ADC_Start_IT+0xdc>
2405336c:	f022 0240 	bic.w	r2, r2, #64	; 0x40
24053370:	605a      	str	r2, [r3, #4]
24053372:	685a      	ldr	r2, [r3, #4]
24053374:	f042 0220 	orr.w	r2, r2, #32
24053378:	e7f6      	b.n	24053368 <HAL_ADC_Start_IT+0x118>
2405337a:	f884 5050 	strb.w	r5, [r4, #80]	; 0x50
2405337e:	e7d5      	b.n	2405332c <HAL_ADC_Start_IT+0xdc>
24053380:	2002      	movs	r0, #2
24053382:	e7d3      	b.n	2405332c <HAL_ADC_Start_IT+0xdc>
24053384:	4a03      	ldr	r2, [pc, #12]	; (24053394 <HAL_ADC_Start_IT+0x144>)
24053386:	2900      	cmp	r1, #0
24053388:	d089      	beq.n	2405329e <HAL_ADC_Start_IT+0x4e>
2405338a:	e78c      	b.n	240532a6 <HAL_ADC_Start_IT+0x56>
2405338c:	40022300 	.word	0x40022300
24053390:	40022100 	.word	0x40022100
24053394:	40022000 	.word	0x40022000

24053398 <ADC_Disable>:
24053398:	6802      	ldr	r2, [r0, #0]
2405339a:	b538      	push	{r3, r4, r5, lr}
2405339c:	4604      	mov	r4, r0
2405339e:	4610      	mov	r0, r2
240533a0:	6893      	ldr	r3, [r2, #8]
240533a2:	f7ff fae7 	bl	24052974 <LL_ADC_IsEnabled>
240533a6:	b908      	cbnz	r0, 240533ac <ADC_Disable+0x14>
240533a8:	2000      	movs	r0, #0
240533aa:	bd38      	pop	{r3, r4, r5, pc}
240533ac:	0799      	lsls	r1, r3, #30
240533ae:	d4fb      	bmi.n	240533a8 <ADC_Disable+0x10>
240533b0:	6893      	ldr	r3, [r2, #8]
240533b2:	f003 030d 	and.w	r3, r3, #13
240533b6:	2b01      	cmp	r3, #1
240533b8:	d119      	bne.n	240533ee <ADC_Disable+0x56>
240533ba:	6893      	ldr	r3, [r2, #8]
240533bc:	f023 4300 	bic.w	r3, r3, #2147483648	; 0x80000000
240533c0:	f023 033f 	bic.w	r3, r3, #63	; 0x3f
240533c4:	f043 0302 	orr.w	r3, r3, #2
240533c8:	6093      	str	r3, [r2, #8]
240533ca:	2303      	movs	r3, #3
240533cc:	6013      	str	r3, [r2, #0]
240533ce:	f7ff faa9 	bl	24052924 <HAL_GetTick>
240533d2:	4605      	mov	r5, r0
240533d4:	6823      	ldr	r3, [r4, #0]
240533d6:	689b      	ldr	r3, [r3, #8]
240533d8:	07db      	lsls	r3, r3, #31
240533da:	d5e5      	bpl.n	240533a8 <ADC_Disable+0x10>
240533dc:	f7ff faa2 	bl	24052924 <HAL_GetTick>
240533e0:	1b40      	subs	r0, r0, r5
240533e2:	2802      	cmp	r0, #2
240533e4:	d9f6      	bls.n	240533d4 <ADC_Disable+0x3c>
240533e6:	6823      	ldr	r3, [r4, #0]
240533e8:	689b      	ldr	r3, [r3, #8]
240533ea:	07da      	lsls	r2, r3, #31
240533ec:	d5f2      	bpl.n	240533d4 <ADC_Disable+0x3c>
240533ee:	6d63      	ldr	r3, [r4, #84]	; 0x54
240533f0:	2001      	movs	r0, #1
240533f2:	f043 0310 	orr.w	r3, r3, #16
240533f6:	6563      	str	r3, [r4, #84]	; 0x54
240533f8:	6da3      	ldr	r3, [r4, #88]	; 0x58
240533fa:	f043 0301 	orr.w	r3, r3, #1
240533fe:	65a3      	str	r3, [r4, #88]	; 0x58
24053400:	e7d3      	b.n	240533aa <ADC_Disable+0x12>

24053402 <HAL_ADC_Stop_IT>:
24053402:	b510      	push	{r4, lr}
24053404:	f890 3050 	ldrb.w	r3, [r0, #80]	; 0x50
24053408:	4604      	mov	r4, r0
2405340a:	2b01      	cmp	r3, #1
2405340c:	d01b      	beq.n	24053446 <HAL_ADC_Stop_IT+0x44>
2405340e:	2301      	movs	r3, #1
24053410:	2103      	movs	r1, #3
24053412:	f880 3050 	strb.w	r3, [r0, #80]	; 0x50
24053416:	f7ff fdfb 	bl	24053010 <ADC_ConversionStop>
2405341a:	b980      	cbnz	r0, 2405343e <HAL_ADC_Stop_IT+0x3c>
2405341c:	6822      	ldr	r2, [r4, #0]
2405341e:	4620      	mov	r0, r4
24053420:	6853      	ldr	r3, [r2, #4]
24053422:	f023 031c 	bic.w	r3, r3, #28
24053426:	6053      	str	r3, [r2, #4]
24053428:	f7ff ffb6 	bl	24053398 <ADC_Disable>
2405342c:	b938      	cbnz	r0, 2405343e <HAL_ADC_Stop_IT+0x3c>
2405342e:	6d63      	ldr	r3, [r4, #84]	; 0x54
24053430:	f423 5388 	bic.w	r3, r3, #4352	; 0x1100
24053434:	f023 0301 	bic.w	r3, r3, #1
24053438:	f043 0301 	orr.w	r3, r3, #1
2405343c:	6563      	str	r3, [r4, #84]	; 0x54
2405343e:	2300      	movs	r3, #0
24053440:	f884 3050 	strb.w	r3, [r4, #80]	; 0x50
24053444:	bd10      	pop	{r4, pc}
24053446:	2002      	movs	r0, #2
24053448:	e7fc      	b.n	24053444 <HAL_ADC_Stop_IT+0x42>
	...

2405344c <ADC_ConfigureBoostMode>:
2405344c:	b538      	push	{r3, r4, r5, lr}
2405344e:	4b36      	ldr	r3, [pc, #216]	; (24053528 <ADC_ConfigureBoostMode+0xdc>)
24053450:	4604      	mov	r4, r0
24053452:	4d36      	ldr	r5, [pc, #216]	; (2405352c <ADC_ConfigureBoostMode+0xe0>)
24053454:	689b      	ldr	r3, [r3, #8]
24053456:	f413 3f40 	tst.w	r3, #196608	; 0x30000
2405345a:	d021      	beq.n	240534a0 <ADC_ConfigureBoostMode+0x54>
2405345c:	f003 f964 	bl	24056728 <HAL_RCC_GetHCLKFreq>
24053460:	6863      	ldr	r3, [r4, #4]
24053462:	f5b3 3f00 	cmp.w	r3, #131072	; 0x20000
24053466:	d005      	beq.n	24053474 <ADC_ConfigureBoostMode+0x28>
24053468:	f5b3 3f40 	cmp.w	r3, #196608	; 0x30000
2405346c:	d006      	beq.n	2405347c <ADC_ConfigureBoostMode+0x30>
2405346e:	f5b3 3f80 	cmp.w	r3, #65536	; 0x10000
24053472:	d104      	bne.n	2405347e <ADC_ConfigureBoostMode+0x32>
24053474:	0c1b      	lsrs	r3, r3, #16
24053476:	fbb0 f0f3 	udiv	r0, r0, r3
2405347a:	e000      	b.n	2405347e <ADC_ConfigureBoostMode+0x32>
2405347c:	0880      	lsrs	r0, r0, #2
2405347e:	42a8      	cmp	r0, r5
24053480:	6822      	ldr	r2, [r4, #0]
24053482:	d94c      	bls.n	2405351e <ADC_ConfigureBoostMode+0xd2>
24053484:	4b2a      	ldr	r3, [pc, #168]	; (24053530 <ADC_ConfigureBoostMode+0xe4>)
24053486:	4298      	cmp	r0, r3
24053488:	d93b      	bls.n	24053502 <ADC_ConfigureBoostMode+0xb6>
2405348a:	4b2a      	ldr	r3, [pc, #168]	; (24053534 <ADC_ConfigureBoostMode+0xe8>)
2405348c:	4298      	cmp	r0, r3
2405348e:	6893      	ldr	r3, [r2, #8]
24053490:	bf96      	itet	ls
24053492:	f423 7340 	bicls.w	r3, r3, #768	; 0x300
24053496:	f443 7340 	orrhi.w	r3, r3, #768	; 0x300
2405349a:	f443 7300 	orrls.w	r3, r3, #512	; 0x200
2405349e:	e036      	b.n	2405350e <ADC_ConfigureBoostMode+0xc2>
240534a0:	f44f 2000 	mov.w	r0, #524288	; 0x80000
240534a4:	2100      	movs	r1, #0
240534a6:	f004 f951 	bl	2405774c <HAL_RCCEx_GetPeriphCLKFreq>
240534aa:	6863      	ldr	r3, [r4, #4]
240534ac:	f5b3 1f10 	cmp.w	r3, #2359296	; 0x240000
240534b0:	d031      	beq.n	24053516 <ADC_ConfigureBoostMode+0xca>
240534b2:	d81d      	bhi.n	240534f0 <ADC_ConfigureBoostMode+0xa4>
240534b4:	f5b3 1fe0 	cmp.w	r3, #1835008	; 0x1c0000
240534b8:	d02b      	beq.n	24053512 <ADC_ConfigureBoostMode+0xc6>
240534ba:	d814      	bhi.n	240534e6 <ADC_ConfigureBoostMode+0x9a>
240534bc:	f5b3 1f80 	cmp.w	r3, #1048576	; 0x100000
240534c0:	d008      	beq.n	240534d4 <ADC_ConfigureBoostMode+0x88>
240534c2:	d80a      	bhi.n	240534da <ADC_ConfigureBoostMode+0x8e>
240534c4:	f5b3 2f00 	cmp.w	r3, #524288	; 0x80000
240534c8:	d004      	beq.n	240534d4 <ADC_ConfigureBoostMode+0x88>
240534ca:	f423 2200 	bic.w	r2, r3, #524288	; 0x80000
240534ce:	f5b2 2f80 	cmp.w	r2, #262144	; 0x40000
240534d2:	d1d4      	bne.n	2405347e <ADC_ConfigureBoostMode+0x32>
240534d4:	0c9b      	lsrs	r3, r3, #18
240534d6:	005b      	lsls	r3, r3, #1
240534d8:	e7cd      	b.n	24053476 <ADC_ConfigureBoostMode+0x2a>
240534da:	f5b3 1fa0 	cmp.w	r3, #1310720	; 0x140000
240534de:	d0f9      	beq.n	240534d4 <ADC_ConfigureBoostMode+0x88>
240534e0:	f5b3 1fc0 	cmp.w	r3, #1572864	; 0x180000
240534e4:	e7f5      	b.n	240534d2 <ADC_ConfigureBoostMode+0x86>
240534e6:	f5b3 1f00 	cmp.w	r3, #2097152	; 0x200000
240534ea:	d1c8      	bne.n	2405347e <ADC_ConfigureBoostMode+0x32>
240534ec:	0940      	lsrs	r0, r0, #5
240534ee:	e7c6      	b.n	2405347e <ADC_ConfigureBoostMode+0x32>
240534f0:	f5b3 1f20 	cmp.w	r3, #2621440	; 0x280000
240534f4:	d011      	beq.n	2405351a <ADC_ConfigureBoostMode+0xce>
240534f6:	f5b3 1f30 	cmp.w	r3, #2883584	; 0x2c0000
240534fa:	d1c0      	bne.n	2405347e <ADC_ConfigureBoostMode+0x32>
240534fc:	ebb5 2f10 	cmp.w	r5, r0, lsr #8
24053500:	d20d      	bcs.n	2405351e <ADC_ConfigureBoostMode+0xd2>
24053502:	6822      	ldr	r2, [r4, #0]
24053504:	6893      	ldr	r3, [r2, #8]
24053506:	f423 7340 	bic.w	r3, r3, #768	; 0x300
2405350a:	f443 7380 	orr.w	r3, r3, #256	; 0x100
2405350e:	6093      	str	r3, [r2, #8]
24053510:	bd38      	pop	{r3, r4, r5, pc}
24053512:	0900      	lsrs	r0, r0, #4
24053514:	e7b3      	b.n	2405347e <ADC_ConfigureBoostMode+0x32>
24053516:	0980      	lsrs	r0, r0, #6
24053518:	e7b1      	b.n	2405347e <ADC_ConfigureBoostMode+0x32>
2405351a:	09c0      	lsrs	r0, r0, #7
2405351c:	e7af      	b.n	2405347e <ADC_ConfigureBoostMode+0x32>
2405351e:	6822      	ldr	r2, [r4, #0]
24053520:	6893      	ldr	r3, [r2, #8]
24053522:	f423 7340 	bic.w	r3, r3, #768	; 0x300
24053526:	e7f2      	b.n	2405350e <ADC_ConfigureBoostMode+0xc2>
24053528:	40022300 	.word	0x40022300
2405352c:	00bebc21 	.word	0x00bebc21
24053530:	017d7841 	.word	0x017d7841
24053534:	02faf081 	.word	0x02faf081

24053538 <HAL_ADC_Init>:
24053538:	2300      	movs	r3, #0
2405353a:	b573      	push	{r0, r1, r4, r5, r6, lr}
2405353c:	4604      	mov	r4, r0
2405353e:	9301      	str	r3, [sp, #4]
24053540:	2800      	cmp	r0, #0
24053542:	f000 80c9 	beq.w	240536d8 <HAL_ADC_Init+0x1a0>
24053546:	6d45      	ldr	r5, [r0, #84]	; 0x54
24053548:	b925      	cbnz	r5, 24053554 <HAL_ADC_Init+0x1c>
2405354a:	f7fe fcf3 	bl	24051f34 <HAL_ADC_MspInit>
2405354e:	65a5      	str	r5, [r4, #88]	; 0x58
24053550:	f884 5050 	strb.w	r5, [r4, #80]	; 0x50
24053554:	6823      	ldr	r3, [r4, #0]
24053556:	689a      	ldr	r2, [r3, #8]
24053558:	0090      	lsls	r0, r2, #2
2405355a:	d505      	bpl.n	24053568 <HAL_ADC_Init+0x30>
2405355c:	689a      	ldr	r2, [r3, #8]
2405355e:	f022 4220 	bic.w	r2, r2, #2684354560	; 0xa0000000
24053562:	f022 023f 	bic.w	r2, r2, #63	; 0x3f
24053566:	609a      	str	r2, [r3, #8]
24053568:	689a      	ldr	r2, [r3, #8]
2405356a:	00d1      	lsls	r1, r2, #3
2405356c:	f140 8090 	bpl.w	24053690 <HAL_ADC_Init+0x158>
24053570:	689a      	ldr	r2, [r3, #8]
24053572:	00d2      	lsls	r2, r2, #3
24053574:	f100 80a2 	bmi.w	240536bc <HAL_ADC_Init+0x184>
24053578:	6d62      	ldr	r2, [r4, #84]	; 0x54
2405357a:	2501      	movs	r5, #1
2405357c:	f042 0210 	orr.w	r2, r2, #16
24053580:	6562      	str	r2, [r4, #84]	; 0x54
24053582:	6da2      	ldr	r2, [r4, #88]	; 0x58
24053584:	f042 0201 	orr.w	r2, r2, #1
24053588:	65a2      	str	r2, [r4, #88]	; 0x58
2405358a:	4618      	mov	r0, r3
2405358c:	f7ff f9f6 	bl	2405297c <LL_ADC_REG_IsConversionOngoing>
24053590:	6d62      	ldr	r2, [r4, #84]	; 0x54
24053592:	f002 0210 	and.w	r2, r2, #16
24053596:	4310      	orrs	r0, r2
24053598:	f040 809a 	bne.w	240536d0 <HAL_ADC_Init+0x198>
2405359c:	6d62      	ldr	r2, [r4, #84]	; 0x54
2405359e:	4618      	mov	r0, r3
240535a0:	f422 7281 	bic.w	r2, r2, #258	; 0x102
240535a4:	f042 0202 	orr.w	r2, r2, #2
240535a8:	6562      	str	r2, [r4, #84]	; 0x54
240535aa:	f7ff f9e3 	bl	24052974 <LL_ADC_IsEnabled>
240535ae:	b978      	cbnz	r0, 240535d0 <HAL_ADC_Init+0x98>
240535b0:	484a      	ldr	r0, [pc, #296]	; (240536dc <HAL_ADC_Init+0x1a4>)
240535b2:	f7ff f9df 	bl	24052974 <LL_ADC_IsEnabled>
240535b6:	4602      	mov	r2, r0
240535b8:	4849      	ldr	r0, [pc, #292]	; (240536e0 <HAL_ADC_Init+0x1a8>)
240535ba:	f7ff f9db 	bl	24052974 <LL_ADC_IsEnabled>
240535be:	4310      	orrs	r0, r2
240535c0:	d106      	bne.n	240535d0 <HAL_ADC_Init+0x98>
240535c2:	4948      	ldr	r1, [pc, #288]	; (240536e4 <HAL_ADC_Init+0x1ac>)
240535c4:	6860      	ldr	r0, [r4, #4]
240535c6:	688a      	ldr	r2, [r1, #8]
240535c8:	f422 127c 	bic.w	r2, r2, #4128768	; 0x3f0000
240535cc:	4302      	orrs	r2, r0
240535ce:	608a      	str	r2, [r1, #8]
240535d0:	68a0      	ldr	r0, [r4, #8]
240535d2:	6b22      	ldr	r2, [r4, #48]	; 0x30
240535d4:	7f21      	ldrb	r1, [r4, #28]
240535d6:	4302      	orrs	r2, r0
240535d8:	7d60      	ldrb	r0, [r4, #21]
240535da:	2901      	cmp	r1, #1
240535dc:	ea42 3240 	orr.w	r2, r2, r0, lsl #13
240535e0:	ea42 4201 	orr.w	r2, r2, r1, lsl #16
240535e4:	bf02      	ittt	eq
240535e6:	6a21      	ldreq	r1, [r4, #32]
240535e8:	f101 31ff 	addeq.w	r1, r1, #4294967295
240535ec:	ea42 4241 	orreq.w	r2, r2, r1, lsl #17
240535f0:	6a61      	ldr	r1, [r4, #36]	; 0x24
240535f2:	b121      	cbz	r1, 240535fe <HAL_ADC_Init+0xc6>
240535f4:	f401 7178 	and.w	r1, r1, #992	; 0x3e0
240535f8:	6aa0      	ldr	r0, [r4, #40]	; 0x28
240535fa:	4301      	orrs	r1, r0
240535fc:	430a      	orrs	r2, r1
240535fe:	68d8      	ldr	r0, [r3, #12]
24053600:	4939      	ldr	r1, [pc, #228]	; (240536e8 <HAL_ADC_Init+0x1b0>)
24053602:	4001      	ands	r1, r0
24053604:	4618      	mov	r0, r3
24053606:	4311      	orrs	r1, r2
24053608:	60d9      	str	r1, [r3, #12]
2405360a:	f7ff f9b7 	bl	2405297c <LL_ADC_REG_IsConversionOngoing>
2405360e:	689a      	ldr	r2, [r3, #8]
24053610:	f002 0208 	and.w	r2, r2, #8
24053614:	4310      	orrs	r0, r2
24053616:	d127      	bne.n	24053668 <HAL_ADC_Init+0x130>
24053618:	68da      	ldr	r2, [r3, #12]
2405361a:	7d21      	ldrb	r1, [r4, #20]
2405361c:	f422 4280 	bic.w	r2, r2, #16384	; 0x4000
24053620:	f022 0203 	bic.w	r2, r2, #3
24053624:	ea42 3281 	orr.w	r2, r2, r1, lsl #14
24053628:	6ae1      	ldr	r1, [r4, #44]	; 0x2c
2405362a:	430a      	orrs	r2, r1
2405362c:	60da      	str	r2, [r3, #12]
2405362e:	f894 2038 	ldrb.w	r2, [r4, #56]	; 0x38
24053632:	2a01      	cmp	r2, #1
24053634:	d144      	bne.n	240536c0 <HAL_ADC_Init+0x188>
24053636:	6be2      	ldr	r2, [r4, #60]	; 0x3c
24053638:	6918      	ldr	r0, [r3, #16]
2405363a:	1e51      	subs	r1, r2, #1
2405363c:	e9d4 2610 	ldrd	r2, r6, [r4, #64]	; 0x40
24053640:	4332      	orrs	r2, r6
24053642:	ea42 4201 	orr.w	r2, r2, r1, lsl #16
24053646:	6ca1      	ldr	r1, [r4, #72]	; 0x48
24053648:	430a      	orrs	r2, r1
2405364a:	4928      	ldr	r1, [pc, #160]	; (240536ec <HAL_ADC_Init+0x1b4>)
2405364c:	4001      	ands	r1, r0
2405364e:	430a      	orrs	r2, r1
24053650:	f042 0201 	orr.w	r2, r2, #1
24053654:	611a      	str	r2, [r3, #16]
24053656:	4620      	mov	r0, r4
24053658:	691a      	ldr	r2, [r3, #16]
2405365a:	6b61      	ldr	r1, [r4, #52]	; 0x34
2405365c:	f022 4270 	bic.w	r2, r2, #4026531840	; 0xf0000000
24053660:	430a      	orrs	r2, r1
24053662:	611a      	str	r2, [r3, #16]
24053664:	f7ff fef2 	bl	2405344c <ADC_ConfigureBoostMode>
24053668:	68e3      	ldr	r3, [r4, #12]
2405366a:	6822      	ldr	r2, [r4, #0]
2405366c:	2b01      	cmp	r3, #1
2405366e:	d12b      	bne.n	240536c8 <HAL_ADC_Init+0x190>
24053670:	6b11      	ldr	r1, [r2, #48]	; 0x30
24053672:	69a3      	ldr	r3, [r4, #24]
24053674:	f021 010f 	bic.w	r1, r1, #15
24053678:	3b01      	subs	r3, #1
2405367a:	430b      	orrs	r3, r1
2405367c:	6313      	str	r3, [r2, #48]	; 0x30
2405367e:	6d63      	ldr	r3, [r4, #84]	; 0x54
24053680:	f023 0303 	bic.w	r3, r3, #3
24053684:	f043 0301 	orr.w	r3, r3, #1
24053688:	6563      	str	r3, [r4, #84]	; 0x54
2405368a:	4628      	mov	r0, r5
2405368c:	b002      	add	sp, #8
2405368e:	bd70      	pop	{r4, r5, r6, pc}
24053690:	689a      	ldr	r2, [r3, #8]
24053692:	4917      	ldr	r1, [pc, #92]	; (240536f0 <HAL_ADC_Init+0x1b8>)
24053694:	f022 4210 	bic.w	r2, r2, #2415919104	; 0x90000000
24053698:	f022 023f 	bic.w	r2, r2, #63	; 0x3f
2405369c:	f042 5280 	orr.w	r2, r2, #268435456	; 0x10000000
240536a0:	609a      	str	r2, [r3, #8]
240536a2:	4a14      	ldr	r2, [pc, #80]	; (240536f4 <HAL_ADC_Init+0x1bc>)
240536a4:	6812      	ldr	r2, [r2, #0]
240536a6:	fbb2 f2f1 	udiv	r2, r2, r1
240536aa:	3201      	adds	r2, #1
240536ac:	9201      	str	r2, [sp, #4]
240536ae:	9a01      	ldr	r2, [sp, #4]
240536b0:	2a00      	cmp	r2, #0
240536b2:	f43f af5d 	beq.w	24053570 <HAL_ADC_Init+0x38>
240536b6:	9a01      	ldr	r2, [sp, #4]
240536b8:	3a01      	subs	r2, #1
240536ba:	e7f7      	b.n	240536ac <HAL_ADC_Init+0x174>
240536bc:	2500      	movs	r5, #0
240536be:	e764      	b.n	2405358a <HAL_ADC_Init+0x52>
240536c0:	691a      	ldr	r2, [r3, #16]
240536c2:	f022 0201 	bic.w	r2, r2, #1
240536c6:	e7c5      	b.n	24053654 <HAL_ADC_Init+0x11c>
240536c8:	6b13      	ldr	r3, [r2, #48]	; 0x30
240536ca:	f023 030f 	bic.w	r3, r3, #15
240536ce:	e7d5      	b.n	2405367c <HAL_ADC_Init+0x144>
240536d0:	6d63      	ldr	r3, [r4, #84]	; 0x54
240536d2:	f043 0310 	orr.w	r3, r3, #16
240536d6:	6563      	str	r3, [r4, #84]	; 0x54
240536d8:	2501      	movs	r5, #1
240536da:	e7d6      	b.n	2405368a <HAL_ADC_Init+0x152>
240536dc:	40022000 	.word	0x40022000
240536e0:	40022100 	.word	0x40022100
240536e4:	40022300 	.word	0x40022300
240536e8:	fff0c003 	.word	0xfff0c003
240536ec:	fc00f81e 	.word	0xfc00f81e
240536f0:	00030d40 	.word	0x00030d40
240536f4:	20000044 	.word	0x20000044

240536f8 <LL_ADC_IsEnabled>:
240536f8:	6880      	ldr	r0, [r0, #8]
240536fa:	f000 0001 	and.w	r0, r0, #1
240536fe:	4770      	bx	lr

24053700 <LL_ADC_REG_IsConversionOngoing>:
24053700:	6880      	ldr	r0, [r0, #8]
24053702:	f3c0 0080 	ubfx	r0, r0, #2, #1
24053706:	4770      	bx	lr

24053708 <HAL_ADCEx_InjectedConvCpltCallback>:
24053708:	4770      	bx	lr

2405370a <HAL_ADCEx_InjectedQueueOverflowCallback>:
2405370a:	4770      	bx	lr

2405370c <HAL_ADCEx_LevelOutOfWindow2Callback>:
2405370c:	4770      	bx	lr

2405370e <HAL_ADCEx_LevelOutOfWindow3Callback>:
2405370e:	4770      	bx	lr

24053710 <HAL_ADCEx_EndOfSamplingCallback>:
24053710:	4770      	bx	lr
	...

24053714 <HAL_ADCEx_MultiModeConfigChannel>:
24053714:	b570      	push	{r4, r5, r6, lr}
24053716:	f890 3050 	ldrb.w	r3, [r0, #80]	; 0x50
2405371a:	b09a      	sub	sp, #104	; 0x68
2405371c:	4602      	mov	r2, r0
2405371e:	680d      	ldr	r5, [r1, #0]
24053720:	2b01      	cmp	r3, #1
24053722:	d052      	beq.n	240537ca <HAL_ADCEx_MultiModeConfigChannel+0xb6>
24053724:	2301      	movs	r3, #1
24053726:	4c2a      	ldr	r4, [pc, #168]	; (240537d0 <HAL_ADCEx_MultiModeConfigChannel+0xbc>)
24053728:	f880 3050 	strb.w	r3, [r0, #80]	; 0x50
2405372c:	2000      	movs	r0, #0
2405372e:	6816      	ldr	r6, [r2, #0]
24053730:	9016      	str	r0, [sp, #88]	; 0x58
24053732:	42a6      	cmp	r6, r4
24053734:	9017      	str	r0, [sp, #92]	; 0x5c
24053736:	d10d      	bne.n	24053754 <HAL_ADCEx_MultiModeConfigChannel+0x40>
24053738:	4826      	ldr	r0, [pc, #152]	; (240537d4 <HAL_ADCEx_MultiModeConfigChannel+0xc0>)
2405373a:	f7ff ffe1 	bl	24053700 <LL_ADC_REG_IsConversionOngoing>
2405373e:	4604      	mov	r4, r0
24053740:	4630      	mov	r0, r6
24053742:	f7ff ffdd 	bl	24053700 <LL_ADC_REG_IsConversionOngoing>
24053746:	4320      	orrs	r0, r4
24053748:	d00d      	beq.n	24053766 <HAL_ADCEx_MultiModeConfigChannel+0x52>
2405374a:	6d51      	ldr	r1, [r2, #84]	; 0x54
2405374c:	f041 0120 	orr.w	r1, r1, #32
24053750:	6551      	str	r1, [r2, #84]	; 0x54
24053752:	e027      	b.n	240537a4 <HAL_ADCEx_MultiModeConfigChannel+0x90>
24053754:	6d51      	ldr	r1, [r2, #84]	; 0x54
24053756:	f882 0050 	strb.w	r0, [r2, #80]	; 0x50
2405375a:	4618      	mov	r0, r3
2405375c:	f041 0120 	orr.w	r1, r1, #32
24053760:	6551      	str	r1, [r2, #84]	; 0x54
24053762:	b01a      	add	sp, #104	; 0x68
24053764:	bd70      	pop	{r4, r5, r6, pc}
24053766:	4c1c      	ldr	r4, [pc, #112]	; (240537d8 <HAL_ADCEx_MultiModeConfigChannel+0xc4>)
24053768:	68a3      	ldr	r3, [r4, #8]
2405376a:	f423 4340 	bic.w	r3, r3, #49152	; 0xc000
2405376e:	b1dd      	cbz	r5, 240537a8 <HAL_ADCEx_MultiModeConfigChannel+0x94>
24053770:	6848      	ldr	r0, [r1, #4]
24053772:	4303      	orrs	r3, r0
24053774:	4630      	mov	r0, r6
24053776:	60a3      	str	r3, [r4, #8]
24053778:	f7ff ffbe 	bl	240536f8 <LL_ADC_IsEnabled>
2405377c:	4603      	mov	r3, r0
2405377e:	4815      	ldr	r0, [pc, #84]	; (240537d4 <HAL_ADCEx_MultiModeConfigChannel+0xc0>)
24053780:	f7ff ffba 	bl	240536f8 <LL_ADC_IsEnabled>
24053784:	4303      	orrs	r3, r0
24053786:	d004      	beq.n	24053792 <HAL_ADCEx_MultiModeConfigChannel+0x7e>
24053788:	2000      	movs	r0, #0
2405378a:	2300      	movs	r3, #0
2405378c:	f882 3050 	strb.w	r3, [r2, #80]	; 0x50
24053790:	e7e7      	b.n	24053762 <HAL_ADCEx_MultiModeConfigChannel+0x4e>
24053792:	6889      	ldr	r1, [r1, #8]
24053794:	68a0      	ldr	r0, [r4, #8]
24053796:	430d      	orrs	r5, r1
24053798:	f420 6171 	bic.w	r1, r0, #3856	; 0xf10
2405379c:	f021 010f 	bic.w	r1, r1, #15
240537a0:	430d      	orrs	r5, r1
240537a2:	60a5      	str	r5, [r4, #8]
240537a4:	4618      	mov	r0, r3
240537a6:	e7f0      	b.n	2405378a <HAL_ADCEx_MultiModeConfigChannel+0x76>
240537a8:	60a3      	str	r3, [r4, #8]
240537aa:	4630      	mov	r0, r6
240537ac:	f7ff ffa4 	bl	240536f8 <LL_ADC_IsEnabled>
240537b0:	4603      	mov	r3, r0
240537b2:	4808      	ldr	r0, [pc, #32]	; (240537d4 <HAL_ADCEx_MultiModeConfigChannel+0xc0>)
240537b4:	f7ff ffa0 	bl	240536f8 <LL_ADC_IsEnabled>
240537b8:	4303      	orrs	r3, r0
240537ba:	d1e5      	bne.n	24053788 <HAL_ADCEx_MultiModeConfigChannel+0x74>
240537bc:	68a1      	ldr	r1, [r4, #8]
240537be:	f421 6171 	bic.w	r1, r1, #3856	; 0xf10
240537c2:	f021 010f 	bic.w	r1, r1, #15
240537c6:	60a1      	str	r1, [r4, #8]
240537c8:	e7ec      	b.n	240537a4 <HAL_ADCEx_MultiModeConfigChannel+0x90>
240537ca:	2002      	movs	r0, #2
240537cc:	e7c9      	b.n	24053762 <HAL_ADCEx_MultiModeConfigChannel+0x4e>
240537ce:	bf00      	nop
240537d0:	40022000 	.word	0x40022000
240537d4:	40022100 	.word	0x40022100
240537d8:	40022300 	.word	0x40022300

240537dc <HAL_NVIC_SetPriorityGrouping>:
240537dc:	4907      	ldr	r1, [pc, #28]	; (240537fc <HAL_NVIC_SetPriorityGrouping+0x20>)
240537de:	0203      	lsls	r3, r0, #8
240537e0:	68ca      	ldr	r2, [r1, #12]
240537e2:	f403 63e0 	and.w	r3, r3, #1792	; 0x700
240537e6:	f422 62e0 	bic.w	r2, r2, #1792	; 0x700
240537ea:	0412      	lsls	r2, r2, #16
240537ec:	0c12      	lsrs	r2, r2, #16
240537ee:	4313      	orrs	r3, r2
240537f0:	f043 63bf 	orr.w	r3, r3, #100139008	; 0x5f80000
240537f4:	f443 3300 	orr.w	r3, r3, #131072	; 0x20000
240537f8:	60cb      	str	r3, [r1, #12]
240537fa:	4770      	bx	lr
240537fc:	e000ed00 	.word	0xe000ed00

24053800 <HAL_NVIC_SetPriority>:
24053800:	4b16      	ldr	r3, [pc, #88]	; (2405385c <HAL_NVIC_SetPriority+0x5c>)
24053802:	b530      	push	{r4, r5, lr}
24053804:	68dc      	ldr	r4, [r3, #12]
24053806:	f3c4 2402 	ubfx	r4, r4, #8, #3
2405380a:	f1c4 0307 	rsb	r3, r4, #7
2405380e:	1d25      	adds	r5, r4, #4
24053810:	2b04      	cmp	r3, #4
24053812:	bf28      	it	cs
24053814:	2304      	movcs	r3, #4
24053816:	2d06      	cmp	r5, #6
24053818:	f04f 35ff 	mov.w	r5, #4294967295
2405381c:	bf8c      	ite	hi
2405381e:	3c03      	subhi	r4, #3
24053820:	2400      	movls	r4, #0
24053822:	fa05 f303 	lsl.w	r3, r5, r3
24053826:	2800      	cmp	r0, #0
24053828:	fa05 f504 	lsl.w	r5, r5, r4
2405382c:	ea21 0303 	bic.w	r3, r1, r3
24053830:	ea22 0205 	bic.w	r2, r2, r5
24053834:	fa03 f304 	lsl.w	r3, r3, r4
24053838:	ea43 0302 	orr.w	r3, r3, r2
2405383c:	ea4f 1303 	mov.w	r3, r3, lsl #4
24053840:	b2db      	uxtb	r3, r3
24053842:	db06      	blt.n	24053852 <HAL_NVIC_SetPriority+0x52>
24053844:	f100 4060 	add.w	r0, r0, #3758096384	; 0xe0000000
24053848:	f500 4061 	add.w	r0, r0, #57600	; 0xe100
2405384c:	f880 3300 	strb.w	r3, [r0, #768]	; 0x300
24053850:	bd30      	pop	{r4, r5, pc}
24053852:	f000 000f 	and.w	r0, r0, #15
24053856:	4a02      	ldr	r2, [pc, #8]	; (24053860 <HAL_NVIC_SetPriority+0x60>)
24053858:	5413      	strb	r3, [r2, r0]
2405385a:	e7f9      	b.n	24053850 <HAL_NVIC_SetPriority+0x50>
2405385c:	e000ed00 	.word	0xe000ed00
24053860:	e000ed14 	.word	0xe000ed14

24053864 <HAL_NVIC_EnableIRQ>:
24053864:	2800      	cmp	r0, #0
24053866:	db07      	blt.n	24053878 <HAL_NVIC_EnableIRQ+0x14>
24053868:	2301      	movs	r3, #1
2405386a:	0941      	lsrs	r1, r0, #5
2405386c:	f000 001f 	and.w	r0, r0, #31
24053870:	4a02      	ldr	r2, [pc, #8]	; (2405387c <HAL_NVIC_EnableIRQ+0x18>)
24053872:	4083      	lsls	r3, r0
24053874:	f842 3021 	str.w	r3, [r2, r1, lsl #2]
24053878:	4770      	bx	lr
2405387a:	bf00      	nop
2405387c:	e000e100 	.word	0xe000e100

24053880 <HAL_NVIC_SystemReset>:
24053880:	f3bf 8f4f 	dsb	sy
24053884:	4905      	ldr	r1, [pc, #20]	; (2405389c <HAL_NVIC_SystemReset+0x1c>)
24053886:	4b06      	ldr	r3, [pc, #24]	; (240538a0 <HAL_NVIC_SystemReset+0x20>)
24053888:	68ca      	ldr	r2, [r1, #12]
2405388a:	f402 62e0 	and.w	r2, r2, #1792	; 0x700
2405388e:	4313      	orrs	r3, r2
24053890:	60cb      	str	r3, [r1, #12]
24053892:	f3bf 8f4f 	dsb	sy
24053896:	bf00      	nop
24053898:	e7fd      	b.n	24053896 <HAL_NVIC_SystemReset+0x16>
2405389a:	bf00      	nop
2405389c:	e000ed00 	.word	0xe000ed00
240538a0:	05fa0004 	.word	0x05fa0004

240538a4 <HAL_SYSTICK_Config>:
240538a4:	3801      	subs	r0, #1
240538a6:	f1b0 7f80 	cmp.w	r0, #16777216	; 0x1000000
240538aa:	d20b      	bcs.n	240538c4 <HAL_SYSTICK_Config+0x20>
240538ac:	f04f 23e0 	mov.w	r3, #3758153728	; 0xe000e000
240538b0:	4a05      	ldr	r2, [pc, #20]	; (240538c8 <HAL_SYSTICK_Config+0x24>)
240538b2:	21f0      	movs	r1, #240	; 0xf0
240538b4:	6158      	str	r0, [r3, #20]
240538b6:	2000      	movs	r0, #0
240538b8:	f882 1023 	strb.w	r1, [r2, #35]	; 0x23
240538bc:	2207      	movs	r2, #7
240538be:	6198      	str	r0, [r3, #24]
240538c0:	611a      	str	r2, [r3, #16]
240538c2:	4770      	bx	lr
240538c4:	2001      	movs	r0, #1
240538c6:	4770      	bx	lr
240538c8:	e000ed00 	.word	0xe000ed00

240538cc <HAL_DAC_Init>:
240538cc:	b510      	push	{r4, lr}
240538ce:	4604      	mov	r4, r0
240538d0:	b168      	cbz	r0, 240538ee <HAL_DAC_Init+0x22>
240538d2:	7903      	ldrb	r3, [r0, #4]
240538d4:	f003 02ff 	and.w	r2, r3, #255	; 0xff
240538d8:	b913      	cbnz	r3, 240538e0 <HAL_DAC_Init+0x14>
240538da:	7142      	strb	r2, [r0, #5]
240538dc:	f7fe fb68 	bl	24051fb0 <HAL_DAC_MspInit>
240538e0:	2302      	movs	r3, #2
240538e2:	2000      	movs	r0, #0
240538e4:	7123      	strb	r3, [r4, #4]
240538e6:	2301      	movs	r3, #1
240538e8:	6120      	str	r0, [r4, #16]
240538ea:	7123      	strb	r3, [r4, #4]
240538ec:	bd10      	pop	{r4, pc}
240538ee:	2001      	movs	r0, #1
240538f0:	e7fc      	b.n	240538ec <HAL_DAC_Init+0x20>

240538f2 <HAL_DAC_Start>:
240538f2:	b570      	push	{r4, r5, r6, lr}
240538f4:	7943      	ldrb	r3, [r0, #5]
240538f6:	2b01      	cmp	r3, #1
240538f8:	f04f 0302 	mov.w	r3, #2
240538fc:	d016      	beq.n	2405392c <HAL_DAC_Start+0x3a>
240538fe:	6802      	ldr	r2, [r0, #0]
24053900:	f001 0510 	and.w	r5, r1, #16
24053904:	2401      	movs	r4, #1
24053906:	7103      	strb	r3, [r0, #4]
24053908:	6816      	ldr	r6, [r2, #0]
2405390a:	40ac      	lsls	r4, r5
2405390c:	4334      	orrs	r4, r6
2405390e:	6014      	str	r4, [r2, #0]
24053910:	b971      	cbnz	r1, 24053930 <HAL_DAC_Start+0x3e>
24053912:	6813      	ldr	r3, [r2, #0]
24053914:	f003 033e 	and.w	r3, r3, #62	; 0x3e
24053918:	2b02      	cmp	r3, #2
2405391a:	d103      	bne.n	24053924 <HAL_DAC_Start+0x32>
2405391c:	6853      	ldr	r3, [r2, #4]
2405391e:	f043 0301 	orr.w	r3, r3, #1
24053922:	6053      	str	r3, [r2, #4]
24053924:	2301      	movs	r3, #1
24053926:	7103      	strb	r3, [r0, #4]
24053928:	2300      	movs	r3, #0
2405392a:	7143      	strb	r3, [r0, #5]
2405392c:	4618      	mov	r0, r3
2405392e:	bd70      	pop	{r4, r5, r6, pc}
24053930:	6811      	ldr	r1, [r2, #0]
24053932:	40ab      	lsls	r3, r5
24053934:	f401 1178 	and.w	r1, r1, #4063232	; 0x3e0000
24053938:	4299      	cmp	r1, r3
2405393a:	d1f3      	bne.n	24053924 <HAL_DAC_Start+0x32>
2405393c:	6853      	ldr	r3, [r2, #4]
2405393e:	f043 0302 	orr.w	r3, r3, #2
24053942:	e7ee      	b.n	24053922 <HAL_DAC_Start+0x30>

24053944 <HAL_DAC_SetValue>:
24053944:	b513      	push	{r0, r1, r4, lr}
24053946:	2400      	movs	r4, #0
24053948:	6800      	ldr	r0, [r0, #0]
2405394a:	9401      	str	r4, [sp, #4]
2405394c:	9001      	str	r0, [sp, #4]
2405394e:	b941      	cbnz	r1, 24053962 <HAL_DAC_SetValue+0x1e>
24053950:	9901      	ldr	r1, [sp, #4]
24053952:	3108      	adds	r1, #8
24053954:	440a      	add	r2, r1
24053956:	2000      	movs	r0, #0
24053958:	9201      	str	r2, [sp, #4]
2405395a:	9a01      	ldr	r2, [sp, #4]
2405395c:	6013      	str	r3, [r2, #0]
2405395e:	b002      	add	sp, #8
24053960:	bd10      	pop	{r4, pc}
24053962:	9901      	ldr	r1, [sp, #4]
24053964:	3114      	adds	r1, #20
24053966:	e7f5      	b.n	24053954 <HAL_DAC_SetValue+0x10>

24053968 <HAL_DAC_ConfigChannel>:
24053968:	e92d 41f0 	stmdb	sp!, {r4, r5, r6, r7, r8, lr}
2405396c:	4616      	mov	r6, r2
2405396e:	7942      	ldrb	r2, [r0, #5]
24053970:	4604      	mov	r4, r0
24053972:	460d      	mov	r5, r1
24053974:	2a01      	cmp	r2, #1
24053976:	680b      	ldr	r3, [r1, #0]
24053978:	f04f 0002 	mov.w	r0, #2
2405397c:	d07c      	beq.n	24053a78 <HAL_DAC_ConfigChannel+0x110>
2405397e:	2201      	movs	r2, #1
24053980:	2b04      	cmp	r3, #4
24053982:	7120      	strb	r0, [r4, #4]
24053984:	7162      	strb	r2, [r4, #5]
24053986:	d127      	bne.n	240539d8 <HAL_DAC_ConfigChannel+0x70>
24053988:	f7fe ffcc 	bl	24052924 <HAL_GetTick>
2405398c:	4607      	mov	r7, r0
2405398e:	2e00      	cmp	r6, #0
24053990:	d17d      	bne.n	24053a8e <HAL_DAC_ConfigChannel+0x126>
24053992:	f8df 8118 	ldr.w	r8, [pc, #280]	; 24053aac <HAL_DAC_ConfigChannel+0x144>
24053996:	6823      	ldr	r3, [r4, #0]
24053998:	6b5b      	ldr	r3, [r3, #52]	; 0x34
2405399a:	ea13 0f08 	tst.w	r3, r8
2405399e:	d15b      	bne.n	24053a58 <HAL_DAC_ConfigChannel+0xf0>
240539a0:	2001      	movs	r0, #1
240539a2:	f7fe ffc5 	bl	24052930 <HAL_Delay>
240539a6:	6823      	ldr	r3, [r4, #0]
240539a8:	69aa      	ldr	r2, [r5, #24]
240539aa:	641a      	str	r2, [r3, #64]	; 0x40
240539ac:	6822      	ldr	r2, [r4, #0]
240539ae:	f006 0110 	and.w	r1, r6, #16
240539b2:	f240 30ff 	movw	r0, #1023	; 0x3ff
240539b6:	6c93      	ldr	r3, [r2, #72]	; 0x48
240539b8:	4088      	lsls	r0, r1
240539ba:	ea23 0300 	bic.w	r3, r3, r0
240539be:	69e8      	ldr	r0, [r5, #28]
240539c0:	4088      	lsls	r0, r1
240539c2:	4303      	orrs	r3, r0
240539c4:	20ff      	movs	r0, #255	; 0xff
240539c6:	6493      	str	r3, [r2, #72]	; 0x48
240539c8:	4088      	lsls	r0, r1
240539ca:	6cd3      	ldr	r3, [r2, #76]	; 0x4c
240539cc:	ea23 0300 	bic.w	r3, r3, r0
240539d0:	6a28      	ldr	r0, [r5, #32]
240539d2:	4088      	lsls	r0, r1
240539d4:	4303      	orrs	r3, r0
240539d6:	64d3      	str	r3, [r2, #76]	; 0x4c
240539d8:	6929      	ldr	r1, [r5, #16]
240539da:	f006 0210 	and.w	r2, r6, #16
240539de:	6823      	ldr	r3, [r4, #0]
240539e0:	2901      	cmp	r1, #1
240539e2:	d108      	bne.n	240539f6 <HAL_DAC_ConfigChannel+0x8e>
240539e4:	211f      	movs	r1, #31
240539e6:	6b98      	ldr	r0, [r3, #56]	; 0x38
240539e8:	4091      	lsls	r1, r2
240539ea:	ea20 0001 	bic.w	r0, r0, r1
240539ee:	6969      	ldr	r1, [r5, #20]
240539f0:	4091      	lsls	r1, r2
240539f2:	4301      	orrs	r1, r0
240539f4:	6399      	str	r1, [r3, #56]	; 0x38
240539f6:	2107      	movs	r1, #7
240539f8:	6bde      	ldr	r6, [r3, #60]	; 0x3c
240539fa:	4091      	lsls	r1, r2
240539fc:	ea26 0601 	bic.w	r6, r6, r1
24053a00:	e9d5 1002 	ldrd	r1, r0, [r5, #8]
24053a04:	2801      	cmp	r0, #1
24053a06:	d04d      	beq.n	24053aa4 <HAL_DAC_ConfigChannel+0x13c>
24053a08:	2802      	cmp	r0, #2
24053a0a:	d04d      	beq.n	24053aa8 <HAL_DAC_ConfigChannel+0x140>
24053a0c:	fab1 f081 	clz	r0, r1
24053a10:	0940      	lsrs	r0, r0, #5
24053a12:	682f      	ldr	r7, [r5, #0]
24053a14:	4339      	orrs	r1, r7
24053a16:	4301      	orrs	r1, r0
24053a18:	f44f 4080 	mov.w	r0, #16384	; 0x4000
24053a1c:	4091      	lsls	r1, r2
24053a1e:	4090      	lsls	r0, r2
24053a20:	4331      	orrs	r1, r6
24053a22:	63d9      	str	r1, [r3, #60]	; 0x3c
24053a24:	6819      	ldr	r1, [r3, #0]
24053a26:	ea21 0100 	bic.w	r1, r1, r0
24053a2a:	6019      	str	r1, [r3, #0]
24053a2c:	f640 71fe 	movw	r1, #4094	; 0xffe
24053a30:	6818      	ldr	r0, [r3, #0]
24053a32:	4091      	lsls	r1, r2
24053a34:	ea20 0001 	bic.w	r0, r0, r1
24053a38:	6869      	ldr	r1, [r5, #4]
24053a3a:	4091      	lsls	r1, r2
24053a3c:	4301      	orrs	r1, r0
24053a3e:	20c0      	movs	r0, #192	; 0xc0
24053a40:	6019      	str	r1, [r3, #0]
24053a42:	fa00 f202 	lsl.w	r2, r0, r2
24053a46:	6819      	ldr	r1, [r3, #0]
24053a48:	2000      	movs	r0, #0
24053a4a:	ea21 0202 	bic.w	r2, r1, r2
24053a4e:	601a      	str	r2, [r3, #0]
24053a50:	2301      	movs	r3, #1
24053a52:	7160      	strb	r0, [r4, #5]
24053a54:	7123      	strb	r3, [r4, #4]
24053a56:	e00f      	b.n	24053a78 <HAL_DAC_ConfigChannel+0x110>
24053a58:	f7fe ff64 	bl	24052924 <HAL_GetTick>
24053a5c:	1bc0      	subs	r0, r0, r7
24053a5e:	2801      	cmp	r0, #1
24053a60:	d999      	bls.n	24053996 <HAL_DAC_ConfigChannel+0x2e>
24053a62:	6823      	ldr	r3, [r4, #0]
24053a64:	6b5b      	ldr	r3, [r3, #52]	; 0x34
24053a66:	ea13 0f08 	tst.w	r3, r8
24053a6a:	d094      	beq.n	24053996 <HAL_DAC_ConfigChannel+0x2e>
24053a6c:	6923      	ldr	r3, [r4, #16]
24053a6e:	2003      	movs	r0, #3
24053a70:	f043 0308 	orr.w	r3, r3, #8
24053a74:	6123      	str	r3, [r4, #16]
24053a76:	7120      	strb	r0, [r4, #4]
24053a78:	e8bd 81f0 	ldmia.w	sp!, {r4, r5, r6, r7, r8, pc}
24053a7c:	f7fe ff52 	bl	24052924 <HAL_GetTick>
24053a80:	1bc0      	subs	r0, r0, r7
24053a82:	2801      	cmp	r0, #1
24053a84:	d903      	bls.n	24053a8e <HAL_DAC_ConfigChannel+0x126>
24053a86:	6823      	ldr	r3, [r4, #0]
24053a88:	6b5b      	ldr	r3, [r3, #52]	; 0x34
24053a8a:	2b00      	cmp	r3, #0
24053a8c:	dbee      	blt.n	24053a6c <HAL_DAC_ConfigChannel+0x104>
24053a8e:	6823      	ldr	r3, [r4, #0]
24053a90:	6b5b      	ldr	r3, [r3, #52]	; 0x34
24053a92:	2b00      	cmp	r3, #0
24053a94:	dbf2      	blt.n	24053a7c <HAL_DAC_ConfigChannel+0x114>
24053a96:	2001      	movs	r0, #1
24053a98:	f7fe ff4a 	bl	24052930 <HAL_Delay>
24053a9c:	6823      	ldr	r3, [r4, #0]
24053a9e:	69aa      	ldr	r2, [r5, #24]
24053aa0:	645a      	str	r2, [r3, #68]	; 0x44
24053aa2:	e783      	b.n	240539ac <HAL_DAC_ConfigChannel+0x44>
24053aa4:	2000      	movs	r0, #0
24053aa6:	e7b4      	b.n	24053a12 <HAL_DAC_ConfigChannel+0xaa>
24053aa8:	2001      	movs	r0, #1
24053aaa:	e7b2      	b.n	24053a12 <HAL_DAC_ConfigChannel+0xaa>
24053aac:	20008000 	.word	0x20008000

24053ab0 <DMA_SetConfig>:
24053ab0:	b5f0      	push	{r4, r5, r6, r7, lr}
24053ab2:	f8df c1b0 	ldr.w	ip, [pc, #432]	; 24053c64 <DMA_SetConfig+0x1b4>
24053ab6:	6804      	ldr	r4, [r0, #0]
24053ab8:	6d87      	ldr	r7, [r0, #88]	; 0x58
24053aba:	4564      	cmp	r4, ip
24053abc:	d04f      	beq.n	24053b5e <DMA_SetConfig+0xae>
24053abe:	4d65      	ldr	r5, [pc, #404]	; (24053c54 <DMA_SetConfig+0x1a4>)
24053ac0:	42ac      	cmp	r4, r5
24053ac2:	d04c      	beq.n	24053b5e <DMA_SetConfig+0xae>
24053ac4:	3518      	adds	r5, #24
24053ac6:	42ac      	cmp	r4, r5
24053ac8:	d049      	beq.n	24053b5e <DMA_SetConfig+0xae>
24053aca:	3518      	adds	r5, #24
24053acc:	42ac      	cmp	r4, r5
24053ace:	d046      	beq.n	24053b5e <DMA_SetConfig+0xae>
24053ad0:	3518      	adds	r5, #24
24053ad2:	42ac      	cmp	r4, r5
24053ad4:	d043      	beq.n	24053b5e <DMA_SetConfig+0xae>
24053ad6:	3518      	adds	r5, #24
24053ad8:	42ac      	cmp	r4, r5
24053ada:	d040      	beq.n	24053b5e <DMA_SetConfig+0xae>
24053adc:	3518      	adds	r5, #24
24053ade:	42ac      	cmp	r4, r5
24053ae0:	d03d      	beq.n	24053b5e <DMA_SetConfig+0xae>
24053ae2:	3518      	adds	r5, #24
24053ae4:	42ac      	cmp	r4, r5
24053ae6:	d03a      	beq.n	24053b5e <DMA_SetConfig+0xae>
24053ae8:	f505 7556 	add.w	r5, r5, #856	; 0x358
24053aec:	42ac      	cmp	r4, r5
24053aee:	d036      	beq.n	24053b5e <DMA_SetConfig+0xae>
24053af0:	3518      	adds	r5, #24
24053af2:	42ac      	cmp	r4, r5
24053af4:	d033      	beq.n	24053b5e <DMA_SetConfig+0xae>
24053af6:	3518      	adds	r5, #24
24053af8:	42ac      	cmp	r4, r5
24053afa:	d030      	beq.n	24053b5e <DMA_SetConfig+0xae>
24053afc:	3518      	adds	r5, #24
24053afe:	42ac      	cmp	r4, r5
24053b00:	d02d      	beq.n	24053b5e <DMA_SetConfig+0xae>
24053b02:	3518      	adds	r5, #24
24053b04:	42ac      	cmp	r4, r5
24053b06:	d02a      	beq.n	24053b5e <DMA_SetConfig+0xae>
24053b08:	3518      	adds	r5, #24
24053b0a:	42ac      	cmp	r4, r5
24053b0c:	d027      	beq.n	24053b5e <DMA_SetConfig+0xae>
24053b0e:	3518      	adds	r5, #24
24053b10:	42ac      	cmp	r4, r5
24053b12:	d024      	beq.n	24053b5e <DMA_SetConfig+0xae>
24053b14:	3518      	adds	r5, #24
24053b16:	42ac      	cmp	r4, r5
24053b18:	d021      	beq.n	24053b5e <DMA_SetConfig+0xae>
24053b1a:	4d4f      	ldr	r5, [pc, #316]	; (24053c58 <DMA_SetConfig+0x1a8>)
24053b1c:	42ac      	cmp	r4, r5
24053b1e:	d01e      	beq.n	24053b5e <DMA_SetConfig+0xae>
24053b20:	3514      	adds	r5, #20
24053b22:	42ac      	cmp	r4, r5
24053b24:	d01b      	beq.n	24053b5e <DMA_SetConfig+0xae>
24053b26:	3514      	adds	r5, #20
24053b28:	42ac      	cmp	r4, r5
24053b2a:	d018      	beq.n	24053b5e <DMA_SetConfig+0xae>
24053b2c:	3514      	adds	r5, #20
24053b2e:	42ac      	cmp	r4, r5
24053b30:	d015      	beq.n	24053b5e <DMA_SetConfig+0xae>
24053b32:	3514      	adds	r5, #20
24053b34:	42ac      	cmp	r4, r5
24053b36:	d012      	beq.n	24053b5e <DMA_SetConfig+0xae>
24053b38:	3514      	adds	r5, #20
24053b3a:	42ac      	cmp	r4, r5
24053b3c:	d00f      	beq.n	24053b5e <DMA_SetConfig+0xae>
24053b3e:	3514      	adds	r5, #20
24053b40:	42ac      	cmp	r4, r5
24053b42:	d00c      	beq.n	24053b5e <DMA_SetConfig+0xae>
24053b44:	3514      	adds	r5, #20
24053b46:	42ac      	cmp	r4, r5
24053b48:	d009      	beq.n	24053b5e <DMA_SetConfig+0xae>
24053b4a:	4d44      	ldr	r5, [pc, #272]	; (24053c5c <DMA_SetConfig+0x1ac>)
24053b4c:	42ac      	cmp	r4, r5
24053b4e:	d14f      	bne.n	24053bf0 <DMA_SetConfig+0x140>
24053b50:	6dc5      	ldr	r5, [r0, #92]	; 0x5c
24053b52:	f005 061f 	and.w	r6, r5, #31
24053b56:	2501      	movs	r5, #1
24053b58:	40b5      	lsls	r5, r6
24053b5a:	607d      	str	r5, [r7, #4]
24053b5c:	e041      	b.n	24053be2 <DMA_SetConfig+0x132>
24053b5e:	e9d0 5619 	ldrd	r5, r6, [r0, #100]	; 0x64
24053b62:	606e      	str	r6, [r5, #4]
24053b64:	6ec5      	ldr	r5, [r0, #108]	; 0x6c
24053b66:	b115      	cbz	r5, 24053b6e <DMA_SetConfig+0xbe>
24053b68:	e9d0 561c 	ldrd	r5, r6, [r0, #112]	; 0x70
24053b6c:	606e      	str	r6, [r5, #4]
24053b6e:	4564      	cmp	r4, ip
24053b70:	d02d      	beq.n	24053bce <DMA_SetConfig+0x11e>
24053b72:	4d38      	ldr	r5, [pc, #224]	; (24053c54 <DMA_SetConfig+0x1a4>)
24053b74:	42ac      	cmp	r4, r5
24053b76:	d02a      	beq.n	24053bce <DMA_SetConfig+0x11e>
24053b78:	3518      	adds	r5, #24
24053b7a:	42ac      	cmp	r4, r5
24053b7c:	d027      	beq.n	24053bce <DMA_SetConfig+0x11e>
24053b7e:	3518      	adds	r5, #24
24053b80:	42ac      	cmp	r4, r5
24053b82:	d024      	beq.n	24053bce <DMA_SetConfig+0x11e>
24053b84:	3518      	adds	r5, #24
24053b86:	42ac      	cmp	r4, r5
24053b88:	d021      	beq.n	24053bce <DMA_SetConfig+0x11e>
24053b8a:	3518      	adds	r5, #24
24053b8c:	42ac      	cmp	r4, r5
24053b8e:	d01e      	beq.n	24053bce <DMA_SetConfig+0x11e>
24053b90:	3518      	adds	r5, #24
24053b92:	42ac      	cmp	r4, r5
24053b94:	d01b      	beq.n	24053bce <DMA_SetConfig+0x11e>
24053b96:	3518      	adds	r5, #24
24053b98:	42ac      	cmp	r4, r5
24053b9a:	d018      	beq.n	24053bce <DMA_SetConfig+0x11e>
24053b9c:	f505 7556 	add.w	r5, r5, #856	; 0x358
24053ba0:	42ac      	cmp	r4, r5
24053ba2:	d014      	beq.n	24053bce <DMA_SetConfig+0x11e>
24053ba4:	3518      	adds	r5, #24
24053ba6:	42ac      	cmp	r4, r5
24053ba8:	d011      	beq.n	24053bce <DMA_SetConfig+0x11e>
24053baa:	3518      	adds	r5, #24
24053bac:	42ac      	cmp	r4, r5
24053bae:	d00e      	beq.n	24053bce <DMA_SetConfig+0x11e>
24053bb0:	3518      	adds	r5, #24
24053bb2:	42ac      	cmp	r4, r5
24053bb4:	d00b      	beq.n	24053bce <DMA_SetConfig+0x11e>
24053bb6:	3518      	adds	r5, #24
24053bb8:	42ac      	cmp	r4, r5
24053bba:	d008      	beq.n	24053bce <DMA_SetConfig+0x11e>
24053bbc:	3518      	adds	r5, #24
24053bbe:	42ac      	cmp	r4, r5
24053bc0:	d005      	beq.n	24053bce <DMA_SetConfig+0x11e>
24053bc2:	3518      	adds	r5, #24
24053bc4:	42ac      	cmp	r4, r5
24053bc6:	d002      	beq.n	24053bce <DMA_SetConfig+0x11e>
24053bc8:	3518      	adds	r5, #24
24053bca:	42ac      	cmp	r4, r5
24053bcc:	d1bd      	bne.n	24053b4a <DMA_SetConfig+0x9a>
24053bce:	6dc5      	ldr	r5, [r0, #92]	; 0x5c
24053bd0:	f005 061f 	and.w	r6, r5, #31
24053bd4:	253f      	movs	r5, #63	; 0x3f
24053bd6:	40b5      	lsls	r5, r6
24053bd8:	60bd      	str	r5, [r7, #8]
24053bda:	6825      	ldr	r5, [r4, #0]
24053bdc:	f425 2580 	bic.w	r5, r5, #262144	; 0x40000
24053be0:	6025      	str	r5, [r4, #0]
24053be2:	6063      	str	r3, [r4, #4]
24053be4:	6883      	ldr	r3, [r0, #8]
24053be6:	2b40      	cmp	r3, #64	; 0x40
24053be8:	d130      	bne.n	24053c4c <DMA_SetConfig+0x19c>
24053bea:	60a2      	str	r2, [r4, #8]
24053bec:	60e1      	str	r1, [r4, #12]
24053bee:	e02c      	b.n	24053c4a <DMA_SetConfig+0x19a>
24053bf0:	4d1b      	ldr	r5, [pc, #108]	; (24053c60 <DMA_SetConfig+0x1b0>)
24053bf2:	42ac      	cmp	r4, r5
24053bf4:	d0ac      	beq.n	24053b50 <DMA_SetConfig+0xa0>
24053bf6:	3514      	adds	r5, #20
24053bf8:	42ac      	cmp	r4, r5
24053bfa:	d0a9      	beq.n	24053b50 <DMA_SetConfig+0xa0>
24053bfc:	3514      	adds	r5, #20
24053bfe:	42ac      	cmp	r4, r5
24053c00:	d0a6      	beq.n	24053b50 <DMA_SetConfig+0xa0>
24053c02:	3514      	adds	r5, #20
24053c04:	42ac      	cmp	r4, r5
24053c06:	d0a3      	beq.n	24053b50 <DMA_SetConfig+0xa0>
24053c08:	3514      	adds	r5, #20
24053c0a:	42ac      	cmp	r4, r5
24053c0c:	d0a0      	beq.n	24053b50 <DMA_SetConfig+0xa0>
24053c0e:	3514      	adds	r5, #20
24053c10:	42ac      	cmp	r4, r5
24053c12:	d09d      	beq.n	24053b50 <DMA_SetConfig+0xa0>
24053c14:	3514      	adds	r5, #20
24053c16:	42ac      	cmp	r4, r5
24053c18:	d09a      	beq.n	24053b50 <DMA_SetConfig+0xa0>
24053c1a:	4d0f      	ldr	r5, [pc, #60]	; (24053c58 <DMA_SetConfig+0x1a8>)
24053c1c:	42ac      	cmp	r4, r5
24053c1e:	d097      	beq.n	24053b50 <DMA_SetConfig+0xa0>
24053c20:	3514      	adds	r5, #20
24053c22:	42ac      	cmp	r4, r5
24053c24:	d094      	beq.n	24053b50 <DMA_SetConfig+0xa0>
24053c26:	3514      	adds	r5, #20
24053c28:	42ac      	cmp	r4, r5
24053c2a:	d091      	beq.n	24053b50 <DMA_SetConfig+0xa0>
24053c2c:	3514      	adds	r5, #20
24053c2e:	42ac      	cmp	r4, r5
24053c30:	d08e      	beq.n	24053b50 <DMA_SetConfig+0xa0>
24053c32:	3514      	adds	r5, #20
24053c34:	42ac      	cmp	r4, r5
24053c36:	d08b      	beq.n	24053b50 <DMA_SetConfig+0xa0>
24053c38:	3514      	adds	r5, #20
24053c3a:	42ac      	cmp	r4, r5
24053c3c:	d088      	beq.n	24053b50 <DMA_SetConfig+0xa0>
24053c3e:	3514      	adds	r5, #20
24053c40:	42ac      	cmp	r4, r5
24053c42:	d085      	beq.n	24053b50 <DMA_SetConfig+0xa0>
24053c44:	3514      	adds	r5, #20
24053c46:	42ac      	cmp	r4, r5
24053c48:	d082      	beq.n	24053b50 <DMA_SetConfig+0xa0>
24053c4a:	bdf0      	pop	{r4, r5, r6, r7, pc}
24053c4c:	60a1      	str	r1, [r4, #8]
24053c4e:	60e2      	str	r2, [r4, #12]
24053c50:	e7fb      	b.n	24053c4a <DMA_SetConfig+0x19a>
24053c52:	bf00      	nop
24053c54:	40020028 	.word	0x40020028
24053c58:	58025408 	.word	0x58025408
24053c5c:	48022c08 	.word	0x48022c08
24053c60:	48022c1c 	.word	0x48022c1c
24053c64:	40020010 	.word	0x40020010

24053c68 <DMA_CalcBaseAndBitshift>:
24053c68:	6803      	ldr	r3, [r0, #0]
24053c6a:	4a23      	ldr	r2, [pc, #140]	; (24053cf8 <DMA_CalcBaseAndBitshift+0x90>)
24053c6c:	4293      	cmp	r3, r2
24053c6e:	b510      	push	{r4, lr}
24053c70:	d032      	beq.n	24053cd8 <DMA_CalcBaseAndBitshift+0x70>
24053c72:	3218      	adds	r2, #24
24053c74:	4293      	cmp	r3, r2
24053c76:	d02f      	beq.n	24053cd8 <DMA_CalcBaseAndBitshift+0x70>
24053c78:	3218      	adds	r2, #24
24053c7a:	4293      	cmp	r3, r2
24053c7c:	d02c      	beq.n	24053cd8 <DMA_CalcBaseAndBitshift+0x70>
24053c7e:	3218      	adds	r2, #24
24053c80:	4293      	cmp	r3, r2
24053c82:	d029      	beq.n	24053cd8 <DMA_CalcBaseAndBitshift+0x70>
24053c84:	3218      	adds	r2, #24
24053c86:	4293      	cmp	r3, r2
24053c88:	d026      	beq.n	24053cd8 <DMA_CalcBaseAndBitshift+0x70>
24053c8a:	3218      	adds	r2, #24
24053c8c:	4293      	cmp	r3, r2
24053c8e:	d023      	beq.n	24053cd8 <DMA_CalcBaseAndBitshift+0x70>
24053c90:	3218      	adds	r2, #24
24053c92:	4293      	cmp	r3, r2
24053c94:	d020      	beq.n	24053cd8 <DMA_CalcBaseAndBitshift+0x70>
24053c96:	3218      	adds	r2, #24
24053c98:	4293      	cmp	r3, r2
24053c9a:	d01d      	beq.n	24053cd8 <DMA_CalcBaseAndBitshift+0x70>
24053c9c:	f502 7256 	add.w	r2, r2, #856	; 0x358
24053ca0:	4293      	cmp	r3, r2
24053ca2:	d019      	beq.n	24053cd8 <DMA_CalcBaseAndBitshift+0x70>
24053ca4:	3218      	adds	r2, #24
24053ca6:	4293      	cmp	r3, r2
24053ca8:	d016      	beq.n	24053cd8 <DMA_CalcBaseAndBitshift+0x70>
24053caa:	3218      	adds	r2, #24
24053cac:	4293      	cmp	r3, r2
24053cae:	d013      	beq.n	24053cd8 <DMA_CalcBaseAndBitshift+0x70>
24053cb0:	3218      	adds	r2, #24
24053cb2:	4293      	cmp	r3, r2
24053cb4:	d010      	beq.n	24053cd8 <DMA_CalcBaseAndBitshift+0x70>
24053cb6:	3218      	adds	r2, #24
24053cb8:	4293      	cmp	r3, r2
24053cba:	d00d      	beq.n	24053cd8 <DMA_CalcBaseAndBitshift+0x70>
24053cbc:	3218      	adds	r2, #24
24053cbe:	4293      	cmp	r3, r2
24053cc0:	d00a      	beq.n	24053cd8 <DMA_CalcBaseAndBitshift+0x70>
24053cc2:	3218      	adds	r2, #24
24053cc4:	4293      	cmp	r3, r2
24053cc6:	d007      	beq.n	24053cd8 <DMA_CalcBaseAndBitshift+0x70>
24053cc8:	3218      	adds	r2, #24
24053cca:	4293      	cmp	r3, r2
24053ccc:	d004      	beq.n	24053cd8 <DMA_CalcBaseAndBitshift+0x70>
24053cce:	f023 03ff 	bic.w	r3, r3, #255	; 0xff
24053cd2:	6583      	str	r3, [r0, #88]	; 0x58
24053cd4:	4618      	mov	r0, r3
24053cd6:	bd10      	pop	{r4, pc}
24053cd8:	b2da      	uxtb	r2, r3
24053cda:	2118      	movs	r1, #24
24053cdc:	4c07      	ldr	r4, [pc, #28]	; (24053cfc <DMA_CalcBaseAndBitshift+0x94>)
24053cde:	f423 737f 	bic.w	r3, r3, #1020	; 0x3fc
24053ce2:	3a10      	subs	r2, #16
24053ce4:	f023 0303 	bic.w	r3, r3, #3
24053ce8:	2a5f      	cmp	r2, #95	; 0x5f
24053cea:	fbb2 f1f1 	udiv	r1, r2, r1
24053cee:	5c61      	ldrb	r1, [r4, r1]
24053cf0:	bf88      	it	hi
24053cf2:	3304      	addhi	r3, #4
24053cf4:	65c1      	str	r1, [r0, #92]	; 0x5c
24053cf6:	e7ec      	b.n	24053cd2 <DMA_CalcBaseAndBitshift+0x6a>
24053cf8:	40020010 	.word	0x40020010
24053cfc:	2405bb38 	.word	0x2405bb38

24053d00 <DMA_CalcDMAMUXChannelBaseAndMask>:
24053d00:	6802      	ldr	r2, [r0, #0]
24053d02:	4921      	ldr	r1, [pc, #132]	; (24053d88 <DMA_CalcDMAMUXChannelBaseAndMask+0x88>)
24053d04:	b2d3      	uxtb	r3, r2
24053d06:	428a      	cmp	r2, r1
24053d08:	d028      	beq.n	24053d5c <DMA_CalcDMAMUXChannelBaseAndMask+0x5c>
24053d0a:	3114      	adds	r1, #20
24053d0c:	428a      	cmp	r2, r1
24053d0e:	d025      	beq.n	24053d5c <DMA_CalcDMAMUXChannelBaseAndMask+0x5c>
24053d10:	3114      	adds	r1, #20
24053d12:	428a      	cmp	r2, r1
24053d14:	d022      	beq.n	24053d5c <DMA_CalcDMAMUXChannelBaseAndMask+0x5c>
24053d16:	3114      	adds	r1, #20
24053d18:	428a      	cmp	r2, r1
24053d1a:	d01f      	beq.n	24053d5c <DMA_CalcDMAMUXChannelBaseAndMask+0x5c>
24053d1c:	3114      	adds	r1, #20
24053d1e:	428a      	cmp	r2, r1
24053d20:	d01c      	beq.n	24053d5c <DMA_CalcDMAMUXChannelBaseAndMask+0x5c>
24053d22:	3114      	adds	r1, #20
24053d24:	428a      	cmp	r2, r1
24053d26:	d019      	beq.n	24053d5c <DMA_CalcDMAMUXChannelBaseAndMask+0x5c>
24053d28:	3114      	adds	r1, #20
24053d2a:	428a      	cmp	r2, r1
24053d2c:	d016      	beq.n	24053d5c <DMA_CalcDMAMUXChannelBaseAndMask+0x5c>
24053d2e:	3114      	adds	r1, #20
24053d30:	428a      	cmp	r2, r1
24053d32:	d013      	beq.n	24053d5c <DMA_CalcDMAMUXChannelBaseAndMask+0x5c>
24053d34:	2118      	movs	r1, #24
24053d36:	3b10      	subs	r3, #16
24053d38:	fbb3 f3f1 	udiv	r3, r3, r1
24053d3c:	4913      	ldr	r1, [pc, #76]	; (24053d8c <DMA_CalcDMAMUXChannelBaseAndMask+0x8c>)
24053d3e:	4411      	add	r1, r2
24053d40:	29a8      	cmp	r1, #168	; 0xa8
24053d42:	d91e      	bls.n	24053d82 <DMA_CalcDMAMUXChannelBaseAndMask+0x82>
24053d44:	f103 5280 	add.w	r2, r3, #268435456	; 0x10000000
24053d48:	2101      	movs	r1, #1
24053d4a:	f003 031f 	and.w	r3, r3, #31
24053d4e:	f502 4202 	add.w	r2, r2, #33280	; 0x8200
24053d52:	fa01 f303 	lsl.w	r3, r1, r3
24053d56:	490e      	ldr	r1, [pc, #56]	; (24053d90 <DMA_CalcDMAMUXChannelBaseAndMask+0x90>)
24053d58:	0092      	lsls	r2, r2, #2
24053d5a:	e00e      	b.n	24053d7a <DMA_CalcDMAMUXChannelBaseAndMask+0x7a>
24053d5c:	2214      	movs	r2, #20
24053d5e:	3b08      	subs	r3, #8
24053d60:	2101      	movs	r1, #1
24053d62:	fbb3 f3f2 	udiv	r3, r3, r2
24053d66:	f103 52b0 	add.w	r2, r3, #369098752	; 0x16000000
24053d6a:	f003 031f 	and.w	r3, r3, #31
24053d6e:	f502 4216 	add.w	r2, r2, #38400	; 0x9600
24053d72:	fa01 f303 	lsl.w	r3, r1, r3
24053d76:	4907      	ldr	r1, [pc, #28]	; (24053d94 <DMA_CalcDMAMUXChannelBaseAndMask+0x94>)
24053d78:	0092      	lsls	r2, r2, #2
24053d7a:	6683      	str	r3, [r0, #104]	; 0x68
24053d7c:	e9c0 2118 	strd	r2, r1, [r0, #96]	; 0x60
24053d80:	4770      	bx	lr
24053d82:	3308      	adds	r3, #8
24053d84:	e7de      	b.n	24053d44 <DMA_CalcDMAMUXChannelBaseAndMask+0x44>
24053d86:	bf00      	nop
24053d88:	58025408 	.word	0x58025408
24053d8c:	bffdfbf0 	.word	0xbffdfbf0
24053d90:	40020880 	.word	0x40020880
24053d94:	58025880 	.word	0x58025880

24053d98 <DMA_CalcDMAMUXRequestGenBaseAndMask>:
24053d98:	7902      	ldrb	r2, [r0, #4]
24053d9a:	1e51      	subs	r1, r2, #1
24053d9c:	2907      	cmp	r1, #7
24053d9e:	b510      	push	{r4, lr}
24053da0:	d821      	bhi.n	24053de6 <DMA_CalcDMAMUXRequestGenBaseAndMask+0x4e>
24053da2:	6803      	ldr	r3, [r0, #0]
24053da4:	4c13      	ldr	r4, [pc, #76]	; (24053df4 <DMA_CalcDMAMUXRequestGenBaseAndMask+0x5c>)
24053da6:	42a3      	cmp	r3, r4
24053da8:	d01e      	beq.n	24053de8 <DMA_CalcDMAMUXRequestGenBaseAndMask+0x50>
24053daa:	3414      	adds	r4, #20
24053dac:	42a3      	cmp	r3, r4
24053dae:	d01b      	beq.n	24053de8 <DMA_CalcDMAMUXRequestGenBaseAndMask+0x50>
24053db0:	3414      	adds	r4, #20
24053db2:	42a3      	cmp	r3, r4
24053db4:	d018      	beq.n	24053de8 <DMA_CalcDMAMUXRequestGenBaseAndMask+0x50>
24053db6:	3414      	adds	r4, #20
24053db8:	42a3      	cmp	r3, r4
24053dba:	d015      	beq.n	24053de8 <DMA_CalcDMAMUXRequestGenBaseAndMask+0x50>
24053dbc:	3414      	adds	r4, #20
24053dbe:	42a3      	cmp	r3, r4
24053dc0:	d012      	beq.n	24053de8 <DMA_CalcDMAMUXRequestGenBaseAndMask+0x50>
24053dc2:	3414      	adds	r4, #20
24053dc4:	42a3      	cmp	r3, r4
24053dc6:	d00f      	beq.n	24053de8 <DMA_CalcDMAMUXRequestGenBaseAndMask+0x50>
24053dc8:	3414      	adds	r4, #20
24053dca:	42a3      	cmp	r3, r4
24053dcc:	d00c      	beq.n	24053de8 <DMA_CalcDMAMUXRequestGenBaseAndMask+0x50>
24053dce:	3414      	adds	r4, #20
24053dd0:	42a3      	cmp	r3, r4
24053dd2:	d009      	beq.n	24053de8 <DMA_CalcDMAMUXRequestGenBaseAndMask+0x50>
24053dd4:	4b08      	ldr	r3, [pc, #32]	; (24053df8 <DMA_CalcDMAMUXRequestGenBaseAndMask+0x60>)
24053dd6:	4413      	add	r3, r2
24053dd8:	4a08      	ldr	r2, [pc, #32]	; (24053dfc <DMA_CalcDMAMUXRequestGenBaseAndMask+0x64>)
24053dda:	009b      	lsls	r3, r3, #2
24053ddc:	e9c0 321b 	strd	r3, r2, [r0, #108]	; 0x6c
24053de0:	2301      	movs	r3, #1
24053de2:	408b      	lsls	r3, r1
24053de4:	6743      	str	r3, [r0, #116]	; 0x74
24053de6:	bd10      	pop	{r4, pc}
24053de8:	4b05      	ldr	r3, [pc, #20]	; (24053e00 <DMA_CalcDMAMUXRequestGenBaseAndMask+0x68>)
24053dea:	4413      	add	r3, r2
24053dec:	4a05      	ldr	r2, [pc, #20]	; (24053e04 <DMA_CalcDMAMUXRequestGenBaseAndMask+0x6c>)
24053dee:	009b      	lsls	r3, r3, #2
24053df0:	e7f4      	b.n	24053ddc <DMA_CalcDMAMUXRequestGenBaseAndMask+0x44>
24053df2:	bf00      	nop
24053df4:	58025408 	.word	0x58025408
24053df8:	1000823f 	.word	0x1000823f
24053dfc:	40020940 	.word	0x40020940
24053e00:	1600963f 	.word	0x1600963f
24053e04:	58025940 	.word	0x58025940

24053e08 <HAL_DMA_Init>:
24053e08:	b5f8      	push	{r3, r4, r5, r6, r7, lr}
24053e0a:	4604      	mov	r4, r0
24053e0c:	f7fe fd8a 	bl	24052924 <HAL_GetTick>
24053e10:	4606      	mov	r6, r0
24053e12:	2c00      	cmp	r4, #0
24053e14:	f000 80c5 	beq.w	24053fa2 <HAL_DMA_Init+0x19a>
24053e18:	6823      	ldr	r3, [r4, #0]
24053e1a:	4d73      	ldr	r5, [pc, #460]	; (24053fe8 <HAL_DMA_Init+0x1e0>)
24053e1c:	42ab      	cmp	r3, r5
24053e1e:	d06a      	beq.n	24053ef6 <HAL_DMA_Init+0xee>
24053e20:	4a72      	ldr	r2, [pc, #456]	; (24053fec <HAL_DMA_Init+0x1e4>)
24053e22:	4293      	cmp	r3, r2
24053e24:	d067      	beq.n	24053ef6 <HAL_DMA_Init+0xee>
24053e26:	3218      	adds	r2, #24
24053e28:	4293      	cmp	r3, r2
24053e2a:	d064      	beq.n	24053ef6 <HAL_DMA_Init+0xee>
24053e2c:	3218      	adds	r2, #24
24053e2e:	4293      	cmp	r3, r2
24053e30:	d061      	beq.n	24053ef6 <HAL_DMA_Init+0xee>
24053e32:	3218      	adds	r2, #24
24053e34:	4293      	cmp	r3, r2
24053e36:	d05e      	beq.n	24053ef6 <HAL_DMA_Init+0xee>
24053e38:	3218      	adds	r2, #24
24053e3a:	4293      	cmp	r3, r2
24053e3c:	d05b      	beq.n	24053ef6 <HAL_DMA_Init+0xee>
24053e3e:	3218      	adds	r2, #24
24053e40:	4293      	cmp	r3, r2
24053e42:	d058      	beq.n	24053ef6 <HAL_DMA_Init+0xee>
24053e44:	3218      	adds	r2, #24
24053e46:	4293      	cmp	r3, r2
24053e48:	d055      	beq.n	24053ef6 <HAL_DMA_Init+0xee>
24053e4a:	f502 7256 	add.w	r2, r2, #856	; 0x358
24053e4e:	4293      	cmp	r3, r2
24053e50:	d051      	beq.n	24053ef6 <HAL_DMA_Init+0xee>
24053e52:	3218      	adds	r2, #24
24053e54:	4293      	cmp	r3, r2
24053e56:	d04e      	beq.n	24053ef6 <HAL_DMA_Init+0xee>
24053e58:	3218      	adds	r2, #24
24053e5a:	4293      	cmp	r3, r2
24053e5c:	d04b      	beq.n	24053ef6 <HAL_DMA_Init+0xee>
24053e5e:	3218      	adds	r2, #24
24053e60:	4293      	cmp	r3, r2
24053e62:	d048      	beq.n	24053ef6 <HAL_DMA_Init+0xee>
24053e64:	3218      	adds	r2, #24
24053e66:	4293      	cmp	r3, r2
24053e68:	d045      	beq.n	24053ef6 <HAL_DMA_Init+0xee>
24053e6a:	3218      	adds	r2, #24
24053e6c:	4293      	cmp	r3, r2
24053e6e:	d042      	beq.n	24053ef6 <HAL_DMA_Init+0xee>
24053e70:	3218      	adds	r2, #24
24053e72:	4293      	cmp	r3, r2
24053e74:	d03f      	beq.n	24053ef6 <HAL_DMA_Init+0xee>
24053e76:	3218      	adds	r2, #24
24053e78:	4293      	cmp	r3, r2
24053e7a:	d03c      	beq.n	24053ef6 <HAL_DMA_Init+0xee>
24053e7c:	4a5c      	ldr	r2, [pc, #368]	; (24053ff0 <HAL_DMA_Init+0x1e8>)
24053e7e:	4293      	cmp	r3, r2
24053e80:	f040 8135 	bne.w	240540ee <HAL_DMA_Init+0x2e6>
24053e84:	2202      	movs	r2, #2
24053e86:	68a1      	ldr	r1, [r4, #8]
24053e88:	f884 2035 	strb.w	r2, [r4, #53]	; 0x35
24053e8c:	2200      	movs	r2, #0
24053e8e:	2940      	cmp	r1, #64	; 0x40
24053e90:	f884 2034 	strb.w	r2, [r4, #52]	; 0x34
24053e94:	6818      	ldr	r0, [r3, #0]
24053e96:	f420 30ff 	bic.w	r0, r0, #130560	; 0x1fe00
24053e9a:	f420 70f8 	bic.w	r0, r0, #496	; 0x1f0
24053e9e:	f000 8164 	beq.w	2405416a <HAL_DMA_Init+0x362>
24053ea2:	f1a1 0280 	sub.w	r2, r1, #128	; 0x80
24053ea6:	4251      	negs	r1, r2
24053ea8:	4151      	adcs	r1, r2
24053eaa:	0389      	lsls	r1, r1, #14
24053eac:	e9d4 6203 	ldrd	r6, r2, [r4, #12]
24053eb0:	08d2      	lsrs	r2, r2, #3
24053eb2:	ea42 02d6 	orr.w	r2, r2, r6, lsr #3
24053eb6:	6966      	ldr	r6, [r4, #20]
24053eb8:	ea42 02d6 	orr.w	r2, r2, r6, lsr #3
24053ebc:	69a6      	ldr	r6, [r4, #24]
24053ebe:	ea42 02d6 	orr.w	r2, r2, r6, lsr #3
24053ec2:	69e6      	ldr	r6, [r4, #28]
24053ec4:	ea42 02d6 	orr.w	r2, r2, r6, lsr #3
24053ec8:	6a26      	ldr	r6, [r4, #32]
24053eca:	ea42 1216 	orr.w	r2, r2, r6, lsr #4
24053ece:	4302      	orrs	r2, r0
24053ed0:	4620      	mov	r0, r4
24053ed2:	4311      	orrs	r1, r2
24053ed4:	4a47      	ldr	r2, [pc, #284]	; (24053ff4 <HAL_DMA_Init+0x1ec>)
24053ed6:	6019      	str	r1, [r3, #0]
24053ed8:	441a      	add	r2, r3
24053eda:	2314      	movs	r3, #20
24053edc:	fbb2 f2f3 	udiv	r2, r2, r3
24053ee0:	0092      	lsls	r2, r2, #2
24053ee2:	65e2      	str	r2, [r4, #92]	; 0x5c
24053ee4:	f7ff fec0 	bl	24053c68 <DMA_CalcBaseAndBitshift>
24053ee8:	6de3      	ldr	r3, [r4, #92]	; 0x5c
24053eea:	f003 021f 	and.w	r2, r3, #31
24053eee:	2301      	movs	r3, #1
24053ef0:	4093      	lsls	r3, r2
24053ef2:	6043      	str	r3, [r0, #4]
24053ef4:	e092      	b.n	2405401c <HAL_DMA_Init+0x214>
24053ef6:	2202      	movs	r2, #2
24053ef8:	f884 2035 	strb.w	r2, [r4, #53]	; 0x35
24053efc:	2200      	movs	r2, #0
24053efe:	f884 2034 	strb.w	r2, [r4, #52]	; 0x34
24053f02:	681a      	ldr	r2, [r3, #0]
24053f04:	f022 0201 	bic.w	r2, r2, #1
24053f08:	601a      	str	r2, [r3, #0]
24053f0a:	6821      	ldr	r1, [r4, #0]
24053f0c:	680b      	ldr	r3, [r1, #0]
24053f0e:	07db      	lsls	r3, r3, #31
24053f10:	d43d      	bmi.n	24053f8e <HAL_DMA_Init+0x186>
24053f12:	680b      	ldr	r3, [r1, #0]
24053f14:	4a38      	ldr	r2, [pc, #224]	; (24053ff8 <HAL_DMA_Init+0x1f0>)
24053f16:	69a0      	ldr	r0, [r4, #24]
24053f18:	401a      	ands	r2, r3
24053f1a:	e9d4 3602 	ldrd	r3, r6, [r4, #8]
24053f1e:	4333      	orrs	r3, r6
24053f20:	6926      	ldr	r6, [r4, #16]
24053f22:	4333      	orrs	r3, r6
24053f24:	6966      	ldr	r6, [r4, #20]
24053f26:	4333      	orrs	r3, r6
24053f28:	69e6      	ldr	r6, [r4, #28]
24053f2a:	4303      	orrs	r3, r0
24053f2c:	4333      	orrs	r3, r6
24053f2e:	6a26      	ldr	r6, [r4, #32]
24053f30:	4333      	orrs	r3, r6
24053f32:	6a66      	ldr	r6, [r4, #36]	; 0x24
24053f34:	2e04      	cmp	r6, #4
24053f36:	ea43 0302 	orr.w	r3, r3, r2
24053f3a:	bf02      	ittt	eq
24053f3c:	e9d4 270b 	ldrdeq	r2, r7, [r4, #44]	; 0x2c
24053f40:	433a      	orreq	r2, r7
24053f42:	4313      	orreq	r3, r2
24053f44:	6862      	ldr	r2, [r4, #4]
24053f46:	f1a2 0729 	sub.w	r7, r2, #41	; 0x29
24053f4a:	2f05      	cmp	r7, #5
24053f4c:	d92e      	bls.n	24053fac <HAL_DMA_Init+0x1a4>
24053f4e:	2a52      	cmp	r2, #82	; 0x52
24053f50:	d829      	bhi.n	24053fa6 <HAL_DMA_Init+0x19e>
24053f52:	2a3e      	cmp	r2, #62	; 0x3e
24053f54:	d905      	bls.n	24053f62 <HAL_DMA_Init+0x15a>
24053f56:	4f29      	ldr	r7, [pc, #164]	; (24053ffc <HAL_DMA_Init+0x1f4>)
24053f58:	3a3f      	subs	r2, #63	; 0x3f
24053f5a:	fa27 f202 	lsr.w	r2, r7, r2
24053f5e:	07d7      	lsls	r7, r2, #31
24053f60:	d424      	bmi.n	24053fac <HAL_DMA_Init+0x1a4>
24053f62:	600b      	str	r3, [r1, #0]
24053f64:	2e04      	cmp	r6, #4
24053f66:	694b      	ldr	r3, [r1, #20]
24053f68:	f023 0307 	bic.w	r3, r3, #7
24053f6c:	ea43 0306 	orr.w	r3, r3, r6
24053f70:	d14a      	bne.n	24054008 <HAL_DMA_Init+0x200>
24053f72:	6aa2      	ldr	r2, [r4, #40]	; 0x28
24053f74:	6ae6      	ldr	r6, [r4, #44]	; 0x2c
24053f76:	4313      	orrs	r3, r2
24053f78:	2e00      	cmp	r6, #0
24053f7a:	d045      	beq.n	24054008 <HAL_DMA_Init+0x200>
24053f7c:	b9c8      	cbnz	r0, 24053fb2 <HAL_DMA_Init+0x1aa>
24053f7e:	2a01      	cmp	r2, #1
24053f80:	d028      	beq.n	24053fd4 <HAL_DMA_Init+0x1cc>
24053f82:	f032 0202 	bics.w	r2, r2, #2
24053f86:	d13f      	bne.n	24054008 <HAL_DMA_Init+0x200>
24053f88:	01f0      	lsls	r0, r6, #7
24053f8a:	d53d      	bpl.n	24054008 <HAL_DMA_Init+0x200>
24053f8c:	e025      	b.n	24053fda <HAL_DMA_Init+0x1d2>
24053f8e:	f7fe fcc9 	bl	24052924 <HAL_GetTick>
24053f92:	1b80      	subs	r0, r0, r6
24053f94:	2805      	cmp	r0, #5
24053f96:	d9b8      	bls.n	24053f0a <HAL_DMA_Init+0x102>
24053f98:	2320      	movs	r3, #32
24053f9a:	6563      	str	r3, [r4, #84]	; 0x54
24053f9c:	2303      	movs	r3, #3
24053f9e:	f884 3035 	strb.w	r3, [r4, #53]	; 0x35
24053fa2:	2001      	movs	r0, #1
24053fa4:	e01e      	b.n	24053fe4 <HAL_DMA_Init+0x1dc>
24053fa6:	3a74      	subs	r2, #116	; 0x74
24053fa8:	2a03      	cmp	r2, #3
24053faa:	d8da      	bhi.n	24053f62 <HAL_DMA_Init+0x15a>
24053fac:	f443 1380 	orr.w	r3, r3, #1048576	; 0x100000
24053fb0:	e7d7      	b.n	24053f62 <HAL_DMA_Init+0x15a>
24053fb2:	f5b0 5f00 	cmp.w	r0, #8192	; 0x2000
24053fb6:	d123      	bne.n	24054000 <HAL_DMA_Init+0x1f8>
24053fb8:	2a03      	cmp	r2, #3
24053fba:	d825      	bhi.n	24054008 <HAL_DMA_Init+0x200>
24053fbc:	a001      	add	r0, pc, #4	; (adr r0, 24053fc4 <HAL_DMA_Init+0x1bc>)
24053fbe:	f850 f022 	ldr.w	pc, [r0, r2, lsl #2]
24053fc2:	bf00      	nop
24053fc4:	24053fdb 	.word	0x24053fdb
24053fc8:	24053f89 	.word	0x24053f89
24053fcc:	24053fdb 	.word	0x24053fdb
24053fd0:	24053fd5 	.word	0x24053fd5
24053fd4:	f1b6 7fc0 	cmp.w	r6, #25165824	; 0x1800000
24053fd8:	d116      	bne.n	24054008 <HAL_DMA_Init+0x200>
24053fda:	2340      	movs	r3, #64	; 0x40
24053fdc:	2001      	movs	r0, #1
24053fde:	6563      	str	r3, [r4, #84]	; 0x54
24053fe0:	f884 0035 	strb.w	r0, [r4, #53]	; 0x35
24053fe4:	bdf8      	pop	{r3, r4, r5, r6, r7, pc}
24053fe6:	bf00      	nop
24053fe8:	40020010 	.word	0x40020010
24053fec:	40020028 	.word	0x40020028
24053ff0:	48022c08 	.word	0x48022c08
24053ff4:	a7fdabf8 	.word	0xa7fdabf8
24053ff8:	fe10803f 	.word	0xfe10803f
24053ffc:	000f030f 	.word	0x000f030f
24054000:	2a02      	cmp	r2, #2
24054002:	d9ea      	bls.n	24053fda <HAL_DMA_Init+0x1d2>
24054004:	2a03      	cmp	r2, #3
24054006:	d0bf      	beq.n	24053f88 <HAL_DMA_Init+0x180>
24054008:	614b      	str	r3, [r1, #20]
2405400a:	4620      	mov	r0, r4
2405400c:	f7ff fe2c 	bl	24053c68 <DMA_CalcBaseAndBitshift>
24054010:	6de3      	ldr	r3, [r4, #92]	; 0x5c
24054012:	f003 021f 	and.w	r2, r3, #31
24054016:	233f      	movs	r3, #63	; 0x3f
24054018:	4093      	lsls	r3, r2
2405401a:	6083      	str	r3, [r0, #8]
2405401c:	6823      	ldr	r3, [r4, #0]
2405401e:	42ab      	cmp	r3, r5
24054020:	d045      	beq.n	240540ae <HAL_DMA_Init+0x2a6>
24054022:	4a55      	ldr	r2, [pc, #340]	; (24054178 <HAL_DMA_Init+0x370>)
24054024:	4293      	cmp	r3, r2
24054026:	d042      	beq.n	240540ae <HAL_DMA_Init+0x2a6>
24054028:	3218      	adds	r2, #24
2405402a:	4293      	cmp	r3, r2
2405402c:	d03f      	beq.n	240540ae <HAL_DMA_Init+0x2a6>
2405402e:	3218      	adds	r2, #24
24054030:	4293      	cmp	r3, r2
24054032:	d03c      	beq.n	240540ae <HAL_DMA_Init+0x2a6>
24054034:	3218      	adds	r2, #24
24054036:	4293      	cmp	r3, r2
24054038:	d039      	beq.n	240540ae <HAL_DMA_Init+0x2a6>
2405403a:	3218      	adds	r2, #24
2405403c:	4293      	cmp	r3, r2
2405403e:	d036      	beq.n	240540ae <HAL_DMA_Init+0x2a6>
24054040:	3218      	adds	r2, #24
24054042:	4293      	cmp	r3, r2
24054044:	d033      	beq.n	240540ae <HAL_DMA_Init+0x2a6>
24054046:	3218      	adds	r2, #24
24054048:	4293      	cmp	r3, r2
2405404a:	d030      	beq.n	240540ae <HAL_DMA_Init+0x2a6>
2405404c:	f502 7256 	add.w	r2, r2, #856	; 0x358
24054050:	4293      	cmp	r3, r2
24054052:	d02c      	beq.n	240540ae <HAL_DMA_Init+0x2a6>
24054054:	3218      	adds	r2, #24
24054056:	4293      	cmp	r3, r2
24054058:	d029      	beq.n	240540ae <HAL_DMA_Init+0x2a6>
2405405a:	3218      	adds	r2, #24
2405405c:	4293      	cmp	r3, r2
2405405e:	d026      	beq.n	240540ae <HAL_DMA_Init+0x2a6>
24054060:	3218      	adds	r2, #24
24054062:	4293      	cmp	r3, r2
24054064:	d023      	beq.n	240540ae <HAL_DMA_Init+0x2a6>
24054066:	3218      	adds	r2, #24
24054068:	4293      	cmp	r3, r2
2405406a:	d020      	beq.n	240540ae <HAL_DMA_Init+0x2a6>
2405406c:	3218      	adds	r2, #24
2405406e:	4293      	cmp	r3, r2
24054070:	d01d      	beq.n	240540ae <HAL_DMA_Init+0x2a6>
24054072:	3218      	adds	r2, #24
24054074:	4293      	cmp	r3, r2
24054076:	d01a      	beq.n	240540ae <HAL_DMA_Init+0x2a6>
24054078:	3218      	adds	r2, #24
2405407a:	4293      	cmp	r3, r2
2405407c:	d017      	beq.n	240540ae <HAL_DMA_Init+0x2a6>
2405407e:	4a3f      	ldr	r2, [pc, #252]	; (2405417c <HAL_DMA_Init+0x374>)
24054080:	4293      	cmp	r3, r2
24054082:	d014      	beq.n	240540ae <HAL_DMA_Init+0x2a6>
24054084:	3214      	adds	r2, #20
24054086:	4293      	cmp	r3, r2
24054088:	d011      	beq.n	240540ae <HAL_DMA_Init+0x2a6>
2405408a:	3214      	adds	r2, #20
2405408c:	4293      	cmp	r3, r2
2405408e:	d00e      	beq.n	240540ae <HAL_DMA_Init+0x2a6>
24054090:	3214      	adds	r2, #20
24054092:	4293      	cmp	r3, r2
24054094:	d00b      	beq.n	240540ae <HAL_DMA_Init+0x2a6>
24054096:	3214      	adds	r2, #20
24054098:	4293      	cmp	r3, r2
2405409a:	d008      	beq.n	240540ae <HAL_DMA_Init+0x2a6>
2405409c:	3214      	adds	r2, #20
2405409e:	4293      	cmp	r3, r2
240540a0:	d005      	beq.n	240540ae <HAL_DMA_Init+0x2a6>
240540a2:	3214      	adds	r2, #20
240540a4:	4293      	cmp	r3, r2
240540a6:	d002      	beq.n	240540ae <HAL_DMA_Init+0x2a6>
240540a8:	3214      	adds	r2, #20
240540aa:	4293      	cmp	r3, r2
240540ac:	d119      	bne.n	240540e2 <HAL_DMA_Init+0x2da>
240540ae:	4620      	mov	r0, r4
240540b0:	2500      	movs	r5, #0
240540b2:	f7ff fe25 	bl	24053d00 <DMA_CalcDMAMUXChannelBaseAndMask>
240540b6:	68a3      	ldr	r3, [r4, #8]
240540b8:	6e22      	ldr	r2, [r4, #96]	; 0x60
240540ba:	2b80      	cmp	r3, #128	; 0x80
240540bc:	bf04      	itt	eq
240540be:	2300      	moveq	r3, #0
240540c0:	6063      	streq	r3, [r4, #4]
240540c2:	6863      	ldr	r3, [r4, #4]
240540c4:	b2d9      	uxtb	r1, r3
240540c6:	3b01      	subs	r3, #1
240540c8:	6011      	str	r1, [r2, #0]
240540ca:	2b07      	cmp	r3, #7
240540cc:	e9d4 2119 	ldrd	r2, r1, [r4, #100]	; 0x64
240540d0:	6051      	str	r1, [r2, #4]
240540d2:	d84c      	bhi.n	2405416e <HAL_DMA_Init+0x366>
240540d4:	f7ff fe60 	bl	24053d98 <DMA_CalcDMAMUXRequestGenBaseAndMask>
240540d8:	6ee3      	ldr	r3, [r4, #108]	; 0x6c
240540da:	601d      	str	r5, [r3, #0]
240540dc:	e9d4 321c 	ldrd	r3, r2, [r4, #112]	; 0x70
240540e0:	605a      	str	r2, [r3, #4]
240540e2:	2000      	movs	r0, #0
240540e4:	2301      	movs	r3, #1
240540e6:	6560      	str	r0, [r4, #84]	; 0x54
240540e8:	f884 3035 	strb.w	r3, [r4, #53]	; 0x35
240540ec:	e77a      	b.n	24053fe4 <HAL_DMA_Init+0x1dc>
240540ee:	4a24      	ldr	r2, [pc, #144]	; (24054180 <HAL_DMA_Init+0x378>)
240540f0:	4293      	cmp	r3, r2
240540f2:	f43f aec7 	beq.w	24053e84 <HAL_DMA_Init+0x7c>
240540f6:	3214      	adds	r2, #20
240540f8:	4293      	cmp	r3, r2
240540fa:	f43f aec3 	beq.w	24053e84 <HAL_DMA_Init+0x7c>
240540fe:	3214      	adds	r2, #20
24054100:	4293      	cmp	r3, r2
24054102:	f43f aebf 	beq.w	24053e84 <HAL_DMA_Init+0x7c>
24054106:	3214      	adds	r2, #20
24054108:	4293      	cmp	r3, r2
2405410a:	f43f aebb 	beq.w	24053e84 <HAL_DMA_Init+0x7c>
2405410e:	3214      	adds	r2, #20
24054110:	4293      	cmp	r3, r2
24054112:	f43f aeb7 	beq.w	24053e84 <HAL_DMA_Init+0x7c>
24054116:	3214      	adds	r2, #20
24054118:	4293      	cmp	r3, r2
2405411a:	f43f aeb3 	beq.w	24053e84 <HAL_DMA_Init+0x7c>
2405411e:	3214      	adds	r2, #20
24054120:	4293      	cmp	r3, r2
24054122:	f43f aeaf 	beq.w	24053e84 <HAL_DMA_Init+0x7c>
24054126:	4a15      	ldr	r2, [pc, #84]	; (2405417c <HAL_DMA_Init+0x374>)
24054128:	4293      	cmp	r3, r2
2405412a:	f43f aeab 	beq.w	24053e84 <HAL_DMA_Init+0x7c>
2405412e:	3214      	adds	r2, #20
24054130:	4293      	cmp	r3, r2
24054132:	f43f aea7 	beq.w	24053e84 <HAL_DMA_Init+0x7c>
24054136:	3214      	adds	r2, #20
24054138:	4293      	cmp	r3, r2
2405413a:	f43f aea3 	beq.w	24053e84 <HAL_DMA_Init+0x7c>
2405413e:	3214      	adds	r2, #20
24054140:	4293      	cmp	r3, r2
24054142:	f43f ae9f 	beq.w	24053e84 <HAL_DMA_Init+0x7c>
24054146:	3214      	adds	r2, #20
24054148:	4293      	cmp	r3, r2
2405414a:	f43f ae9b 	beq.w	24053e84 <HAL_DMA_Init+0x7c>
2405414e:	3214      	adds	r2, #20
24054150:	4293      	cmp	r3, r2
24054152:	f43f ae97 	beq.w	24053e84 <HAL_DMA_Init+0x7c>
24054156:	3214      	adds	r2, #20
24054158:	4293      	cmp	r3, r2
2405415a:	f43f ae93 	beq.w	24053e84 <HAL_DMA_Init+0x7c>
2405415e:	3214      	adds	r2, #20
24054160:	4293      	cmp	r3, r2
24054162:	f43f ae8f 	beq.w	24053e84 <HAL_DMA_Init+0x7c>
24054166:	2340      	movs	r3, #64	; 0x40
24054168:	e717      	b.n	24053f9a <HAL_DMA_Init+0x192>
2405416a:	2110      	movs	r1, #16
2405416c:	e69e      	b.n	24053eac <HAL_DMA_Init+0xa4>
2405416e:	e9c4 551b 	strd	r5, r5, [r4, #108]	; 0x6c
24054172:	6765      	str	r5, [r4, #116]	; 0x74
24054174:	e7b5      	b.n	240540e2 <HAL_DMA_Init+0x2da>
24054176:	bf00      	nop
24054178:	40020028 	.word	0x40020028
2405417c:	58025408 	.word	0x58025408
24054180:	48022c1c 	.word	0x48022c1c

24054184 <HAL_DMA_Start_IT>:
24054184:	b570      	push	{r4, r5, r6, lr}
24054186:	2800      	cmp	r0, #0
24054188:	f000 810a 	beq.w	240543a0 <HAL_DMA_Start_IT+0x21c>
2405418c:	f890 4034 	ldrb.w	r4, [r0, #52]	; 0x34
24054190:	2c01      	cmp	r4, #1
24054192:	f000 8107 	beq.w	240543a4 <HAL_DMA_Start_IT+0x220>
24054196:	2401      	movs	r4, #1
24054198:	f890 5035 	ldrb.w	r5, [r0, #53]	; 0x35
2405419c:	42a5      	cmp	r5, r4
2405419e:	f880 4034 	strb.w	r4, [r0, #52]	; 0x34
240541a2:	f04f 0500 	mov.w	r5, #0
240541a6:	f040 80f6 	bne.w	24054396 <HAL_DMA_Start_IT+0x212>
240541aa:	2402      	movs	r4, #2
240541ac:	f880 4035 	strb.w	r4, [r0, #53]	; 0x35
240541b0:	6804      	ldr	r4, [r0, #0]
240541b2:	6545      	str	r5, [r0, #84]	; 0x54
240541b4:	4d7c      	ldr	r5, [pc, #496]	; (240543a8 <HAL_DMA_Start_IT+0x224>)
240541b6:	42ac      	cmp	r4, r5
240541b8:	d01e      	beq.n	240541f8 <HAL_DMA_Start_IT+0x74>
240541ba:	4e7c      	ldr	r6, [pc, #496]	; (240543ac <HAL_DMA_Start_IT+0x228>)
240541bc:	42b4      	cmp	r4, r6
240541be:	d01b      	beq.n	240541f8 <HAL_DMA_Start_IT+0x74>
240541c0:	3618      	adds	r6, #24
240541c2:	42b4      	cmp	r4, r6
240541c4:	d018      	beq.n	240541f8 <HAL_DMA_Start_IT+0x74>
240541c6:	3618      	adds	r6, #24
240541c8:	42b4      	cmp	r4, r6
240541ca:	d015      	beq.n	240541f8 <HAL_DMA_Start_IT+0x74>
240541cc:	3618      	adds	r6, #24
240541ce:	42b4      	cmp	r4, r6
240541d0:	d012      	beq.n	240541f8 <HAL_DMA_Start_IT+0x74>
240541d2:	3618      	adds	r6, #24
240541d4:	42b4      	cmp	r4, r6
240541d6:	d00f      	beq.n	240541f8 <HAL_DMA_Start_IT+0x74>
240541d8:	3618      	adds	r6, #24
240541da:	42b4      	cmp	r4, r6
240541dc:	d00c      	beq.n	240541f8 <HAL_DMA_Start_IT+0x74>
240541de:	3618      	adds	r6, #24
240541e0:	42b4      	cmp	r4, r6
240541e2:	d009      	beq.n	240541f8 <HAL_DMA_Start_IT+0x74>
240541e4:	f506 7656 	add.w	r6, r6, #856	; 0x358
240541e8:	42b4      	cmp	r4, r6
240541ea:	d005      	beq.n	240541f8 <HAL_DMA_Start_IT+0x74>
240541ec:	3618      	adds	r6, #24
240541ee:	42b4      	cmp	r4, r6
240541f0:	d002      	beq.n	240541f8 <HAL_DMA_Start_IT+0x74>
240541f2:	3618      	adds	r6, #24
240541f4:	42b4      	cmp	r4, r6
240541f6:	d0ff      	beq.n	240541f8 <HAL_DMA_Start_IT+0x74>
240541f8:	6826      	ldr	r6, [r4, #0]
240541fa:	f026 0601 	bic.w	r6, r6, #1
240541fe:	6026      	str	r6, [r4, #0]
24054200:	f7ff fc56 	bl	24053ab0 <DMA_SetConfig>
24054204:	42ac      	cmp	r4, r5
24054206:	6c02      	ldr	r2, [r0, #64]	; 0x40
24054208:	d053      	beq.n	240542b2 <HAL_DMA_Start_IT+0x12e>
2405420a:	4b68      	ldr	r3, [pc, #416]	; (240543ac <HAL_DMA_Start_IT+0x228>)
2405420c:	429c      	cmp	r4, r3
2405420e:	d050      	beq.n	240542b2 <HAL_DMA_Start_IT+0x12e>
24054210:	3318      	adds	r3, #24
24054212:	429c      	cmp	r4, r3
24054214:	d04d      	beq.n	240542b2 <HAL_DMA_Start_IT+0x12e>
24054216:	3318      	adds	r3, #24
24054218:	429c      	cmp	r4, r3
2405421a:	d04a      	beq.n	240542b2 <HAL_DMA_Start_IT+0x12e>
2405421c:	3318      	adds	r3, #24
2405421e:	429c      	cmp	r4, r3
24054220:	d047      	beq.n	240542b2 <HAL_DMA_Start_IT+0x12e>
24054222:	3318      	adds	r3, #24
24054224:	429c      	cmp	r4, r3
24054226:	d044      	beq.n	240542b2 <HAL_DMA_Start_IT+0x12e>
24054228:	3318      	adds	r3, #24
2405422a:	429c      	cmp	r4, r3
2405422c:	d041      	beq.n	240542b2 <HAL_DMA_Start_IT+0x12e>
2405422e:	3318      	adds	r3, #24
24054230:	429c      	cmp	r4, r3
24054232:	d03e      	beq.n	240542b2 <HAL_DMA_Start_IT+0x12e>
24054234:	f503 7356 	add.w	r3, r3, #856	; 0x358
24054238:	429c      	cmp	r4, r3
2405423a:	d03a      	beq.n	240542b2 <HAL_DMA_Start_IT+0x12e>
2405423c:	3318      	adds	r3, #24
2405423e:	429c      	cmp	r4, r3
24054240:	d037      	beq.n	240542b2 <HAL_DMA_Start_IT+0x12e>
24054242:	3318      	adds	r3, #24
24054244:	429c      	cmp	r4, r3
24054246:	d034      	beq.n	240542b2 <HAL_DMA_Start_IT+0x12e>
24054248:	3318      	adds	r3, #24
2405424a:	429c      	cmp	r4, r3
2405424c:	d031      	beq.n	240542b2 <HAL_DMA_Start_IT+0x12e>
2405424e:	3318      	adds	r3, #24
24054250:	429c      	cmp	r4, r3
24054252:	d02e      	beq.n	240542b2 <HAL_DMA_Start_IT+0x12e>
24054254:	3318      	adds	r3, #24
24054256:	429c      	cmp	r4, r3
24054258:	d02b      	beq.n	240542b2 <HAL_DMA_Start_IT+0x12e>
2405425a:	3318      	adds	r3, #24
2405425c:	429c      	cmp	r4, r3
2405425e:	d028      	beq.n	240542b2 <HAL_DMA_Start_IT+0x12e>
24054260:	3318      	adds	r3, #24
24054262:	429c      	cmp	r4, r3
24054264:	d025      	beq.n	240542b2 <HAL_DMA_Start_IT+0x12e>
24054266:	6823      	ldr	r3, [r4, #0]
24054268:	f023 030e 	bic.w	r3, r3, #14
2405426c:	f043 030a 	orr.w	r3, r3, #10
24054270:	6023      	str	r3, [r4, #0]
24054272:	2a00      	cmp	r2, #0
24054274:	d156      	bne.n	24054324 <HAL_DMA_Start_IT+0x1a0>
24054276:	4b4e      	ldr	r3, [pc, #312]	; (240543b0 <HAL_DMA_Start_IT+0x22c>)
24054278:	429c      	cmp	r4, r3
2405427a:	d027      	beq.n	240542cc <HAL_DMA_Start_IT+0x148>
2405427c:	4b4d      	ldr	r3, [pc, #308]	; (240543b4 <HAL_DMA_Start_IT+0x230>)
2405427e:	429c      	cmp	r4, r3
24054280:	d024      	beq.n	240542cc <HAL_DMA_Start_IT+0x148>
24054282:	3314      	adds	r3, #20
24054284:	429c      	cmp	r4, r3
24054286:	d021      	beq.n	240542cc <HAL_DMA_Start_IT+0x148>
24054288:	3314      	adds	r3, #20
2405428a:	429c      	cmp	r4, r3
2405428c:	d01e      	beq.n	240542cc <HAL_DMA_Start_IT+0x148>
2405428e:	3314      	adds	r3, #20
24054290:	429c      	cmp	r4, r3
24054292:	d01b      	beq.n	240542cc <HAL_DMA_Start_IT+0x148>
24054294:	3314      	adds	r3, #20
24054296:	429c      	cmp	r4, r3
24054298:	d018      	beq.n	240542cc <HAL_DMA_Start_IT+0x148>
2405429a:	3314      	adds	r3, #20
2405429c:	429c      	cmp	r4, r3
2405429e:	d015      	beq.n	240542cc <HAL_DMA_Start_IT+0x148>
240542a0:	3314      	adds	r3, #20
240542a2:	429c      	cmp	r4, r3
240542a4:	d012      	beq.n	240542cc <HAL_DMA_Start_IT+0x148>
240542a6:	6823      	ldr	r3, [r4, #0]
240542a8:	2000      	movs	r0, #0
240542aa:	f043 0301 	orr.w	r3, r3, #1
240542ae:	6023      	str	r3, [r4, #0]
240542b0:	bd70      	pop	{r4, r5, r6, pc}
240542b2:	6823      	ldr	r3, [r4, #0]
240542b4:	f023 031e 	bic.w	r3, r3, #30
240542b8:	f043 0316 	orr.w	r3, r3, #22
240542bc:	6023      	str	r3, [r4, #0]
240542be:	b11a      	cbz	r2, 240542c8 <HAL_DMA_Start_IT+0x144>
240542c0:	6823      	ldr	r3, [r4, #0]
240542c2:	f043 0308 	orr.w	r3, r3, #8
240542c6:	6023      	str	r3, [r4, #0]
240542c8:	42ac      	cmp	r4, r5
240542ca:	d130      	bne.n	2405432e <HAL_DMA_Start_IT+0x1aa>
240542cc:	6e03      	ldr	r3, [r0, #96]	; 0x60
240542ce:	681a      	ldr	r2, [r3, #0]
240542d0:	03d2      	lsls	r2, r2, #15
240542d2:	d45b      	bmi.n	2405438c <HAL_DMA_Start_IT+0x208>
240542d4:	6ec3      	ldr	r3, [r0, #108]	; 0x6c
240542d6:	b11b      	cbz	r3, 240542e0 <HAL_DMA_Start_IT+0x15c>
240542d8:	681a      	ldr	r2, [r3, #0]
240542da:	f442 7280 	orr.w	r2, r2, #256	; 0x100
240542de:	601a      	str	r2, [r3, #0]
240542e0:	42ac      	cmp	r4, r5
240542e2:	d0e0      	beq.n	240542a6 <HAL_DMA_Start_IT+0x122>
240542e4:	4b31      	ldr	r3, [pc, #196]	; (240543ac <HAL_DMA_Start_IT+0x228>)
240542e6:	429c      	cmp	r4, r3
240542e8:	d0dd      	beq.n	240542a6 <HAL_DMA_Start_IT+0x122>
240542ea:	3318      	adds	r3, #24
240542ec:	429c      	cmp	r4, r3
240542ee:	d0da      	beq.n	240542a6 <HAL_DMA_Start_IT+0x122>
240542f0:	3318      	adds	r3, #24
240542f2:	429c      	cmp	r4, r3
240542f4:	d0d7      	beq.n	240542a6 <HAL_DMA_Start_IT+0x122>
240542f6:	3318      	adds	r3, #24
240542f8:	429c      	cmp	r4, r3
240542fa:	d0d4      	beq.n	240542a6 <HAL_DMA_Start_IT+0x122>
240542fc:	3318      	adds	r3, #24
240542fe:	429c      	cmp	r4, r3
24054300:	d0d1      	beq.n	240542a6 <HAL_DMA_Start_IT+0x122>
24054302:	3318      	adds	r3, #24
24054304:	429c      	cmp	r4, r3
24054306:	d0ce      	beq.n	240542a6 <HAL_DMA_Start_IT+0x122>
24054308:	3318      	adds	r3, #24
2405430a:	429c      	cmp	r4, r3
2405430c:	d0cb      	beq.n	240542a6 <HAL_DMA_Start_IT+0x122>
2405430e:	f503 7356 	add.w	r3, r3, #856	; 0x358
24054312:	429c      	cmp	r4, r3
24054314:	d0c7      	beq.n	240542a6 <HAL_DMA_Start_IT+0x122>
24054316:	3318      	adds	r3, #24
24054318:	429c      	cmp	r4, r3
2405431a:	d0c4      	beq.n	240542a6 <HAL_DMA_Start_IT+0x122>
2405431c:	3318      	adds	r3, #24
2405431e:	429c      	cmp	r4, r3
24054320:	d0c1      	beq.n	240542a6 <HAL_DMA_Start_IT+0x122>
24054322:	e7c0      	b.n	240542a6 <HAL_DMA_Start_IT+0x122>
24054324:	6823      	ldr	r3, [r4, #0]
24054326:	f043 0304 	orr.w	r3, r3, #4
2405432a:	6023      	str	r3, [r4, #0]
2405432c:	e7a3      	b.n	24054276 <HAL_DMA_Start_IT+0xf2>
2405432e:	4b1f      	ldr	r3, [pc, #124]	; (240543ac <HAL_DMA_Start_IT+0x228>)
24054330:	429c      	cmp	r4, r3
24054332:	d0cb      	beq.n	240542cc <HAL_DMA_Start_IT+0x148>
24054334:	3318      	adds	r3, #24
24054336:	429c      	cmp	r4, r3
24054338:	d0c8      	beq.n	240542cc <HAL_DMA_Start_IT+0x148>
2405433a:	3318      	adds	r3, #24
2405433c:	429c      	cmp	r4, r3
2405433e:	d0c5      	beq.n	240542cc <HAL_DMA_Start_IT+0x148>
24054340:	3318      	adds	r3, #24
24054342:	429c      	cmp	r4, r3
24054344:	d0c2      	beq.n	240542cc <HAL_DMA_Start_IT+0x148>
24054346:	3318      	adds	r3, #24
24054348:	429c      	cmp	r4, r3
2405434a:	d0bf      	beq.n	240542cc <HAL_DMA_Start_IT+0x148>
2405434c:	3318      	adds	r3, #24
2405434e:	429c      	cmp	r4, r3
24054350:	d0bc      	beq.n	240542cc <HAL_DMA_Start_IT+0x148>
24054352:	3318      	adds	r3, #24
24054354:	429c      	cmp	r4, r3
24054356:	d0b9      	beq.n	240542cc <HAL_DMA_Start_IT+0x148>
24054358:	f503 7356 	add.w	r3, r3, #856	; 0x358
2405435c:	429c      	cmp	r4, r3
2405435e:	d0b5      	beq.n	240542cc <HAL_DMA_Start_IT+0x148>
24054360:	3318      	adds	r3, #24
24054362:	429c      	cmp	r4, r3
24054364:	d0b2      	beq.n	240542cc <HAL_DMA_Start_IT+0x148>
24054366:	3318      	adds	r3, #24
24054368:	429c      	cmp	r4, r3
2405436a:	d0af      	beq.n	240542cc <HAL_DMA_Start_IT+0x148>
2405436c:	3318      	adds	r3, #24
2405436e:	429c      	cmp	r4, r3
24054370:	d0ac      	beq.n	240542cc <HAL_DMA_Start_IT+0x148>
24054372:	3318      	adds	r3, #24
24054374:	429c      	cmp	r4, r3
24054376:	d0a9      	beq.n	240542cc <HAL_DMA_Start_IT+0x148>
24054378:	3318      	adds	r3, #24
2405437a:	429c      	cmp	r4, r3
2405437c:	d0a6      	beq.n	240542cc <HAL_DMA_Start_IT+0x148>
2405437e:	3318      	adds	r3, #24
24054380:	429c      	cmp	r4, r3
24054382:	d0a3      	beq.n	240542cc <HAL_DMA_Start_IT+0x148>
24054384:	3318      	adds	r3, #24
24054386:	429c      	cmp	r4, r3
24054388:	d0a0      	beq.n	240542cc <HAL_DMA_Start_IT+0x148>
2405438a:	e774      	b.n	24054276 <HAL_DMA_Start_IT+0xf2>
2405438c:	681a      	ldr	r2, [r3, #0]
2405438e:	f442 7280 	orr.w	r2, r2, #256	; 0x100
24054392:	601a      	str	r2, [r3, #0]
24054394:	e79e      	b.n	240542d4 <HAL_DMA_Start_IT+0x150>
24054396:	f44f 6300 	mov.w	r3, #2048	; 0x800
2405439a:	f880 5034 	strb.w	r5, [r0, #52]	; 0x34
2405439e:	6543      	str	r3, [r0, #84]	; 0x54
240543a0:	2001      	movs	r0, #1
240543a2:	e785      	b.n	240542b0 <HAL_DMA_Start_IT+0x12c>
240543a4:	2002      	movs	r0, #2
240543a6:	e783      	b.n	240542b0 <HAL_DMA_Start_IT+0x12c>
240543a8:	40020010 	.word	0x40020010
240543ac:	40020028 	.word	0x40020028
240543b0:	58025408 	.word	0x58025408
240543b4:	5802541c 	.word	0x5802541c

240543b8 <HAL_DMA_Abort>:
240543b8:	b5f8      	push	{r3, r4, r5, r6, r7, lr}
240543ba:	4605      	mov	r5, r0
240543bc:	f7fe fab2 	bl	24052924 <HAL_GetTick>
240543c0:	4607      	mov	r7, r0
240543c2:	b145      	cbz	r5, 240543d6 <HAL_DMA_Abort+0x1e>
240543c4:	f895 3035 	ldrb.w	r3, [r5, #53]	; 0x35
240543c8:	2b02      	cmp	r3, #2
240543ca:	d006      	beq.n	240543da <HAL_DMA_Abort+0x22>
240543cc:	2380      	movs	r3, #128	; 0x80
240543ce:	656b      	str	r3, [r5, #84]	; 0x54
240543d0:	2300      	movs	r3, #0
240543d2:	f885 3034 	strb.w	r3, [r5, #52]	; 0x34
240543d6:	2001      	movs	r0, #1
240543d8:	e153      	b.n	24054682 <HAL_DMA_Abort+0x2ca>
240543da:	682c      	ldr	r4, [r5, #0]
240543dc:	4ea9      	ldr	r6, [pc, #676]	; (24054684 <HAL_DMA_Abort+0x2cc>)
240543de:	42b4      	cmp	r4, r6
240543e0:	d04a      	beq.n	24054478 <HAL_DMA_Abort+0xc0>
240543e2:	4ba9      	ldr	r3, [pc, #676]	; (24054688 <HAL_DMA_Abort+0x2d0>)
240543e4:	429c      	cmp	r4, r3
240543e6:	d047      	beq.n	24054478 <HAL_DMA_Abort+0xc0>
240543e8:	3318      	adds	r3, #24
240543ea:	429c      	cmp	r4, r3
240543ec:	d044      	beq.n	24054478 <HAL_DMA_Abort+0xc0>
240543ee:	3318      	adds	r3, #24
240543f0:	429c      	cmp	r4, r3
240543f2:	d041      	beq.n	24054478 <HAL_DMA_Abort+0xc0>
240543f4:	3318      	adds	r3, #24
240543f6:	429c      	cmp	r4, r3
240543f8:	d03e      	beq.n	24054478 <HAL_DMA_Abort+0xc0>
240543fa:	3318      	adds	r3, #24
240543fc:	429c      	cmp	r4, r3
240543fe:	d03b      	beq.n	24054478 <HAL_DMA_Abort+0xc0>
24054400:	3318      	adds	r3, #24
24054402:	429c      	cmp	r4, r3
24054404:	d038      	beq.n	24054478 <HAL_DMA_Abort+0xc0>
24054406:	3318      	adds	r3, #24
24054408:	429c      	cmp	r4, r3
2405440a:	d035      	beq.n	24054478 <HAL_DMA_Abort+0xc0>
2405440c:	f503 7356 	add.w	r3, r3, #856	; 0x358
24054410:	429c      	cmp	r4, r3
24054412:	d031      	beq.n	24054478 <HAL_DMA_Abort+0xc0>
24054414:	3318      	adds	r3, #24
24054416:	429c      	cmp	r4, r3
24054418:	d02e      	beq.n	24054478 <HAL_DMA_Abort+0xc0>
2405441a:	3318      	adds	r3, #24
2405441c:	429c      	cmp	r4, r3
2405441e:	d02b      	beq.n	24054478 <HAL_DMA_Abort+0xc0>
24054420:	3318      	adds	r3, #24
24054422:	429c      	cmp	r4, r3
24054424:	d028      	beq.n	24054478 <HAL_DMA_Abort+0xc0>
24054426:	3318      	adds	r3, #24
24054428:	429c      	cmp	r4, r3
2405442a:	d025      	beq.n	24054478 <HAL_DMA_Abort+0xc0>
2405442c:	3318      	adds	r3, #24
2405442e:	429c      	cmp	r4, r3
24054430:	d022      	beq.n	24054478 <HAL_DMA_Abort+0xc0>
24054432:	3318      	adds	r3, #24
24054434:	429c      	cmp	r4, r3
24054436:	d01f      	beq.n	24054478 <HAL_DMA_Abort+0xc0>
24054438:	3318      	adds	r3, #24
2405443a:	429c      	cmp	r4, r3
2405443c:	d01c      	beq.n	24054478 <HAL_DMA_Abort+0xc0>
2405443e:	6823      	ldr	r3, [r4, #0]
24054440:	f023 030e 	bic.w	r3, r3, #14
24054444:	6023      	str	r3, [r4, #0]
24054446:	4b91      	ldr	r3, [pc, #580]	; (2405468c <HAL_DMA_Abort+0x2d4>)
24054448:	429c      	cmp	r4, r3
2405444a:	d01f      	beq.n	2405448c <HAL_DMA_Abort+0xd4>
2405444c:	3314      	adds	r3, #20
2405444e:	429c      	cmp	r4, r3
24054450:	d01c      	beq.n	2405448c <HAL_DMA_Abort+0xd4>
24054452:	3314      	adds	r3, #20
24054454:	429c      	cmp	r4, r3
24054456:	d019      	beq.n	2405448c <HAL_DMA_Abort+0xd4>
24054458:	3314      	adds	r3, #20
2405445a:	429c      	cmp	r4, r3
2405445c:	d016      	beq.n	2405448c <HAL_DMA_Abort+0xd4>
2405445e:	3314      	adds	r3, #20
24054460:	429c      	cmp	r4, r3
24054462:	d013      	beq.n	2405448c <HAL_DMA_Abort+0xd4>
24054464:	3314      	adds	r3, #20
24054466:	429c      	cmp	r4, r3
24054468:	d010      	beq.n	2405448c <HAL_DMA_Abort+0xd4>
2405446a:	3314      	adds	r3, #20
2405446c:	429c      	cmp	r4, r3
2405446e:	d00d      	beq.n	2405448c <HAL_DMA_Abort+0xd4>
24054470:	3314      	adds	r3, #20
24054472:	429c      	cmp	r4, r3
24054474:	d112      	bne.n	2405449c <HAL_DMA_Abort+0xe4>
24054476:	e009      	b.n	2405448c <HAL_DMA_Abort+0xd4>
24054478:	6823      	ldr	r3, [r4, #0]
2405447a:	42b4      	cmp	r4, r6
2405447c:	f023 031e 	bic.w	r3, r3, #30
24054480:	6023      	str	r3, [r4, #0]
24054482:	6963      	ldr	r3, [r4, #20]
24054484:	f023 0380 	bic.w	r3, r3, #128	; 0x80
24054488:	6163      	str	r3, [r4, #20]
2405448a:	d176      	bne.n	2405457a <HAL_DMA_Abort+0x1c2>
2405448c:	6e2a      	ldr	r2, [r5, #96]	; 0x60
2405448e:	42b4      	cmp	r4, r6
24054490:	6813      	ldr	r3, [r2, #0]
24054492:	f423 7380 	bic.w	r3, r3, #256	; 0x100
24054496:	6013      	str	r3, [r2, #0]
24054498:	f040 80ab 	bne.w	240545f2 <HAL_DMA_Abort+0x23a>
2405449c:	6823      	ldr	r3, [r4, #0]
2405449e:	f023 0301 	bic.w	r3, r3, #1
240544a2:	6023      	str	r3, [r4, #0]
240544a4:	6823      	ldr	r3, [r4, #0]
240544a6:	07db      	lsls	r3, r3, #31
240544a8:	f100 80cd 	bmi.w	24054646 <HAL_DMA_Abort+0x28e>
240544ac:	682b      	ldr	r3, [r5, #0]
240544ae:	6dea      	ldr	r2, [r5, #92]	; 0x5c
240544b0:	42b3      	cmp	r3, r6
240544b2:	6da8      	ldr	r0, [r5, #88]	; 0x58
240544b4:	f002 021f 	and.w	r2, r2, #31
240544b8:	f000 80d1 	beq.w	2405465e <HAL_DMA_Abort+0x2a6>
240544bc:	4972      	ldr	r1, [pc, #456]	; (24054688 <HAL_DMA_Abort+0x2d0>)
240544be:	428b      	cmp	r3, r1
240544c0:	f000 80cd 	beq.w	2405465e <HAL_DMA_Abort+0x2a6>
240544c4:	3118      	adds	r1, #24
240544c6:	428b      	cmp	r3, r1
240544c8:	f000 80c9 	beq.w	2405465e <HAL_DMA_Abort+0x2a6>
240544cc:	3118      	adds	r1, #24
240544ce:	428b      	cmp	r3, r1
240544d0:	f000 80c5 	beq.w	2405465e <HAL_DMA_Abort+0x2a6>
240544d4:	3118      	adds	r1, #24
240544d6:	428b      	cmp	r3, r1
240544d8:	f000 80c1 	beq.w	2405465e <HAL_DMA_Abort+0x2a6>
240544dc:	3118      	adds	r1, #24
240544de:	428b      	cmp	r3, r1
240544e0:	f000 80bd 	beq.w	2405465e <HAL_DMA_Abort+0x2a6>
240544e4:	3118      	adds	r1, #24
240544e6:	428b      	cmp	r3, r1
240544e8:	f000 80b9 	beq.w	2405465e <HAL_DMA_Abort+0x2a6>
240544ec:	3118      	adds	r1, #24
240544ee:	428b      	cmp	r3, r1
240544f0:	f000 80b5 	beq.w	2405465e <HAL_DMA_Abort+0x2a6>
240544f4:	f501 7156 	add.w	r1, r1, #856	; 0x358
240544f8:	428b      	cmp	r3, r1
240544fa:	f000 80b0 	beq.w	2405465e <HAL_DMA_Abort+0x2a6>
240544fe:	3118      	adds	r1, #24
24054500:	428b      	cmp	r3, r1
24054502:	f000 80ac 	beq.w	2405465e <HAL_DMA_Abort+0x2a6>
24054506:	3118      	adds	r1, #24
24054508:	428b      	cmp	r3, r1
2405450a:	f000 80a8 	beq.w	2405465e <HAL_DMA_Abort+0x2a6>
2405450e:	3118      	adds	r1, #24
24054510:	428b      	cmp	r3, r1
24054512:	f000 80a4 	beq.w	2405465e <HAL_DMA_Abort+0x2a6>
24054516:	3118      	adds	r1, #24
24054518:	428b      	cmp	r3, r1
2405451a:	f000 80a0 	beq.w	2405465e <HAL_DMA_Abort+0x2a6>
2405451e:	3118      	adds	r1, #24
24054520:	428b      	cmp	r3, r1
24054522:	f000 809c 	beq.w	2405465e <HAL_DMA_Abort+0x2a6>
24054526:	3118      	adds	r1, #24
24054528:	428b      	cmp	r3, r1
2405452a:	f000 8098 	beq.w	2405465e <HAL_DMA_Abort+0x2a6>
2405452e:	3118      	adds	r1, #24
24054530:	428b      	cmp	r3, r1
24054532:	f000 8094 	beq.w	2405465e <HAL_DMA_Abort+0x2a6>
24054536:	2101      	movs	r1, #1
24054538:	fa01 f202 	lsl.w	r2, r1, r2
2405453c:	6042      	str	r2, [r0, #4]
2405453e:	4a53      	ldr	r2, [pc, #332]	; (2405468c <HAL_DMA_Abort+0x2d4>)
24054540:	4293      	cmp	r3, r2
24054542:	f000 8092 	beq.w	2405466a <HAL_DMA_Abort+0x2b2>
24054546:	3214      	adds	r2, #20
24054548:	4293      	cmp	r3, r2
2405454a:	f000 808e 	beq.w	2405466a <HAL_DMA_Abort+0x2b2>
2405454e:	3214      	adds	r2, #20
24054550:	4293      	cmp	r3, r2
24054552:	f000 808a 	beq.w	2405466a <HAL_DMA_Abort+0x2b2>
24054556:	3214      	adds	r2, #20
24054558:	4293      	cmp	r3, r2
2405455a:	f000 8086 	beq.w	2405466a <HAL_DMA_Abort+0x2b2>
2405455e:	3214      	adds	r2, #20
24054560:	4293      	cmp	r3, r2
24054562:	f000 8082 	beq.w	2405466a <HAL_DMA_Abort+0x2b2>
24054566:	3214      	adds	r2, #20
24054568:	4293      	cmp	r3, r2
2405456a:	d07e      	beq.n	2405466a <HAL_DMA_Abort+0x2b2>
2405456c:	3214      	adds	r2, #20
2405456e:	4293      	cmp	r3, r2
24054570:	d07b      	beq.n	2405466a <HAL_DMA_Abort+0x2b2>
24054572:	3214      	adds	r2, #20
24054574:	4293      	cmp	r3, r2
24054576:	d17e      	bne.n	24054676 <HAL_DMA_Abort+0x2be>
24054578:	e077      	b.n	2405466a <HAL_DMA_Abort+0x2b2>
2405457a:	4b43      	ldr	r3, [pc, #268]	; (24054688 <HAL_DMA_Abort+0x2d0>)
2405457c:	429c      	cmp	r4, r3
2405457e:	d085      	beq.n	2405448c <HAL_DMA_Abort+0xd4>
24054580:	3318      	adds	r3, #24
24054582:	429c      	cmp	r4, r3
24054584:	d082      	beq.n	2405448c <HAL_DMA_Abort+0xd4>
24054586:	3318      	adds	r3, #24
24054588:	429c      	cmp	r4, r3
2405458a:	f43f af7f 	beq.w	2405448c <HAL_DMA_Abort+0xd4>
2405458e:	3318      	adds	r3, #24
24054590:	429c      	cmp	r4, r3
24054592:	f43f af7b 	beq.w	2405448c <HAL_DMA_Abort+0xd4>
24054596:	3318      	adds	r3, #24
24054598:	429c      	cmp	r4, r3
2405459a:	f43f af77 	beq.w	2405448c <HAL_DMA_Abort+0xd4>
2405459e:	3318      	adds	r3, #24
240545a0:	429c      	cmp	r4, r3
240545a2:	f43f af73 	beq.w	2405448c <HAL_DMA_Abort+0xd4>
240545a6:	3318      	adds	r3, #24
240545a8:	429c      	cmp	r4, r3
240545aa:	f43f af6f 	beq.w	2405448c <HAL_DMA_Abort+0xd4>
240545ae:	f503 7356 	add.w	r3, r3, #856	; 0x358
240545b2:	429c      	cmp	r4, r3
240545b4:	f43f af6a 	beq.w	2405448c <HAL_DMA_Abort+0xd4>
240545b8:	3318      	adds	r3, #24
240545ba:	429c      	cmp	r4, r3
240545bc:	f43f af66 	beq.w	2405448c <HAL_DMA_Abort+0xd4>
240545c0:	3318      	adds	r3, #24
240545c2:	429c      	cmp	r4, r3
240545c4:	f43f af62 	beq.w	2405448c <HAL_DMA_Abort+0xd4>
240545c8:	3318      	adds	r3, #24
240545ca:	429c      	cmp	r4, r3
240545cc:	f43f af5e 	beq.w	2405448c <HAL_DMA_Abort+0xd4>
240545d0:	3318      	adds	r3, #24
240545d2:	429c      	cmp	r4, r3
240545d4:	f43f af5a 	beq.w	2405448c <HAL_DMA_Abort+0xd4>
240545d8:	3318      	adds	r3, #24
240545da:	429c      	cmp	r4, r3
240545dc:	f43f af56 	beq.w	2405448c <HAL_DMA_Abort+0xd4>
240545e0:	3318      	adds	r3, #24
240545e2:	429c      	cmp	r4, r3
240545e4:	f43f af52 	beq.w	2405448c <HAL_DMA_Abort+0xd4>
240545e8:	3318      	adds	r3, #24
240545ea:	429c      	cmp	r4, r3
240545ec:	f43f af4e 	beq.w	2405448c <HAL_DMA_Abort+0xd4>
240545f0:	e729      	b.n	24054446 <HAL_DMA_Abort+0x8e>
240545f2:	4b25      	ldr	r3, [pc, #148]	; (24054688 <HAL_DMA_Abort+0x2d0>)
240545f4:	429c      	cmp	r4, r3
240545f6:	f43f af51 	beq.w	2405449c <HAL_DMA_Abort+0xe4>
240545fa:	3318      	adds	r3, #24
240545fc:	429c      	cmp	r4, r3
240545fe:	f43f af4d 	beq.w	2405449c <HAL_DMA_Abort+0xe4>
24054602:	3318      	adds	r3, #24
24054604:	429c      	cmp	r4, r3
24054606:	f43f af49 	beq.w	2405449c <HAL_DMA_Abort+0xe4>
2405460a:	3318      	adds	r3, #24
2405460c:	429c      	cmp	r4, r3
2405460e:	f43f af45 	beq.w	2405449c <HAL_DMA_Abort+0xe4>
24054612:	3318      	adds	r3, #24
24054614:	429c      	cmp	r4, r3
24054616:	f43f af41 	beq.w	2405449c <HAL_DMA_Abort+0xe4>
2405461a:	3318      	adds	r3, #24
2405461c:	429c      	cmp	r4, r3
2405461e:	f43f af3d 	beq.w	2405449c <HAL_DMA_Abort+0xe4>
24054622:	3318      	adds	r3, #24
24054624:	429c      	cmp	r4, r3
24054626:	f43f af39 	beq.w	2405449c <HAL_DMA_Abort+0xe4>
2405462a:	f503 7356 	add.w	r3, r3, #856	; 0x358
2405462e:	429c      	cmp	r4, r3
24054630:	f43f af34 	beq.w	2405449c <HAL_DMA_Abort+0xe4>
24054634:	3318      	adds	r3, #24
24054636:	429c      	cmp	r4, r3
24054638:	f43f af30 	beq.w	2405449c <HAL_DMA_Abort+0xe4>
2405463c:	3318      	adds	r3, #24
2405463e:	429c      	cmp	r4, r3
24054640:	f43f af2c 	beq.w	2405449c <HAL_DMA_Abort+0xe4>
24054644:	e72a      	b.n	2405449c <HAL_DMA_Abort+0xe4>
24054646:	f7fe f96d 	bl	24052924 <HAL_GetTick>
2405464a:	1bc0      	subs	r0, r0, r7
2405464c:	2805      	cmp	r0, #5
2405464e:	f67f af29 	bls.w	240544a4 <HAL_DMA_Abort+0xec>
24054652:	2320      	movs	r3, #32
24054654:	656b      	str	r3, [r5, #84]	; 0x54
24054656:	2303      	movs	r3, #3
24054658:	f885 3035 	strb.w	r3, [r5, #53]	; 0x35
2405465c:	e6b8      	b.n	240543d0 <HAL_DMA_Abort+0x18>
2405465e:	213f      	movs	r1, #63	; 0x3f
24054660:	42b3      	cmp	r3, r6
24054662:	fa01 f202 	lsl.w	r2, r1, r2
24054666:	6082      	str	r2, [r0, #8]
24054668:	d112      	bne.n	24054690 <HAL_DMA_Abort+0x2d8>
2405466a:	e9d5 3219 	ldrd	r3, r2, [r5, #100]	; 0x64
2405466e:	605a      	str	r2, [r3, #4]
24054670:	6eeb      	ldr	r3, [r5, #108]	; 0x6c
24054672:	2b00      	cmp	r3, #0
24054674:	d13b      	bne.n	240546ee <HAL_DMA_Abort+0x336>
24054676:	2301      	movs	r3, #1
24054678:	2000      	movs	r0, #0
2405467a:	f885 3035 	strb.w	r3, [r5, #53]	; 0x35
2405467e:	f885 0034 	strb.w	r0, [r5, #52]	; 0x34
24054682:	bdf8      	pop	{r3, r4, r5, r6, r7, pc}
24054684:	40020010 	.word	0x40020010
24054688:	40020028 	.word	0x40020028
2405468c:	58025408 	.word	0x58025408
24054690:	4a1b      	ldr	r2, [pc, #108]	; (24054700 <HAL_DMA_Abort+0x348>)
24054692:	4293      	cmp	r3, r2
24054694:	d0e9      	beq.n	2405466a <HAL_DMA_Abort+0x2b2>
24054696:	3218      	adds	r2, #24
24054698:	4293      	cmp	r3, r2
2405469a:	d0e6      	beq.n	2405466a <HAL_DMA_Abort+0x2b2>
2405469c:	3218      	adds	r2, #24
2405469e:	4293      	cmp	r3, r2
240546a0:	d0e3      	beq.n	2405466a <HAL_DMA_Abort+0x2b2>
240546a2:	3218      	adds	r2, #24
240546a4:	4293      	cmp	r3, r2
240546a6:	d0e0      	beq.n	2405466a <HAL_DMA_Abort+0x2b2>
240546a8:	3218      	adds	r2, #24
240546aa:	4293      	cmp	r3, r2
240546ac:	d0dd      	beq.n	2405466a <HAL_DMA_Abort+0x2b2>
240546ae:	3218      	adds	r2, #24
240546b0:	4293      	cmp	r3, r2
240546b2:	d0da      	beq.n	2405466a <HAL_DMA_Abort+0x2b2>
240546b4:	3218      	adds	r2, #24
240546b6:	4293      	cmp	r3, r2
240546b8:	d0d7      	beq.n	2405466a <HAL_DMA_Abort+0x2b2>
240546ba:	f502 7256 	add.w	r2, r2, #856	; 0x358
240546be:	4293      	cmp	r3, r2
240546c0:	d0d3      	beq.n	2405466a <HAL_DMA_Abort+0x2b2>
240546c2:	3218      	adds	r2, #24
240546c4:	4293      	cmp	r3, r2
240546c6:	d0d0      	beq.n	2405466a <HAL_DMA_Abort+0x2b2>
240546c8:	3218      	adds	r2, #24
240546ca:	4293      	cmp	r3, r2
240546cc:	d0cd      	beq.n	2405466a <HAL_DMA_Abort+0x2b2>
240546ce:	3218      	adds	r2, #24
240546d0:	4293      	cmp	r3, r2
240546d2:	d0ca      	beq.n	2405466a <HAL_DMA_Abort+0x2b2>
240546d4:	3218      	adds	r2, #24
240546d6:	4293      	cmp	r3, r2
240546d8:	d0c7      	beq.n	2405466a <HAL_DMA_Abort+0x2b2>
240546da:	3218      	adds	r2, #24
240546dc:	4293      	cmp	r3, r2
240546de:	d0c4      	beq.n	2405466a <HAL_DMA_Abort+0x2b2>
240546e0:	3218      	adds	r2, #24
240546e2:	4293      	cmp	r3, r2
240546e4:	d0c1      	beq.n	2405466a <HAL_DMA_Abort+0x2b2>
240546e6:	3218      	adds	r2, #24
240546e8:	4293      	cmp	r3, r2
240546ea:	d0be      	beq.n	2405466a <HAL_DMA_Abort+0x2b2>
240546ec:	e727      	b.n	2405453e <HAL_DMA_Abort+0x186>
240546ee:	681a      	ldr	r2, [r3, #0]
240546f0:	f422 7280 	bic.w	r2, r2, #256	; 0x100
240546f4:	601a      	str	r2, [r3, #0]
240546f6:	e9d5 321c 	ldrd	r3, r2, [r5, #112]	; 0x70
240546fa:	605a      	str	r2, [r3, #4]
240546fc:	e7bb      	b.n	24054676 <HAL_DMA_Abort+0x2be>
240546fe:	bf00      	nop
24054700:	40020028 	.word	0x40020028

24054704 <HAL_DMA_Abort_IT>:
24054704:	b510      	push	{r4, lr}
24054706:	b128      	cbz	r0, 24054714 <HAL_DMA_Abort_IT+0x10>
24054708:	f890 3035 	ldrb.w	r3, [r0, #53]	; 0x35
2405470c:	2b02      	cmp	r3, #2
2405470e:	d003      	beq.n	24054718 <HAL_DMA_Abort_IT+0x14>
24054710:	2380      	movs	r3, #128	; 0x80
24054712:	6543      	str	r3, [r0, #84]	; 0x54
24054714:	2001      	movs	r0, #1
24054716:	e05d      	b.n	240547d4 <HAL_DMA_Abort_IT+0xd0>
24054718:	6803      	ldr	r3, [r0, #0]
2405471a:	4a3f      	ldr	r2, [pc, #252]	; (24054818 <HAL_DMA_Abort_IT+0x114>)
2405471c:	4293      	cmp	r3, r2
2405471e:	d051      	beq.n	240547c4 <HAL_DMA_Abort_IT+0xc0>
24054720:	3218      	adds	r2, #24
24054722:	4293      	cmp	r3, r2
24054724:	d04e      	beq.n	240547c4 <HAL_DMA_Abort_IT+0xc0>
24054726:	3218      	adds	r2, #24
24054728:	4293      	cmp	r3, r2
2405472a:	d04b      	beq.n	240547c4 <HAL_DMA_Abort_IT+0xc0>
2405472c:	3218      	adds	r2, #24
2405472e:	4293      	cmp	r3, r2
24054730:	d048      	beq.n	240547c4 <HAL_DMA_Abort_IT+0xc0>
24054732:	3218      	adds	r2, #24
24054734:	4293      	cmp	r3, r2
24054736:	d045      	beq.n	240547c4 <HAL_DMA_Abort_IT+0xc0>
24054738:	3218      	adds	r2, #24
2405473a:	4293      	cmp	r3, r2
2405473c:	d042      	beq.n	240547c4 <HAL_DMA_Abort_IT+0xc0>
2405473e:	3218      	adds	r2, #24
24054740:	4293      	cmp	r3, r2
24054742:	d03f      	beq.n	240547c4 <HAL_DMA_Abort_IT+0xc0>
24054744:	3218      	adds	r2, #24
24054746:	4293      	cmp	r3, r2
24054748:	d03c      	beq.n	240547c4 <HAL_DMA_Abort_IT+0xc0>
2405474a:	f502 7256 	add.w	r2, r2, #856	; 0x358
2405474e:	4293      	cmp	r3, r2
24054750:	d038      	beq.n	240547c4 <HAL_DMA_Abort_IT+0xc0>
24054752:	3218      	adds	r2, #24
24054754:	4293      	cmp	r3, r2
24054756:	d035      	beq.n	240547c4 <HAL_DMA_Abort_IT+0xc0>
24054758:	3218      	adds	r2, #24
2405475a:	4293      	cmp	r3, r2
2405475c:	d032      	beq.n	240547c4 <HAL_DMA_Abort_IT+0xc0>
2405475e:	3218      	adds	r2, #24
24054760:	4293      	cmp	r3, r2
24054762:	d02f      	beq.n	240547c4 <HAL_DMA_Abort_IT+0xc0>
24054764:	3218      	adds	r2, #24
24054766:	4293      	cmp	r3, r2
24054768:	d02c      	beq.n	240547c4 <HAL_DMA_Abort_IT+0xc0>
2405476a:	3218      	adds	r2, #24
2405476c:	4293      	cmp	r3, r2
2405476e:	d029      	beq.n	240547c4 <HAL_DMA_Abort_IT+0xc0>
24054770:	3218      	adds	r2, #24
24054772:	4293      	cmp	r3, r2
24054774:	d026      	beq.n	240547c4 <HAL_DMA_Abort_IT+0xc0>
24054776:	3218      	adds	r2, #24
24054778:	4293      	cmp	r3, r2
2405477a:	d023      	beq.n	240547c4 <HAL_DMA_Abort_IT+0xc0>
2405477c:	681a      	ldr	r2, [r3, #0]
2405477e:	f022 020e 	bic.w	r2, r2, #14
24054782:	601a      	str	r2, [r3, #0]
24054784:	681a      	ldr	r2, [r3, #0]
24054786:	f022 0201 	bic.w	r2, r2, #1
2405478a:	601a      	str	r2, [r3, #0]
2405478c:	4a23      	ldr	r2, [pc, #140]	; (2405481c <HAL_DMA_Abort_IT+0x118>)
2405478e:	4293      	cmp	r3, r2
24054790:	d121      	bne.n	240547d6 <HAL_DMA_Abort_IT+0xd2>
24054792:	6e02      	ldr	r2, [r0, #96]	; 0x60
24054794:	6813      	ldr	r3, [r2, #0]
24054796:	f423 7380 	bic.w	r3, r3, #256	; 0x100
2405479a:	6013      	str	r3, [r2, #0]
2405479c:	e9d0 1316 	ldrd	r1, r3, [r0, #88]	; 0x58
240547a0:	f003 021f 	and.w	r2, r3, #31
240547a4:	2301      	movs	r3, #1
240547a6:	4093      	lsls	r3, r2
240547a8:	604b      	str	r3, [r1, #4]
240547aa:	e9d0 3219 	ldrd	r3, r2, [r0, #100]	; 0x64
240547ae:	605a      	str	r2, [r3, #4]
240547b0:	6ec3      	ldr	r3, [r0, #108]	; 0x6c
240547b2:	b32b      	cbz	r3, 24054800 <HAL_DMA_Abort_IT+0xfc>
240547b4:	681a      	ldr	r2, [r3, #0]
240547b6:	f422 7280 	bic.w	r2, r2, #256	; 0x100
240547ba:	601a      	str	r2, [r3, #0]
240547bc:	e9d0 321c 	ldrd	r3, r2, [r0, #112]	; 0x70
240547c0:	605a      	str	r2, [r3, #4]
240547c2:	e01d      	b.n	24054800 <HAL_DMA_Abort_IT+0xfc>
240547c4:	2204      	movs	r2, #4
240547c6:	f880 2035 	strb.w	r2, [r0, #53]	; 0x35
240547ca:	681a      	ldr	r2, [r3, #0]
240547cc:	f022 0201 	bic.w	r2, r2, #1
240547d0:	601a      	str	r2, [r3, #0]
240547d2:	2000      	movs	r0, #0
240547d4:	bd10      	pop	{r4, pc}
240547d6:	4a12      	ldr	r2, [pc, #72]	; (24054820 <HAL_DMA_Abort_IT+0x11c>)
240547d8:	4293      	cmp	r3, r2
240547da:	d0da      	beq.n	24054792 <HAL_DMA_Abort_IT+0x8e>
240547dc:	3214      	adds	r2, #20
240547de:	4293      	cmp	r3, r2
240547e0:	d0d7      	beq.n	24054792 <HAL_DMA_Abort_IT+0x8e>
240547e2:	3214      	adds	r2, #20
240547e4:	4293      	cmp	r3, r2
240547e6:	d0d4      	beq.n	24054792 <HAL_DMA_Abort_IT+0x8e>
240547e8:	3214      	adds	r2, #20
240547ea:	4293      	cmp	r3, r2
240547ec:	d0d1      	beq.n	24054792 <HAL_DMA_Abort_IT+0x8e>
240547ee:	3214      	adds	r2, #20
240547f0:	4293      	cmp	r3, r2
240547f2:	d0ce      	beq.n	24054792 <HAL_DMA_Abort_IT+0x8e>
240547f4:	3214      	adds	r2, #20
240547f6:	4293      	cmp	r3, r2
240547f8:	d0cb      	beq.n	24054792 <HAL_DMA_Abort_IT+0x8e>
240547fa:	3214      	adds	r2, #20
240547fc:	4293      	cmp	r3, r2
240547fe:	d0c8      	beq.n	24054792 <HAL_DMA_Abort_IT+0x8e>
24054800:	2301      	movs	r3, #1
24054802:	2400      	movs	r4, #0
24054804:	f880 3035 	strb.w	r3, [r0, #53]	; 0x35
24054808:	6d03      	ldr	r3, [r0, #80]	; 0x50
2405480a:	f880 4034 	strb.w	r4, [r0, #52]	; 0x34
2405480e:	b10b      	cbz	r3, 24054814 <HAL_DMA_Abort_IT+0x110>
24054810:	4798      	blx	r3
24054812:	e7de      	b.n	240547d2 <HAL_DMA_Abort_IT+0xce>
24054814:	4618      	mov	r0, r3
24054816:	e7dd      	b.n	240547d4 <HAL_DMA_Abort_IT+0xd0>
24054818:	40020010 	.word	0x40020010
2405481c:	58025408 	.word	0x58025408
24054820:	5802541c 	.word	0x5802541c

24054824 <HAL_DMA_IRQHandler>:
24054824:	2300      	movs	r3, #0
24054826:	e92d 41f3 	stmdb	sp!, {r0, r1, r4, r5, r6, r7, r8, lr}
2405482a:	9301      	str	r3, [sp, #4]
2405482c:	4604      	mov	r4, r0
2405482e:	4b84      	ldr	r3, [pc, #528]	; (24054a40 <HAL_DMA_IRQHandler+0x21c>)
24054830:	4f84      	ldr	r7, [pc, #528]	; (24054a44 <HAL_DMA_IRQHandler+0x220>)
24054832:	681e      	ldr	r6, [r3, #0]
24054834:	6803      	ldr	r3, [r0, #0]
24054836:	6d85      	ldr	r5, [r0, #88]	; 0x58
24054838:	42bb      	cmp	r3, r7
2405483a:	f8d5 8000 	ldr.w	r8, [r5]
2405483e:	f8d5 c000 	ldr.w	ip, [r5]
24054842:	d047      	beq.n	240548d4 <HAL_DMA_IRQHandler+0xb0>
24054844:	4a80      	ldr	r2, [pc, #512]	; (24054a48 <HAL_DMA_IRQHandler+0x224>)
24054846:	4293      	cmp	r3, r2
24054848:	d044      	beq.n	240548d4 <HAL_DMA_IRQHandler+0xb0>
2405484a:	3218      	adds	r2, #24
2405484c:	4293      	cmp	r3, r2
2405484e:	d041      	beq.n	240548d4 <HAL_DMA_IRQHandler+0xb0>
24054850:	3218      	adds	r2, #24
24054852:	4293      	cmp	r3, r2
24054854:	d03e      	beq.n	240548d4 <HAL_DMA_IRQHandler+0xb0>
24054856:	3218      	adds	r2, #24
24054858:	4293      	cmp	r3, r2
2405485a:	d03b      	beq.n	240548d4 <HAL_DMA_IRQHandler+0xb0>
2405485c:	3218      	adds	r2, #24
2405485e:	4293      	cmp	r3, r2
24054860:	d038      	beq.n	240548d4 <HAL_DMA_IRQHandler+0xb0>
24054862:	3218      	adds	r2, #24
24054864:	4293      	cmp	r3, r2
24054866:	d035      	beq.n	240548d4 <HAL_DMA_IRQHandler+0xb0>
24054868:	3218      	adds	r2, #24
2405486a:	4293      	cmp	r3, r2
2405486c:	d032      	beq.n	240548d4 <HAL_DMA_IRQHandler+0xb0>
2405486e:	f502 7256 	add.w	r2, r2, #856	; 0x358
24054872:	4293      	cmp	r3, r2
24054874:	d02e      	beq.n	240548d4 <HAL_DMA_IRQHandler+0xb0>
24054876:	3218      	adds	r2, #24
24054878:	4293      	cmp	r3, r2
2405487a:	d02b      	beq.n	240548d4 <HAL_DMA_IRQHandler+0xb0>
2405487c:	3218      	adds	r2, #24
2405487e:	4293      	cmp	r3, r2
24054880:	d028      	beq.n	240548d4 <HAL_DMA_IRQHandler+0xb0>
24054882:	3218      	adds	r2, #24
24054884:	4293      	cmp	r3, r2
24054886:	d025      	beq.n	240548d4 <HAL_DMA_IRQHandler+0xb0>
24054888:	3218      	adds	r2, #24
2405488a:	4293      	cmp	r3, r2
2405488c:	d022      	beq.n	240548d4 <HAL_DMA_IRQHandler+0xb0>
2405488e:	3218      	adds	r2, #24
24054890:	4293      	cmp	r3, r2
24054892:	d01f      	beq.n	240548d4 <HAL_DMA_IRQHandler+0xb0>
24054894:	3218      	adds	r2, #24
24054896:	4293      	cmp	r3, r2
24054898:	d01c      	beq.n	240548d4 <HAL_DMA_IRQHandler+0xb0>
2405489a:	3218      	adds	r2, #24
2405489c:	4293      	cmp	r3, r2
2405489e:	d019      	beq.n	240548d4 <HAL_DMA_IRQHandler+0xb0>
240548a0:	4a6a      	ldr	r2, [pc, #424]	; (24054a4c <HAL_DMA_IRQHandler+0x228>)
240548a2:	4293      	cmp	r3, r2
240548a4:	f040 8135 	bne.w	24054b12 <HAL_DMA_IRQHandler+0x2ee>
240548a8:	6de1      	ldr	r1, [r4, #92]	; 0x5c
240548aa:	2004      	movs	r0, #4
240548ac:	681a      	ldr	r2, [r3, #0]
240548ae:	f001 011f 	and.w	r1, r1, #31
240548b2:	4088      	lsls	r0, r1
240548b4:	ea10 0f0c 	tst.w	r0, ip
240548b8:	f000 8172 	beq.w	24054ba0 <HAL_DMA_IRQHandler+0x37c>
240548bc:	0756      	lsls	r6, r2, #29
240548be:	f140 816f 	bpl.w	24054ba0 <HAL_DMA_IRQHandler+0x37c>
240548c2:	0411      	lsls	r1, r2, #16
240548c4:	6068      	str	r0, [r5, #4]
240548c6:	f140 8163 	bpl.w	24054b90 <HAL_DMA_IRQHandler+0x36c>
240548ca:	03d3      	lsls	r3, r2, #15
240548cc:	f100 8166 	bmi.w	24054b9c <HAL_DMA_IRQHandler+0x378>
240548d0:	6ca3      	ldr	r3, [r4, #72]	; 0x48
240548d2:	e0a0      	b.n	24054a16 <HAL_DMA_IRQHandler+0x1f2>
240548d4:	6de2      	ldr	r2, [r4, #92]	; 0x5c
240548d6:	2108      	movs	r1, #8
240548d8:	f002 021f 	and.w	r2, r2, #31
240548dc:	4091      	lsls	r1, r2
240548de:	ea11 0f08 	tst.w	r1, r8
240548e2:	d00b      	beq.n	240548fc <HAL_DMA_IRQHandler+0xd8>
240548e4:	6818      	ldr	r0, [r3, #0]
240548e6:	0740      	lsls	r0, r0, #29
240548e8:	d508      	bpl.n	240548fc <HAL_DMA_IRQHandler+0xd8>
240548ea:	6818      	ldr	r0, [r3, #0]
240548ec:	f020 0004 	bic.w	r0, r0, #4
240548f0:	6018      	str	r0, [r3, #0]
240548f2:	60a9      	str	r1, [r5, #8]
240548f4:	6d61      	ldr	r1, [r4, #84]	; 0x54
240548f6:	f041 0101 	orr.w	r1, r1, #1
240548fa:	6561      	str	r1, [r4, #84]	; 0x54
240548fc:	fa28 f102 	lsr.w	r1, r8, r2
24054900:	07c8      	lsls	r0, r1, #31
24054902:	d509      	bpl.n	24054918 <HAL_DMA_IRQHandler+0xf4>
24054904:	6959      	ldr	r1, [r3, #20]
24054906:	0609      	lsls	r1, r1, #24
24054908:	d506      	bpl.n	24054918 <HAL_DMA_IRQHandler+0xf4>
2405490a:	2101      	movs	r1, #1
2405490c:	4091      	lsls	r1, r2
2405490e:	60a9      	str	r1, [r5, #8]
24054910:	6d61      	ldr	r1, [r4, #84]	; 0x54
24054912:	f041 0102 	orr.w	r1, r1, #2
24054916:	6561      	str	r1, [r4, #84]	; 0x54
24054918:	2104      	movs	r1, #4
2405491a:	4091      	lsls	r1, r2
2405491c:	ea11 0f08 	tst.w	r1, r8
24054920:	d007      	beq.n	24054932 <HAL_DMA_IRQHandler+0x10e>
24054922:	6818      	ldr	r0, [r3, #0]
24054924:	0780      	lsls	r0, r0, #30
24054926:	d504      	bpl.n	24054932 <HAL_DMA_IRQHandler+0x10e>
24054928:	60a9      	str	r1, [r5, #8]
2405492a:	6d61      	ldr	r1, [r4, #84]	; 0x54
2405492c:	f041 0104 	orr.w	r1, r1, #4
24054930:	6561      	str	r1, [r4, #84]	; 0x54
24054932:	2110      	movs	r1, #16
24054934:	fa01 f202 	lsl.w	r2, r1, r2
24054938:	ea12 0f08 	tst.w	r2, r8
2405493c:	d00f      	beq.n	2405495e <HAL_DMA_IRQHandler+0x13a>
2405493e:	6819      	ldr	r1, [r3, #0]
24054940:	0709      	lsls	r1, r1, #28
24054942:	d50c      	bpl.n	2405495e <HAL_DMA_IRQHandler+0x13a>
24054944:	60aa      	str	r2, [r5, #8]
24054946:	681a      	ldr	r2, [r3, #0]
24054948:	0350      	lsls	r0, r2, #13
2405494a:	d56c      	bpl.n	24054a26 <HAL_DMA_IRQHandler+0x202>
2405494c:	681b      	ldr	r3, [r3, #0]
2405494e:	0319      	lsls	r1, r3, #12
24054950:	d401      	bmi.n	24054956 <HAL_DMA_IRQHandler+0x132>
24054952:	6c23      	ldr	r3, [r4, #64]	; 0x40
24054954:	e000      	b.n	24054958 <HAL_DMA_IRQHandler+0x134>
24054956:	6ca3      	ldr	r3, [r4, #72]	; 0x48
24054958:	b10b      	cbz	r3, 2405495e <HAL_DMA_IRQHandler+0x13a>
2405495a:	4620      	mov	r0, r4
2405495c:	4798      	blx	r3
2405495e:	6de2      	ldr	r2, [r4, #92]	; 0x5c
24054960:	2120      	movs	r1, #32
24054962:	f002 021f 	and.w	r2, r2, #31
24054966:	4091      	lsls	r1, r2
24054968:	ea11 0f08 	tst.w	r1, r8
2405496c:	d07a      	beq.n	24054a64 <HAL_DMA_IRQHandler+0x240>
2405496e:	6823      	ldr	r3, [r4, #0]
24054970:	42bb      	cmp	r3, r7
24054972:	d02d      	beq.n	240549d0 <HAL_DMA_IRQHandler+0x1ac>
24054974:	4834      	ldr	r0, [pc, #208]	; (24054a48 <HAL_DMA_IRQHandler+0x224>)
24054976:	4283      	cmp	r3, r0
24054978:	d02a      	beq.n	240549d0 <HAL_DMA_IRQHandler+0x1ac>
2405497a:	3018      	adds	r0, #24
2405497c:	4283      	cmp	r3, r0
2405497e:	d027      	beq.n	240549d0 <HAL_DMA_IRQHandler+0x1ac>
24054980:	3018      	adds	r0, #24
24054982:	4283      	cmp	r3, r0
24054984:	d024      	beq.n	240549d0 <HAL_DMA_IRQHandler+0x1ac>
24054986:	3018      	adds	r0, #24
24054988:	4283      	cmp	r3, r0
2405498a:	d021      	beq.n	240549d0 <HAL_DMA_IRQHandler+0x1ac>
2405498c:	3018      	adds	r0, #24
2405498e:	4283      	cmp	r3, r0
24054990:	d01e      	beq.n	240549d0 <HAL_DMA_IRQHandler+0x1ac>
24054992:	3018      	adds	r0, #24
24054994:	4283      	cmp	r3, r0
24054996:	d01b      	beq.n	240549d0 <HAL_DMA_IRQHandler+0x1ac>
24054998:	3018      	adds	r0, #24
2405499a:	4283      	cmp	r3, r0
2405499c:	d018      	beq.n	240549d0 <HAL_DMA_IRQHandler+0x1ac>
2405499e:	f500 7056 	add.w	r0, r0, #856	; 0x358
240549a2:	4283      	cmp	r3, r0
240549a4:	d014      	beq.n	240549d0 <HAL_DMA_IRQHandler+0x1ac>
240549a6:	3018      	adds	r0, #24
240549a8:	4283      	cmp	r3, r0
240549aa:	d011      	beq.n	240549d0 <HAL_DMA_IRQHandler+0x1ac>
240549ac:	3018      	adds	r0, #24
240549ae:	4283      	cmp	r3, r0
240549b0:	d00e      	beq.n	240549d0 <HAL_DMA_IRQHandler+0x1ac>
240549b2:	3018      	adds	r0, #24
240549b4:	4283      	cmp	r3, r0
240549b6:	d00b      	beq.n	240549d0 <HAL_DMA_IRQHandler+0x1ac>
240549b8:	3018      	adds	r0, #24
240549ba:	4283      	cmp	r3, r0
240549bc:	d008      	beq.n	240549d0 <HAL_DMA_IRQHandler+0x1ac>
240549be:	3018      	adds	r0, #24
240549c0:	4283      	cmp	r3, r0
240549c2:	d005      	beq.n	240549d0 <HAL_DMA_IRQHandler+0x1ac>
240549c4:	3018      	adds	r0, #24
240549c6:	4283      	cmp	r3, r0
240549c8:	d002      	beq.n	240549d0 <HAL_DMA_IRQHandler+0x1ac>
240549ca:	3018      	adds	r0, #24
240549cc:	4283      	cmp	r3, r0
240549ce:	d132      	bne.n	24054a36 <HAL_DMA_IRQHandler+0x212>
240549d0:	6818      	ldr	r0, [r3, #0]
240549d2:	f010 0f10 	tst.w	r0, #16
240549d6:	d045      	beq.n	24054a64 <HAL_DMA_IRQHandler+0x240>
240549d8:	60a9      	str	r1, [r5, #8]
240549da:	f894 1035 	ldrb.w	r1, [r4, #53]	; 0x35
240549de:	2904      	cmp	r1, #4
240549e0:	d136      	bne.n	24054a50 <HAL_DMA_IRQHandler+0x22c>
240549e2:	6819      	ldr	r1, [r3, #0]
240549e4:	f021 0116 	bic.w	r1, r1, #22
240549e8:	6019      	str	r1, [r3, #0]
240549ea:	6959      	ldr	r1, [r3, #20]
240549ec:	f021 0180 	bic.w	r1, r1, #128	; 0x80
240549f0:	6159      	str	r1, [r3, #20]
240549f2:	6c21      	ldr	r1, [r4, #64]	; 0x40
240549f4:	b909      	cbnz	r1, 240549fa <HAL_DMA_IRQHandler+0x1d6>
240549f6:	6ca1      	ldr	r1, [r4, #72]	; 0x48
240549f8:	b119      	cbz	r1, 24054a02 <HAL_DMA_IRQHandler+0x1de>
240549fa:	6819      	ldr	r1, [r3, #0]
240549fc:	f021 0108 	bic.w	r1, r1, #8
24054a00:	6019      	str	r1, [r3, #0]
24054a02:	233f      	movs	r3, #63	; 0x3f
24054a04:	4093      	lsls	r3, r2
24054a06:	60ab      	str	r3, [r5, #8]
24054a08:	2301      	movs	r3, #1
24054a0a:	f884 3035 	strb.w	r3, [r4, #53]	; 0x35
24054a0e:	2300      	movs	r3, #0
24054a10:	f884 3034 	strb.w	r3, [r4, #52]	; 0x34
24054a14:	6d23      	ldr	r3, [r4, #80]	; 0x50
24054a16:	2b00      	cmp	r3, #0
24054a18:	f000 80b7 	beq.w	24054b8a <HAL_DMA_IRQHandler+0x366>
24054a1c:	4620      	mov	r0, r4
24054a1e:	b002      	add	sp, #8
24054a20:	e8bd 41f0 	ldmia.w	sp!, {r4, r5, r6, r7, r8, lr}
24054a24:	4718      	bx	r3
24054a26:	681a      	ldr	r2, [r3, #0]
24054a28:	05d2      	lsls	r2, r2, #23
24054a2a:	d492      	bmi.n	24054952 <HAL_DMA_IRQHandler+0x12e>
24054a2c:	681a      	ldr	r2, [r3, #0]
24054a2e:	f022 0208 	bic.w	r2, r2, #8
24054a32:	601a      	str	r2, [r3, #0]
24054a34:	e78d      	b.n	24054952 <HAL_DMA_IRQHandler+0x12e>
24054a36:	6818      	ldr	r0, [r3, #0]
24054a38:	f010 0f02 	tst.w	r0, #2
24054a3c:	e7cb      	b.n	240549d6 <HAL_DMA_IRQHandler+0x1b2>
24054a3e:	bf00      	nop
24054a40:	20000044 	.word	0x20000044
24054a44:	40020010 	.word	0x40020010
24054a48:	40020028 	.word	0x40020028
24054a4c:	48022c08 	.word	0x48022c08
24054a50:	681a      	ldr	r2, [r3, #0]
24054a52:	0355      	lsls	r5, r2, #13
24054a54:	d54e      	bpl.n	24054af4 <HAL_DMA_IRQHandler+0x2d0>
24054a56:	681b      	ldr	r3, [r3, #0]
24054a58:	0318      	lsls	r0, r3, #12
24054a5a:	d458      	bmi.n	24054b0e <HAL_DMA_IRQHandler+0x2ea>
24054a5c:	6c63      	ldr	r3, [r4, #68]	; 0x44
24054a5e:	b10b      	cbz	r3, 24054a64 <HAL_DMA_IRQHandler+0x240>
24054a60:	4620      	mov	r0, r4
24054a62:	4798      	blx	r3
24054a64:	6d63      	ldr	r3, [r4, #84]	; 0x54
24054a66:	2b00      	cmp	r3, #0
24054a68:	f000 808f 	beq.w	24054b8a <HAL_DMA_IRQHandler+0x366>
24054a6c:	6d63      	ldr	r3, [r4, #84]	; 0x54
24054a6e:	07d9      	lsls	r1, r3, #31
24054a70:	d53e      	bpl.n	24054af0 <HAL_DMA_IRQHandler+0x2cc>
24054a72:	2304      	movs	r3, #4
24054a74:	f884 3035 	strb.w	r3, [r4, #53]	; 0x35
24054a78:	6823      	ldr	r3, [r4, #0]
24054a7a:	42bb      	cmp	r3, r7
24054a7c:	d01e      	beq.n	24054abc <HAL_DMA_IRQHandler+0x298>
24054a7e:	4a5f      	ldr	r2, [pc, #380]	; (24054bfc <HAL_DMA_IRQHandler+0x3d8>)
24054a80:	4293      	cmp	r3, r2
24054a82:	d01b      	beq.n	24054abc <HAL_DMA_IRQHandler+0x298>
24054a84:	3218      	adds	r2, #24
24054a86:	4293      	cmp	r3, r2
24054a88:	d018      	beq.n	24054abc <HAL_DMA_IRQHandler+0x298>
24054a8a:	3218      	adds	r2, #24
24054a8c:	4293      	cmp	r3, r2
24054a8e:	d015      	beq.n	24054abc <HAL_DMA_IRQHandler+0x298>
24054a90:	3218      	adds	r2, #24
24054a92:	4293      	cmp	r3, r2
24054a94:	d012      	beq.n	24054abc <HAL_DMA_IRQHandler+0x298>
24054a96:	3218      	adds	r2, #24
24054a98:	4293      	cmp	r3, r2
24054a9a:	d00f      	beq.n	24054abc <HAL_DMA_IRQHandler+0x298>
24054a9c:	3218      	adds	r2, #24
24054a9e:	4293      	cmp	r3, r2
24054aa0:	d00c      	beq.n	24054abc <HAL_DMA_IRQHandler+0x298>
24054aa2:	3218      	adds	r2, #24
24054aa4:	4293      	cmp	r3, r2
24054aa6:	d009      	beq.n	24054abc <HAL_DMA_IRQHandler+0x298>
24054aa8:	f502 7256 	add.w	r2, r2, #856	; 0x358
24054aac:	4293      	cmp	r3, r2
24054aae:	d005      	beq.n	24054abc <HAL_DMA_IRQHandler+0x298>
24054ab0:	3218      	adds	r2, #24
24054ab2:	4293      	cmp	r3, r2
24054ab4:	d002      	beq.n	24054abc <HAL_DMA_IRQHandler+0x298>
24054ab6:	3218      	adds	r2, #24
24054ab8:	4293      	cmp	r3, r2
24054aba:	d0ff      	beq.n	24054abc <HAL_DMA_IRQHandler+0x298>
24054abc:	681a      	ldr	r2, [r3, #0]
24054abe:	f022 0201 	bic.w	r2, r2, #1
24054ac2:	601a      	str	r2, [r3, #0]
24054ac4:	f44f 5216 	mov.w	r2, #9600	; 0x2580
24054ac8:	fbb6 f6f2 	udiv	r6, r6, r2
24054acc:	9a01      	ldr	r2, [sp, #4]
24054ace:	3201      	adds	r2, #1
24054ad0:	42b2      	cmp	r2, r6
24054ad2:	9201      	str	r2, [sp, #4]
24054ad4:	d802      	bhi.n	24054adc <HAL_DMA_IRQHandler+0x2b8>
24054ad6:	681a      	ldr	r2, [r3, #0]
24054ad8:	07d2      	lsls	r2, r2, #31
24054ada:	d4f7      	bmi.n	24054acc <HAL_DMA_IRQHandler+0x2a8>
24054adc:	681b      	ldr	r3, [r3, #0]
24054ade:	07df      	lsls	r7, r3, #31
24054ae0:	bf4c      	ite	mi
24054ae2:	2303      	movmi	r3, #3
24054ae4:	2301      	movpl	r3, #1
24054ae6:	f884 3035 	strb.w	r3, [r4, #53]	; 0x35
24054aea:	2300      	movs	r3, #0
24054aec:	f884 3034 	strb.w	r3, [r4, #52]	; 0x34
24054af0:	6ce3      	ldr	r3, [r4, #76]	; 0x4c
24054af2:	e790      	b.n	24054a16 <HAL_DMA_IRQHandler+0x1f2>
24054af4:	681a      	ldr	r2, [r3, #0]
24054af6:	f412 7280 	ands.w	r2, r2, #256	; 0x100
24054afa:	d108      	bne.n	24054b0e <HAL_DMA_IRQHandler+0x2ea>
24054afc:	6819      	ldr	r1, [r3, #0]
24054afe:	f021 0110 	bic.w	r1, r1, #16
24054b02:	6019      	str	r1, [r3, #0]
24054b04:	2301      	movs	r3, #1
24054b06:	f884 2034 	strb.w	r2, [r4, #52]	; 0x34
24054b0a:	f884 3035 	strb.w	r3, [r4, #53]	; 0x35
24054b0e:	6be3      	ldr	r3, [r4, #60]	; 0x3c
24054b10:	e7a5      	b.n	24054a5e <HAL_DMA_IRQHandler+0x23a>
24054b12:	4a3b      	ldr	r2, [pc, #236]	; (24054c00 <HAL_DMA_IRQHandler+0x3dc>)
24054b14:	4293      	cmp	r3, r2
24054b16:	f43f aec7 	beq.w	240548a8 <HAL_DMA_IRQHandler+0x84>
24054b1a:	3214      	adds	r2, #20
24054b1c:	4293      	cmp	r3, r2
24054b1e:	f43f aec3 	beq.w	240548a8 <HAL_DMA_IRQHandler+0x84>
24054b22:	3214      	adds	r2, #20
24054b24:	4293      	cmp	r3, r2
24054b26:	f43f aebf 	beq.w	240548a8 <HAL_DMA_IRQHandler+0x84>
24054b2a:	3214      	adds	r2, #20
24054b2c:	4293      	cmp	r3, r2
24054b2e:	f43f aebb 	beq.w	240548a8 <HAL_DMA_IRQHandler+0x84>
24054b32:	3214      	adds	r2, #20
24054b34:	4293      	cmp	r3, r2
24054b36:	f43f aeb7 	beq.w	240548a8 <HAL_DMA_IRQHandler+0x84>
24054b3a:	3214      	adds	r2, #20
24054b3c:	4293      	cmp	r3, r2
24054b3e:	f43f aeb3 	beq.w	240548a8 <HAL_DMA_IRQHandler+0x84>
24054b42:	3214      	adds	r2, #20
24054b44:	4293      	cmp	r3, r2
24054b46:	f43f aeaf 	beq.w	240548a8 <HAL_DMA_IRQHandler+0x84>
24054b4a:	4a2e      	ldr	r2, [pc, #184]	; (24054c04 <HAL_DMA_IRQHandler+0x3e0>)
24054b4c:	4293      	cmp	r3, r2
24054b4e:	f43f aeab 	beq.w	240548a8 <HAL_DMA_IRQHandler+0x84>
24054b52:	3214      	adds	r2, #20
24054b54:	4293      	cmp	r3, r2
24054b56:	f43f aea7 	beq.w	240548a8 <HAL_DMA_IRQHandler+0x84>
24054b5a:	3214      	adds	r2, #20
24054b5c:	4293      	cmp	r3, r2
24054b5e:	f43f aea3 	beq.w	240548a8 <HAL_DMA_IRQHandler+0x84>
24054b62:	3214      	adds	r2, #20
24054b64:	4293      	cmp	r3, r2
24054b66:	f43f ae9f 	beq.w	240548a8 <HAL_DMA_IRQHandler+0x84>
24054b6a:	3214      	adds	r2, #20
24054b6c:	4293      	cmp	r3, r2
24054b6e:	f43f ae9b 	beq.w	240548a8 <HAL_DMA_IRQHandler+0x84>
24054b72:	3214      	adds	r2, #20
24054b74:	4293      	cmp	r3, r2
24054b76:	f43f ae97 	beq.w	240548a8 <HAL_DMA_IRQHandler+0x84>
24054b7a:	3214      	adds	r2, #20
24054b7c:	4293      	cmp	r3, r2
24054b7e:	f43f ae93 	beq.w	240548a8 <HAL_DMA_IRQHandler+0x84>
24054b82:	3214      	adds	r2, #20
24054b84:	4293      	cmp	r3, r2
24054b86:	f43f ae8f 	beq.w	240548a8 <HAL_DMA_IRQHandler+0x84>
24054b8a:	b002      	add	sp, #8
24054b8c:	e8bd 81f0 	ldmia.w	sp!, {r4, r5, r6, r7, r8, pc}
24054b90:	0697      	lsls	r7, r2, #26
24054b92:	d403      	bmi.n	24054b9c <HAL_DMA_IRQHandler+0x378>
24054b94:	681a      	ldr	r2, [r3, #0]
24054b96:	f022 0204 	bic.w	r2, r2, #4
24054b9a:	601a      	str	r2, [r3, #0]
24054b9c:	6c23      	ldr	r3, [r4, #64]	; 0x40
24054b9e:	e73a      	b.n	24054a16 <HAL_DMA_IRQHandler+0x1f2>
24054ba0:	2002      	movs	r0, #2
24054ba2:	4088      	lsls	r0, r1
24054ba4:	ea10 0f0c 	tst.w	r0, ip
24054ba8:	d016      	beq.n	24054bd8 <HAL_DMA_IRQHandler+0x3b4>
24054baa:	0796      	lsls	r6, r2, #30
24054bac:	d514      	bpl.n	24054bd8 <HAL_DMA_IRQHandler+0x3b4>
24054bae:	6068      	str	r0, [r5, #4]
24054bb0:	0410      	lsls	r0, r2, #16
24054bb2:	d503      	bpl.n	24054bbc <HAL_DMA_IRQHandler+0x398>
24054bb4:	03d1      	lsls	r1, r2, #15
24054bb6:	d40d      	bmi.n	24054bd4 <HAL_DMA_IRQHandler+0x3b0>
24054bb8:	6c63      	ldr	r3, [r4, #68]	; 0x44
24054bba:	e72c      	b.n	24054a16 <HAL_DMA_IRQHandler+0x1f2>
24054bbc:	f012 0220 	ands.w	r2, r2, #32
24054bc0:	d108      	bne.n	24054bd4 <HAL_DMA_IRQHandler+0x3b0>
24054bc2:	6819      	ldr	r1, [r3, #0]
24054bc4:	f021 010a 	bic.w	r1, r1, #10
24054bc8:	6019      	str	r1, [r3, #0]
24054bca:	2301      	movs	r3, #1
24054bcc:	f884 2034 	strb.w	r2, [r4, #52]	; 0x34
24054bd0:	f884 3035 	strb.w	r3, [r4, #53]	; 0x35
24054bd4:	6be3      	ldr	r3, [r4, #60]	; 0x3c
24054bd6:	e71e      	b.n	24054a16 <HAL_DMA_IRQHandler+0x1f2>
24054bd8:	2008      	movs	r0, #8
24054bda:	4088      	lsls	r0, r1
24054bdc:	ea10 0f0c 	tst.w	r0, ip
24054be0:	d0d3      	beq.n	24054b8a <HAL_DMA_IRQHandler+0x366>
24054be2:	0712      	lsls	r2, r2, #28
24054be4:	d5d1      	bpl.n	24054b8a <HAL_DMA_IRQHandler+0x366>
24054be6:	681a      	ldr	r2, [r3, #0]
24054be8:	f022 020e 	bic.w	r2, r2, #14
24054bec:	601a      	str	r2, [r3, #0]
24054bee:	2301      	movs	r3, #1
24054bf0:	fa03 f101 	lsl.w	r1, r3, r1
24054bf4:	6069      	str	r1, [r5, #4]
24054bf6:	6563      	str	r3, [r4, #84]	; 0x54
24054bf8:	e775      	b.n	24054ae6 <HAL_DMA_IRQHandler+0x2c2>
24054bfa:	bf00      	nop
24054bfc:	40020028 	.word	0x40020028
24054c00:	48022c1c 	.word	0x48022c1c
24054c04:	58025408 	.word	0x58025408

24054c08 <HAL_DMA_GetError>:
24054c08:	6d40      	ldr	r0, [r0, #84]	; 0x54
24054c0a:	4770      	bx	lr

24054c0c <HAL_DMA2D_Init>:
24054c0c:	b510      	push	{r4, lr}
24054c0e:	4604      	mov	r4, r0
24054c10:	2800      	cmp	r0, #0
24054c12:	d036      	beq.n	24054c82 <HAL_DMA2D_Init+0x76>
24054c14:	f890 3061 	ldrb.w	r3, [r0, #97]	; 0x61
24054c18:	f003 02ff 	and.w	r2, r3, #255	; 0xff
24054c1c:	b91b      	cbnz	r3, 24054c26 <HAL_DMA2D_Init+0x1a>
24054c1e:	f880 2060 	strb.w	r2, [r0, #96]	; 0x60
24054c22:	f7fd fa1b 	bl	2405205c <HAL_DMA2D_MspInit>
24054c26:	2302      	movs	r3, #2
24054c28:	69e0      	ldr	r0, [r4, #28]
24054c2a:	6862      	ldr	r2, [r4, #4]
24054c2c:	f884 3061 	strb.w	r3, [r4, #97]	; 0x61
24054c30:	6823      	ldr	r3, [r4, #0]
24054c32:	4302      	orrs	r2, r0
24054c34:	69a0      	ldr	r0, [r4, #24]
24054c36:	6819      	ldr	r1, [r3, #0]
24054c38:	f421 21e0 	bic.w	r1, r1, #458752	; 0x70000
24054c3c:	f021 0140 	bic.w	r1, r1, #64	; 0x40
24054c40:	430a      	orrs	r2, r1
24054c42:	601a      	str	r2, [r3, #0]
24054c44:	6b59      	ldr	r1, [r3, #52]	; 0x34
24054c46:	68a2      	ldr	r2, [r4, #8]
24054c48:	f421 7183 	bic.w	r1, r1, #262	; 0x106
24054c4c:	4302      	orrs	r2, r0
24054c4e:	f021 0101 	bic.w	r1, r1, #1
24054c52:	430a      	orrs	r2, r1
24054c54:	68e1      	ldr	r1, [r4, #12]
24054c56:	635a      	str	r2, [r3, #52]	; 0x34
24054c58:	6c1a      	ldr	r2, [r3, #64]	; 0x40
24054c5a:	0c12      	lsrs	r2, r2, #16
24054c5c:	0412      	lsls	r2, r2, #16
24054c5e:	430a      	orrs	r2, r1
24054c60:	641a      	str	r2, [r3, #64]	; 0x40
24054c62:	6b59      	ldr	r1, [r3, #52]	; 0x34
24054c64:	e9d4 0204 	ldrd	r0, r2, [r4, #16]
24054c68:	f421 1140 	bic.w	r1, r1, #3145728	; 0x300000
24054c6c:	0552      	lsls	r2, r2, #21
24054c6e:	ea42 5200 	orr.w	r2, r2, r0, lsl #20
24054c72:	2000      	movs	r0, #0
24054c74:	430a      	orrs	r2, r1
24054c76:	635a      	str	r2, [r3, #52]	; 0x34
24054c78:	2301      	movs	r3, #1
24054c7a:	6660      	str	r0, [r4, #100]	; 0x64
24054c7c:	f884 3061 	strb.w	r3, [r4, #97]	; 0x61
24054c80:	bd10      	pop	{r4, pc}
24054c82:	2001      	movs	r0, #1
24054c84:	e7fc      	b.n	24054c80 <HAL_DMA2D_Init+0x74>
	...

24054c88 <HAL_GPIO_Init>:
24054c88:	e92d 4ff7 	stmdb	sp!, {r0, r1, r2, r4, r5, r6, r7, r8, r9, sl, fp, lr}
24054c8c:	2300      	movs	r3, #0
24054c8e:	f8df 91c8 	ldr.w	r9, [pc, #456]	; 24054e58 <HAL_GPIO_Init+0x1d0>
24054c92:	f04f 44b0 	mov.w	r4, #1476395008	; 0x58000000
24054c96:	680a      	ldr	r2, [r1, #0]
24054c98:	fa32 f503 	lsrs.w	r5, r2, r3
24054c9c:	d102      	bne.n	24054ca4 <HAL_GPIO_Init+0x1c>
24054c9e:	b003      	add	sp, #12
24054ca0:	e8bd 8ff0 	ldmia.w	sp!, {r4, r5, r6, r7, r8, r9, sl, fp, pc}
24054ca4:	f04f 0e01 	mov.w	lr, #1
24054ca8:	fa0e fe03 	lsl.w	lr, lr, r3
24054cac:	ea1e 0202 	ands.w	r2, lr, r2
24054cb0:	f000 80bc 	beq.w	24054e2c <HAL_GPIO_Init+0x1a4>
24054cb4:	684e      	ldr	r6, [r1, #4]
24054cb6:	ea4f 0843 	mov.w	r8, r3, lsl #1
24054cba:	f04f 0c03 	mov.w	ip, #3
24054cbe:	f006 0503 	and.w	r5, r6, #3
24054cc2:	fa0c fc08 	lsl.w	ip, ip, r8
24054cc6:	1e6f      	subs	r7, r5, #1
24054cc8:	ea6f 0c0c 	mvn.w	ip, ip
24054ccc:	2f01      	cmp	r7, #1
24054cce:	d834      	bhi.n	24054d3a <HAL_GPIO_Init+0xb2>
24054cd0:	6887      	ldr	r7, [r0, #8]
24054cd2:	ea07 0a0c 	and.w	sl, r7, ip
24054cd6:	68cf      	ldr	r7, [r1, #12]
24054cd8:	fa07 f708 	lsl.w	r7, r7, r8
24054cdc:	ea47 070a 	orr.w	r7, r7, sl
24054ce0:	6087      	str	r7, [r0, #8]
24054ce2:	6847      	ldr	r7, [r0, #4]
24054ce4:	ea27 0e0e 	bic.w	lr, r7, lr
24054ce8:	f3c6 1700 	ubfx	r7, r6, #4, #1
24054cec:	409f      	lsls	r7, r3
24054cee:	ea47 070e 	orr.w	r7, r7, lr
24054cf2:	6047      	str	r7, [r0, #4]
24054cf4:	68c7      	ldr	r7, [r0, #12]
24054cf6:	2d02      	cmp	r5, #2
24054cf8:	ea07 0e0c 	and.w	lr, r7, ip
24054cfc:	688f      	ldr	r7, [r1, #8]
24054cfe:	fa07 f708 	lsl.w	r7, r7, r8
24054d02:	ea47 070e 	orr.w	r7, r7, lr
24054d06:	60c7      	str	r7, [r0, #12]
24054d08:	d119      	bne.n	24054d3e <HAL_GPIO_Init+0xb6>
24054d0a:	ea4f 0ad3 	mov.w	sl, r3, lsr #3
24054d0e:	f003 0b07 	and.w	fp, r3, #7
24054d12:	f04f 0e0f 	mov.w	lr, #15
24054d16:	eb00 0a8a 	add.w	sl, r0, sl, lsl #2
24054d1a:	ea4f 0b8b 	mov.w	fp, fp, lsl #2
24054d1e:	f8da 7020 	ldr.w	r7, [sl, #32]
24054d22:	fa0e fe0b 	lsl.w	lr, lr, fp
24054d26:	ea27 0e0e 	bic.w	lr, r7, lr
24054d2a:	690f      	ldr	r7, [r1, #16]
24054d2c:	fa07 f70b 	lsl.w	r7, r7, fp
24054d30:	ea47 070e 	orr.w	r7, r7, lr
24054d34:	f8ca 7020 	str.w	r7, [sl, #32]
24054d38:	e001      	b.n	24054d3e <HAL_GPIO_Init+0xb6>
24054d3a:	2d03      	cmp	r5, #3
24054d3c:	d1da      	bne.n	24054cf4 <HAL_GPIO_Init+0x6c>
24054d3e:	6807      	ldr	r7, [r0, #0]
24054d40:	fa05 f508 	lsl.w	r5, r5, r8
24054d44:	f416 3f40 	tst.w	r6, #196608	; 0x30000
24054d48:	ea07 070c 	and.w	r7, r7, ip
24054d4c:	ea45 0507 	orr.w	r5, r5, r7
24054d50:	6005      	str	r5, [r0, #0]
24054d52:	d06b      	beq.n	24054e2c <HAL_GPIO_Init+0x1a4>
24054d54:	f8d9 5154 	ldr.w	r5, [r9, #340]	; 0x154
24054d58:	f023 0703 	bic.w	r7, r3, #3
24054d5c:	f003 0c03 	and.w	ip, r3, #3
24054d60:	f045 0502 	orr.w	r5, r5, #2
24054d64:	f107 47b0 	add.w	r7, r7, #1476395008	; 0x58000000
24054d68:	ea4f 0c8c 	mov.w	ip, ip, lsl #2
24054d6c:	f8c9 5154 	str.w	r5, [r9, #340]	; 0x154
24054d70:	f507 6780 	add.w	r7, r7, #1024	; 0x400
24054d74:	f8d9 5154 	ldr.w	r5, [r9, #340]	; 0x154
24054d78:	f005 0502 	and.w	r5, r5, #2
24054d7c:	9501      	str	r5, [sp, #4]
24054d7e:	9d01      	ldr	r5, [sp, #4]
24054d80:	250f      	movs	r5, #15
24054d82:	f8d7 e008 	ldr.w	lr, [r7, #8]
24054d86:	fa05 f50c 	lsl.w	r5, r5, ip
24054d8a:	ea2e 0e05 	bic.w	lr, lr, r5
24054d8e:	4d31      	ldr	r5, [pc, #196]	; (24054e54 <HAL_GPIO_Init+0x1cc>)
24054d90:	42a8      	cmp	r0, r5
24054d92:	d04d      	beq.n	24054e30 <HAL_GPIO_Init+0x1a8>
24054d94:	f505 6580 	add.w	r5, r5, #1024	; 0x400
24054d98:	42a8      	cmp	r0, r5
24054d9a:	d04b      	beq.n	24054e34 <HAL_GPIO_Init+0x1ac>
24054d9c:	f505 6580 	add.w	r5, r5, #1024	; 0x400
24054da0:	42a8      	cmp	r0, r5
24054da2:	d049      	beq.n	24054e38 <HAL_GPIO_Init+0x1b0>
24054da4:	f505 6580 	add.w	r5, r5, #1024	; 0x400
24054da8:	42a8      	cmp	r0, r5
24054daa:	d047      	beq.n	24054e3c <HAL_GPIO_Init+0x1b4>
24054dac:	f505 6580 	add.w	r5, r5, #1024	; 0x400
24054db0:	42a8      	cmp	r0, r5
24054db2:	d045      	beq.n	24054e40 <HAL_GPIO_Init+0x1b8>
24054db4:	f505 6580 	add.w	r5, r5, #1024	; 0x400
24054db8:	42a8      	cmp	r0, r5
24054dba:	d043      	beq.n	24054e44 <HAL_GPIO_Init+0x1bc>
24054dbc:	f505 6580 	add.w	r5, r5, #1024	; 0x400
24054dc0:	42a8      	cmp	r0, r5
24054dc2:	d041      	beq.n	24054e48 <HAL_GPIO_Init+0x1c0>
24054dc4:	f505 6580 	add.w	r5, r5, #1024	; 0x400
24054dc8:	42a8      	cmp	r0, r5
24054dca:	d03f      	beq.n	24054e4c <HAL_GPIO_Init+0x1c4>
24054dcc:	f505 6580 	add.w	r5, r5, #1024	; 0x400
24054dd0:	42a8      	cmp	r0, r5
24054dd2:	d03d      	beq.n	24054e50 <HAL_GPIO_Init+0x1c8>
24054dd4:	f505 6580 	add.w	r5, r5, #1024	; 0x400
24054dd8:	42a8      	cmp	r0, r5
24054dda:	bf0c      	ite	eq
24054ddc:	2509      	moveq	r5, #9
24054dde:	250a      	movne	r5, #10
24054de0:	fa05 f50c 	lsl.w	r5, r5, ip
24054de4:	f416 1f80 	tst.w	r6, #1048576	; 0x100000
24054de8:	ea45 050e 	orr.w	r5, r5, lr
24054dec:	60bd      	str	r5, [r7, #8]
24054dee:	ea6f 0702 	mvn.w	r7, r2
24054df2:	6825      	ldr	r5, [r4, #0]
24054df4:	bf0c      	ite	eq
24054df6:	403d      	andeq	r5, r7
24054df8:	4315      	orrne	r5, r2
24054dfa:	f416 1f00 	tst.w	r6, #2097152	; 0x200000
24054dfe:	6025      	str	r5, [r4, #0]
24054e00:	6865      	ldr	r5, [r4, #4]
24054e02:	bf0c      	ite	eq
24054e04:	403d      	andeq	r5, r7
24054e06:	4315      	orrne	r5, r2
24054e08:	f416 3f00 	tst.w	r6, #131072	; 0x20000
24054e0c:	6065      	str	r5, [r4, #4]
24054e0e:	f8d4 5084 	ldr.w	r5, [r4, #132]	; 0x84
24054e12:	bf0c      	ite	eq
24054e14:	403d      	andeq	r5, r7
24054e16:	4315      	orrne	r5, r2
24054e18:	03f6      	lsls	r6, r6, #15
24054e1a:	f8c4 5084 	str.w	r5, [r4, #132]	; 0x84
24054e1e:	f8d4 5080 	ldr.w	r5, [r4, #128]	; 0x80
24054e22:	bf54      	ite	pl
24054e24:	403d      	andpl	r5, r7
24054e26:	4315      	orrmi	r5, r2
24054e28:	f8c4 5080 	str.w	r5, [r4, #128]	; 0x80
24054e2c:	3301      	adds	r3, #1
24054e2e:	e732      	b.n	24054c96 <HAL_GPIO_Init+0xe>
24054e30:	2500      	movs	r5, #0
24054e32:	e7d5      	b.n	24054de0 <HAL_GPIO_Init+0x158>
24054e34:	2501      	movs	r5, #1
24054e36:	e7d3      	b.n	24054de0 <HAL_GPIO_Init+0x158>
24054e38:	2502      	movs	r5, #2
24054e3a:	e7d1      	b.n	24054de0 <HAL_GPIO_Init+0x158>
24054e3c:	2503      	movs	r5, #3
24054e3e:	e7cf      	b.n	24054de0 <HAL_GPIO_Init+0x158>
24054e40:	2504      	movs	r5, #4
24054e42:	e7cd      	b.n	24054de0 <HAL_GPIO_Init+0x158>
24054e44:	2505      	movs	r5, #5
24054e46:	e7cb      	b.n	24054de0 <HAL_GPIO_Init+0x158>
24054e48:	2506      	movs	r5, #6
24054e4a:	e7c9      	b.n	24054de0 <HAL_GPIO_Init+0x158>
24054e4c:	2507      	movs	r5, #7
24054e4e:	e7c7      	b.n	24054de0 <HAL_GPIO_Init+0x158>
24054e50:	2508      	movs	r5, #8
24054e52:	e7c5      	b.n	24054de0 <HAL_GPIO_Init+0x158>
24054e54:	58020000 	.word	0x58020000
24054e58:	58024400 	.word	0x58024400

24054e5c <HAL_GPIO_ReadPin>:
24054e5c:	6903      	ldr	r3, [r0, #16]
24054e5e:	4219      	tst	r1, r3
24054e60:	bf14      	ite	ne
24054e62:	2001      	movne	r0, #1
24054e64:	2000      	moveq	r0, #0
24054e66:	4770      	bx	lr

24054e68 <HAL_GPIO_WritePin>:
24054e68:	b10a      	cbz	r2, 24054e6e <HAL_GPIO_WritePin+0x6>
24054e6a:	6181      	str	r1, [r0, #24]
24054e6c:	4770      	bx	lr
24054e6e:	0409      	lsls	r1, r1, #16
24054e70:	e7fb      	b.n	24054e6a <HAL_GPIO_WritePin+0x2>

24054e72 <HAL_GPIO_EXTI_Callback>:
24054e72:	4770      	bx	lr

24054e74 <HAL_GPIO_EXTI_IRQHandler>:
24054e74:	f04f 42b0 	mov.w	r2, #1476395008	; 0x58000000
24054e78:	f8d2 1088 	ldr.w	r1, [r2, #136]	; 0x88
24054e7c:	4201      	tst	r1, r0
24054e7e:	b508      	push	{r3, lr}
24054e80:	d003      	beq.n	24054e8a <HAL_GPIO_EXTI_IRQHandler+0x16>
24054e82:	f8c2 0088 	str.w	r0, [r2, #136]	; 0x88
24054e86:	f7ff fff4 	bl	24054e72 <HAL_GPIO_EXTI_Callback>
24054e8a:	bd08      	pop	{r3, pc}

24054e8c <LTDC_SetConfig>:
24054e8c:	01d2      	lsls	r2, r2, #7
24054e8e:	6800      	ldr	r0, [r0, #0]
24054e90:	f8d1 c000 	ldr.w	ip, [r1]
24054e94:	3284      	adds	r2, #132	; 0x84
24054e96:	1883      	adds	r3, r0, r2
24054e98:	e92d 43f0 	stmdb	sp!, {r4, r5, r6, r7, r8, r9, lr}
24054e9c:	68c6      	ldr	r6, [r0, #12]
24054e9e:	f10c 0701 	add.w	r7, ip, #1
24054ea2:	685d      	ldr	r5, [r3, #4]
24054ea4:	f04f 0e00 	mov.w	lr, #0
24054ea8:	684c      	ldr	r4, [r1, #4]
24054eaa:	f3c6 460b 	ubfx	r6, r6, #16, #12
24054eae:	f405 4570 	and.w	r5, r5, #61440	; 0xf000
24054eb2:	f8d1 9018 	ldr.w	r9, [r1, #24]
24054eb6:	4426      	add	r6, r4
24054eb8:	605d      	str	r5, [r3, #4]
24054eba:	68c5      	ldr	r5, [r0, #12]
24054ebc:	f3c5 450b 	ubfx	r5, r5, #16, #12
24054ec0:	443d      	add	r5, r7
24054ec2:	ea45 4506 	orr.w	r5, r5, r6, lsl #16
24054ec6:	605d      	str	r5, [r3, #4]
24054ec8:	68c6      	ldr	r6, [r0, #12]
24054eca:	68cd      	ldr	r5, [r1, #12]
24054ecc:	f3c6 060a 	ubfx	r6, r6, #0, #11
24054ed0:	442e      	add	r6, r5
24054ed2:	689d      	ldr	r5, [r3, #8]
24054ed4:	f405 4570 	and.w	r5, r5, #61440	; 0xf000
24054ed8:	609d      	str	r5, [r3, #8]
24054eda:	688d      	ldr	r5, [r1, #8]
24054edc:	68c7      	ldr	r7, [r0, #12]
24054ede:	3501      	adds	r5, #1
24054ee0:	f3c7 070a 	ubfx	r7, r7, #0, #11
24054ee4:	443d      	add	r5, r7
24054ee6:	ea45 4506 	orr.w	r5, r5, r6, lsl #16
24054eea:	690e      	ldr	r6, [r1, #16]
24054eec:	609d      	str	r5, [r3, #8]
24054eee:	691d      	ldr	r5, [r3, #16]
24054ef0:	f025 0507 	bic.w	r5, r5, #7
24054ef4:	611d      	str	r5, [r3, #16]
24054ef6:	611e      	str	r6, [r3, #16]
24054ef8:	699d      	ldr	r5, [r3, #24]
24054efa:	f891 7032 	ldrb.w	r7, [r1, #50]	; 0x32
24054efe:	f891 8031 	ldrb.w	r8, [r1, #49]	; 0x31
24054f02:	f8c3 e018 	str.w	lr, [r3, #24]
24054f06:	f891 5030 	ldrb.w	r5, [r1, #48]	; 0x30
24054f0a:	ea45 6509 	orr.w	r5, r5, r9, lsl #24
24054f0e:	ea45 2508 	orr.w	r5, r5, r8, lsl #8
24054f12:	ea45 4507 	orr.w	r5, r5, r7, lsl #16
24054f16:	619d      	str	r5, [r3, #24]
24054f18:	695d      	ldr	r5, [r3, #20]
24054f1a:	f025 05ff 	bic.w	r5, r5, #255	; 0xff
24054f1e:	615d      	str	r5, [r3, #20]
24054f20:	694d      	ldr	r5, [r1, #20]
24054f22:	615d      	str	r5, [r3, #20]
24054f24:	69dd      	ldr	r5, [r3, #28]
24054f26:	f425 65e0 	bic.w	r5, r5, #1792	; 0x700
24054f2a:	f025 0507 	bic.w	r5, r5, #7
24054f2e:	61dd      	str	r5, [r3, #28]
24054f30:	e9d1 5707 	ldrd	r5, r7, [r1, #28]
24054f34:	433d      	orrs	r5, r7
24054f36:	61dd      	str	r5, [r3, #28]
24054f38:	6a9d      	ldr	r5, [r3, #40]	; 0x28
24054f3a:	6a4d      	ldr	r5, [r1, #36]	; 0x24
24054f3c:	f8c3 e028 	str.w	lr, [r3, #40]	; 0x28
24054f40:	629d      	str	r5, [r3, #40]	; 0x28
24054f42:	b1fe      	cbz	r6, 24054f84 <LTDC_SetConfig+0xf8>
24054f44:	3e01      	subs	r6, #1
24054f46:	2e06      	cmp	r6, #6
24054f48:	d81e      	bhi.n	24054f88 <LTDC_SetConfig+0xfc>
24054f4a:	4d10      	ldr	r5, [pc, #64]	; (24054f8c <LTDC_SetConfig+0x100>)
24054f4c:	5dad      	ldrb	r5, [r5, r6]
24054f4e:	6ade      	ldr	r6, [r3, #44]	; 0x2c
24054f50:	eba4 040c 	sub.w	r4, r4, ip
24054f54:	f006 26e0 	and.w	r6, r6, #3758153728	; 0xe000e000
24054f58:	436c      	muls	r4, r5
24054f5a:	62de      	str	r6, [r3, #44]	; 0x2c
24054f5c:	3407      	adds	r4, #7
24054f5e:	6a8e      	ldr	r6, [r1, #40]	; 0x28
24054f60:	6ac9      	ldr	r1, [r1, #44]	; 0x2c
24054f62:	436e      	muls	r6, r5
24054f64:	ea44 4406 	orr.w	r4, r4, r6, lsl #16
24054f68:	62dc      	str	r4, [r3, #44]	; 0x2c
24054f6a:	6b1c      	ldr	r4, [r3, #48]	; 0x30
24054f6c:	f424 64ff 	bic.w	r4, r4, #2040	; 0x7f8
24054f70:	f024 0407 	bic.w	r4, r4, #7
24054f74:	631c      	str	r4, [r3, #48]	; 0x30
24054f76:	6319      	str	r1, [r3, #48]	; 0x30
24054f78:	5883      	ldr	r3, [r0, r2]
24054f7a:	f043 0301 	orr.w	r3, r3, #1
24054f7e:	5083      	str	r3, [r0, r2]
24054f80:	e8bd 83f0 	ldmia.w	sp!, {r4, r5, r6, r7, r8, r9, pc}
24054f84:	2504      	movs	r5, #4
24054f86:	e7e2      	b.n	24054f4e <LTDC_SetConfig+0xc2>
24054f88:	2501      	movs	r5, #1
24054f8a:	e7e0      	b.n	24054f4e <LTDC_SetConfig+0xc2>
24054f8c:	2405bb40 	.word	0x2405bb40

24054f90 <HAL_LTDC_Init>:
24054f90:	b538      	push	{r3, r4, r5, lr}
24054f92:	4604      	mov	r4, r0
24054f94:	2800      	cmp	r0, #0
24054f96:	d063      	beq.n	24055060 <HAL_LTDC_Init+0xd0>
24054f98:	f890 30a1 	ldrb.w	r3, [r0, #161]	; 0xa1
24054f9c:	f003 02ff 	and.w	r2, r3, #255	; 0xff
24054fa0:	b91b      	cbnz	r3, 24054faa <HAL_LTDC_Init+0x1a>
24054fa2:	f880 20a0 	strb.w	r2, [r0, #160]	; 0xa0
24054fa6:	f7fd f871 	bl	2405208c <HAL_LTDC_MspInit>
24054faa:	2302      	movs	r3, #2
24054fac:	f884 30a1 	strb.w	r3, [r4, #161]	; 0xa1
24054fb0:	6823      	ldr	r3, [r4, #0]
24054fb2:	699a      	ldr	r2, [r3, #24]
24054fb4:	f022 4270 	bic.w	r2, r2, #4026531840	; 0xf0000000
24054fb8:	619a      	str	r2, [r3, #24]
24054fba:	6999      	ldr	r1, [r3, #24]
24054fbc:	e9d4 2001 	ldrd	r2, r0, [r4, #4]
24054fc0:	4302      	orrs	r2, r0
24054fc2:	68e0      	ldr	r0, [r4, #12]
24054fc4:	4302      	orrs	r2, r0
24054fc6:	6920      	ldr	r0, [r4, #16]
24054fc8:	4302      	orrs	r2, r0
24054fca:	6960      	ldr	r0, [r4, #20]
24054fcc:	430a      	orrs	r2, r1
24054fce:	4925      	ldr	r1, [pc, #148]	; (24055064 <HAL_LTDC_Init+0xd4>)
24054fd0:	619a      	str	r2, [r3, #24]
24054fd2:	689a      	ldr	r2, [r3, #8]
24054fd4:	400a      	ands	r2, r1
24054fd6:	609a      	str	r2, [r3, #8]
24054fd8:	689a      	ldr	r2, [r3, #8]
24054fda:	ea42 4200 	orr.w	r2, r2, r0, lsl #16
24054fde:	69a0      	ldr	r0, [r4, #24]
24054fe0:	4302      	orrs	r2, r0
24054fe2:	69e0      	ldr	r0, [r4, #28]
24054fe4:	609a      	str	r2, [r3, #8]
24054fe6:	68da      	ldr	r2, [r3, #12]
24054fe8:	400a      	ands	r2, r1
24054fea:	60da      	str	r2, [r3, #12]
24054fec:	68da      	ldr	r2, [r3, #12]
24054fee:	ea42 4200 	orr.w	r2, r2, r0, lsl #16
24054ff2:	6a20      	ldr	r0, [r4, #32]
24054ff4:	4302      	orrs	r2, r0
24054ff6:	6a60      	ldr	r0, [r4, #36]	; 0x24
24054ff8:	60da      	str	r2, [r3, #12]
24054ffa:	691a      	ldr	r2, [r3, #16]
24054ffc:	400a      	ands	r2, r1
24054ffe:	611a      	str	r2, [r3, #16]
24055000:	691a      	ldr	r2, [r3, #16]
24055002:	ea42 4200 	orr.w	r2, r2, r0, lsl #16
24055006:	6aa0      	ldr	r0, [r4, #40]	; 0x28
24055008:	4302      	orrs	r2, r0
2405500a:	611a      	str	r2, [r3, #16]
2405500c:	695a      	ldr	r2, [r3, #20]
2405500e:	400a      	ands	r2, r1
24055010:	6ae1      	ldr	r1, [r4, #44]	; 0x2c
24055012:	615a      	str	r2, [r3, #20]
24055014:	695a      	ldr	r2, [r3, #20]
24055016:	ea42 4201 	orr.w	r2, r2, r1, lsl #16
2405501a:	6b21      	ldr	r1, [r4, #48]	; 0x30
2405501c:	430a      	orrs	r2, r1
2405501e:	615a      	str	r2, [r3, #20]
24055020:	6ada      	ldr	r2, [r3, #44]	; 0x2c
24055022:	f894 0035 	ldrb.w	r0, [r4, #53]	; 0x35
24055026:	f002 427f 	and.w	r2, r2, #4278190080	; 0xff000000
2405502a:	f894 1036 	ldrb.w	r1, [r4, #54]	; 0x36
2405502e:	62da      	str	r2, [r3, #44]	; 0x2c
24055030:	6add      	ldr	r5, [r3, #44]	; 0x2c
24055032:	f894 2034 	ldrb.w	r2, [r4, #52]	; 0x34
24055036:	432a      	orrs	r2, r5
24055038:	ea42 2200 	orr.w	r2, r2, r0, lsl #8
2405503c:	2000      	movs	r0, #0
2405503e:	ea42 4201 	orr.w	r2, r2, r1, lsl #16
24055042:	62da      	str	r2, [r3, #44]	; 0x2c
24055044:	6b5a      	ldr	r2, [r3, #52]	; 0x34
24055046:	f042 0206 	orr.w	r2, r2, #6
2405504a:	635a      	str	r2, [r3, #52]	; 0x34
2405504c:	699a      	ldr	r2, [r3, #24]
2405504e:	f042 0201 	orr.w	r2, r2, #1
24055052:	619a      	str	r2, [r3, #24]
24055054:	2301      	movs	r3, #1
24055056:	f8c4 00a4 	str.w	r0, [r4, #164]	; 0xa4
2405505a:	f884 30a1 	strb.w	r3, [r4, #161]	; 0xa1
2405505e:	bd38      	pop	{r3, r4, r5, pc}
24055060:	2001      	movs	r0, #1
24055062:	e7fc      	b.n	2405505e <HAL_LTDC_Init+0xce>
24055064:	f000f800 	.word	0xf000f800

24055068 <HAL_LTDC_ErrorCallback>:
24055068:	4770      	bx	lr

2405506a <HAL_LTDC_LineEventCallback>:
2405506a:	4770      	bx	lr

2405506c <HAL_LTDC_IRQHandler>:
2405506c:	6803      	ldr	r3, [r0, #0]
2405506e:	b570      	push	{r4, r5, r6, lr}
24055070:	6b9e      	ldr	r6, [r3, #56]	; 0x38
24055072:	4604      	mov	r4, r0
24055074:	6b5d      	ldr	r5, [r3, #52]	; 0x34
24055076:	0772      	lsls	r2, r6, #29
24055078:	d514      	bpl.n	240550a4 <HAL_LTDC_IRQHandler+0x38>
2405507a:	0769      	lsls	r1, r5, #29
2405507c:	d512      	bpl.n	240550a4 <HAL_LTDC_IRQHandler+0x38>
2405507e:	6b5a      	ldr	r2, [r3, #52]	; 0x34
24055080:	f022 0204 	bic.w	r2, r2, #4
24055084:	635a      	str	r2, [r3, #52]	; 0x34
24055086:	2204      	movs	r2, #4
24055088:	63da      	str	r2, [r3, #60]	; 0x3c
2405508a:	f8d0 30a4 	ldr.w	r3, [r0, #164]	; 0xa4
2405508e:	f043 0301 	orr.w	r3, r3, #1
24055092:	f8c0 30a4 	str.w	r3, [r0, #164]	; 0xa4
24055096:	2300      	movs	r3, #0
24055098:	f880 20a1 	strb.w	r2, [r0, #161]	; 0xa1
2405509c:	f880 30a0 	strb.w	r3, [r0, #160]	; 0xa0
240550a0:	f7ff ffe2 	bl	24055068 <HAL_LTDC_ErrorCallback>
240550a4:	07b2      	lsls	r2, r6, #30
240550a6:	d516      	bpl.n	240550d6 <HAL_LTDC_IRQHandler+0x6a>
240550a8:	07ab      	lsls	r3, r5, #30
240550aa:	d514      	bpl.n	240550d6 <HAL_LTDC_IRQHandler+0x6a>
240550ac:	6823      	ldr	r3, [r4, #0]
240550ae:	4620      	mov	r0, r4
240550b0:	6b5a      	ldr	r2, [r3, #52]	; 0x34
240550b2:	f022 0202 	bic.w	r2, r2, #2
240550b6:	635a      	str	r2, [r3, #52]	; 0x34
240550b8:	2202      	movs	r2, #2
240550ba:	63da      	str	r2, [r3, #60]	; 0x3c
240550bc:	f8d4 30a4 	ldr.w	r3, [r4, #164]	; 0xa4
240550c0:	4313      	orrs	r3, r2
240550c2:	f8c4 30a4 	str.w	r3, [r4, #164]	; 0xa4
240550c6:	2304      	movs	r3, #4
240550c8:	f884 30a1 	strb.w	r3, [r4, #161]	; 0xa1
240550cc:	2300      	movs	r3, #0
240550ce:	f884 30a0 	strb.w	r3, [r4, #160]	; 0xa0
240550d2:	f7ff ffc9 	bl	24055068 <HAL_LTDC_ErrorCallback>
240550d6:	07f0      	lsls	r0, r6, #31
240550d8:	d510      	bpl.n	240550fc <HAL_LTDC_IRQHandler+0x90>
240550da:	07e9      	lsls	r1, r5, #31
240550dc:	d50e      	bpl.n	240550fc <HAL_LTDC_IRQHandler+0x90>
240550de:	6823      	ldr	r3, [r4, #0]
240550e0:	4620      	mov	r0, r4
240550e2:	6b5a      	ldr	r2, [r3, #52]	; 0x34
240550e4:	f022 0201 	bic.w	r2, r2, #1
240550e8:	635a      	str	r2, [r3, #52]	; 0x34
240550ea:	2201      	movs	r2, #1
240550ec:	63da      	str	r2, [r3, #60]	; 0x3c
240550ee:	2300      	movs	r3, #0
240550f0:	f884 20a1 	strb.w	r2, [r4, #161]	; 0xa1
240550f4:	f884 30a0 	strb.w	r3, [r4, #160]	; 0xa0
240550f8:	f7ff ffb7 	bl	2405506a <HAL_LTDC_LineEventCallback>
240550fc:	0732      	lsls	r2, r6, #28
240550fe:	d511      	bpl.n	24055124 <HAL_LTDC_IRQHandler+0xb8>
24055100:	072b      	lsls	r3, r5, #28
24055102:	d50f      	bpl.n	24055124 <HAL_LTDC_IRQHandler+0xb8>
24055104:	6823      	ldr	r3, [r4, #0]
24055106:	4620      	mov	r0, r4
24055108:	6b5a      	ldr	r2, [r3, #52]	; 0x34
2405510a:	f022 0208 	bic.w	r2, r2, #8
2405510e:	635a      	str	r2, [r3, #52]	; 0x34
24055110:	2208      	movs	r2, #8
24055112:	63da      	str	r2, [r3, #60]	; 0x3c
24055114:	2301      	movs	r3, #1
24055116:	f884 30a1 	strb.w	r3, [r4, #161]	; 0xa1
2405511a:	2300      	movs	r3, #0
2405511c:	f884 30a0 	strb.w	r3, [r4, #160]	; 0xa0
24055120:	f7fb ff42 	bl	24050fa8 <HAL_LTDC_ReloadEventCallback>
24055124:	bd70      	pop	{r4, r5, r6, pc}

24055126 <HAL_LTDC_ConfigLayer>:
24055126:	e92d 41f0 	stmdb	sp!, {r4, r5, r6, r7, r8, lr}
2405512a:	f890 30a0 	ldrb.w	r3, [r0, #160]	; 0xa0
2405512e:	4606      	mov	r6, r0
24055130:	460f      	mov	r7, r1
24055132:	4694      	mov	ip, r2
24055134:	2b01      	cmp	r3, #1
24055136:	f04f 0002 	mov.w	r0, #2
2405513a:	d01f      	beq.n	2405517c <HAL_LTDC_ConfigLayer+0x56>
2405513c:	2434      	movs	r4, #52	; 0x34
2405513e:	f04f 0801 	mov.w	r8, #1
24055142:	460d      	mov	r5, r1
24055144:	f886 00a1 	strb.w	r0, [r6, #161]	; 0xa1
24055148:	fb04 6402 	mla	r4, r4, r2, r6
2405514c:	f886 80a0 	strb.w	r8, [r6, #160]	; 0xa0
24055150:	3438      	adds	r4, #56	; 0x38
24055152:	cd0f      	ldmia	r5!, {r0, r1, r2, r3}
24055154:	c40f      	stmia	r4!, {r0, r1, r2, r3}
24055156:	cd0f      	ldmia	r5!, {r0, r1, r2, r3}
24055158:	c40f      	stmia	r4!, {r0, r1, r2, r3}
2405515a:	cd0f      	ldmia	r5!, {r0, r1, r2, r3}
2405515c:	c40f      	stmia	r4!, {r0, r1, r2, r3}
2405515e:	682b      	ldr	r3, [r5, #0]
24055160:	4630      	mov	r0, r6
24055162:	4662      	mov	r2, ip
24055164:	4639      	mov	r1, r7
24055166:	6023      	str	r3, [r4, #0]
24055168:	f7ff fe90 	bl	24054e8c <LTDC_SetConfig>
2405516c:	6833      	ldr	r3, [r6, #0]
2405516e:	2000      	movs	r0, #0
24055170:	f8c3 8024 	str.w	r8, [r3, #36]	; 0x24
24055174:	f886 80a1 	strb.w	r8, [r6, #161]	; 0xa1
24055178:	f886 00a0 	strb.w	r0, [r6, #160]	; 0xa0
2405517c:	e8bd 81f0 	ldmia.w	sp!, {r4, r5, r6, r7, r8, pc}

24055180 <HAL_LTDC_SetAddress>:
24055180:	b570      	push	{r4, r5, r6, lr}
24055182:	f890 30a0 	ldrb.w	r3, [r0, #160]	; 0xa0
24055186:	4604      	mov	r4, r0
24055188:	2b01      	cmp	r3, #1
2405518a:	f04f 0302 	mov.w	r3, #2
2405518e:	d015      	beq.n	240551bc <HAL_LTDC_SetAddress+0x3c>
24055190:	f880 30a1 	strb.w	r3, [r0, #161]	; 0xa1
24055194:	2334      	movs	r3, #52	; 0x34
24055196:	2601      	movs	r6, #1
24055198:	4353      	muls	r3, r2
2405519a:	f880 60a0 	strb.w	r6, [r0, #160]	; 0xa0
2405519e:	18c5      	adds	r5, r0, r3
240551a0:	65e9      	str	r1, [r5, #92]	; 0x5c
240551a2:	f103 0138 	add.w	r1, r3, #56	; 0x38
240551a6:	4401      	add	r1, r0
240551a8:	f7ff fe70 	bl	24054e8c <LTDC_SetConfig>
240551ac:	6823      	ldr	r3, [r4, #0]
240551ae:	2000      	movs	r0, #0
240551b0:	625e      	str	r6, [r3, #36]	; 0x24
240551b2:	f884 60a1 	strb.w	r6, [r4, #161]	; 0xa1
240551b6:	f884 00a0 	strb.w	r0, [r4, #160]	; 0xa0
240551ba:	bd70      	pop	{r4, r5, r6, pc}
240551bc:	4618      	mov	r0, r3
240551be:	e7fc      	b.n	240551ba <HAL_LTDC_SetAddress+0x3a>

240551c0 <HAL_LTDC_Reload>:
240551c0:	f890 30a0 	ldrb.w	r3, [r0, #160]	; 0xa0
240551c4:	2b01      	cmp	r3, #1
240551c6:	f04f 0302 	mov.w	r3, #2
240551ca:	d00d      	beq.n	240551e8 <HAL_LTDC_Reload+0x28>
240551cc:	f880 30a1 	strb.w	r3, [r0, #161]	; 0xa1
240551d0:	6803      	ldr	r3, [r0, #0]
240551d2:	6b5a      	ldr	r2, [r3, #52]	; 0x34
240551d4:	f042 0208 	orr.w	r2, r2, #8
240551d8:	635a      	str	r2, [r3, #52]	; 0x34
240551da:	6259      	str	r1, [r3, #36]	; 0x24
240551dc:	2301      	movs	r3, #1
240551de:	f880 30a1 	strb.w	r3, [r0, #161]	; 0xa1
240551e2:	2300      	movs	r3, #0
240551e4:	f880 30a0 	strb.w	r3, [r0, #160]	; 0xa0
240551e8:	4618      	mov	r0, r3
240551ea:	4770      	bx	lr

240551ec <HAL_MDMA_Abort_IT>:
240551ec:	b128      	cbz	r0, 240551fa <HAL_MDMA_Abort_IT+0xe>
240551ee:	f890 303d 	ldrb.w	r3, [r0, #61]	; 0x3d
240551f2:	2b02      	cmp	r3, #2
240551f4:	d003      	beq.n	240551fe <HAL_MDMA_Abort_IT+0x12>
240551f6:	2380      	movs	r3, #128	; 0x80
240551f8:	6683      	str	r3, [r0, #104]	; 0x68
240551fa:	2001      	movs	r0, #1
240551fc:	4770      	bx	lr
240551fe:	6802      	ldr	r2, [r0, #0]
24055200:	2304      	movs	r3, #4
24055202:	f880 303d 	strb.w	r3, [r0, #61]	; 0x3d
24055206:	2000      	movs	r0, #0
24055208:	68d3      	ldr	r3, [r2, #12]
2405520a:	f023 0301 	bic.w	r3, r3, #1
2405520e:	60d3      	str	r3, [r2, #12]
24055210:	4770      	bx	lr
	...

24055214 <OSPI_ConfigCmd>:
24055214:	e92d 43f0 	stmdb	sp!, {r4, r5, r6, r7, r8, r9, lr}
24055218:	6804      	ldr	r4, [r0, #0]
2405521a:	6823      	ldr	r3, [r4, #0]
2405521c:	f023 5340 	bic.w	r3, r3, #805306368	; 0x30000000
24055220:	6023      	str	r3, [r4, #0]
24055222:	6883      	ldr	r3, [r0, #8]
24055224:	b92b      	cbnz	r3, 24055232 <OSPI_ConfigCmd+0x1e>
24055226:	6823      	ldr	r3, [r4, #0]
24055228:	684a      	ldr	r2, [r1, #4]
2405522a:	f023 0380 	bic.w	r3, r3, #128	; 0x80
2405522e:	4313      	orrs	r3, r2
24055230:	6023      	str	r3, [r4, #0]
24055232:	680b      	ldr	r3, [r1, #0]
24055234:	2b02      	cmp	r3, #2
24055236:	d150      	bne.n	240552da <OSPI_ConfigCmd+0xc6>
24055238:	f504 72c0 	add.w	r2, r4, #384	; 0x180
2405523c:	f504 76c4 	add.w	r6, r4, #392	; 0x188
24055240:	f504 75c8 	add.w	r5, r4, #400	; 0x190
24055244:	f504 7cd0 	add.w	ip, r4, #416	; 0x1a0
24055248:	e9d1 3712 	ldrd	r3, r7, [r1, #72]	; 0x48
2405524c:	433b      	orrs	r3, r7
2405524e:	6013      	str	r3, [r2, #0]
24055250:	6acb      	ldr	r3, [r1, #44]	; 0x2c
24055252:	b16b      	cbz	r3, 24055270 <OSPI_ConfigCmd+0x5c>
24055254:	6a8b      	ldr	r3, [r1, #40]	; 0x28
24055256:	f8cc 3000 	str.w	r3, [ip]
2405525a:	6b4f      	ldr	r7, [r1, #52]	; 0x34
2405525c:	6acb      	ldr	r3, [r1, #44]	; 0x2c
2405525e:	f8d2 c000 	ldr.w	ip, [r2]
24055262:	433b      	orrs	r3, r7
24055264:	6b0f      	ldr	r7, [r1, #48]	; 0x30
24055266:	433b      	orrs	r3, r7
24055268:	f42c 177c 	bic.w	r7, ip, #4128768	; 0x3f0000
2405526c:	433b      	orrs	r3, r7
2405526e:	6013      	str	r3, [r2, #0]
24055270:	6833      	ldr	r3, [r6, #0]
24055272:	6c4f      	ldr	r7, [r1, #68]	; 0x44
24055274:	f023 031f 	bic.w	r3, r3, #31
24055278:	433b      	orrs	r3, r7
2405527a:	6033      	str	r3, [r6, #0]
2405527c:	f8d1 e038 	ldr.w	lr, [r1, #56]	; 0x38
24055280:	f1be 0f00 	cmp.w	lr, #0
24055284:	d004      	beq.n	24055290 <OSPI_ConfigCmd+0x7c>
24055286:	680b      	ldr	r3, [r1, #0]
24055288:	b913      	cbnz	r3, 24055290 <OSPI_ConfigCmd+0x7c>
2405528a:	6bcb      	ldr	r3, [r1, #60]	; 0x3c
2405528c:	3b01      	subs	r3, #1
2405528e:	6423      	str	r3, [r4, #64]	; 0x40
24055290:	68cb      	ldr	r3, [r1, #12]
24055292:	f8d1 901c 	ldr.w	r9, [r1, #28]
24055296:	2b00      	cmp	r3, #0
24055298:	d07a      	beq.n	24055390 <OSPI_ConfigCmd+0x17c>
2405529a:	e9d1 c804 	ldrd	ip, r8, [r1, #16]
2405529e:	f1b9 0f00 	cmp.w	r9, #0
240552a2:	d04a      	beq.n	2405533a <OSPI_ConfigCmd+0x126>
240552a4:	e9d1 6708 	ldrd	r6, r7, [r1, #32]
240552a8:	f1be 0f00 	cmp.w	lr, #0
240552ac:	d029      	beq.n	24055302 <OSPI_ConfigCmd+0xee>
240552ae:	ea4e 0303 	orr.w	r3, lr, r3
240552b2:	6810      	ldr	r0, [r2, #0]
240552b4:	ea43 0309 	orr.w	r3, r3, r9
240552b8:	ea43 0308 	orr.w	r3, r3, r8
240552bc:	ea43 030c 	orr.w	r3, r3, ip
240552c0:	433b      	orrs	r3, r7
240552c2:	4333      	orrs	r3, r6
240552c4:	6c0e      	ldr	r6, [r1, #64]	; 0x40
240552c6:	4333      	orrs	r3, r6
240552c8:	4e43      	ldr	r6, [pc, #268]	; (240553d8 <OSPI_ConfigCmd+0x1c4>)
240552ca:	4006      	ands	r6, r0
240552cc:	4333      	orrs	r3, r6
240552ce:	6013      	str	r3, [r2, #0]
240552d0:	688b      	ldr	r3, [r1, #8]
240552d2:	602b      	str	r3, [r5, #0]
240552d4:	698b      	ldr	r3, [r1, #24]
240552d6:	64a3      	str	r3, [r4, #72]	; 0x48
240552d8:	e043      	b.n	24055362 <OSPI_ConfigCmd+0x14e>
240552da:	2b03      	cmp	r3, #3
240552dc:	bf01      	itttt	eq
240552de:	f504 72a0 	addeq.w	r2, r4, #320	; 0x140
240552e2:	f504 76a4 	addeq.w	r6, r4, #328	; 0x148
240552e6:	f504 75a8 	addeq.w	r5, r4, #336	; 0x150
240552ea:	f504 7cb0 	addeq.w	ip, r4, #352	; 0x160
240552ee:	bf1f      	itttt	ne
240552f0:	f504 7280 	addne.w	r2, r4, #256	; 0x100
240552f4:	f504 7684 	addne.w	r6, r4, #264	; 0x108
240552f8:	f504 7588 	addne.w	r5, r4, #272	; 0x110
240552fc:	f504 7c90 	addne.w	ip, r4, #288	; 0x120
24055300:	e7a2      	b.n	24055248 <OSPI_ConfigCmd+0x34>
24055302:	ea43 0309 	orr.w	r3, r3, r9
24055306:	f8d2 e000 	ldr.w	lr, [r2]
2405530a:	ea43 0308 	orr.w	r3, r3, r8
2405530e:	f42e 5e7c 	bic.w	lr, lr, #16128	; 0x3f00
24055312:	ea43 030c 	orr.w	r3, r3, ip
24055316:	f02e 0e3f 	bic.w	lr, lr, #63	; 0x3f
2405531a:	433b      	orrs	r3, r7
2405531c:	4333      	orrs	r3, r6
2405531e:	ea43 030e 	orr.w	r3, r3, lr
24055322:	6013      	str	r3, [r2, #0]
24055324:	6ac3      	ldr	r3, [r0, #44]	; 0x2c
24055326:	f1b3 5f80 	cmp.w	r3, #268435456	; 0x10000000
2405532a:	d1d1      	bne.n	240552d0 <OSPI_ConfigCmd+0xbc>
2405532c:	694b      	ldr	r3, [r1, #20]
2405532e:	2b08      	cmp	r3, #8
24055330:	d1ce      	bne.n	240552d0 <OSPI_ConfigCmd+0xbc>
24055332:	6813      	ldr	r3, [r2, #0]
24055334:	f043 6300 	orr.w	r3, r3, #134217728	; 0x8000000
24055338:	e7c9      	b.n	240552ce <OSPI_ConfigCmd+0xba>
2405533a:	f1be 0f00 	cmp.w	lr, #0
2405533e:	d013      	beq.n	24055368 <OSPI_ConfigCmd+0x154>
24055340:	ea4e 0303 	orr.w	r3, lr, r3
24055344:	6810      	ldr	r0, [r2, #0]
24055346:	6c0c      	ldr	r4, [r1, #64]	; 0x40
24055348:	ea43 0308 	orr.w	r3, r3, r8
2405534c:	f020 6070 	bic.w	r0, r0, #251658240	; 0xf000000
24055350:	ea43 030c 	orr.w	r3, r3, ip
24055354:	f020 003f 	bic.w	r0, r0, #63	; 0x3f
24055358:	4323      	orrs	r3, r4
2405535a:	4303      	orrs	r3, r0
2405535c:	6013      	str	r3, [r2, #0]
2405535e:	688b      	ldr	r3, [r1, #8]
24055360:	602b      	str	r3, [r5, #0]
24055362:	2000      	movs	r0, #0
24055364:	e8bd 83f0 	ldmia.w	sp!, {r4, r5, r6, r7, r8, r9, pc}
24055368:	6814      	ldr	r4, [r2, #0]
2405536a:	ea43 0308 	orr.w	r3, r3, r8
2405536e:	f024 043f 	bic.w	r4, r4, #63	; 0x3f
24055372:	ea43 030c 	orr.w	r3, r3, ip
24055376:	4323      	orrs	r3, r4
24055378:	6013      	str	r3, [r2, #0]
2405537a:	6ac3      	ldr	r3, [r0, #44]	; 0x2c
2405537c:	f1b3 5f80 	cmp.w	r3, #268435456	; 0x10000000
24055380:	d1ed      	bne.n	2405535e <OSPI_ConfigCmd+0x14a>
24055382:	694b      	ldr	r3, [r1, #20]
24055384:	2b08      	cmp	r3, #8
24055386:	d1ea      	bne.n	2405535e <OSPI_ConfigCmd+0x14a>
24055388:	6813      	ldr	r3, [r2, #0]
2405538a:	f043 6300 	orr.w	r3, r3, #134217728	; 0x8000000
2405538e:	e7e5      	b.n	2405535c <OSPI_ConfigCmd+0x148>
24055390:	f1b9 0f00 	cmp.w	r9, #0
24055394:	d01b      	beq.n	240553ce <OSPI_ConfigCmd+0x1ba>
24055396:	e9d1 6008 	ldrd	r6, r0, [r1, #32]
2405539a:	f1be 0f00 	cmp.w	lr, #0
2405539e:	d00d      	beq.n	240553bc <OSPI_ConfigCmd+0x1a8>
240553a0:	ea4e 0309 	orr.w	r3, lr, r9
240553a4:	6815      	ldr	r5, [r2, #0]
240553a6:	4303      	orrs	r3, r0
240553a8:	6c08      	ldr	r0, [r1, #64]	; 0x40
240553aa:	4333      	orrs	r3, r6
240553ac:	4303      	orrs	r3, r0
240553ae:	f025 6070 	bic.w	r0, r5, #251658240	; 0xf000000
240553b2:	f420 507c 	bic.w	r0, r0, #16128	; 0x3f00
240553b6:	4303      	orrs	r3, r0
240553b8:	6013      	str	r3, [r2, #0]
240553ba:	e78b      	b.n	240552d4 <OSPI_ConfigCmd+0xc0>
240553bc:	6813      	ldr	r3, [r2, #0]
240553be:	ea40 0009 	orr.w	r0, r0, r9
240553c2:	f423 537c 	bic.w	r3, r3, #16128	; 0x3f00
240553c6:	4330      	orrs	r0, r6
240553c8:	4318      	orrs	r0, r3
240553ca:	6010      	str	r0, [r2, #0]
240553cc:	e782      	b.n	240552d4 <OSPI_ConfigCmd+0xc0>
240553ce:	2308      	movs	r3, #8
240553d0:	6543      	str	r3, [r0, #84]	; 0x54
240553d2:	2001      	movs	r0, #1
240553d4:	e7c6      	b.n	24055364 <OSPI_ConfigCmd+0x150>
240553d6:	bf00      	nop
240553d8:	f0ffc0c0 	.word	0xf0ffc0c0

240553dc <OSPI_WaitFlagStateUntilTimeout>:
240553dc:	e92d 41f0 	stmdb	sp!, {r4, r5, r6, r7, r8, lr}
240553e0:	f8dd 8018 	ldr.w	r8, [sp, #24]
240553e4:	4604      	mov	r4, r0
240553e6:	460e      	mov	r6, r1
240553e8:	4615      	mov	r5, r2
240553ea:	461f      	mov	r7, r3
240553ec:	6822      	ldr	r2, [r4, #0]
240553ee:	6a13      	ldr	r3, [r2, #32]
240553f0:	4233      	tst	r3, r6
240553f2:	bf14      	ite	ne
240553f4:	2301      	movne	r3, #1
240553f6:	2300      	moveq	r3, #0
240553f8:	42ab      	cmp	r3, r5
240553fa:	d101      	bne.n	24055400 <OSPI_WaitFlagStateUntilTimeout+0x24>
240553fc:	2000      	movs	r0, #0
240553fe:	e012      	b.n	24055426 <OSPI_WaitFlagStateUntilTimeout+0x4a>
24055400:	f1b8 3fff 	cmp.w	r8, #4294967295
24055404:	d0f3      	beq.n	240553ee <OSPI_WaitFlagStateUntilTimeout+0x12>
24055406:	f7fd fa8d 	bl	24052924 <HAL_GetTick>
2405540a:	1bc0      	subs	r0, r0, r7
2405540c:	4540      	cmp	r0, r8
2405540e:	d802      	bhi.n	24055416 <OSPI_WaitFlagStateUntilTimeout+0x3a>
24055410:	f1b8 0f00 	cmp.w	r8, #0
24055414:	d1ea      	bne.n	240553ec <OSPI_WaitFlagStateUntilTimeout+0x10>
24055416:	f44f 7300 	mov.w	r3, #512	; 0x200
2405541a:	2001      	movs	r0, #1
2405541c:	6523      	str	r3, [r4, #80]	; 0x50
2405541e:	6d63      	ldr	r3, [r4, #84]	; 0x54
24055420:	f043 0301 	orr.w	r3, r3, #1
24055424:	6563      	str	r3, [r4, #84]	; 0x54
24055426:	e8bd 81f0 	ldmia.w	sp!, {r4, r5, r6, r7, r8, pc}
	...

2405542c <HAL_OSPI_Init>:
2405542c:	b5f0      	push	{r4, r5, r6, r7, lr}
2405542e:	4604      	mov	r4, r0
24055430:	b085      	sub	sp, #20
24055432:	f7fd fa77 	bl	24052924 <HAL_GetTick>
24055436:	4603      	mov	r3, r0
24055438:	2c00      	cmp	r4, #0
2405543a:	d067      	beq.n	2405550c <HAL_OSPI_Init+0xe0>
2405543c:	2000      	movs	r0, #0
2405543e:	6560      	str	r0, [r4, #84]	; 0x54
24055440:	6d26      	ldr	r6, [r4, #80]	; 0x50
24055442:	2e00      	cmp	r6, #0
24055444:	d160      	bne.n	24055508 <HAL_OSPI_Init+0xdc>
24055446:	4620      	mov	r0, r4
24055448:	9303      	str	r3, [sp, #12]
2405544a:	f7fc ff0d 	bl	24052268 <HAL_OSPI_MspInit>
2405544e:	6b60      	ldr	r0, [r4, #52]	; 0x34
24055450:	68e1      	ldr	r1, [r4, #12]
24055452:	f241 3288 	movw	r2, #5000	; 0x1388
24055456:	6825      	ldr	r5, [r4, #0]
24055458:	4301      	orrs	r1, r0
2405545a:	69e0      	ldr	r0, [r4, #28]
2405545c:	68af      	ldr	r7, [r5, #8]
2405545e:	4301      	orrs	r1, r0
24055460:	482b      	ldr	r0, [pc, #172]	; (24055510 <HAL_OSPI_Init+0xe4>)
24055462:	65a2      	str	r2, [r4, #88]	; 0x58
24055464:	4038      	ands	r0, r7
24055466:	9b03      	ldr	r3, [sp, #12]
24055468:	4301      	orrs	r1, r0
2405546a:	6920      	ldr	r0, [r4, #16]
2405546c:	3801      	subs	r0, #1
2405546e:	ea41 4100 	orr.w	r1, r1, r0, lsl #16
24055472:	6960      	ldr	r0, [r4, #20]
24055474:	3801      	subs	r0, #1
24055476:	ea41 2100 	orr.w	r1, r1, r0, lsl #8
2405547a:	6a20      	ldr	r0, [r4, #32]
2405547c:	60a9      	str	r1, [r5, #8]
2405547e:	68e9      	ldr	r1, [r5, #12]
24055480:	f421 21e0 	bic.w	r1, r1, #458752	; 0x70000
24055484:	4301      	orrs	r1, r0
24055486:	6b20      	ldr	r0, [r4, #48]	; 0x30
24055488:	60e9      	str	r1, [r5, #12]
2405548a:	6ba1      	ldr	r1, [r4, #56]	; 0x38
2405548c:	ea41 4100 	orr.w	r1, r1, r0, lsl #16
24055490:	6860      	ldr	r0, [r4, #4]
24055492:	6129      	str	r1, [r5, #16]
24055494:	3801      	subs	r0, #1
24055496:	6be1      	ldr	r1, [r4, #60]	; 0x3c
24055498:	6169      	str	r1, [r5, #20]
2405549a:	6829      	ldr	r1, [r5, #0]
2405549c:	f421 51f8 	bic.w	r1, r1, #7936	; 0x1f00
240554a0:	ea41 2100 	orr.w	r1, r1, r0, lsl #8
240554a4:	4620      	mov	r0, r4
240554a6:	6029      	str	r1, [r5, #0]
240554a8:	2120      	movs	r1, #32
240554aa:	9200      	str	r2, [sp, #0]
240554ac:	4632      	mov	r2, r6
240554ae:	f7ff ff95 	bl	240553dc <OSPI_WaitFlagStateUntilTimeout>
240554b2:	bb48      	cbnz	r0, 24055508 <HAL_OSPI_Init+0xdc>
240554b4:	6823      	ldr	r3, [r4, #0]
240554b6:	6a62      	ldr	r2, [r4, #36]	; 0x24
240554b8:	68d9      	ldr	r1, [r3, #12]
240554ba:	3a01      	subs	r2, #1
240554bc:	f021 01ff 	bic.w	r1, r1, #255	; 0xff
240554c0:	430a      	orrs	r2, r1
240554c2:	68a1      	ldr	r1, [r4, #8]
240554c4:	60da      	str	r2, [r3, #12]
240554c6:	681a      	ldr	r2, [r3, #0]
240554c8:	f022 0240 	bic.w	r2, r2, #64	; 0x40
240554cc:	430a      	orrs	r2, r1
240554ce:	601a      	str	r2, [r3, #0]
240554d0:	f8d3 1108 	ldr.w	r1, [r3, #264]	; 0x108
240554d4:	e9d4 250a 	ldrd	r2, r5, [r4, #40]	; 0x28
240554d8:	f021 41a0 	bic.w	r1, r1, #1342177280	; 0x50000000
240554dc:	432a      	orrs	r2, r5
240554de:	430a      	orrs	r2, r1
240554e0:	f8c3 2108 	str.w	r2, [r3, #264]	; 0x108
240554e4:	681a      	ldr	r2, [r3, #0]
240554e6:	f042 0201 	orr.w	r2, r2, #1
240554ea:	601a      	str	r2, [r3, #0]
240554ec:	69a2      	ldr	r2, [r4, #24]
240554ee:	2a02      	cmp	r2, #2
240554f0:	d103      	bne.n	240554fa <HAL_OSPI_Init+0xce>
240554f2:	689a      	ldr	r2, [r3, #8]
240554f4:	f042 0202 	orr.w	r2, r2, #2
240554f8:	609a      	str	r2, [r3, #8]
240554fa:	68e3      	ldr	r3, [r4, #12]
240554fc:	f1b3 6f80 	cmp.w	r3, #67108864	; 0x4000000
24055500:	bf0c      	ite	eq
24055502:	2301      	moveq	r3, #1
24055504:	2302      	movne	r3, #2
24055506:	6523      	str	r3, [r4, #80]	; 0x50
24055508:	b005      	add	sp, #20
2405550a:	bdf0      	pop	{r4, r5, r6, r7, pc}
2405550c:	2001      	movs	r0, #1
2405550e:	e7fb      	b.n	24055508 <HAL_OSPI_Init+0xdc>
24055510:	f8e0f8f4 	.word	0xf8e0f8f4

24055514 <HAL_OSPI_Command>:
24055514:	b57f      	push	{r0, r1, r2, r3, r4, r5, r6, lr}
24055516:	4604      	mov	r4, r0
24055518:	4616      	mov	r6, r2
2405551a:	460d      	mov	r5, r1
2405551c:	f7fd fa02 	bl	24052924 <HAL_GetTick>
24055520:	6d22      	ldr	r2, [r4, #80]	; 0x50
24055522:	4603      	mov	r3, r0
24055524:	2a02      	cmp	r2, #2
24055526:	d107      	bne.n	24055538 <HAL_OSPI_Command+0x24>
24055528:	68e2      	ldr	r2, [r4, #12]
2405552a:	f1b2 6f80 	cmp.w	r2, #67108864	; 0x4000000
2405552e:	d109      	bne.n	24055544 <HAL_OSPI_Command+0x30>
24055530:	2310      	movs	r3, #16
24055532:	2001      	movs	r0, #1
24055534:	6563      	str	r3, [r4, #84]	; 0x54
24055536:	e01f      	b.n	24055578 <HAL_OSPI_Command+0x64>
24055538:	2a14      	cmp	r2, #20
2405553a:	d11f      	bne.n	2405557c <HAL_OSPI_Command+0x68>
2405553c:	682a      	ldr	r2, [r5, #0]
2405553e:	3a02      	subs	r2, #2
24055540:	2a01      	cmp	r2, #1
24055542:	d8f5      	bhi.n	24055530 <HAL_OSPI_Command+0x1c>
24055544:	2200      	movs	r2, #0
24055546:	2120      	movs	r1, #32
24055548:	4620      	mov	r0, r4
2405554a:	9600      	str	r6, [sp, #0]
2405554c:	9303      	str	r3, [sp, #12]
2405554e:	f7ff ff45 	bl	240553dc <OSPI_WaitFlagStateUntilTimeout>
24055552:	b988      	cbnz	r0, 24055578 <HAL_OSPI_Command+0x64>
24055554:	6560      	str	r0, [r4, #84]	; 0x54
24055556:	4629      	mov	r1, r5
24055558:	4620      	mov	r0, r4
2405555a:	f7ff fe5b 	bl	24055214 <OSPI_ConfigCmd>
2405555e:	b958      	cbnz	r0, 24055578 <HAL_OSPI_Command+0x64>
24055560:	6baa      	ldr	r2, [r5, #56]	; 0x38
24055562:	9b03      	ldr	r3, [sp, #12]
24055564:	b992      	cbnz	r2, 2405558c <HAL_OSPI_Command+0x78>
24055566:	2201      	movs	r2, #1
24055568:	2102      	movs	r1, #2
2405556a:	4620      	mov	r0, r4
2405556c:	9600      	str	r6, [sp, #0]
2405556e:	f7ff ff35 	bl	240553dc <OSPI_WaitFlagStateUntilTimeout>
24055572:	6823      	ldr	r3, [r4, #0]
24055574:	2202      	movs	r2, #2
24055576:	625a      	str	r2, [r3, #36]	; 0x24
24055578:	b004      	add	sp, #16
2405557a:	bd70      	pop	{r4, r5, r6, pc}
2405557c:	2a24      	cmp	r2, #36	; 0x24
2405557e:	d1d7      	bne.n	24055530 <HAL_OSPI_Command+0x1c>
24055580:	682a      	ldr	r2, [r5, #0]
24055582:	f022 0202 	bic.w	r2, r2, #2
24055586:	2a01      	cmp	r2, #1
24055588:	d1d2      	bne.n	24055530 <HAL_OSPI_Command+0x1c>
2405558a:	e7db      	b.n	24055544 <HAL_OSPI_Command+0x30>
2405558c:	682b      	ldr	r3, [r5, #0]
2405558e:	b90b      	cbnz	r3, 24055594 <HAL_OSPI_Command+0x80>
24055590:	2304      	movs	r3, #4
24055592:	e005      	b.n	240555a0 <HAL_OSPI_Command+0x8c>
24055594:	2b01      	cmp	r3, #1
24055596:	d105      	bne.n	240555a4 <HAL_OSPI_Command+0x90>
24055598:	6d23      	ldr	r3, [r4, #80]	; 0x50
2405559a:	2b24      	cmp	r3, #36	; 0x24
2405559c:	d0f8      	beq.n	24055590 <HAL_OSPI_Command+0x7c>
2405559e:	2314      	movs	r3, #20
240555a0:	6523      	str	r3, [r4, #80]	; 0x50
240555a2:	e7e9      	b.n	24055578 <HAL_OSPI_Command+0x64>
240555a4:	2b02      	cmp	r3, #2
240555a6:	d1e7      	bne.n	24055578 <HAL_OSPI_Command+0x64>
240555a8:	6d23      	ldr	r3, [r4, #80]	; 0x50
240555aa:	2b14      	cmp	r3, #20
240555ac:	d0f0      	beq.n	24055590 <HAL_OSPI_Command+0x7c>
240555ae:	2324      	movs	r3, #36	; 0x24
240555b0:	e7f6      	b.n	240555a0 <HAL_OSPI_Command+0x8c>

240555b2 <HAL_OSPI_Transmit>:
240555b2:	b5f0      	push	{r4, r5, r6, r7, lr}
240555b4:	4604      	mov	r4, r0
240555b6:	460f      	mov	r7, r1
240555b8:	b085      	sub	sp, #20
240555ba:	4615      	mov	r5, r2
240555bc:	f7fd f9b2 	bl	24052924 <HAL_GetTick>
240555c0:	6826      	ldr	r6, [r4, #0]
240555c2:	4603      	mov	r3, r0
240555c4:	b91f      	cbnz	r7, 240555ce <HAL_OSPI_Transmit+0x1c>
240555c6:	2308      	movs	r3, #8
240555c8:	2001      	movs	r0, #1
240555ca:	6563      	str	r3, [r4, #84]	; 0x54
240555cc:	e02d      	b.n	2405562a <HAL_OSPI_Transmit+0x78>
240555ce:	6d22      	ldr	r2, [r4, #80]	; 0x50
240555d0:	2a04      	cmp	r2, #4
240555d2:	d12c      	bne.n	2405562e <HAL_OSPI_Transmit+0x7c>
240555d4:	6c32      	ldr	r2, [r6, #64]	; 0x40
240555d6:	6427      	str	r7, [r4, #64]	; 0x40
240555d8:	3201      	adds	r2, #1
240555da:	64a2      	str	r2, [r4, #72]	; 0x48
240555dc:	6ca2      	ldr	r2, [r4, #72]	; 0x48
240555de:	6462      	str	r2, [r4, #68]	; 0x44
240555e0:	6832      	ldr	r2, [r6, #0]
240555e2:	f022 5240 	bic.w	r2, r2, #805306368	; 0x30000000
240555e6:	6032      	str	r2, [r6, #0]
240555e8:	2201      	movs	r2, #1
240555ea:	2104      	movs	r1, #4
240555ec:	4620      	mov	r0, r4
240555ee:	9500      	str	r5, [sp, #0]
240555f0:	9303      	str	r3, [sp, #12]
240555f2:	f7ff fef3 	bl	240553dc <OSPI_WaitFlagStateUntilTimeout>
240555f6:	b9c0      	cbnz	r0, 2405562a <HAL_OSPI_Transmit+0x78>
240555f8:	6c22      	ldr	r2, [r4, #64]	; 0x40
240555fa:	9b03      	ldr	r3, [sp, #12]
240555fc:	7812      	ldrb	r2, [r2, #0]
240555fe:	f886 2050 	strb.w	r2, [r6, #80]	; 0x50
24055602:	6c22      	ldr	r2, [r4, #64]	; 0x40
24055604:	3201      	adds	r2, #1
24055606:	6422      	str	r2, [r4, #64]	; 0x40
24055608:	6ca2      	ldr	r2, [r4, #72]	; 0x48
2405560a:	3a01      	subs	r2, #1
2405560c:	64a2      	str	r2, [r4, #72]	; 0x48
2405560e:	6ca2      	ldr	r2, [r4, #72]	; 0x48
24055610:	2a00      	cmp	r2, #0
24055612:	d1e9      	bne.n	240555e8 <HAL_OSPI_Transmit+0x36>
24055614:	2201      	movs	r2, #1
24055616:	2102      	movs	r1, #2
24055618:	4620      	mov	r0, r4
2405561a:	9500      	str	r5, [sp, #0]
2405561c:	f7ff fede 	bl	240553dc <OSPI_WaitFlagStateUntilTimeout>
24055620:	b918      	cbnz	r0, 2405562a <HAL_OSPI_Transmit+0x78>
24055622:	2302      	movs	r3, #2
24055624:	6822      	ldr	r2, [r4, #0]
24055626:	6253      	str	r3, [r2, #36]	; 0x24
24055628:	6523      	str	r3, [r4, #80]	; 0x50
2405562a:	b005      	add	sp, #20
2405562c:	bdf0      	pop	{r4, r5, r6, r7, pc}
2405562e:	2310      	movs	r3, #16
24055630:	e7ca      	b.n	240555c8 <HAL_OSPI_Transmit+0x16>

24055632 <HAL_OSPI_Receive>:
24055632:	b5f0      	push	{r4, r5, r6, r7, lr}
24055634:	4604      	mov	r4, r0
24055636:	b085      	sub	sp, #20
24055638:	460f      	mov	r7, r1
2405563a:	4616      	mov	r6, r2
2405563c:	f7fd f972 	bl	24052924 <HAL_GetTick>
24055640:	6825      	ldr	r5, [r4, #0]
24055642:	4603      	mov	r3, r0
24055644:	6ca8      	ldr	r0, [r5, #72]	; 0x48
24055646:	f8d5 c110 	ldr.w	ip, [r5, #272]	; 0x110
2405564a:	b91f      	cbnz	r7, 24055654 <HAL_OSPI_Receive+0x22>
2405564c:	2308      	movs	r3, #8
2405564e:	2001      	movs	r0, #1
24055650:	6563      	str	r3, [r4, #84]	; 0x54
24055652:	e034      	b.n	240556be <HAL_OSPI_Receive+0x8c>
24055654:	6d22      	ldr	r2, [r4, #80]	; 0x50
24055656:	2a04      	cmp	r2, #4
24055658:	d13b      	bne.n	240556d2 <HAL_OSPI_Receive+0xa0>
2405565a:	6c2a      	ldr	r2, [r5, #64]	; 0x40
2405565c:	6427      	str	r7, [r4, #64]	; 0x40
2405565e:	3201      	adds	r2, #1
24055660:	64a2      	str	r2, [r4, #72]	; 0x48
24055662:	6ca2      	ldr	r2, [r4, #72]	; 0x48
24055664:	6462      	str	r2, [r4, #68]	; 0x44
24055666:	6829      	ldr	r1, [r5, #0]
24055668:	68e2      	ldr	r2, [r4, #12]
2405566a:	f021 5140 	bic.w	r1, r1, #805306368	; 0x30000000
2405566e:	f1b2 6f80 	cmp.w	r2, #67108864	; 0x4000000
24055672:	f041 5180 	orr.w	r1, r1, #268435456	; 0x10000000
24055676:	6029      	str	r1, [r5, #0]
24055678:	d123      	bne.n	240556c2 <HAL_OSPI_Receive+0x90>
2405567a:	64a8      	str	r0, [r5, #72]	; 0x48
2405567c:	2201      	movs	r2, #1
2405567e:	2106      	movs	r1, #6
24055680:	4620      	mov	r0, r4
24055682:	9600      	str	r6, [sp, #0]
24055684:	9303      	str	r3, [sp, #12]
24055686:	f7ff fea9 	bl	240553dc <OSPI_WaitFlagStateUntilTimeout>
2405568a:	b9c0      	cbnz	r0, 240556be <HAL_OSPI_Receive+0x8c>
2405568c:	f895 1050 	ldrb.w	r1, [r5, #80]	; 0x50
24055690:	6c22      	ldr	r2, [r4, #64]	; 0x40
24055692:	9b03      	ldr	r3, [sp, #12]
24055694:	7011      	strb	r1, [r2, #0]
24055696:	6c22      	ldr	r2, [r4, #64]	; 0x40
24055698:	3201      	adds	r2, #1
2405569a:	6422      	str	r2, [r4, #64]	; 0x40
2405569c:	6ca2      	ldr	r2, [r4, #72]	; 0x48
2405569e:	3a01      	subs	r2, #1
240556a0:	64a2      	str	r2, [r4, #72]	; 0x48
240556a2:	6ca2      	ldr	r2, [r4, #72]	; 0x48
240556a4:	2a00      	cmp	r2, #0
240556a6:	d1e9      	bne.n	2405567c <HAL_OSPI_Receive+0x4a>
240556a8:	2201      	movs	r2, #1
240556aa:	2102      	movs	r1, #2
240556ac:	4620      	mov	r0, r4
240556ae:	9600      	str	r6, [sp, #0]
240556b0:	f7ff fe94 	bl	240553dc <OSPI_WaitFlagStateUntilTimeout>
240556b4:	b918      	cbnz	r0, 240556be <HAL_OSPI_Receive+0x8c>
240556b6:	2302      	movs	r3, #2
240556b8:	6822      	ldr	r2, [r4, #0]
240556ba:	6253      	str	r3, [r2, #36]	; 0x24
240556bc:	6523      	str	r3, [r4, #80]	; 0x50
240556be:	b005      	add	sp, #20
240556c0:	bdf0      	pop	{r4, r5, r6, r7, pc}
240556c2:	f8d5 2100 	ldr.w	r2, [r5, #256]	; 0x100
240556c6:	f412 6fe0 	tst.w	r2, #1792	; 0x700
240556ca:	d1d6      	bne.n	2405567a <HAL_OSPI_Receive+0x48>
240556cc:	f8c5 c110 	str.w	ip, [r5, #272]	; 0x110
240556d0:	e7d4      	b.n	2405567c <HAL_OSPI_Receive+0x4a>
240556d2:	2310      	movs	r3, #16
240556d4:	e7bb      	b.n	2405564e <HAL_OSPI_Receive+0x1c>

240556d6 <HAL_OSPI_MemoryMapped>:
240556d6:	b537      	push	{r0, r1, r2, r4, r5, lr}
240556d8:	4604      	mov	r4, r0
240556da:	460d      	mov	r5, r1
240556dc:	f7fd f922 	bl	24052924 <HAL_GetTick>
240556e0:	4603      	mov	r3, r0
240556e2:	6d22      	ldr	r2, [r4, #80]	; 0x50
240556e4:	2a04      	cmp	r2, #4
240556e6:	d121      	bne.n	2405572c <HAL_OSPI_MemoryMapped+0x56>
240556e8:	6da2      	ldr	r2, [r4, #88]	; 0x58
240556ea:	2120      	movs	r1, #32
240556ec:	4620      	mov	r0, r4
240556ee:	9200      	str	r2, [sp, #0]
240556f0:	2200      	movs	r2, #0
240556f2:	f7ff fe73 	bl	240553dc <OSPI_WaitFlagStateUntilTimeout>
240556f6:	b9b8      	cbnz	r0, 24055728 <HAL_OSPI_MemoryMapped+0x52>
240556f8:	6829      	ldr	r1, [r5, #0]
240556fa:	2388      	movs	r3, #136	; 0x88
240556fc:	6822      	ldr	r2, [r4, #0]
240556fe:	2908      	cmp	r1, #8
24055700:	6523      	str	r3, [r4, #80]	; 0x50
24055702:	d108      	bne.n	24055716 <HAL_OSPI_MemoryMapped+0x40>
24055704:	686b      	ldr	r3, [r5, #4]
24055706:	f8c2 3130 	str.w	r3, [r2, #304]	; 0x130
2405570a:	2310      	movs	r3, #16
2405570c:	6253      	str	r3, [r2, #36]	; 0x24
2405570e:	6813      	ldr	r3, [r2, #0]
24055710:	f443 1380 	orr.w	r3, r3, #1048576	; 0x100000
24055714:	6013      	str	r3, [r2, #0]
24055716:	6813      	ldr	r3, [r2, #0]
24055718:	f023 5340 	bic.w	r3, r3, #805306368	; 0x30000000
2405571c:	f023 0308 	bic.w	r3, r3, #8
24055720:	430b      	orrs	r3, r1
24055722:	f043 5340 	orr.w	r3, r3, #805306368	; 0x30000000
24055726:	6013      	str	r3, [r2, #0]
24055728:	b003      	add	sp, #12
2405572a:	bd30      	pop	{r4, r5, pc}
2405572c:	2310      	movs	r3, #16
2405572e:	2001      	movs	r0, #1
24055730:	6563      	str	r3, [r4, #84]	; 0x54
24055732:	e7f9      	b.n	24055728 <HAL_OSPI_MemoryMapped+0x52>

24055734 <HAL_OSPI_ErrorCallback>:
24055734:	4770      	bx	lr

24055736 <HAL_OSPI_AbortCpltCallback>:
24055736:	4770      	bx	lr

24055738 <OSPI_DMAAbortCplt>:
24055738:	6c00      	ldr	r0, [r0, #64]	; 0x40
2405573a:	b508      	push	{r3, lr}
2405573c:	2300      	movs	r3, #0
2405573e:	6483      	str	r3, [r0, #72]	; 0x48
24055740:	6d03      	ldr	r3, [r0, #80]	; 0x50
24055742:	f5b3 7f80 	cmp.w	r3, #256	; 0x100
24055746:	d114      	bne.n	24055772 <OSPI_DMAAbortCplt+0x3a>
24055748:	6803      	ldr	r3, [r0, #0]
2405574a:	6a1a      	ldr	r2, [r3, #32]
2405574c:	f012 0f20 	tst.w	r2, #32
24055750:	f04f 0202 	mov.w	r2, #2
24055754:	d009      	beq.n	2405576a <OSPI_DMAAbortCplt+0x32>
24055756:	625a      	str	r2, [r3, #36]	; 0x24
24055758:	681a      	ldr	r2, [r3, #0]
2405575a:	f442 3200 	orr.w	r2, r2, #131072	; 0x20000
2405575e:	601a      	str	r2, [r3, #0]
24055760:	681a      	ldr	r2, [r3, #0]
24055762:	f042 0202 	orr.w	r2, r2, #2
24055766:	601a      	str	r2, [r3, #0]
24055768:	bd08      	pop	{r3, pc}
2405576a:	6502      	str	r2, [r0, #80]	; 0x50
2405576c:	f7ff ffe3 	bl	24055736 <HAL_OSPI_AbortCpltCallback>
24055770:	e7fa      	b.n	24055768 <OSPI_DMAAbortCplt+0x30>
24055772:	2302      	movs	r3, #2
24055774:	6503      	str	r3, [r0, #80]	; 0x50
24055776:	f7ff ffdd 	bl	24055734 <HAL_OSPI_ErrorCallback>
2405577a:	e7f5      	b.n	24055768 <OSPI_DMAAbortCplt+0x30>

2405577c <HAL_OSPI_FifoThresholdCallback>:
2405577c:	4770      	bx	lr

2405577e <HAL_OSPI_CmdCpltCallback>:
2405577e:	4770      	bx	lr

24055780 <HAL_OSPI_RxCpltCallback>:
24055780:	4770      	bx	lr

24055782 <HAL_OSPI_TxCpltCallback>:
24055782:	4770      	bx	lr

24055784 <HAL_OSPI_StatusMatchCallback>:
24055784:	4770      	bx	lr

24055786 <HAL_OSPI_TimeOutCallback>:
24055786:	4770      	bx	lr

24055788 <HAL_OSPI_IRQHandler>:
24055788:	b538      	push	{r3, r4, r5, lr}
2405578a:	6803      	ldr	r3, [r0, #0]
2405578c:	4604      	mov	r4, r0
2405578e:	6a1a      	ldr	r2, [r3, #32]
24055790:	6818      	ldr	r0, [r3, #0]
24055792:	0755      	lsls	r5, r2, #29
24055794:	6d21      	ldr	r1, [r4, #80]	; 0x50
24055796:	d51f      	bpl.n	240557d8 <HAL_OSPI_IRQHandler+0x50>
24055798:	0345      	lsls	r5, r0, #13
2405579a:	d51d      	bpl.n	240557d8 <HAL_OSPI_IRQHandler+0x50>
2405579c:	2918      	cmp	r1, #24
2405579e:	d114      	bne.n	240557ca <HAL_OSPI_IRQHandler+0x42>
240557a0:	6c22      	ldr	r2, [r4, #64]	; 0x40
240557a2:	7812      	ldrb	r2, [r2, #0]
240557a4:	f883 2050 	strb.w	r2, [r3, #80]	; 0x50
240557a8:	6c23      	ldr	r3, [r4, #64]	; 0x40
240557aa:	3301      	adds	r3, #1
240557ac:	6423      	str	r3, [r4, #64]	; 0x40
240557ae:	6ca3      	ldr	r3, [r4, #72]	; 0x48
240557b0:	3b01      	subs	r3, #1
240557b2:	64a3      	str	r3, [r4, #72]	; 0x48
240557b4:	6ca3      	ldr	r3, [r4, #72]	; 0x48
240557b6:	b923      	cbnz	r3, 240557c2 <HAL_OSPI_IRQHandler+0x3a>
240557b8:	6822      	ldr	r2, [r4, #0]
240557ba:	6813      	ldr	r3, [r2, #0]
240557bc:	f423 2380 	bic.w	r3, r3, #262144	; 0x40000
240557c0:	6013      	str	r3, [r2, #0]
240557c2:	4620      	mov	r0, r4
240557c4:	f7ff ffda 	bl	2405577c <HAL_OSPI_FifoThresholdCallback>
240557c8:	bd38      	pop	{r3, r4, r5, pc}
240557ca:	2928      	cmp	r1, #40	; 0x28
240557cc:	d1f2      	bne.n	240557b4 <HAL_OSPI_IRQHandler+0x2c>
240557ce:	6c22      	ldr	r2, [r4, #64]	; 0x40
240557d0:	f893 3050 	ldrb.w	r3, [r3, #80]	; 0x50
240557d4:	7013      	strb	r3, [r2, #0]
240557d6:	e7e7      	b.n	240557a8 <HAL_OSPI_IRQHandler+0x20>
240557d8:	0795      	lsls	r5, r2, #30
240557da:	d53e      	bpl.n	2405585a <HAL_OSPI_IRQHandler+0xd2>
240557dc:	0385      	lsls	r5, r0, #14
240557de:	d53c      	bpl.n	2405585a <HAL_OSPI_IRQHandler+0xd2>
240557e0:	2928      	cmp	r1, #40	; 0x28
240557e2:	d11d      	bne.n	24055820 <HAL_OSPI_IRQHandler+0x98>
240557e4:	6ca1      	ldr	r1, [r4, #72]	; 0x48
240557e6:	b169      	cbz	r1, 24055804 <HAL_OSPI_IRQHandler+0x7c>
240557e8:	f412 5f7c 	tst.w	r2, #16128	; 0x3f00
240557ec:	d00a      	beq.n	24055804 <HAL_OSPI_IRQHandler+0x7c>
240557ee:	f893 3050 	ldrb.w	r3, [r3, #80]	; 0x50
240557f2:	6c22      	ldr	r2, [r4, #64]	; 0x40
240557f4:	7013      	strb	r3, [r2, #0]
240557f6:	6c23      	ldr	r3, [r4, #64]	; 0x40
240557f8:	3301      	adds	r3, #1
240557fa:	6423      	str	r3, [r4, #64]	; 0x40
240557fc:	6ca3      	ldr	r3, [r4, #72]	; 0x48
240557fe:	3b01      	subs	r3, #1
24055800:	64a3      	str	r3, [r4, #72]	; 0x48
24055802:	e7e1      	b.n	240557c8 <HAL_OSPI_IRQHandler+0x40>
24055804:	6ca2      	ldr	r2, [r4, #72]	; 0x48
24055806:	2a00      	cmp	r2, #0
24055808:	d1de      	bne.n	240557c8 <HAL_OSPI_IRQHandler+0x40>
2405580a:	2102      	movs	r1, #2
2405580c:	4620      	mov	r0, r4
2405580e:	6259      	str	r1, [r3, #36]	; 0x24
24055810:	681a      	ldr	r2, [r3, #0]
24055812:	f422 22e0 	bic.w	r2, r2, #458752	; 0x70000
24055816:	601a      	str	r2, [r3, #0]
24055818:	6521      	str	r1, [r4, #80]	; 0x50
2405581a:	f7ff ffb1 	bl	24055780 <HAL_OSPI_RxCpltCallback>
2405581e:	e7d3      	b.n	240557c8 <HAL_OSPI_IRQHandler+0x40>
24055820:	2002      	movs	r0, #2
24055822:	2918      	cmp	r1, #24
24055824:	6258      	str	r0, [r3, #36]	; 0x24
24055826:	681a      	ldr	r2, [r3, #0]
24055828:	f422 22e0 	bic.w	r2, r2, #458752	; 0x70000
2405582c:	601a      	str	r2, [r3, #0]
2405582e:	6520      	str	r0, [r4, #80]	; 0x50
24055830:	d103      	bne.n	2405583a <HAL_OSPI_IRQHandler+0xb2>
24055832:	4620      	mov	r0, r4
24055834:	f7ff ffa5 	bl	24055782 <HAL_OSPI_TxCpltCallback>
24055838:	e7c6      	b.n	240557c8 <HAL_OSPI_IRQHandler+0x40>
2405583a:	2908      	cmp	r1, #8
2405583c:	d103      	bne.n	24055846 <HAL_OSPI_IRQHandler+0xbe>
2405583e:	4620      	mov	r0, r4
24055840:	f7ff ff9d 	bl	2405577e <HAL_OSPI_CmdCpltCallback>
24055844:	e7c0      	b.n	240557c8 <HAL_OSPI_IRQHandler+0x40>
24055846:	f5b1 7f80 	cmp.w	r1, #256	; 0x100
2405584a:	d1bd      	bne.n	240557c8 <HAL_OSPI_IRQHandler+0x40>
2405584c:	6d63      	ldr	r3, [r4, #84]	; 0x54
2405584e:	4620      	mov	r0, r4
24055850:	2b00      	cmp	r3, #0
24055852:	d131      	bne.n	240558b8 <HAL_OSPI_IRQHandler+0x130>
24055854:	f7ff ff6f 	bl	24055736 <HAL_OSPI_AbortCpltCallback>
24055858:	e7b6      	b.n	240557c8 <HAL_OSPI_IRQHandler+0x40>
2405585a:	0711      	lsls	r1, r2, #28
2405585c:	d510      	bpl.n	24055880 <HAL_OSPI_IRQHandler+0xf8>
2405585e:	0305      	lsls	r5, r0, #12
24055860:	d50e      	bpl.n	24055880 <HAL_OSPI_IRQHandler+0xf8>
24055862:	2208      	movs	r2, #8
24055864:	625a      	str	r2, [r3, #36]	; 0x24
24055866:	681a      	ldr	r2, [r3, #0]
24055868:	0250      	lsls	r0, r2, #9
2405586a:	d505      	bpl.n	24055878 <HAL_OSPI_IRQHandler+0xf0>
2405586c:	681a      	ldr	r2, [r3, #0]
2405586e:	f422 2210 	bic.w	r2, r2, #589824	; 0x90000
24055872:	601a      	str	r2, [r3, #0]
24055874:	2302      	movs	r3, #2
24055876:	6523      	str	r3, [r4, #80]	; 0x50
24055878:	4620      	mov	r0, r4
2405587a:	f7ff ff83 	bl	24055784 <HAL_OSPI_StatusMatchCallback>
2405587e:	e7a3      	b.n	240557c8 <HAL_OSPI_IRQHandler+0x40>
24055880:	07d1      	lsls	r1, r2, #31
24055882:	d51c      	bpl.n	240558be <HAL_OSPI_IRQHandler+0x136>
24055884:	03c5      	lsls	r5, r0, #15
24055886:	d51a      	bpl.n	240558be <HAL_OSPI_IRQHandler+0x136>
24055888:	2201      	movs	r2, #1
2405588a:	2502      	movs	r5, #2
2405588c:	625a      	str	r2, [r3, #36]	; 0x24
2405588e:	681a      	ldr	r2, [r3, #0]
24055890:	f422 12f8 	bic.w	r2, r2, #2031616	; 0x1f0000
24055894:	601a      	str	r2, [r3, #0]
24055896:	6565      	str	r5, [r4, #84]	; 0x54
24055898:	681a      	ldr	r2, [r3, #0]
2405589a:	0750      	lsls	r0, r2, #29
2405589c:	d50a      	bpl.n	240558b4 <HAL_OSPI_IRQHandler+0x12c>
2405589e:	681a      	ldr	r2, [r3, #0]
240558a0:	6ce0      	ldr	r0, [r4, #76]	; 0x4c
240558a2:	f022 0204 	bic.w	r2, r2, #4
240558a6:	601a      	str	r2, [r3, #0]
240558a8:	4b0a      	ldr	r3, [pc, #40]	; (240558d4 <HAL_OSPI_IRQHandler+0x14c>)
240558aa:	6583      	str	r3, [r0, #88]	; 0x58
240558ac:	f7ff fc9e 	bl	240551ec <HAL_MDMA_Abort_IT>
240558b0:	2800      	cmp	r0, #0
240558b2:	d089      	beq.n	240557c8 <HAL_OSPI_IRQHandler+0x40>
240558b4:	4620      	mov	r0, r4
240558b6:	6525      	str	r5, [r4, #80]	; 0x50
240558b8:	f7ff ff3c 	bl	24055734 <HAL_OSPI_ErrorCallback>
240558bc:	e784      	b.n	240557c8 <HAL_OSPI_IRQHandler+0x40>
240558be:	06d1      	lsls	r1, r2, #27
240558c0:	d582      	bpl.n	240557c8 <HAL_OSPI_IRQHandler+0x40>
240558c2:	02c2      	lsls	r2, r0, #11
240558c4:	d580      	bpl.n	240557c8 <HAL_OSPI_IRQHandler+0x40>
240558c6:	2210      	movs	r2, #16
240558c8:	4620      	mov	r0, r4
240558ca:	625a      	str	r2, [r3, #36]	; 0x24
240558cc:	f7ff ff5b 	bl	24055786 <HAL_OSPI_TimeOutCallback>
240558d0:	e77a      	b.n	240557c8 <HAL_OSPI_IRQHandler+0x40>
240558d2:	bf00      	nop
240558d4:	24055739 	.word	0x24055739

240558d8 <HAL_OSPIM_Config>:
240558d8:	4b9f      	ldr	r3, [pc, #636]	; (24055b58 <HAL_OSPIM_Config+0x280>)
240558da:	f04f 0c01 	mov.w	ip, #1
240558de:	6802      	ldr	r2, [r0, #0]
240558e0:	e92d 4ff0 	stmdb	sp!, {r4, r5, r6, r7, r8, r9, sl, fp, lr}
240558e4:	429a      	cmp	r2, r3
240558e6:	b08f      	sub	sp, #60	; 0x3c
240558e8:	f04f 0600 	mov.w	r6, #0
240558ec:	f8df e270 	ldr.w	lr, [pc, #624]	; 24055b60 <HAL_OSPIM_Config+0x288>
240558f0:	bf0b      	itete	eq
240558f2:	f04f 0801 	moveq.w	r8, #1
240558f6:	f04f 0800 	movne.w	r8, #0
240558fa:	2400      	moveq	r4, #0
240558fc:	2401      	movne	r4, #1
240558fe:	ab02      	add	r3, sp, #8
24055900:	f8df 9260 	ldr.w	r9, [pc, #608]	; 24055b64 <HAL_OSPIM_Config+0x28c>
24055904:	f1bc 0f02 	cmp.w	ip, #2
24055908:	611e      	str	r6, [r3, #16]
2405590a:	e9c3 6600 	strd	r6, r6, [r3]
2405590e:	e9c3 6602 	strd	r6, r6, [r3, #8]
24055912:	f040 811c 	bne.w	24055b4e <HAL_OSPIM_Config+0x276>
24055916:	f8de 2000 	ldr.w	r2, [lr]
2405591a:	f012 0f01 	tst.w	r2, #1
2405591e:	bf0c      	ite	eq
24055920:	464d      	moveq	r5, r9
24055922:	f44f 7500 	movne.w	r5, #512	; 0x200
24055926:	2700      	movs	r7, #0
24055928:	eb0e 0287 	add.w	r2, lr, r7, lsl #2
2405592c:	1c78      	adds	r0, r7, #1
2405592e:	6852      	ldr	r2, [r2, #4]
24055930:	07d7      	lsls	r7, r2, #31
24055932:	d504      	bpl.n	2405593e <HAL_OSPIM_Config+0x66>
24055934:	ea82 0705 	eor.w	r7, r2, r5
24055938:	07bf      	lsls	r7, r7, #30
2405593a:	bf58      	it	pl
2405593c:	6018      	strpl	r0, [r3, #0]
2405593e:	06d7      	lsls	r7, r2, #27
24055940:	d504      	bpl.n	2405594c <HAL_OSPIM_Config+0x74>
24055942:	ea82 0705 	eor.w	r7, r2, r5
24055946:	06bf      	lsls	r7, r7, #26
24055948:	bf58      	it	pl
2405594a:	6058      	strpl	r0, [r3, #4]
2405594c:	05d7      	lsls	r7, r2, #23
2405594e:	d504      	bpl.n	2405595a <HAL_OSPIM_Config+0x82>
24055950:	ea82 0705 	eor.w	r7, r2, r5
24055954:	05bf      	lsls	r7, r7, #22
24055956:	bf58      	it	pl
24055958:	6098      	strpl	r0, [r3, #8]
2405595a:	03d7      	lsls	r7, r2, #15
2405595c:	d50a      	bpl.n	24055974 <HAL_OSPIM_Config+0x9c>
2405595e:	ea82 0705 	eor.w	r7, r2, r5
24055962:	037f      	lsls	r7, r7, #13
24055964:	d406      	bmi.n	24055974 <HAL_OSPIM_Config+0x9c>
24055966:	0397      	lsls	r7, r2, #14
24055968:	bf54      	ite	pl
2405596a:	f440 3780 	orrpl.w	r7, r0, #65536	; 0x10000
2405596e:	f040 7780 	orrmi.w	r7, r0, #16777216	; 0x1000000
24055972:	60df      	str	r7, [r3, #12]
24055974:	01d7      	lsls	r7, r2, #7
24055976:	d50a      	bpl.n	2405598e <HAL_OSPIM_Config+0xb6>
24055978:	ea82 0705 	eor.w	r7, r2, r5
2405597c:	017f      	lsls	r7, r7, #5
2405597e:	d406      	bmi.n	2405598e <HAL_OSPIM_Config+0xb6>
24055980:	0197      	lsls	r7, r2, #6
24055982:	bf54      	ite	pl
24055984:	f440 3280 	orrpl.w	r2, r0, #65536	; 0x10000
24055988:	f040 7280 	orrmi.w	r2, r0, #16777216	; 0x1000000
2405598c:	611a      	str	r2, [r3, #16]
2405598e:	2802      	cmp	r0, #2
24055990:	f04f 0701 	mov.w	r7, #1
24055994:	d1c8      	bne.n	24055928 <HAL_OSPIM_Config+0x50>
24055996:	f1bc 0f02 	cmp.w	ip, #2
2405599a:	f103 0318 	add.w	r3, r3, #24
2405599e:	f040 80d4 	bne.w	24055b4a <HAL_OSPIM_Config+0x272>
240559a2:	4b6d      	ldr	r3, [pc, #436]	; (24055b58 <HAL_OSPIM_Config+0x280>)
240559a4:	681d      	ldr	r5, [r3, #0]
240559a6:	403d      	ands	r5, r7
240559a8:	d004      	beq.n	240559b4 <HAL_OSPIM_Config+0xdc>
240559aa:	681a      	ldr	r2, [r3, #0]
240559ac:	463d      	mov	r5, r7
240559ae:	f022 0201 	bic.w	r2, r2, #1
240559b2:	601a      	str	r2, [r3, #0]
240559b4:	4b69      	ldr	r3, [pc, #420]	; (24055b5c <HAL_OSPIM_Config+0x284>)
240559b6:	681a      	ldr	r2, [r3, #0]
240559b8:	07d0      	lsls	r0, r2, #31
240559ba:	f140 80ca 	bpl.w	24055b52 <HAL_OSPIM_Config+0x27a>
240559be:	681a      	ldr	r2, [r3, #0]
240559c0:	f022 0201 	bic.w	r2, r2, #1
240559c4:	601a      	str	r2, [r3, #0]
240559c6:	f045 0302 	orr.w	r3, r5, #2
240559ca:	9301      	str	r3, [sp, #4]
240559cc:	ab0e      	add	r3, sp, #56	; 0x38
240559ce:	2018      	movs	r0, #24
240559d0:	fb00 3004 	mla	r0, r0, r4, r3
240559d4:	4b62      	ldr	r3, [pc, #392]	; (24055b60 <HAL_OSPIM_Config+0x288>)
240559d6:	f850 2c28 	ldr.w	r2, [r0, #-40]
240559da:	3a01      	subs	r2, #1
240559dc:	eb03 0282 	add.w	r2, r3, r2, lsl #2
240559e0:	6857      	ldr	r7, [r2, #4]
240559e2:	f427 7780 	bic.w	r7, r7, #256	; 0x100
240559e6:	6057      	str	r7, [r2, #4]
240559e8:	681a      	ldr	r2, [r3, #0]
240559ea:	07d2      	lsls	r2, r2, #31
240559ec:	f140 80be 	bpl.w	24055b6c <HAL_OSPIM_Config+0x294>
240559f0:	681a      	ldr	r2, [r3, #0]
240559f2:	f022 0201 	bic.w	r2, r2, #1
240559f6:	601a      	str	r2, [r3, #0]
240559f8:	f1b8 0f00 	cmp.w	r8, #0
240559fc:	d02c      	beq.n	24055a58 <HAL_OSPIM_Config+0x180>
240559fe:	9a08      	ldr	r2, [sp, #32]
24055a00:	3a01      	subs	r2, #1
24055a02:	eb03 0282 	add.w	r2, r3, r2, lsl #2
24055a06:	6850      	ldr	r0, [r2, #4]
24055a08:	f040 0002 	orr.w	r0, r0, #2
24055a0c:	6050      	str	r0, [r2, #4]
24055a0e:	9a09      	ldr	r2, [sp, #36]	; 0x24
24055a10:	b132      	cbz	r2, 24055a20 <HAL_OSPIM_Config+0x148>
24055a12:	3a01      	subs	r2, #1
24055a14:	eb03 0382 	add.w	r3, r3, r2, lsl #2
24055a18:	685a      	ldr	r2, [r3, #4]
24055a1a:	f042 0220 	orr.w	r2, r2, #32
24055a1e:	605a      	str	r2, [r3, #4]
24055a20:	9b0b      	ldr	r3, [sp, #44]	; 0x2c
24055a22:	b15b      	cbz	r3, 24055a3c <HAL_OSPIM_Config+0x164>
24055a24:	3b01      	subs	r3, #1
24055a26:	f003 0301 	and.w	r3, r3, #1
24055a2a:	009b      	lsls	r3, r3, #2
24055a2c:	f103 43a4 	add.w	r3, r3, #1375731712	; 0x52000000
24055a30:	f503 4334 	add.w	r3, r3, #46080	; 0xb400
24055a34:	685a      	ldr	r2, [r3, #4]
24055a36:	f442 2280 	orr.w	r2, r2, #262144	; 0x40000
24055a3a:	605a      	str	r2, [r3, #4]
24055a3c:	9b0c      	ldr	r3, [sp, #48]	; 0x30
24055a3e:	b15b      	cbz	r3, 24055a58 <HAL_OSPIM_Config+0x180>
24055a40:	3b01      	subs	r3, #1
24055a42:	f003 0301 	and.w	r3, r3, #1
24055a46:	009b      	lsls	r3, r3, #2
24055a48:	f103 43a4 	add.w	r3, r3, #1375731712	; 0x52000000
24055a4c:	f503 4334 	add.w	r3, r3, #46080	; 0xb400
24055a50:	685a      	ldr	r2, [r3, #4]
24055a52:	f042 6280 	orr.w	r2, r2, #67108864	; 0x4000000
24055a56:	605a      	str	r2, [r3, #4]
24055a58:	ab0e      	add	r3, sp, #56	; 0x38
24055a5a:	f04f 0918 	mov.w	r9, #24
24055a5e:	f8d1 c000 	ldr.w	ip, [r1]
24055a62:	fb09 3908 	mla	r9, r9, r8, r3
24055a66:	f859 ac30 	ldr.w	sl, [r9, #-48]
24055a6a:	f859 0c20 	ldr.w	r0, [r9, #-32]
24055a6e:	45d4      	cmp	ip, sl
24055a70:	f859 bc2c 	ldr.w	fp, [r9, #-44]
24055a74:	e9d1 7e01 	ldrd	r7, lr, [r1, #4]
24055a78:	e9d1 2303 	ldrd	r2, r3, [r1, #12]
24055a7c:	f000 80b4 	beq.w	24055be8 <HAL_OSPIM_Config+0x310>
24055a80:	45bb      	cmp	fp, r7
24055a82:	d00a      	beq.n	24055a9a <HAL_OSPIM_Config+0x1c2>
24055a84:	f859 6c28 	ldr.w	r6, [r9, #-40]
24055a88:	4576      	cmp	r6, lr
24055a8a:	d006      	beq.n	24055a9a <HAL_OSPIM_Config+0x1c2>
24055a8c:	f859 9c24 	ldr.w	r9, [r9, #-36]
24055a90:	4591      	cmp	r9, r2
24055a92:	d002      	beq.n	24055a9a <HAL_OSPIM_Config+0x1c2>
24055a94:	4298      	cmp	r0, r3
24055a96:	f040 80ba 	bne.w	24055c0e <HAL_OSPIM_Config+0x336>
24055a9a:	f10a 39ff 	add.w	r9, sl, #4294967295
24055a9e:	f8df a0c0 	ldr.w	sl, [pc, #192]	; 24055b60 <HAL_OSPIM_Config+0x288>
24055aa2:	ae0e      	add	r6, sp, #56	; 0x38
24055aa4:	eb0a 0989 	add.w	r9, sl, r9, lsl #2
24055aa8:	f8d9 b004 	ldr.w	fp, [r9, #4]
24055aac:	f02b 0b01 	bic.w	fp, fp, #1
24055ab0:	f8c9 b004 	str.w	fp, [r9, #4]
24055ab4:	f04f 0918 	mov.w	r9, #24
24055ab8:	fb09 6908 	mla	r9, r9, r8, r6
24055abc:	f859 9c2c 	ldr.w	r9, [r9, #-44]
24055ac0:	f1b9 0f00 	cmp.w	r9, #0
24055ac4:	d009      	beq.n	24055ada <HAL_OSPIM_Config+0x202>
24055ac6:	f109 39ff 	add.w	r9, r9, #4294967295
24055aca:	eb0a 0989 	add.w	r9, sl, r9, lsl #2
24055ace:	f8d9 a004 	ldr.w	sl, [r9, #4]
24055ad2:	f02a 0a10 	bic.w	sl, sl, #16
24055ad6:	f8c9 a004 	str.w	sl, [r9, #4]
24055ada:	f04f 0918 	mov.w	r9, #24
24055ade:	ae0e      	add	r6, sp, #56	; 0x38
24055ae0:	fb09 6808 	mla	r8, r9, r8, r6
24055ae4:	f8df 9080 	ldr.w	r9, [pc, #128]	; 24055b68 <HAL_OSPIM_Config+0x290>
24055ae8:	f858 6c28 	ldr.w	r6, [r8, #-40]
24055aec:	ea4f 0a86 	mov.w	sl, r6, lsl #2
24055af0:	44d1      	add	r9, sl
24055af2:	f8d9 a004 	ldr.w	sl, [r9, #4]
24055af6:	f42a 7a80 	bic.w	sl, sl, #256	; 0x100
24055afa:	f8c9 a004 	str.w	sl, [r9, #4]
24055afe:	f858 8c24 	ldr.w	r8, [r8, #-36]
24055b02:	f1b8 0f00 	cmp.w	r8, #0
24055b06:	d00f      	beq.n	24055b28 <HAL_OSPIM_Config+0x250>
24055b08:	f108 38ff 	add.w	r8, r8, #4294967295
24055b0c:	f008 0801 	and.w	r8, r8, #1
24055b10:	ea4f 0888 	mov.w	r8, r8, lsl #2
24055b14:	f108 48a4 	add.w	r8, r8, #1375731712	; 0x52000000
24055b18:	f508 4834 	add.w	r8, r8, #46080	; 0xb400
24055b1c:	f8d8 9004 	ldr.w	r9, [r8, #4]
24055b20:	f429 3980 	bic.w	r9, r9, #65536	; 0x10000
24055b24:	f8c8 9004 	str.w	r9, [r8, #4]
24055b28:	2800      	cmp	r0, #0
24055b2a:	d070      	beq.n	24055c0e <HAL_OSPIM_Config+0x336>
24055b2c:	3801      	subs	r0, #1
24055b2e:	f000 0001 	and.w	r0, r0, #1
24055b32:	0080      	lsls	r0, r0, #2
24055b34:	f100 40a4 	add.w	r0, r0, #1375731712	; 0x52000000
24055b38:	f500 4034 	add.w	r0, r0, #46080	; 0xb400
24055b3c:	f8d0 8004 	ldr.w	r8, [r0, #4]
24055b40:	f028 7880 	bic.w	r8, r8, #16777216	; 0x1000000
24055b44:	f8c0 8004 	str.w	r8, [r0, #4]
24055b48:	e061      	b.n	24055c0e <HAL_OSPIM_Config+0x336>
24055b4a:	4684      	mov	ip, r0
24055b4c:	e6da      	b.n	24055904 <HAL_OSPIM_Config+0x2c>
24055b4e:	2500      	movs	r5, #0
24055b50:	e6e9      	b.n	24055926 <HAL_OSPIM_Config+0x4e>
24055b52:	9501      	str	r5, [sp, #4]
24055b54:	e73a      	b.n	240559cc <HAL_OSPIM_Config+0xf4>
24055b56:	bf00      	nop
24055b58:	52005000 	.word	0x52005000
24055b5c:	5200a000 	.word	0x5200a000
24055b60:	5200b400 	.word	0x5200b400
24055b64:	04040222 	.word	0x04040222
24055b68:	5200b3fc 	.word	0x5200b3fc
24055b6c:	f850 2c30 	ldr.w	r2, [r0, #-48]
24055b70:	2a00      	cmp	r2, #0
24055b72:	f43f af71 	beq.w	24055a58 <HAL_OSPIM_Config+0x180>
24055b76:	3a01      	subs	r2, #1
24055b78:	eb03 0282 	add.w	r2, r3, r2, lsl #2
24055b7c:	6857      	ldr	r7, [r2, #4]
24055b7e:	f027 0701 	bic.w	r7, r7, #1
24055b82:	6057      	str	r7, [r2, #4]
24055b84:	f850 2c2c 	ldr.w	r2, [r0, #-44]
24055b88:	b132      	cbz	r2, 24055b98 <HAL_OSPIM_Config+0x2c0>
24055b8a:	3a01      	subs	r2, #1
24055b8c:	eb03 0382 	add.w	r3, r3, r2, lsl #2
24055b90:	685a      	ldr	r2, [r3, #4]
24055b92:	f022 0210 	bic.w	r2, r2, #16
24055b96:	605a      	str	r2, [r3, #4]
24055b98:	2318      	movs	r3, #24
24055b9a:	aa0e      	add	r2, sp, #56	; 0x38
24055b9c:	fb03 2304 	mla	r3, r3, r4, r2
24055ba0:	f853 3c24 	ldr.w	r3, [r3, #-36]
24055ba4:	b15b      	cbz	r3, 24055bbe <HAL_OSPIM_Config+0x2e6>
24055ba6:	3b01      	subs	r3, #1
24055ba8:	f003 0301 	and.w	r3, r3, #1
24055bac:	009b      	lsls	r3, r3, #2
24055bae:	f103 43a4 	add.w	r3, r3, #1375731712	; 0x52000000
24055bb2:	f503 4334 	add.w	r3, r3, #46080	; 0xb400
24055bb6:	685a      	ldr	r2, [r3, #4]
24055bb8:	f422 3280 	bic.w	r2, r2, #65536	; 0x10000
24055bbc:	605a      	str	r2, [r3, #4]
24055bbe:	2318      	movs	r3, #24
24055bc0:	aa0e      	add	r2, sp, #56	; 0x38
24055bc2:	fb03 2304 	mla	r3, r3, r4, r2
24055bc6:	f853 3c20 	ldr.w	r3, [r3, #-32]
24055bca:	2b00      	cmp	r3, #0
24055bcc:	f43f af44 	beq.w	24055a58 <HAL_OSPIM_Config+0x180>
24055bd0:	3b01      	subs	r3, #1
24055bd2:	f003 0301 	and.w	r3, r3, #1
24055bd6:	009b      	lsls	r3, r3, #2
24055bd8:	f103 43a4 	add.w	r3, r3, #1375731712	; 0x52000000
24055bdc:	f503 4334 	add.w	r3, r3, #46080	; 0xb400
24055be0:	685a      	ldr	r2, [r3, #4]
24055be2:	f022 7280 	bic.w	r2, r2, #16777216	; 0x1000000
24055be6:	e736      	b.n	24055a56 <HAL_OSPIM_Config+0x17e>
24055be8:	45bb      	cmp	fp, r7
24055bea:	f47f af56 	bne.w	24055a9a <HAL_OSPIM_Config+0x1c2>
24055bee:	f859 9c24 	ldr.w	r9, [r9, #-36]
24055bf2:	4591      	cmp	r9, r2
24055bf4:	f47f af51 	bne.w	24055a9a <HAL_OSPIM_Config+0x1c2>
24055bf8:	4298      	cmp	r0, r3
24055bfa:	f47f af4e 	bne.w	24055a9a <HAL_OSPIM_Config+0x1c2>
24055bfe:	f8df 81e0 	ldr.w	r8, [pc, #480]	; 24055de0 <HAL_OSPIM_Config+0x508>
24055c02:	f8d8 0000 	ldr.w	r0, [r8]
24055c06:	f040 0001 	orr.w	r0, r0, #1
24055c0a:	f8c8 0000 	str.w	r0, [r8]
24055c0e:	4874      	ldr	r0, [pc, #464]	; (24055de0 <HAL_OSPIM_Config+0x508>)
24055c10:	f10e 3eff 	add.w	lr, lr, #4294967295
24055c14:	eb00 0e8e 	add.w	lr, r0, lr, lsl #2
24055c18:	f8de 8004 	ldr.w	r8, [lr, #4]
24055c1c:	f428 7840 	bic.w	r8, r8, #768	; 0x300
24055c20:	ea48 2844 	orr.w	r8, r8, r4, lsl #9
24055c24:	f448 7880 	orr.w	r8, r8, #256	; 0x100
24055c28:	f8ce 8004 	str.w	r8, [lr, #4]
24055c2c:	6949      	ldr	r1, [r1, #20]
24055c2e:	f101 3eff 	add.w	lr, r1, #4294967295
24055c32:	6801      	ldr	r1, [r0, #0]
24055c34:	f3c1 4107 	ubfx	r1, r1, #16, #8
24055c38:	458e      	cmp	lr, r1
24055c3a:	d905      	bls.n	24055c48 <HAL_OSPIM_Config+0x370>
24055c3c:	6801      	ldr	r1, [r0, #0]
24055c3e:	f421 017f 	bic.w	r1, r1, #16711680	; 0xff0000
24055c42:	ea41 410e 	orr.w	r1, r1, lr, lsl #16
24055c46:	6001      	str	r1, [r0, #0]
24055c48:	6801      	ldr	r1, [r0, #0]
24055c4a:	f10c 3cff 	add.w	ip, ip, #4294967295
24055c4e:	f402 3e80 	and.w	lr, r2, #65536	; 0x10000
24055c52:	f011 0f01 	tst.w	r1, #1
24055c56:	ea4f 0c8c 	mov.w	ip, ip, lsl #2
24055c5a:	f403 3180 	and.w	r1, r3, #65536	; 0x10000
24055c5e:	4484      	add	ip, r0
24055c60:	d063      	beq.n	24055d2a <HAL_OSPIM_Config+0x452>
24055c62:	f8dc 4004 	ldr.w	r4, [ip, #4]
24055c66:	f024 0403 	bic.w	r4, r4, #3
24055c6a:	f044 0401 	orr.w	r4, r4, #1
24055c6e:	f8cc 4004 	str.w	r4, [ip, #4]
24055c72:	b147      	cbz	r7, 24055c86 <HAL_OSPIM_Config+0x3ae>
24055c74:	3f01      	subs	r7, #1
24055c76:	eb00 0787 	add.w	r7, r0, r7, lsl #2
24055c7a:	6878      	ldr	r0, [r7, #4]
24055c7c:	f020 0030 	bic.w	r0, r0, #48	; 0x30
24055c80:	f040 0010 	orr.w	r0, r0, #16
24055c84:	6078      	str	r0, [r7, #4]
24055c86:	f1be 0f00 	cmp.w	lr, #0
24055c8a:	d02e      	beq.n	24055cea <HAL_OSPIM_Config+0x412>
24055c8c:	3a01      	subs	r2, #1
24055c8e:	f002 0201 	and.w	r2, r2, #1
24055c92:	0092      	lsls	r2, r2, #2
24055c94:	f102 42a4 	add.w	r2, r2, #1375731712	; 0x52000000
24055c98:	f502 4234 	add.w	r2, r2, #46080	; 0xb400
24055c9c:	6850      	ldr	r0, [r2, #4]
24055c9e:	f420 20e0 	bic.w	r0, r0, #458752	; 0x70000
24055ca2:	f440 3080 	orr.w	r0, r0, #65536	; 0x10000
24055ca6:	6050      	str	r0, [r2, #4]
24055ca8:	b379      	cbz	r1, 24055d0a <HAL_OSPIM_Config+0x432>
24055caa:	3b01      	subs	r3, #1
24055cac:	f003 0301 	and.w	r3, r3, #1
24055cb0:	009b      	lsls	r3, r3, #2
24055cb2:	f103 43a4 	add.w	r3, r3, #1375731712	; 0x52000000
24055cb6:	f503 4334 	add.w	r3, r3, #46080	; 0xb400
24055cba:	685a      	ldr	r2, [r3, #4]
24055cbc:	f422 22e0 	bic.w	r2, r2, #458752	; 0x70000
24055cc0:	f442 3240 	orr.w	r2, r2, #196608	; 0x30000
24055cc4:	605a      	str	r2, [r3, #4]
24055cc6:	b125      	cbz	r5, 24055cd2 <HAL_OSPIM_Config+0x3fa>
24055cc8:	4a46      	ldr	r2, [pc, #280]	; (24055de4 <HAL_OSPIM_Config+0x50c>)
24055cca:	6813      	ldr	r3, [r2, #0]
24055ccc:	f043 0301 	orr.w	r3, r3, #1
24055cd0:	6013      	str	r3, [r2, #0]
24055cd2:	9b01      	ldr	r3, [sp, #4]
24055cd4:	079b      	lsls	r3, r3, #30
24055cd6:	d504      	bpl.n	24055ce2 <HAL_OSPIM_Config+0x40a>
24055cd8:	4a43      	ldr	r2, [pc, #268]	; (24055de8 <HAL_OSPIM_Config+0x510>)
24055cda:	6813      	ldr	r3, [r2, #0]
24055cdc:	f043 0301 	orr.w	r3, r3, #1
24055ce0:	6013      	str	r3, [r2, #0]
24055ce2:	2000      	movs	r0, #0
24055ce4:	b00f      	add	sp, #60	; 0x3c
24055ce6:	e8bd 8ff0 	ldmia.w	sp!, {r4, r5, r6, r7, r8, r9, sl, fp, pc}
24055cea:	2a00      	cmp	r2, #0
24055cec:	d0dc      	beq.n	24055ca8 <HAL_OSPIM_Config+0x3d0>
24055cee:	3a01      	subs	r2, #1
24055cf0:	f002 0201 	and.w	r2, r2, #1
24055cf4:	0092      	lsls	r2, r2, #2
24055cf6:	f102 42a4 	add.w	r2, r2, #1375731712	; 0x52000000
24055cfa:	f502 4234 	add.w	r2, r2, #46080	; 0xb400
24055cfe:	6850      	ldr	r0, [r2, #4]
24055d00:	f020 60e0 	bic.w	r0, r0, #117440512	; 0x7000000
24055d04:	f040 7080 	orr.w	r0, r0, #16777216	; 0x1000000
24055d08:	e7cd      	b.n	24055ca6 <HAL_OSPIM_Config+0x3ce>
24055d0a:	2b00      	cmp	r3, #0
24055d0c:	d0db      	beq.n	24055cc6 <HAL_OSPIM_Config+0x3ee>
24055d0e:	3b01      	subs	r3, #1
24055d10:	f003 0301 	and.w	r3, r3, #1
24055d14:	009b      	lsls	r3, r3, #2
24055d16:	f103 43a4 	add.w	r3, r3, #1375731712	; 0x52000000
24055d1a:	f503 4334 	add.w	r3, r3, #46080	; 0xb400
24055d1e:	685a      	ldr	r2, [r3, #4]
24055d20:	f022 62e0 	bic.w	r2, r2, #117440512	; 0x7000000
24055d24:	f042 7240 	orr.w	r2, r2, #50331648	; 0x3000000
24055d28:	e7cc      	b.n	24055cc4 <HAL_OSPIM_Config+0x3ec>
24055d2a:	f8dc 8004 	ldr.w	r8, [ip, #4]
24055d2e:	f028 0803 	bic.w	r8, r8, #3
24055d32:	ea48 0844 	orr.w	r8, r8, r4, lsl #1
24055d36:	f048 0801 	orr.w	r8, r8, #1
24055d3a:	f8cc 8004 	str.w	r8, [ip, #4]
24055d3e:	b157      	cbz	r7, 24055d56 <HAL_OSPIM_Config+0x47e>
24055d40:	3f01      	subs	r7, #1
24055d42:	eb00 0087 	add.w	r0, r0, r7, lsl #2
24055d46:	6847      	ldr	r7, [r0, #4]
24055d48:	f027 0730 	bic.w	r7, r7, #48	; 0x30
24055d4c:	ea47 1744 	orr.w	r7, r7, r4, lsl #5
24055d50:	f047 0710 	orr.w	r7, r7, #16
24055d54:	6047      	str	r7, [r0, #4]
24055d56:	f1be 0f00 	cmp.w	lr, #0
24055d5a:	d01e      	beq.n	24055d9a <HAL_OSPIM_Config+0x4c2>
24055d5c:	3a01      	subs	r2, #1
24055d5e:	f002 0201 	and.w	r2, r2, #1
24055d62:	0092      	lsls	r2, r2, #2
24055d64:	f102 42a4 	add.w	r2, r2, #1375731712	; 0x52000000
24055d68:	f502 4234 	add.w	r2, r2, #46080	; 0xb400
24055d6c:	6850      	ldr	r0, [r2, #4]
24055d6e:	f420 20e0 	bic.w	r0, r0, #458752	; 0x70000
24055d72:	ea40 4084 	orr.w	r0, r0, r4, lsl #18
24055d76:	f440 3080 	orr.w	r0, r0, #65536	; 0x10000
24055d7a:	6050      	str	r0, [r2, #4]
24055d7c:	b1f9      	cbz	r1, 24055dbe <HAL_OSPIM_Config+0x4e6>
24055d7e:	3b01      	subs	r3, #1
24055d80:	f003 0301 	and.w	r3, r3, #1
24055d84:	009b      	lsls	r3, r3, #2
24055d86:	f103 43a4 	add.w	r3, r3, #1375731712	; 0x52000000
24055d8a:	f503 4334 	add.w	r3, r3, #46080	; 0xb400
24055d8e:	685a      	ldr	r2, [r3, #4]
24055d90:	f422 22e0 	bic.w	r2, r2, #458752	; 0x70000
24055d94:	ea42 4284 	orr.w	r2, r2, r4, lsl #18
24055d98:	e792      	b.n	24055cc0 <HAL_OSPIM_Config+0x3e8>
24055d9a:	2a00      	cmp	r2, #0
24055d9c:	d0ee      	beq.n	24055d7c <HAL_OSPIM_Config+0x4a4>
24055d9e:	3a01      	subs	r2, #1
24055da0:	f002 0201 	and.w	r2, r2, #1
24055da4:	0092      	lsls	r2, r2, #2
24055da6:	f102 42a4 	add.w	r2, r2, #1375731712	; 0x52000000
24055daa:	f502 4234 	add.w	r2, r2, #46080	; 0xb400
24055dae:	6850      	ldr	r0, [r2, #4]
24055db0:	f020 60e0 	bic.w	r0, r0, #117440512	; 0x7000000
24055db4:	ea40 6084 	orr.w	r0, r0, r4, lsl #26
24055db8:	f040 7080 	orr.w	r0, r0, #16777216	; 0x1000000
24055dbc:	e7dd      	b.n	24055d7a <HAL_OSPIM_Config+0x4a2>
24055dbe:	2b00      	cmp	r3, #0
24055dc0:	d081      	beq.n	24055cc6 <HAL_OSPIM_Config+0x3ee>
24055dc2:	3b01      	subs	r3, #1
24055dc4:	f003 0301 	and.w	r3, r3, #1
24055dc8:	009b      	lsls	r3, r3, #2
24055dca:	f103 43a4 	add.w	r3, r3, #1375731712	; 0x52000000
24055dce:	f503 4334 	add.w	r3, r3, #46080	; 0xb400
24055dd2:	685a      	ldr	r2, [r3, #4]
24055dd4:	f022 62e0 	bic.w	r2, r2, #117440512	; 0x7000000
24055dd8:	ea42 6284 	orr.w	r2, r2, r4, lsl #26
24055ddc:	e7a2      	b.n	24055d24 <HAL_OSPIM_Config+0x44c>
24055dde:	bf00      	nop
24055de0:	5200b400 	.word	0x5200b400
24055de4:	52005000 	.word	0x52005000
24055de8:	5200a000 	.word	0x5200a000

24055dec <HAL_PWR_EnableBkUpAccess>:
24055dec:	4a02      	ldr	r2, [pc, #8]	; (24055df8 <HAL_PWR_EnableBkUpAccess+0xc>)
24055dee:	6813      	ldr	r3, [r2, #0]
24055df0:	f443 7380 	orr.w	r3, r3, #256	; 0x100
24055df4:	6013      	str	r3, [r2, #0]
24055df6:	4770      	bx	lr
24055df8:	58024800 	.word	0x58024800

24055dfc <HAL_PWREx_ConfigSupply>:
24055dfc:	b538      	push	{r3, r4, r5, lr}
24055dfe:	4c10      	ldr	r4, [pc, #64]	; (24055e40 <HAL_PWREx_ConfigSupply+0x44>)
24055e00:	68e3      	ldr	r3, [r4, #12]
24055e02:	f013 0f04 	tst.w	r3, #4
24055e06:	68e3      	ldr	r3, [r4, #12]
24055e08:	d105      	bne.n	24055e16 <HAL_PWREx_ConfigSupply+0x1a>
24055e0a:	f003 0307 	and.w	r3, r3, #7
24055e0e:	1a18      	subs	r0, r3, r0
24055e10:	bf18      	it	ne
24055e12:	2001      	movne	r0, #1
24055e14:	bd38      	pop	{r3, r4, r5, pc}
24055e16:	f023 0307 	bic.w	r3, r3, #7
24055e1a:	4318      	orrs	r0, r3
24055e1c:	60e0      	str	r0, [r4, #12]
24055e1e:	f7fc fd81 	bl	24052924 <HAL_GetTick>
24055e22:	4605      	mov	r5, r0
24055e24:	6863      	ldr	r3, [r4, #4]
24055e26:	049b      	lsls	r3, r3, #18
24055e28:	d501      	bpl.n	24055e2e <HAL_PWREx_ConfigSupply+0x32>
24055e2a:	2000      	movs	r0, #0
24055e2c:	e7f2      	b.n	24055e14 <HAL_PWREx_ConfigSupply+0x18>
24055e2e:	f7fc fd79 	bl	24052924 <HAL_GetTick>
24055e32:	1b40      	subs	r0, r0, r5
24055e34:	f5b0 7f7a 	cmp.w	r0, #1000	; 0x3e8
24055e38:	d9f4      	bls.n	24055e24 <HAL_PWREx_ConfigSupply+0x28>
24055e3a:	2001      	movs	r0, #1
24055e3c:	e7ea      	b.n	24055e14 <HAL_PWREx_ConfigSupply+0x18>
24055e3e:	bf00      	nop
24055e40:	58024800 	.word	0x58024800

24055e44 <HAL_RCC_OscConfig>:
24055e44:	b5f8      	push	{r3, r4, r5, r6, r7, lr}
24055e46:	4604      	mov	r4, r0
24055e48:	b908      	cbnz	r0, 24055e4e <HAL_RCC_OscConfig+0xa>
24055e4a:	2001      	movs	r0, #1
24055e4c:	e080      	b.n	24055f50 <HAL_RCC_OscConfig+0x10c>
24055e4e:	6803      	ldr	r3, [r0, #0]
24055e50:	07d8      	lsls	r0, r3, #31
24055e52:	d453      	bmi.n	24055efc <HAL_RCC_OscConfig+0xb8>
24055e54:	6823      	ldr	r3, [r4, #0]
24055e56:	0799      	lsls	r1, r3, #30
24055e58:	f100 80b7 	bmi.w	24055fca <HAL_RCC_OscConfig+0x186>
24055e5c:	6823      	ldr	r3, [r4, #0]
24055e5e:	06da      	lsls	r2, r3, #27
24055e60:	d51c      	bpl.n	24055e9c <HAL_RCC_OscConfig+0x58>
24055e62:	4a97      	ldr	r2, [pc, #604]	; (240560c0 <HAL_RCC_OscConfig+0x27c>)
24055e64:	6913      	ldr	r3, [r2, #16]
24055e66:	6a91      	ldr	r1, [r2, #40]	; 0x28
24055e68:	f003 0338 	and.w	r3, r3, #56	; 0x38
24055e6c:	2b08      	cmp	r3, #8
24055e6e:	d007      	beq.n	24055e80 <HAL_RCC_OscConfig+0x3c>
24055e70:	2b18      	cmp	r3, #24
24055e72:	f040 80f8 	bne.w	24056066 <HAL_RCC_OscConfig+0x222>
24055e76:	f001 0303 	and.w	r3, r1, #3
24055e7a:	2b01      	cmp	r3, #1
24055e7c:	f040 80f3 	bne.w	24056066 <HAL_RCC_OscConfig+0x222>
24055e80:	6813      	ldr	r3, [r2, #0]
24055e82:	05db      	lsls	r3, r3, #23
24055e84:	d502      	bpl.n	24055e8c <HAL_RCC_OscConfig+0x48>
24055e86:	69e3      	ldr	r3, [r4, #28]
24055e88:	2b80      	cmp	r3, #128	; 0x80
24055e8a:	d1de      	bne.n	24055e4a <HAL_RCC_OscConfig+0x6>
24055e8c:	4a8c      	ldr	r2, [pc, #560]	; (240560c0 <HAL_RCC_OscConfig+0x27c>)
24055e8e:	6a21      	ldr	r1, [r4, #32]
24055e90:	68d3      	ldr	r3, [r2, #12]
24055e92:	f023 537c 	bic.w	r3, r3, #1056964608	; 0x3f000000
24055e96:	ea43 6301 	orr.w	r3, r3, r1, lsl #24
24055e9a:	60d3      	str	r3, [r2, #12]
24055e9c:	6823      	ldr	r3, [r4, #0]
24055e9e:	0719      	lsls	r1, r3, #28
24055ea0:	f100 8112 	bmi.w	240560c8 <HAL_RCC_OscConfig+0x284>
24055ea4:	6823      	ldr	r3, [r4, #0]
24055ea6:	069a      	lsls	r2, r3, #26
24055ea8:	f100 8133 	bmi.w	24056112 <HAL_RCC_OscConfig+0x2ce>
24055eac:	6823      	ldr	r3, [r4, #0]
24055eae:	075d      	lsls	r5, r3, #29
24055eb0:	d51e      	bpl.n	24055ef0 <HAL_RCC_OscConfig+0xac>
24055eb2:	4d84      	ldr	r5, [pc, #528]	; (240560c4 <HAL_RCC_OscConfig+0x280>)
24055eb4:	682b      	ldr	r3, [r5, #0]
24055eb6:	f443 7380 	orr.w	r3, r3, #256	; 0x100
24055eba:	602b      	str	r3, [r5, #0]
24055ebc:	f7fc fd32 	bl	24052924 <HAL_GetTick>
24055ec0:	4606      	mov	r6, r0
24055ec2:	682b      	ldr	r3, [r5, #0]
24055ec4:	05da      	lsls	r2, r3, #23
24055ec6:	f140 8149 	bpl.w	2405615c <HAL_RCC_OscConfig+0x318>
24055eca:	68a3      	ldr	r3, [r4, #8]
24055ecc:	4d7c      	ldr	r5, [pc, #496]	; (240560c0 <HAL_RCC_OscConfig+0x27c>)
24055ece:	2b01      	cmp	r3, #1
24055ed0:	f040 814b 	bne.w	2405616a <HAL_RCC_OscConfig+0x326>
24055ed4:	6f2b      	ldr	r3, [r5, #112]	; 0x70
24055ed6:	f043 0301 	orr.w	r3, r3, #1
24055eda:	672b      	str	r3, [r5, #112]	; 0x70
24055edc:	f241 3788 	movw	r7, #5000	; 0x1388
24055ee0:	f7fc fd20 	bl	24052924 <HAL_GetTick>
24055ee4:	4e76      	ldr	r6, [pc, #472]	; (240560c0 <HAL_RCC_OscConfig+0x27c>)
24055ee6:	4605      	mov	r5, r0
24055ee8:	6f33      	ldr	r3, [r6, #112]	; 0x70
24055eea:	079b      	lsls	r3, r3, #30
24055eec:	f140 8179 	bpl.w	240561e2 <HAL_RCC_OscConfig+0x39e>
24055ef0:	6a60      	ldr	r0, [r4, #36]	; 0x24
24055ef2:	2800      	cmp	r0, #0
24055ef4:	f040 817c 	bne.w	240561f0 <HAL_RCC_OscConfig+0x3ac>
24055ef8:	2000      	movs	r0, #0
24055efa:	e029      	b.n	24055f50 <HAL_RCC_OscConfig+0x10c>
24055efc:	4a70      	ldr	r2, [pc, #448]	; (240560c0 <HAL_RCC_OscConfig+0x27c>)
24055efe:	6913      	ldr	r3, [r2, #16]
24055f00:	6a91      	ldr	r1, [r2, #40]	; 0x28
24055f02:	f003 0338 	and.w	r3, r3, #56	; 0x38
24055f06:	2b10      	cmp	r3, #16
24055f08:	d005      	beq.n	24055f16 <HAL_RCC_OscConfig+0xd2>
24055f0a:	2b18      	cmp	r3, #24
24055f0c:	d10a      	bne.n	24055f24 <HAL_RCC_OscConfig+0xe0>
24055f0e:	f001 0303 	and.w	r3, r1, #3
24055f12:	2b02      	cmp	r3, #2
24055f14:	d106      	bne.n	24055f24 <HAL_RCC_OscConfig+0xe0>
24055f16:	6813      	ldr	r3, [r2, #0]
24055f18:	039a      	lsls	r2, r3, #14
24055f1a:	d59b      	bpl.n	24055e54 <HAL_RCC_OscConfig+0x10>
24055f1c:	6863      	ldr	r3, [r4, #4]
24055f1e:	2b00      	cmp	r3, #0
24055f20:	d198      	bne.n	24055e54 <HAL_RCC_OscConfig+0x10>
24055f22:	e792      	b.n	24055e4a <HAL_RCC_OscConfig+0x6>
24055f24:	6863      	ldr	r3, [r4, #4]
24055f26:	4d66      	ldr	r5, [pc, #408]	; (240560c0 <HAL_RCC_OscConfig+0x27c>)
24055f28:	f5b3 3f80 	cmp.w	r3, #65536	; 0x10000
24055f2c:	d111      	bne.n	24055f52 <HAL_RCC_OscConfig+0x10e>
24055f2e:	682b      	ldr	r3, [r5, #0]
24055f30:	f443 3380 	orr.w	r3, r3, #65536	; 0x10000
24055f34:	602b      	str	r3, [r5, #0]
24055f36:	f7fc fcf5 	bl	24052924 <HAL_GetTick>
24055f3a:	4e61      	ldr	r6, [pc, #388]	; (240560c0 <HAL_RCC_OscConfig+0x27c>)
24055f3c:	4605      	mov	r5, r0
24055f3e:	6833      	ldr	r3, [r6, #0]
24055f40:	039b      	lsls	r3, r3, #14
24055f42:	d487      	bmi.n	24055e54 <HAL_RCC_OscConfig+0x10>
24055f44:	f7fc fcee 	bl	24052924 <HAL_GetTick>
24055f48:	1b40      	subs	r0, r0, r5
24055f4a:	2864      	cmp	r0, #100	; 0x64
24055f4c:	d9f7      	bls.n	24055f3e <HAL_RCC_OscConfig+0xfa>
24055f4e:	2003      	movs	r0, #3
24055f50:	bdf8      	pop	{r3, r4, r5, r6, r7, pc}
24055f52:	b9c3      	cbnz	r3, 24055f86 <HAL_RCC_OscConfig+0x142>
24055f54:	682b      	ldr	r3, [r5, #0]
24055f56:	f423 3380 	bic.w	r3, r3, #65536	; 0x10000
24055f5a:	602b      	str	r3, [r5, #0]
24055f5c:	682b      	ldr	r3, [r5, #0]
24055f5e:	f423 1380 	bic.w	r3, r3, #1048576	; 0x100000
24055f62:	602b      	str	r3, [r5, #0]
24055f64:	682b      	ldr	r3, [r5, #0]
24055f66:	f423 2380 	bic.w	r3, r3, #262144	; 0x40000
24055f6a:	602b      	str	r3, [r5, #0]
24055f6c:	f7fc fcda 	bl	24052924 <HAL_GetTick>
24055f70:	4606      	mov	r6, r0
24055f72:	682b      	ldr	r3, [r5, #0]
24055f74:	039f      	lsls	r7, r3, #14
24055f76:	f57f af6d 	bpl.w	24055e54 <HAL_RCC_OscConfig+0x10>
24055f7a:	f7fc fcd3 	bl	24052924 <HAL_GetTick>
24055f7e:	1b80      	subs	r0, r0, r6
24055f80:	2864      	cmp	r0, #100	; 0x64
24055f82:	d9f6      	bls.n	24055f72 <HAL_RCC_OscConfig+0x12e>
24055f84:	e7e3      	b.n	24055f4e <HAL_RCC_OscConfig+0x10a>
24055f86:	f5b3 2fa0 	cmp.w	r3, #327680	; 0x50000
24055f8a:	d108      	bne.n	24055f9e <HAL_RCC_OscConfig+0x15a>
24055f8c:	682b      	ldr	r3, [r5, #0]
24055f8e:	f443 2380 	orr.w	r3, r3, #262144	; 0x40000
24055f92:	602b      	str	r3, [r5, #0]
24055f94:	682b      	ldr	r3, [r5, #0]
24055f96:	f423 1380 	bic.w	r3, r3, #1048576	; 0x100000
24055f9a:	602b      	str	r3, [r5, #0]
24055f9c:	e7c7      	b.n	24055f2e <HAL_RCC_OscConfig+0xea>
24055f9e:	f5b3 1fa8 	cmp.w	r3, #1376256	; 0x150000
24055fa2:	682b      	ldr	r3, [r5, #0]
24055fa4:	d106      	bne.n	24055fb4 <HAL_RCC_OscConfig+0x170>
24055fa6:	f443 2380 	orr.w	r3, r3, #262144	; 0x40000
24055faa:	602b      	str	r3, [r5, #0]
24055fac:	682b      	ldr	r3, [r5, #0]
24055fae:	f443 1380 	orr.w	r3, r3, #1048576	; 0x100000
24055fb2:	e7f2      	b.n	24055f9a <HAL_RCC_OscConfig+0x156>
24055fb4:	f423 3380 	bic.w	r3, r3, #65536	; 0x10000
24055fb8:	602b      	str	r3, [r5, #0]
24055fba:	682b      	ldr	r3, [r5, #0]
24055fbc:	f423 2380 	bic.w	r3, r3, #262144	; 0x40000
24055fc0:	602b      	str	r3, [r5, #0]
24055fc2:	682b      	ldr	r3, [r5, #0]
24055fc4:	f423 1380 	bic.w	r3, r3, #1048576	; 0x100000
24055fc8:	e7b4      	b.n	24055f34 <HAL_RCC_OscConfig+0xf0>
24055fca:	493d      	ldr	r1, [pc, #244]	; (240560c0 <HAL_RCC_OscConfig+0x27c>)
24055fcc:	68e2      	ldr	r2, [r4, #12]
24055fce:	690b      	ldr	r3, [r1, #16]
24055fd0:	6a88      	ldr	r0, [r1, #40]	; 0x28
24055fd2:	f013 0338 	ands.w	r3, r3, #56	; 0x38
24055fd6:	d003      	beq.n	24055fe0 <HAL_RCC_OscConfig+0x19c>
24055fd8:	2b18      	cmp	r3, #24
24055fda:	d121      	bne.n	24056020 <HAL_RCC_OscConfig+0x1dc>
24055fdc:	0780      	lsls	r0, r0, #30
24055fde:	d11f      	bne.n	24056020 <HAL_RCC_OscConfig+0x1dc>
24055fe0:	680b      	ldr	r3, [r1, #0]
24055fe2:	075b      	lsls	r3, r3, #29
24055fe4:	d502      	bpl.n	24055fec <HAL_RCC_OscConfig+0x1a8>
24055fe6:	2a00      	cmp	r2, #0
24055fe8:	f43f af2f 	beq.w	24055e4a <HAL_RCC_OscConfig+0x6>
24055fec:	4d34      	ldr	r5, [pc, #208]	; (240560c0 <HAL_RCC_OscConfig+0x27c>)
24055fee:	682b      	ldr	r3, [r5, #0]
24055ff0:	f023 0319 	bic.w	r3, r3, #25
24055ff4:	4313      	orrs	r3, r2
24055ff6:	602b      	str	r3, [r5, #0]
24055ff8:	f7fc fc94 	bl	24052924 <HAL_GetTick>
24055ffc:	4606      	mov	r6, r0
24055ffe:	682b      	ldr	r3, [r5, #0]
24056000:	075f      	lsls	r7, r3, #29
24056002:	d507      	bpl.n	24056014 <HAL_RCC_OscConfig+0x1d0>
24056004:	686b      	ldr	r3, [r5, #4]
24056006:	6922      	ldr	r2, [r4, #16]
24056008:	f023 43fe 	bic.w	r3, r3, #2130706432	; 0x7f000000
2405600c:	ea43 6302 	orr.w	r3, r3, r2, lsl #24
24056010:	606b      	str	r3, [r5, #4]
24056012:	e723      	b.n	24055e5c <HAL_RCC_OscConfig+0x18>
24056014:	f7fc fc86 	bl	24052924 <HAL_GetTick>
24056018:	1b80      	subs	r0, r0, r6
2405601a:	2802      	cmp	r0, #2
2405601c:	d9ef      	bls.n	24055ffe <HAL_RCC_OscConfig+0x1ba>
2405601e:	e796      	b.n	24055f4e <HAL_RCC_OscConfig+0x10a>
24056020:	4d27      	ldr	r5, [pc, #156]	; (240560c0 <HAL_RCC_OscConfig+0x27c>)
24056022:	682b      	ldr	r3, [r5, #0]
24056024:	b17a      	cbz	r2, 24056046 <HAL_RCC_OscConfig+0x202>
24056026:	f023 0319 	bic.w	r3, r3, #25
2405602a:	4313      	orrs	r3, r2
2405602c:	602b      	str	r3, [r5, #0]
2405602e:	f7fc fc79 	bl	24052924 <HAL_GetTick>
24056032:	4606      	mov	r6, r0
24056034:	682b      	ldr	r3, [r5, #0]
24056036:	0758      	lsls	r0, r3, #29
24056038:	d4e4      	bmi.n	24056004 <HAL_RCC_OscConfig+0x1c0>
2405603a:	f7fc fc73 	bl	24052924 <HAL_GetTick>
2405603e:	1b80      	subs	r0, r0, r6
24056040:	2802      	cmp	r0, #2
24056042:	d9f7      	bls.n	24056034 <HAL_RCC_OscConfig+0x1f0>
24056044:	e783      	b.n	24055f4e <HAL_RCC_OscConfig+0x10a>
24056046:	f023 0301 	bic.w	r3, r3, #1
2405604a:	602b      	str	r3, [r5, #0]
2405604c:	f7fc fc6a 	bl	24052924 <HAL_GetTick>
24056050:	4606      	mov	r6, r0
24056052:	682b      	ldr	r3, [r5, #0]
24056054:	0759      	lsls	r1, r3, #29
24056056:	f57f af01 	bpl.w	24055e5c <HAL_RCC_OscConfig+0x18>
2405605a:	f7fc fc63 	bl	24052924 <HAL_GetTick>
2405605e:	1b80      	subs	r0, r0, r6
24056060:	2802      	cmp	r0, #2
24056062:	d9f6      	bls.n	24056052 <HAL_RCC_OscConfig+0x20e>
24056064:	e773      	b.n	24055f4e <HAL_RCC_OscConfig+0x10a>
24056066:	69e3      	ldr	r3, [r4, #28]
24056068:	4d15      	ldr	r5, [pc, #84]	; (240560c0 <HAL_RCC_OscConfig+0x27c>)
2405606a:	b1bb      	cbz	r3, 2405609c <HAL_RCC_OscConfig+0x258>
2405606c:	682b      	ldr	r3, [r5, #0]
2405606e:	f043 0380 	orr.w	r3, r3, #128	; 0x80
24056072:	602b      	str	r3, [r5, #0]
24056074:	f7fc fc56 	bl	24052924 <HAL_GetTick>
24056078:	4606      	mov	r6, r0
2405607a:	682b      	ldr	r3, [r5, #0]
2405607c:	05df      	lsls	r7, r3, #23
2405607e:	d507      	bpl.n	24056090 <HAL_RCC_OscConfig+0x24c>
24056080:	68eb      	ldr	r3, [r5, #12]
24056082:	6a22      	ldr	r2, [r4, #32]
24056084:	f023 537c 	bic.w	r3, r3, #1056964608	; 0x3f000000
24056088:	ea43 6302 	orr.w	r3, r3, r2, lsl #24
2405608c:	60eb      	str	r3, [r5, #12]
2405608e:	e705      	b.n	24055e9c <HAL_RCC_OscConfig+0x58>
24056090:	f7fc fc48 	bl	24052924 <HAL_GetTick>
24056094:	1b80      	subs	r0, r0, r6
24056096:	2802      	cmp	r0, #2
24056098:	d9ef      	bls.n	2405607a <HAL_RCC_OscConfig+0x236>
2405609a:	e758      	b.n	24055f4e <HAL_RCC_OscConfig+0x10a>
2405609c:	682b      	ldr	r3, [r5, #0]
2405609e:	f023 0380 	bic.w	r3, r3, #128	; 0x80
240560a2:	602b      	str	r3, [r5, #0]
240560a4:	f7fc fc3e 	bl	24052924 <HAL_GetTick>
240560a8:	4606      	mov	r6, r0
240560aa:	682b      	ldr	r3, [r5, #0]
240560ac:	05d8      	lsls	r0, r3, #23
240560ae:	f57f aef5 	bpl.w	24055e9c <HAL_RCC_OscConfig+0x58>
240560b2:	f7fc fc37 	bl	24052924 <HAL_GetTick>
240560b6:	1b80      	subs	r0, r0, r6
240560b8:	2802      	cmp	r0, #2
240560ba:	d9f6      	bls.n	240560aa <HAL_RCC_OscConfig+0x266>
240560bc:	e747      	b.n	24055f4e <HAL_RCC_OscConfig+0x10a>
240560be:	bf00      	nop
240560c0:	58024400 	.word	0x58024400
240560c4:	58024800 	.word	0x58024800
240560c8:	6963      	ldr	r3, [r4, #20]
240560ca:	4d8a      	ldr	r5, [pc, #552]	; (240562f4 <HAL_RCC_OscConfig+0x4b0>)
240560cc:	b183      	cbz	r3, 240560f0 <HAL_RCC_OscConfig+0x2ac>
240560ce:	6f6b      	ldr	r3, [r5, #116]	; 0x74
240560d0:	f043 0301 	orr.w	r3, r3, #1
240560d4:	676b      	str	r3, [r5, #116]	; 0x74
240560d6:	f7fc fc25 	bl	24052924 <HAL_GetTick>
240560da:	4606      	mov	r6, r0
240560dc:	6f6b      	ldr	r3, [r5, #116]	; 0x74
240560de:	079b      	lsls	r3, r3, #30
240560e0:	f53f aee0 	bmi.w	24055ea4 <HAL_RCC_OscConfig+0x60>
240560e4:	f7fc fc1e 	bl	24052924 <HAL_GetTick>
240560e8:	1b80      	subs	r0, r0, r6
240560ea:	2802      	cmp	r0, #2
240560ec:	d9f6      	bls.n	240560dc <HAL_RCC_OscConfig+0x298>
240560ee:	e72e      	b.n	24055f4e <HAL_RCC_OscConfig+0x10a>
240560f0:	6f6b      	ldr	r3, [r5, #116]	; 0x74
240560f2:	f023 0301 	bic.w	r3, r3, #1
240560f6:	676b      	str	r3, [r5, #116]	; 0x74
240560f8:	f7fc fc14 	bl	24052924 <HAL_GetTick>
240560fc:	4606      	mov	r6, r0
240560fe:	6f6b      	ldr	r3, [r5, #116]	; 0x74
24056100:	079f      	lsls	r7, r3, #30
24056102:	f57f aecf 	bpl.w	24055ea4 <HAL_RCC_OscConfig+0x60>
24056106:	f7fc fc0d 	bl	24052924 <HAL_GetTick>
2405610a:	1b80      	subs	r0, r0, r6
2405610c:	2802      	cmp	r0, #2
2405610e:	d9f6      	bls.n	240560fe <HAL_RCC_OscConfig+0x2ba>
24056110:	e71d      	b.n	24055f4e <HAL_RCC_OscConfig+0x10a>
24056112:	69a3      	ldr	r3, [r4, #24]
24056114:	4d77      	ldr	r5, [pc, #476]	; (240562f4 <HAL_RCC_OscConfig+0x4b0>)
24056116:	b183      	cbz	r3, 2405613a <HAL_RCC_OscConfig+0x2f6>
24056118:	682b      	ldr	r3, [r5, #0]
2405611a:	f443 5380 	orr.w	r3, r3, #4096	; 0x1000
2405611e:	602b      	str	r3, [r5, #0]
24056120:	f7fc fc00 	bl	24052924 <HAL_GetTick>
24056124:	4606      	mov	r6, r0
24056126:	682b      	ldr	r3, [r5, #0]
24056128:	0498      	lsls	r0, r3, #18
2405612a:	f53f aebf 	bmi.w	24055eac <HAL_RCC_OscConfig+0x68>
2405612e:	f7fc fbf9 	bl	24052924 <HAL_GetTick>
24056132:	1b80      	subs	r0, r0, r6
24056134:	2802      	cmp	r0, #2
24056136:	d9f6      	bls.n	24056126 <HAL_RCC_OscConfig+0x2e2>
24056138:	e709      	b.n	24055f4e <HAL_RCC_OscConfig+0x10a>
2405613a:	682b      	ldr	r3, [r5, #0]
2405613c:	f423 5380 	bic.w	r3, r3, #4096	; 0x1000
24056140:	602b      	str	r3, [r5, #0]
24056142:	f7fc fbef 	bl	24052924 <HAL_GetTick>
24056146:	4606      	mov	r6, r0
24056148:	682b      	ldr	r3, [r5, #0]
2405614a:	0499      	lsls	r1, r3, #18
2405614c:	f57f aeae 	bpl.w	24055eac <HAL_RCC_OscConfig+0x68>
24056150:	f7fc fbe8 	bl	24052924 <HAL_GetTick>
24056154:	1b80      	subs	r0, r0, r6
24056156:	2802      	cmp	r0, #2
24056158:	d9f6      	bls.n	24056148 <HAL_RCC_OscConfig+0x304>
2405615a:	e6f8      	b.n	24055f4e <HAL_RCC_OscConfig+0x10a>
2405615c:	f7fc fbe2 	bl	24052924 <HAL_GetTick>
24056160:	1b80      	subs	r0, r0, r6
24056162:	2864      	cmp	r0, #100	; 0x64
24056164:	f67f aead 	bls.w	24055ec2 <HAL_RCC_OscConfig+0x7e>
24056168:	e6f1      	b.n	24055f4e <HAL_RCC_OscConfig+0x10a>
2405616a:	b9d3      	cbnz	r3, 240561a2 <HAL_RCC_OscConfig+0x35e>
2405616c:	6f2b      	ldr	r3, [r5, #112]	; 0x70
2405616e:	f241 3788 	movw	r7, #5000	; 0x1388
24056172:	f023 0301 	bic.w	r3, r3, #1
24056176:	672b      	str	r3, [r5, #112]	; 0x70
24056178:	6f2b      	ldr	r3, [r5, #112]	; 0x70
2405617a:	f023 0380 	bic.w	r3, r3, #128	; 0x80
2405617e:	672b      	str	r3, [r5, #112]	; 0x70
24056180:	6f2b      	ldr	r3, [r5, #112]	; 0x70
24056182:	f023 0304 	bic.w	r3, r3, #4
24056186:	672b      	str	r3, [r5, #112]	; 0x70
24056188:	f7fc fbcc 	bl	24052924 <HAL_GetTick>
2405618c:	4606      	mov	r6, r0
2405618e:	6f2b      	ldr	r3, [r5, #112]	; 0x70
24056190:	0798      	lsls	r0, r3, #30
24056192:	f57f aead 	bpl.w	24055ef0 <HAL_RCC_OscConfig+0xac>
24056196:	f7fc fbc5 	bl	24052924 <HAL_GetTick>
2405619a:	1b80      	subs	r0, r0, r6
2405619c:	42b8      	cmp	r0, r7
2405619e:	d9f6      	bls.n	2405618e <HAL_RCC_OscConfig+0x34a>
240561a0:	e6d5      	b.n	24055f4e <HAL_RCC_OscConfig+0x10a>
240561a2:	2b05      	cmp	r3, #5
240561a4:	d108      	bne.n	240561b8 <HAL_RCC_OscConfig+0x374>
240561a6:	6f2b      	ldr	r3, [r5, #112]	; 0x70
240561a8:	f043 0304 	orr.w	r3, r3, #4
240561ac:	672b      	str	r3, [r5, #112]	; 0x70
240561ae:	6f2b      	ldr	r3, [r5, #112]	; 0x70
240561b0:	f023 0380 	bic.w	r3, r3, #128	; 0x80
240561b4:	672b      	str	r3, [r5, #112]	; 0x70
240561b6:	e68d      	b.n	24055ed4 <HAL_RCC_OscConfig+0x90>
240561b8:	2b85      	cmp	r3, #133	; 0x85
240561ba:	6f2b      	ldr	r3, [r5, #112]	; 0x70
240561bc:	d106      	bne.n	240561cc <HAL_RCC_OscConfig+0x388>
240561be:	f043 0304 	orr.w	r3, r3, #4
240561c2:	672b      	str	r3, [r5, #112]	; 0x70
240561c4:	6f2b      	ldr	r3, [r5, #112]	; 0x70
240561c6:	f043 0380 	orr.w	r3, r3, #128	; 0x80
240561ca:	e7f3      	b.n	240561b4 <HAL_RCC_OscConfig+0x370>
240561cc:	f023 0301 	bic.w	r3, r3, #1
240561d0:	672b      	str	r3, [r5, #112]	; 0x70
240561d2:	6f2b      	ldr	r3, [r5, #112]	; 0x70
240561d4:	f023 0304 	bic.w	r3, r3, #4
240561d8:	672b      	str	r3, [r5, #112]	; 0x70
240561da:	6f2b      	ldr	r3, [r5, #112]	; 0x70
240561dc:	f023 0380 	bic.w	r3, r3, #128	; 0x80
240561e0:	e67b      	b.n	24055eda <HAL_RCC_OscConfig+0x96>
240561e2:	f7fc fb9f 	bl	24052924 <HAL_GetTick>
240561e6:	1b40      	subs	r0, r0, r5
240561e8:	42b8      	cmp	r0, r7
240561ea:	f67f ae7d 	bls.w	24055ee8 <HAL_RCC_OscConfig+0xa4>
240561ee:	e6ae      	b.n	24055f4e <HAL_RCC_OscConfig+0x10a>
240561f0:	4d40      	ldr	r5, [pc, #256]	; (240562f4 <HAL_RCC_OscConfig+0x4b0>)
240561f2:	692b      	ldr	r3, [r5, #16]
240561f4:	f003 0338 	and.w	r3, r3, #56	; 0x38
240561f8:	2b18      	cmp	r3, #24
240561fa:	d07d      	beq.n	240562f8 <HAL_RCC_OscConfig+0x4b4>
240561fc:	682b      	ldr	r3, [r5, #0]
240561fe:	2802      	cmp	r0, #2
24056200:	f023 7380 	bic.w	r3, r3, #16777216	; 0x1000000
24056204:	602b      	str	r3, [r5, #0]
24056206:	d167      	bne.n	240562d8 <HAL_RCC_OscConfig+0x494>
24056208:	f7fc fb8c 	bl	24052924 <HAL_GetTick>
2405620c:	4606      	mov	r6, r0
2405620e:	682b      	ldr	r3, [r5, #0]
24056210:	0199      	lsls	r1, r3, #6
24056212:	d45b      	bmi.n	240562cc <HAL_RCC_OscConfig+0x488>
24056214:	6aab      	ldr	r3, [r5, #40]	; 0x28
24056216:	6aa2      	ldr	r2, [r4, #40]	; 0x28
24056218:	f423 737c 	bic.w	r3, r3, #1008	; 0x3f0
2405621c:	f023 0303 	bic.w	r3, r3, #3
24056220:	4313      	orrs	r3, r2
24056222:	6ae2      	ldr	r2, [r4, #44]	; 0x2c
24056224:	ea43 1302 	orr.w	r3, r3, r2, lsl #4
24056228:	62ab      	str	r3, [r5, #40]	; 0x28
2405622a:	6b63      	ldr	r3, [r4, #52]	; 0x34
2405622c:	6ba2      	ldr	r2, [r4, #56]	; 0x38
2405622e:	3b01      	subs	r3, #1
24056230:	3a01      	subs	r2, #1
24056232:	025b      	lsls	r3, r3, #9
24056234:	0412      	lsls	r2, r2, #16
24056236:	b29b      	uxth	r3, r3
24056238:	f402 02fe 	and.w	r2, r2, #8323072	; 0x7f0000
2405623c:	4313      	orrs	r3, r2
2405623e:	6b22      	ldr	r2, [r4, #48]	; 0x30
24056240:	3a01      	subs	r2, #1
24056242:	f3c2 0208 	ubfx	r2, r2, #0, #9
24056246:	4313      	orrs	r3, r2
24056248:	6be2      	ldr	r2, [r4, #60]	; 0x3c
2405624a:	3a01      	subs	r2, #1
2405624c:	0612      	lsls	r2, r2, #24
2405624e:	f002 42fe 	and.w	r2, r2, #2130706432	; 0x7f000000
24056252:	4313      	orrs	r3, r2
24056254:	632b      	str	r3, [r5, #48]	; 0x30
24056256:	6aeb      	ldr	r3, [r5, #44]	; 0x2c
24056258:	f023 0301 	bic.w	r3, r3, #1
2405625c:	62eb      	str	r3, [r5, #44]	; 0x2c
2405625e:	6b6b      	ldr	r3, [r5, #52]	; 0x34
24056260:	6ca2      	ldr	r2, [r4, #72]	; 0x48
24056262:	f423 437f 	bic.w	r3, r3, #65280	; 0xff00
24056266:	f023 03f8 	bic.w	r3, r3, #248	; 0xf8
2405626a:	ea43 03c2 	orr.w	r3, r3, r2, lsl #3
2405626e:	636b      	str	r3, [r5, #52]	; 0x34
24056270:	6aeb      	ldr	r3, [r5, #44]	; 0x2c
24056272:	6c22      	ldr	r2, [r4, #64]	; 0x40
24056274:	f023 030c 	bic.w	r3, r3, #12
24056278:	4313      	orrs	r3, r2
2405627a:	62eb      	str	r3, [r5, #44]	; 0x2c
2405627c:	6aeb      	ldr	r3, [r5, #44]	; 0x2c
2405627e:	6c62      	ldr	r2, [r4, #68]	; 0x44
24056280:	f023 0302 	bic.w	r3, r3, #2
24056284:	4313      	orrs	r3, r2
24056286:	62eb      	str	r3, [r5, #44]	; 0x2c
24056288:	6aeb      	ldr	r3, [r5, #44]	; 0x2c
2405628a:	f443 3380 	orr.w	r3, r3, #65536	; 0x10000
2405628e:	62eb      	str	r3, [r5, #44]	; 0x2c
24056290:	6aeb      	ldr	r3, [r5, #44]	; 0x2c
24056292:	f443 3300 	orr.w	r3, r3, #131072	; 0x20000
24056296:	62eb      	str	r3, [r5, #44]	; 0x2c
24056298:	6aeb      	ldr	r3, [r5, #44]	; 0x2c
2405629a:	f443 2380 	orr.w	r3, r3, #262144	; 0x40000
2405629e:	62eb      	str	r3, [r5, #44]	; 0x2c
240562a0:	6aeb      	ldr	r3, [r5, #44]	; 0x2c
240562a2:	f043 0301 	orr.w	r3, r3, #1
240562a6:	62eb      	str	r3, [r5, #44]	; 0x2c
240562a8:	682b      	ldr	r3, [r5, #0]
240562aa:	f043 7380 	orr.w	r3, r3, #16777216	; 0x1000000
240562ae:	602b      	str	r3, [r5, #0]
240562b0:	f7fc fb38 	bl	24052924 <HAL_GetTick>
240562b4:	4d0f      	ldr	r5, [pc, #60]	; (240562f4 <HAL_RCC_OscConfig+0x4b0>)
240562b6:	4604      	mov	r4, r0
240562b8:	682b      	ldr	r3, [r5, #0]
240562ba:	019a      	lsls	r2, r3, #6
240562bc:	f53f ae1c 	bmi.w	24055ef8 <HAL_RCC_OscConfig+0xb4>
240562c0:	f7fc fb30 	bl	24052924 <HAL_GetTick>
240562c4:	1b00      	subs	r0, r0, r4
240562c6:	2802      	cmp	r0, #2
240562c8:	d9f6      	bls.n	240562b8 <HAL_RCC_OscConfig+0x474>
240562ca:	e640      	b.n	24055f4e <HAL_RCC_OscConfig+0x10a>
240562cc:	f7fc fb2a 	bl	24052924 <HAL_GetTick>
240562d0:	1b80      	subs	r0, r0, r6
240562d2:	2802      	cmp	r0, #2
240562d4:	d99b      	bls.n	2405620e <HAL_RCC_OscConfig+0x3ca>
240562d6:	e63a      	b.n	24055f4e <HAL_RCC_OscConfig+0x10a>
240562d8:	f7fc fb24 	bl	24052924 <HAL_GetTick>
240562dc:	4604      	mov	r4, r0
240562de:	682b      	ldr	r3, [r5, #0]
240562e0:	019b      	lsls	r3, r3, #6
240562e2:	f57f ae09 	bpl.w	24055ef8 <HAL_RCC_OscConfig+0xb4>
240562e6:	f7fc fb1d 	bl	24052924 <HAL_GetTick>
240562ea:	1b00      	subs	r0, r0, r4
240562ec:	2802      	cmp	r0, #2
240562ee:	d9f6      	bls.n	240562de <HAL_RCC_OscConfig+0x49a>
240562f0:	e62d      	b.n	24055f4e <HAL_RCC_OscConfig+0x10a>
240562f2:	bf00      	nop
240562f4:	58024400 	.word	0x58024400
240562f8:	2801      	cmp	r0, #1
240562fa:	6aaa      	ldr	r2, [r5, #40]	; 0x28
240562fc:	6b2b      	ldr	r3, [r5, #48]	; 0x30
240562fe:	f43f ae27 	beq.w	24055f50 <HAL_RCC_OscConfig+0x10c>
24056302:	f002 0103 	and.w	r1, r2, #3
24056306:	6aa0      	ldr	r0, [r4, #40]	; 0x28
24056308:	4281      	cmp	r1, r0
2405630a:	f47f ad9e 	bne.w	24055e4a <HAL_RCC_OscConfig+0x6>
2405630e:	f3c2 1205 	ubfx	r2, r2, #4, #6
24056312:	6ae1      	ldr	r1, [r4, #44]	; 0x2c
24056314:	428a      	cmp	r2, r1
24056316:	f47f ad98 	bne.w	24055e4a <HAL_RCC_OscConfig+0x6>
2405631a:	6b22      	ldr	r2, [r4, #48]	; 0x30
2405631c:	f3c3 0108 	ubfx	r1, r3, #0, #9
24056320:	3a01      	subs	r2, #1
24056322:	4291      	cmp	r1, r2
24056324:	f47f ad91 	bne.w	24055e4a <HAL_RCC_OscConfig+0x6>
24056328:	6b62      	ldr	r2, [r4, #52]	; 0x34
2405632a:	f3c3 2146 	ubfx	r1, r3, #9, #7
2405632e:	3a01      	subs	r2, #1
24056330:	4291      	cmp	r1, r2
24056332:	f47f ad8a 	bne.w	24055e4a <HAL_RCC_OscConfig+0x6>
24056336:	6ba2      	ldr	r2, [r4, #56]	; 0x38
24056338:	f3c3 4106 	ubfx	r1, r3, #16, #7
2405633c:	3a01      	subs	r2, #1
2405633e:	4291      	cmp	r1, r2
24056340:	f47f ad83 	bne.w	24055e4a <HAL_RCC_OscConfig+0x6>
24056344:	6be2      	ldr	r2, [r4, #60]	; 0x3c
24056346:	f3c3 6306 	ubfx	r3, r3, #24, #7
2405634a:	3a01      	subs	r2, #1
2405634c:	4293      	cmp	r3, r2
2405634e:	f47f ad7c 	bne.w	24055e4a <HAL_RCC_OscConfig+0x6>
24056352:	6b6b      	ldr	r3, [r5, #52]	; 0x34
24056354:	6ca2      	ldr	r2, [r4, #72]	; 0x48
24056356:	f3c3 03cc 	ubfx	r3, r3, #3, #13
2405635a:	429a      	cmp	r2, r3
2405635c:	f43f adcc 	beq.w	24055ef8 <HAL_RCC_OscConfig+0xb4>
24056360:	4d0c      	ldr	r5, [pc, #48]	; (24056394 <HAL_RCC_OscConfig+0x550>)
24056362:	6aeb      	ldr	r3, [r5, #44]	; 0x2c
24056364:	f023 0301 	bic.w	r3, r3, #1
24056368:	62eb      	str	r3, [r5, #44]	; 0x2c
2405636a:	f7fc fadb 	bl	24052924 <HAL_GetTick>
2405636e:	4606      	mov	r6, r0
24056370:	f7fc fad8 	bl	24052924 <HAL_GetTick>
24056374:	42b0      	cmp	r0, r6
24056376:	d0fb      	beq.n	24056370 <HAL_RCC_OscConfig+0x52c>
24056378:	6b6b      	ldr	r3, [r5, #52]	; 0x34
2405637a:	6ca2      	ldr	r2, [r4, #72]	; 0x48
2405637c:	f423 437f 	bic.w	r3, r3, #65280	; 0xff00
24056380:	f023 03f8 	bic.w	r3, r3, #248	; 0xf8
24056384:	ea43 03c2 	orr.w	r3, r3, r2, lsl #3
24056388:	636b      	str	r3, [r5, #52]	; 0x34
2405638a:	6aeb      	ldr	r3, [r5, #44]	; 0x2c
2405638c:	f043 0301 	orr.w	r3, r3, #1
24056390:	62eb      	str	r3, [r5, #44]	; 0x2c
24056392:	e5b1      	b.n	24055ef8 <HAL_RCC_OscConfig+0xb4>
24056394:	58024400 	.word	0x58024400

24056398 <HAL_RCC_GetSysClockFreq>:
24056398:	4b49      	ldr	r3, [pc, #292]	; (240564c0 <HAL_RCC_GetSysClockFreq+0x128>)
2405639a:	691a      	ldr	r2, [r3, #16]
2405639c:	f002 0238 	and.w	r2, r2, #56	; 0x38
240563a0:	2a10      	cmp	r2, #16
240563a2:	b530      	push	{r4, r5, lr}
240563a4:	f000 8088 	beq.w	240564b8 <HAL_RCC_GetSysClockFreq+0x120>
240563a8:	2a18      	cmp	r2, #24
240563aa:	d00c      	beq.n	240563c6 <HAL_RCC_GetSysClockFreq+0x2e>
240563ac:	2a00      	cmp	r2, #0
240563ae:	f040 8085 	bne.w	240564bc <HAL_RCC_GetSysClockFreq+0x124>
240563b2:	681a      	ldr	r2, [r3, #0]
240563b4:	4843      	ldr	r0, [pc, #268]	; (240564c4 <HAL_RCC_GetSysClockFreq+0x12c>)
240563b6:	f012 0f20 	tst.w	r2, #32
240563ba:	d003      	beq.n	240563c4 <HAL_RCC_GetSysClockFreq+0x2c>
240563bc:	681b      	ldr	r3, [r3, #0]
240563be:	f3c3 03c1 	ubfx	r3, r3, #3, #2
240563c2:	40d8      	lsrs	r0, r3
240563c4:	bd30      	pop	{r4, r5, pc}
240563c6:	6a99      	ldr	r1, [r3, #40]	; 0x28
240563c8:	6a9d      	ldr	r5, [r3, #40]	; 0x28
240563ca:	6adc      	ldr	r4, [r3, #44]	; 0x2c
240563cc:	f415 7f7c 	tst.w	r5, #1008	; 0x3f0
240563d0:	f3c5 1005 	ubfx	r0, r5, #4, #6
240563d4:	6b5a      	ldr	r2, [r3, #52]	; 0x34
240563d6:	d0f5      	beq.n	240563c4 <HAL_RCC_GetSysClockFreq+0x2c>
240563d8:	f3c2 02cc 	ubfx	r2, r2, #3, #13
240563dc:	f004 0401 	and.w	r4, r4, #1
240563e0:	f001 0103 	and.w	r1, r1, #3
240563e4:	ee07 0a90 	vmov	s15, r0
240563e8:	4362      	muls	r2, r4
240563ea:	eeb7 6a00 	vmov.f32	s12, #112	; 0x3f800000  1.0
240563ee:	2901      	cmp	r1, #1
240563f0:	eeb8 7ae7 	vcvt.f32.s32	s14, s15
240563f4:	ee06 2a90 	vmov	s13, r2
240563f8:	eefa 6ae9 	vcvt.f32.s32	s13, s13, #13
240563fc:	d04e      	beq.n	2405649c <HAL_RCC_GetSysClockFreq+0x104>
240563fe:	2902      	cmp	r1, #2
24056400:	d03e      	beq.n	24056480 <HAL_RCC_GetSysClockFreq+0xe8>
24056402:	2900      	cmp	r1, #0
24056404:	d14a      	bne.n	2405649c <HAL_RCC_GetSysClockFreq+0x104>
24056406:	681a      	ldr	r2, [r3, #0]
24056408:	0692      	lsls	r2, r2, #26
2405640a:	d527      	bpl.n	2405645c <HAL_RCC_GetSysClockFreq+0xc4>
2405640c:	6819      	ldr	r1, [r3, #0]
2405640e:	4a2d      	ldr	r2, [pc, #180]	; (240564c4 <HAL_RCC_GetSysClockFreq+0x12c>)
24056410:	f3c1 01c1 	ubfx	r1, r1, #3, #2
24056414:	6b1b      	ldr	r3, [r3, #48]	; 0x30
24056416:	40ca      	lsrs	r2, r1
24056418:	f3c3 0308 	ubfx	r3, r3, #0, #9
2405641c:	ee07 2a90 	vmov	s15, r2
24056420:	eef8 5ae7 	vcvt.f32.s32	s11, s15
24056424:	eec5 7a87 	vdiv.f32	s15, s11, s14
24056428:	ee07 3a10 	vmov	s14, r3
2405642c:	eeb8 7ac7 	vcvt.f32.s32	s14, s14
24056430:	ee37 7a26 	vadd.f32	s14, s14, s13
24056434:	ee37 7a06 	vadd.f32	s14, s14, s12
24056438:	ee67 7a87 	vmul.f32	s15, s15, s14
2405643c:	4b20      	ldr	r3, [pc, #128]	; (240564c0 <HAL_RCC_GetSysClockFreq+0x128>)
2405643e:	6b1b      	ldr	r3, [r3, #48]	; 0x30
24056440:	f3c3 2346 	ubfx	r3, r3, #9, #7
24056444:	3301      	adds	r3, #1
24056446:	ee07 3a10 	vmov	s14, r3
2405644a:	eef8 6ac7 	vcvt.f32.s32	s13, s14
2405644e:	ee87 7aa6 	vdiv.f32	s14, s15, s13
24056452:	eefc 7ac7 	vcvt.u32.f32	s15, s14
24056456:	ee17 0a90 	vmov	r0, s15
2405645a:	e7b3      	b.n	240563c4 <HAL_RCC_GetSysClockFreq+0x2c>
2405645c:	6b1b      	ldr	r3, [r3, #48]	; 0x30
2405645e:	f3c3 0308 	ubfx	r3, r3, #0, #9
24056462:	ee07 3a90 	vmov	s15, r3
24056466:	eef8 7ae7 	vcvt.f32.s32	s15, s15
2405646a:	ee77 7aa6 	vadd.f32	s15, s15, s13
2405646e:	ee77 7a86 	vadd.f32	s15, s15, s12
24056472:	ed9f 6a15 	vldr	s12, [pc, #84]	; 240564c8 <HAL_RCC_GetSysClockFreq+0x130>
24056476:	eec6 6a07 	vdiv.f32	s13, s12, s14
2405647a:	ee67 7aa6 	vmul.f32	s15, s15, s13
2405647e:	e7dd      	b.n	2405643c <HAL_RCC_GetSysClockFreq+0xa4>
24056480:	6b1b      	ldr	r3, [r3, #48]	; 0x30
24056482:	f3c3 0308 	ubfx	r3, r3, #0, #9
24056486:	ee07 3a90 	vmov	s15, r3
2405648a:	eef8 7ae7 	vcvt.f32.s32	s15, s15
2405648e:	ee77 7aa6 	vadd.f32	s15, s15, s13
24056492:	ee77 7a86 	vadd.f32	s15, s15, s12
24056496:	ed9f 6a0d 	vldr	s12, [pc, #52]	; 240564cc <HAL_RCC_GetSysClockFreq+0x134>
2405649a:	e7ec      	b.n	24056476 <HAL_RCC_GetSysClockFreq+0xde>
2405649c:	6b1b      	ldr	r3, [r3, #48]	; 0x30
2405649e:	f3c3 0308 	ubfx	r3, r3, #0, #9
240564a2:	ee07 3a90 	vmov	s15, r3
240564a6:	eef8 7ae7 	vcvt.f32.s32	s15, s15
240564aa:	ee77 7aa6 	vadd.f32	s15, s15, s13
240564ae:	ee77 7a86 	vadd.f32	s15, s15, s12
240564b2:	ed9f 6a07 	vldr	s12, [pc, #28]	; 240564d0 <HAL_RCC_GetSysClockFreq+0x138>
240564b6:	e7de      	b.n	24056476 <HAL_RCC_GetSysClockFreq+0xde>
240564b8:	4806      	ldr	r0, [pc, #24]	; (240564d4 <HAL_RCC_GetSysClockFreq+0x13c>)
240564ba:	e783      	b.n	240563c4 <HAL_RCC_GetSysClockFreq+0x2c>
240564bc:	4806      	ldr	r0, [pc, #24]	; (240564d8 <HAL_RCC_GetSysClockFreq+0x140>)
240564be:	e781      	b.n	240563c4 <HAL_RCC_GetSysClockFreq+0x2c>
240564c0:	58024400 	.word	0x58024400
240564c4:	03d09000 	.word	0x03d09000
240564c8:	4c742400 	.word	0x4c742400
240564cc:	4bb71b00 	.word	0x4bb71b00
240564d0:	4a742400 	.word	0x4a742400
240564d4:	016e3600 	.word	0x016e3600
240564d8:	003d0900 	.word	0x003d0900

240564dc <HAL_RCC_ClockConfig>:
240564dc:	e92d 41f0 	stmdb	sp!, {r4, r5, r6, r7, r8, lr}
240564e0:	460d      	mov	r5, r1
240564e2:	4604      	mov	r4, r0
240564e4:	b910      	cbnz	r0, 240564ec <HAL_RCC_ClockConfig+0x10>
240564e6:	2001      	movs	r0, #1
240564e8:	e8bd 81f0 	ldmia.w	sp!, {r4, r5, r6, r7, r8, pc}
240564ec:	4a88      	ldr	r2, [pc, #544]	; (24056710 <HAL_RCC_ClockConfig+0x234>)
240564ee:	6813      	ldr	r3, [r2, #0]
240564f0:	f003 030f 	and.w	r3, r3, #15
240564f4:	428b      	cmp	r3, r1
240564f6:	f0c0 8093 	bcc.w	24056620 <HAL_RCC_ClockConfig+0x144>
240564fa:	6823      	ldr	r3, [r4, #0]
240564fc:	075f      	lsls	r7, r3, #29
240564fe:	f100 809b 	bmi.w	24056638 <HAL_RCC_ClockConfig+0x15c>
24056502:	071e      	lsls	r6, r3, #28
24056504:	d50b      	bpl.n	2405651e <HAL_RCC_ClockConfig+0x42>
24056506:	4983      	ldr	r1, [pc, #524]	; (24056714 <HAL_RCC_ClockConfig+0x238>)
24056508:	6960      	ldr	r0, [r4, #20]
2405650a:	69ca      	ldr	r2, [r1, #28]
2405650c:	f002 0270 	and.w	r2, r2, #112	; 0x70
24056510:	4290      	cmp	r0, r2
24056512:	d904      	bls.n	2405651e <HAL_RCC_ClockConfig+0x42>
24056514:	69ca      	ldr	r2, [r1, #28]
24056516:	f022 0270 	bic.w	r2, r2, #112	; 0x70
2405651a:	4302      	orrs	r2, r0
2405651c:	61ca      	str	r2, [r1, #28]
2405651e:	06d8      	lsls	r0, r3, #27
24056520:	d50b      	bpl.n	2405653a <HAL_RCC_ClockConfig+0x5e>
24056522:	497c      	ldr	r1, [pc, #496]	; (24056714 <HAL_RCC_ClockConfig+0x238>)
24056524:	69a0      	ldr	r0, [r4, #24]
24056526:	69ca      	ldr	r2, [r1, #28]
24056528:	f402 62e0 	and.w	r2, r2, #1792	; 0x700
2405652c:	4290      	cmp	r0, r2
2405652e:	d904      	bls.n	2405653a <HAL_RCC_ClockConfig+0x5e>
24056530:	69ca      	ldr	r2, [r1, #28]
24056532:	f422 62e0 	bic.w	r2, r2, #1792	; 0x700
24056536:	4302      	orrs	r2, r0
24056538:	61ca      	str	r2, [r1, #28]
2405653a:	0699      	lsls	r1, r3, #26
2405653c:	d50b      	bpl.n	24056556 <HAL_RCC_ClockConfig+0x7a>
2405653e:	4975      	ldr	r1, [pc, #468]	; (24056714 <HAL_RCC_ClockConfig+0x238>)
24056540:	69e0      	ldr	r0, [r4, #28]
24056542:	6a0a      	ldr	r2, [r1, #32]
24056544:	f002 0270 	and.w	r2, r2, #112	; 0x70
24056548:	4290      	cmp	r0, r2
2405654a:	d904      	bls.n	24056556 <HAL_RCC_ClockConfig+0x7a>
2405654c:	6a0a      	ldr	r2, [r1, #32]
2405654e:	f022 0270 	bic.w	r2, r2, #112	; 0x70
24056552:	4302      	orrs	r2, r0
24056554:	620a      	str	r2, [r1, #32]
24056556:	079a      	lsls	r2, r3, #30
24056558:	d50b      	bpl.n	24056572 <HAL_RCC_ClockConfig+0x96>
2405655a:	496e      	ldr	r1, [pc, #440]	; (24056714 <HAL_RCC_ClockConfig+0x238>)
2405655c:	68e0      	ldr	r0, [r4, #12]
2405655e:	698a      	ldr	r2, [r1, #24]
24056560:	f002 020f 	and.w	r2, r2, #15
24056564:	4290      	cmp	r0, r2
24056566:	d904      	bls.n	24056572 <HAL_RCC_ClockConfig+0x96>
24056568:	698a      	ldr	r2, [r1, #24]
2405656a:	f022 020f 	bic.w	r2, r2, #15
2405656e:	4302      	orrs	r2, r0
24056570:	618a      	str	r2, [r1, #24]
24056572:	07df      	lsls	r7, r3, #31
24056574:	d46e      	bmi.n	24056654 <HAL_RCC_ClockConfig+0x178>
24056576:	6823      	ldr	r3, [r4, #0]
24056578:	079e      	lsls	r6, r3, #30
2405657a:	f100 80a1 	bmi.w	240566c0 <HAL_RCC_ClockConfig+0x1e4>
2405657e:	4964      	ldr	r1, [pc, #400]	; (24056710 <HAL_RCC_ClockConfig+0x234>)
24056580:	680a      	ldr	r2, [r1, #0]
24056582:	f002 020f 	and.w	r2, r2, #15
24056586:	42aa      	cmp	r2, r5
24056588:	f200 80a8 	bhi.w	240566dc <HAL_RCC_ClockConfig+0x200>
2405658c:	0758      	lsls	r0, r3, #29
2405658e:	f100 80b1 	bmi.w	240566f4 <HAL_RCC_ClockConfig+0x218>
24056592:	0719      	lsls	r1, r3, #28
24056594:	d50b      	bpl.n	240565ae <HAL_RCC_ClockConfig+0xd2>
24056596:	495f      	ldr	r1, [pc, #380]	; (24056714 <HAL_RCC_ClockConfig+0x238>)
24056598:	6960      	ldr	r0, [r4, #20]
2405659a:	69ca      	ldr	r2, [r1, #28]
2405659c:	f002 0270 	and.w	r2, r2, #112	; 0x70
240565a0:	4290      	cmp	r0, r2
240565a2:	d204      	bcs.n	240565ae <HAL_RCC_ClockConfig+0xd2>
240565a4:	69ca      	ldr	r2, [r1, #28]
240565a6:	f022 0270 	bic.w	r2, r2, #112	; 0x70
240565aa:	4302      	orrs	r2, r0
240565ac:	61ca      	str	r2, [r1, #28]
240565ae:	06da      	lsls	r2, r3, #27
240565b0:	d50b      	bpl.n	240565ca <HAL_RCC_ClockConfig+0xee>
240565b2:	4958      	ldr	r1, [pc, #352]	; (24056714 <HAL_RCC_ClockConfig+0x238>)
240565b4:	69a0      	ldr	r0, [r4, #24]
240565b6:	69ca      	ldr	r2, [r1, #28]
240565b8:	f402 62e0 	and.w	r2, r2, #1792	; 0x700
240565bc:	4290      	cmp	r0, r2
240565be:	d204      	bcs.n	240565ca <HAL_RCC_ClockConfig+0xee>
240565c0:	69ca      	ldr	r2, [r1, #28]
240565c2:	f422 62e0 	bic.w	r2, r2, #1792	; 0x700
240565c6:	4302      	orrs	r2, r0
240565c8:	61ca      	str	r2, [r1, #28]
240565ca:	069b      	lsls	r3, r3, #26
240565cc:	d50b      	bpl.n	240565e6 <HAL_RCC_ClockConfig+0x10a>
240565ce:	4a51      	ldr	r2, [pc, #324]	; (24056714 <HAL_RCC_ClockConfig+0x238>)
240565d0:	69e1      	ldr	r1, [r4, #28]
240565d2:	6a13      	ldr	r3, [r2, #32]
240565d4:	f003 0370 	and.w	r3, r3, #112	; 0x70
240565d8:	4299      	cmp	r1, r3
240565da:	d204      	bcs.n	240565e6 <HAL_RCC_ClockConfig+0x10a>
240565dc:	6a13      	ldr	r3, [r2, #32]
240565de:	f023 0370 	bic.w	r3, r3, #112	; 0x70
240565e2:	430b      	orrs	r3, r1
240565e4:	6213      	str	r3, [r2, #32]
240565e6:	f7ff fed7 	bl	24056398 <HAL_RCC_GetSysClockFreq>
240565ea:	494a      	ldr	r1, [pc, #296]	; (24056714 <HAL_RCC_ClockConfig+0x238>)
240565ec:	4a4a      	ldr	r2, [pc, #296]	; (24056718 <HAL_RCC_ClockConfig+0x23c>)
240565ee:	698b      	ldr	r3, [r1, #24]
240565f0:	f3c3 2303 	ubfx	r3, r3, #8, #4
240565f4:	5cd3      	ldrb	r3, [r2, r3]
240565f6:	f003 031f 	and.w	r3, r3, #31
240565fa:	40d8      	lsrs	r0, r3
240565fc:	698b      	ldr	r3, [r1, #24]
240565fe:	f003 030f 	and.w	r3, r3, #15
24056602:	5cd3      	ldrb	r3, [r2, r3]
24056604:	4a45      	ldr	r2, [pc, #276]	; (2405671c <HAL_RCC_ClockConfig+0x240>)
24056606:	f003 031f 	and.w	r3, r3, #31
2405660a:	fa20 f303 	lsr.w	r3, r0, r3
2405660e:	6013      	str	r3, [r2, #0]
24056610:	4b43      	ldr	r3, [pc, #268]	; (24056720 <HAL_RCC_ClockConfig+0x244>)
24056612:	6018      	str	r0, [r3, #0]
24056614:	4b43      	ldr	r3, [pc, #268]	; (24056724 <HAL_RCC_ClockConfig+0x248>)
24056616:	e8bd 41f0 	ldmia.w	sp!, {r4, r5, r6, r7, r8, lr}
2405661a:	6818      	ldr	r0, [r3, #0]
2405661c:	f7fc b922 	b.w	24052864 <HAL_InitTick>
24056620:	6813      	ldr	r3, [r2, #0]
24056622:	f023 030f 	bic.w	r3, r3, #15
24056626:	430b      	orrs	r3, r1
24056628:	6013      	str	r3, [r2, #0]
2405662a:	6813      	ldr	r3, [r2, #0]
2405662c:	f003 030f 	and.w	r3, r3, #15
24056630:	428b      	cmp	r3, r1
24056632:	f47f af58 	bne.w	240564e6 <HAL_RCC_ClockConfig+0xa>
24056636:	e760      	b.n	240564fa <HAL_RCC_ClockConfig+0x1e>
24056638:	4936      	ldr	r1, [pc, #216]	; (24056714 <HAL_RCC_ClockConfig+0x238>)
2405663a:	6920      	ldr	r0, [r4, #16]
2405663c:	698a      	ldr	r2, [r1, #24]
2405663e:	f002 0270 	and.w	r2, r2, #112	; 0x70
24056642:	4290      	cmp	r0, r2
24056644:	f67f af5d 	bls.w	24056502 <HAL_RCC_ClockConfig+0x26>
24056648:	698a      	ldr	r2, [r1, #24]
2405664a:	f022 0270 	bic.w	r2, r2, #112	; 0x70
2405664e:	4302      	orrs	r2, r0
24056650:	618a      	str	r2, [r1, #24]
24056652:	e756      	b.n	24056502 <HAL_RCC_ClockConfig+0x26>
24056654:	4b2f      	ldr	r3, [pc, #188]	; (24056714 <HAL_RCC_ClockConfig+0x238>)
24056656:	68a1      	ldr	r1, [r4, #8]
24056658:	699a      	ldr	r2, [r3, #24]
2405665a:	f422 6270 	bic.w	r2, r2, #3840	; 0xf00
2405665e:	430a      	orrs	r2, r1
24056660:	619a      	str	r2, [r3, #24]
24056662:	6861      	ldr	r1, [r4, #4]
24056664:	681a      	ldr	r2, [r3, #0]
24056666:	2902      	cmp	r1, #2
24056668:	d11d      	bne.n	240566a6 <HAL_RCC_ClockConfig+0x1ca>
2405666a:	f412 3f00 	tst.w	r2, #131072	; 0x20000
2405666e:	f43f af3a 	beq.w	240564e6 <HAL_RCC_ClockConfig+0xa>
24056672:	691a      	ldr	r2, [r3, #16]
24056674:	f241 3888 	movw	r8, #5000	; 0x1388
24056678:	4f26      	ldr	r7, [pc, #152]	; (24056714 <HAL_RCC_ClockConfig+0x238>)
2405667a:	f022 0207 	bic.w	r2, r2, #7
2405667e:	430a      	orrs	r2, r1
24056680:	611a      	str	r2, [r3, #16]
24056682:	f7fc f94f 	bl	24052924 <HAL_GetTick>
24056686:	4606      	mov	r6, r0
24056688:	693b      	ldr	r3, [r7, #16]
2405668a:	6862      	ldr	r2, [r4, #4]
2405668c:	f003 0338 	and.w	r3, r3, #56	; 0x38
24056690:	ebb3 0fc2 	cmp.w	r3, r2, lsl #3
24056694:	f43f af6f 	beq.w	24056576 <HAL_RCC_ClockConfig+0x9a>
24056698:	f7fc f944 	bl	24052924 <HAL_GetTick>
2405669c:	1b80      	subs	r0, r0, r6
2405669e:	4540      	cmp	r0, r8
240566a0:	d9f2      	bls.n	24056688 <HAL_RCC_ClockConfig+0x1ac>
240566a2:	2003      	movs	r0, #3
240566a4:	e720      	b.n	240564e8 <HAL_RCC_ClockConfig+0xc>
240566a6:	2903      	cmp	r1, #3
240566a8:	d102      	bne.n	240566b0 <HAL_RCC_ClockConfig+0x1d4>
240566aa:	f012 7f00 	tst.w	r2, #33554432	; 0x2000000
240566ae:	e7de      	b.n	2405666e <HAL_RCC_ClockConfig+0x192>
240566b0:	2901      	cmp	r1, #1
240566b2:	d102      	bne.n	240566ba <HAL_RCC_ClockConfig+0x1de>
240566b4:	f412 7f80 	tst.w	r2, #256	; 0x100
240566b8:	e7d9      	b.n	2405666e <HAL_RCC_ClockConfig+0x192>
240566ba:	f012 0f04 	tst.w	r2, #4
240566be:	e7d6      	b.n	2405666e <HAL_RCC_ClockConfig+0x192>
240566c0:	4914      	ldr	r1, [pc, #80]	; (24056714 <HAL_RCC_ClockConfig+0x238>)
240566c2:	68e0      	ldr	r0, [r4, #12]
240566c4:	698a      	ldr	r2, [r1, #24]
240566c6:	f002 020f 	and.w	r2, r2, #15
240566ca:	4290      	cmp	r0, r2
240566cc:	f4bf af57 	bcs.w	2405657e <HAL_RCC_ClockConfig+0xa2>
240566d0:	698a      	ldr	r2, [r1, #24]
240566d2:	f022 020f 	bic.w	r2, r2, #15
240566d6:	4302      	orrs	r2, r0
240566d8:	618a      	str	r2, [r1, #24]
240566da:	e750      	b.n	2405657e <HAL_RCC_ClockConfig+0xa2>
240566dc:	680a      	ldr	r2, [r1, #0]
240566de:	f022 020f 	bic.w	r2, r2, #15
240566e2:	432a      	orrs	r2, r5
240566e4:	600a      	str	r2, [r1, #0]
240566e6:	680a      	ldr	r2, [r1, #0]
240566e8:	f002 020f 	and.w	r2, r2, #15
240566ec:	42aa      	cmp	r2, r5
240566ee:	f47f aefa 	bne.w	240564e6 <HAL_RCC_ClockConfig+0xa>
240566f2:	e74b      	b.n	2405658c <HAL_RCC_ClockConfig+0xb0>
240566f4:	4907      	ldr	r1, [pc, #28]	; (24056714 <HAL_RCC_ClockConfig+0x238>)
240566f6:	6920      	ldr	r0, [r4, #16]
240566f8:	698a      	ldr	r2, [r1, #24]
240566fa:	f002 0270 	and.w	r2, r2, #112	; 0x70
240566fe:	4290      	cmp	r0, r2
24056700:	f4bf af47 	bcs.w	24056592 <HAL_RCC_ClockConfig+0xb6>
24056704:	698a      	ldr	r2, [r1, #24]
24056706:	f022 0270 	bic.w	r2, r2, #112	; 0x70
2405670a:	4302      	orrs	r2, r0
2405670c:	618a      	str	r2, [r1, #24]
2405670e:	e740      	b.n	24056592 <HAL_RCC_ClockConfig+0xb6>
24056710:	52002000 	.word	0x52002000
24056714:	58024400 	.word	0x58024400
24056718:	2405bb28 	.word	0x2405bb28
2405671c:	20000048 	.word	0x20000048
24056720:	20000044 	.word	0x20000044
24056724:	20000050 	.word	0x20000050

24056728 <HAL_RCC_GetHCLKFreq>:
24056728:	b510      	push	{r4, lr}
2405672a:	4c0c      	ldr	r4, [pc, #48]	; (2405675c <HAL_RCC_GetHCLKFreq+0x34>)
2405672c:	f7ff fe34 	bl	24056398 <HAL_RCC_GetSysClockFreq>
24056730:	490b      	ldr	r1, [pc, #44]	; (24056760 <HAL_RCC_GetHCLKFreq+0x38>)
24056732:	69a3      	ldr	r3, [r4, #24]
24056734:	f3c3 2303 	ubfx	r3, r3, #8, #4
24056738:	5ccb      	ldrb	r3, [r1, r3]
2405673a:	f003 031f 	and.w	r3, r3, #31
2405673e:	fa20 f203 	lsr.w	r2, r0, r3
24056742:	69a3      	ldr	r3, [r4, #24]
24056744:	f003 030f 	and.w	r3, r3, #15
24056748:	5ccb      	ldrb	r3, [r1, r3]
2405674a:	f003 031f 	and.w	r3, r3, #31
2405674e:	fa22 f003 	lsr.w	r0, r2, r3
24056752:	4b04      	ldr	r3, [pc, #16]	; (24056764 <HAL_RCC_GetHCLKFreq+0x3c>)
24056754:	6018      	str	r0, [r3, #0]
24056756:	4b04      	ldr	r3, [pc, #16]	; (24056768 <HAL_RCC_GetHCLKFreq+0x40>)
24056758:	601a      	str	r2, [r3, #0]
2405675a:	bd10      	pop	{r4, pc}
2405675c:	58024400 	.word	0x58024400
24056760:	2405bb28 	.word	0x2405bb28
24056764:	20000048 	.word	0x20000048
24056768:	20000044 	.word	0x20000044

2405676c <HAL_RCC_GetPCLK1Freq>:
2405676c:	b508      	push	{r3, lr}
2405676e:	f7ff ffdb 	bl	24056728 <HAL_RCC_GetHCLKFreq>
24056772:	4b05      	ldr	r3, [pc, #20]	; (24056788 <HAL_RCC_GetPCLK1Freq+0x1c>)
24056774:	4a05      	ldr	r2, [pc, #20]	; (2405678c <HAL_RCC_GetPCLK1Freq+0x20>)
24056776:	69db      	ldr	r3, [r3, #28]
24056778:	f3c3 1302 	ubfx	r3, r3, #4, #3
2405677c:	5cd3      	ldrb	r3, [r2, r3]
2405677e:	f003 031f 	and.w	r3, r3, #31
24056782:	40d8      	lsrs	r0, r3
24056784:	bd08      	pop	{r3, pc}
24056786:	bf00      	nop
24056788:	58024400 	.word	0x58024400
2405678c:	2405bb28 	.word	0x2405bb28

24056790 <RCCEx_PLL2_Config>:
24056790:	b5f8      	push	{r3, r4, r5, r6, r7, lr}
24056792:	4c3a      	ldr	r4, [pc, #232]	; (2405687c <RCCEx_PLL2_Config+0xec>)
24056794:	4606      	mov	r6, r0
24056796:	460d      	mov	r5, r1
24056798:	6aa3      	ldr	r3, [r4, #40]	; 0x28
2405679a:	f003 0303 	and.w	r3, r3, #3
2405679e:	2b03      	cmp	r3, #3
240567a0:	d069      	beq.n	24056876 <RCCEx_PLL2_Config+0xe6>
240567a2:	6823      	ldr	r3, [r4, #0]
240567a4:	f023 6380 	bic.w	r3, r3, #67108864	; 0x4000000
240567a8:	6023      	str	r3, [r4, #0]
240567aa:	f7fc f8bb 	bl	24052924 <HAL_GetTick>
240567ae:	4607      	mov	r7, r0
240567b0:	6823      	ldr	r3, [r4, #0]
240567b2:	011a      	lsls	r2, r3, #4
240567b4:	d44b      	bmi.n	2405684e <RCCEx_PLL2_Config+0xbe>
240567b6:	6aa3      	ldr	r3, [r4, #40]	; 0x28
240567b8:	6832      	ldr	r2, [r6, #0]
240567ba:	f423 337c 	bic.w	r3, r3, #258048	; 0x3f000
240567be:	ea43 3302 	orr.w	r3, r3, r2, lsl #12
240567c2:	62a3      	str	r3, [r4, #40]	; 0x28
240567c4:	68b3      	ldr	r3, [r6, #8]
240567c6:	68f2      	ldr	r2, [r6, #12]
240567c8:	3b01      	subs	r3, #1
240567ca:	3a01      	subs	r2, #1
240567cc:	025b      	lsls	r3, r3, #9
240567ce:	0412      	lsls	r2, r2, #16
240567d0:	b29b      	uxth	r3, r3
240567d2:	f402 02fe 	and.w	r2, r2, #8323072	; 0x7f0000
240567d6:	4313      	orrs	r3, r2
240567d8:	6872      	ldr	r2, [r6, #4]
240567da:	3a01      	subs	r2, #1
240567dc:	f3c2 0208 	ubfx	r2, r2, #0, #9
240567e0:	4313      	orrs	r3, r2
240567e2:	6932      	ldr	r2, [r6, #16]
240567e4:	3a01      	subs	r2, #1
240567e6:	0612      	lsls	r2, r2, #24
240567e8:	f002 42fe 	and.w	r2, r2, #2130706432	; 0x7f000000
240567ec:	4313      	orrs	r3, r2
240567ee:	63a3      	str	r3, [r4, #56]	; 0x38
240567f0:	6ae3      	ldr	r3, [r4, #44]	; 0x2c
240567f2:	6972      	ldr	r2, [r6, #20]
240567f4:	f023 03c0 	bic.w	r3, r3, #192	; 0xc0
240567f8:	4313      	orrs	r3, r2
240567fa:	62e3      	str	r3, [r4, #44]	; 0x2c
240567fc:	6ae3      	ldr	r3, [r4, #44]	; 0x2c
240567fe:	69b2      	ldr	r2, [r6, #24]
24056800:	f023 0320 	bic.w	r3, r3, #32
24056804:	4313      	orrs	r3, r2
24056806:	62e3      	str	r3, [r4, #44]	; 0x2c
24056808:	6ae3      	ldr	r3, [r4, #44]	; 0x2c
2405680a:	f023 0310 	bic.w	r3, r3, #16
2405680e:	62e3      	str	r3, [r4, #44]	; 0x2c
24056810:	6be3      	ldr	r3, [r4, #60]	; 0x3c
24056812:	69f2      	ldr	r2, [r6, #28]
24056814:	f423 437f 	bic.w	r3, r3, #65280	; 0xff00
24056818:	f023 03f8 	bic.w	r3, r3, #248	; 0xf8
2405681c:	ea43 03c2 	orr.w	r3, r3, r2, lsl #3
24056820:	63e3      	str	r3, [r4, #60]	; 0x3c
24056822:	6ae3      	ldr	r3, [r4, #44]	; 0x2c
24056824:	f043 0310 	orr.w	r3, r3, #16
24056828:	62e3      	str	r3, [r4, #44]	; 0x2c
2405682a:	6ae3      	ldr	r3, [r4, #44]	; 0x2c
2405682c:	b9b5      	cbnz	r5, 2405685c <RCCEx_PLL2_Config+0xcc>
2405682e:	f443 2300 	orr.w	r3, r3, #524288	; 0x80000
24056832:	62e3      	str	r3, [r4, #44]	; 0x2c
24056834:	4c11      	ldr	r4, [pc, #68]	; (2405687c <RCCEx_PLL2_Config+0xec>)
24056836:	6823      	ldr	r3, [r4, #0]
24056838:	f043 6380 	orr.w	r3, r3, #67108864	; 0x4000000
2405683c:	6023      	str	r3, [r4, #0]
2405683e:	f7fc f871 	bl	24052924 <HAL_GetTick>
24056842:	4605      	mov	r5, r0
24056844:	6823      	ldr	r3, [r4, #0]
24056846:	011b      	lsls	r3, r3, #4
24056848:	d50f      	bpl.n	2405686a <RCCEx_PLL2_Config+0xda>
2405684a:	2000      	movs	r0, #0
2405684c:	e005      	b.n	2405685a <RCCEx_PLL2_Config+0xca>
2405684e:	f7fc f869 	bl	24052924 <HAL_GetTick>
24056852:	1bc0      	subs	r0, r0, r7
24056854:	2802      	cmp	r0, #2
24056856:	d9ab      	bls.n	240567b0 <RCCEx_PLL2_Config+0x20>
24056858:	2003      	movs	r0, #3
2405685a:	bdf8      	pop	{r3, r4, r5, r6, r7, pc}
2405685c:	2d01      	cmp	r5, #1
2405685e:	bf0c      	ite	eq
24056860:	f443 1380 	orreq.w	r3, r3, #1048576	; 0x100000
24056864:	f443 1300 	orrne.w	r3, r3, #2097152	; 0x200000
24056868:	e7e3      	b.n	24056832 <RCCEx_PLL2_Config+0xa2>
2405686a:	f7fc f85b 	bl	24052924 <HAL_GetTick>
2405686e:	1b40      	subs	r0, r0, r5
24056870:	2802      	cmp	r0, #2
24056872:	d9e7      	bls.n	24056844 <RCCEx_PLL2_Config+0xb4>
24056874:	e7f0      	b.n	24056858 <RCCEx_PLL2_Config+0xc8>
24056876:	2001      	movs	r0, #1
24056878:	e7ef      	b.n	2405685a <RCCEx_PLL2_Config+0xca>
2405687a:	bf00      	nop
2405687c:	58024400 	.word	0x58024400

24056880 <RCCEx_PLL3_Config>:
24056880:	b5f8      	push	{r3, r4, r5, r6, r7, lr}
24056882:	4c3a      	ldr	r4, [pc, #232]	; (2405696c <RCCEx_PLL3_Config+0xec>)
24056884:	4606      	mov	r6, r0
24056886:	460d      	mov	r5, r1
24056888:	6aa3      	ldr	r3, [r4, #40]	; 0x28
2405688a:	f003 0303 	and.w	r3, r3, #3
2405688e:	2b03      	cmp	r3, #3
24056890:	d069      	beq.n	24056966 <RCCEx_PLL3_Config+0xe6>
24056892:	6823      	ldr	r3, [r4, #0]
24056894:	f023 5380 	bic.w	r3, r3, #268435456	; 0x10000000
24056898:	6023      	str	r3, [r4, #0]
2405689a:	f7fc f843 	bl	24052924 <HAL_GetTick>
2405689e:	4607      	mov	r7, r0
240568a0:	6823      	ldr	r3, [r4, #0]
240568a2:	009a      	lsls	r2, r3, #2
240568a4:	d44b      	bmi.n	2405693e <RCCEx_PLL3_Config+0xbe>
240568a6:	6aa3      	ldr	r3, [r4, #40]	; 0x28
240568a8:	6832      	ldr	r2, [r6, #0]
240568aa:	f023 737c 	bic.w	r3, r3, #66060288	; 0x3f00000
240568ae:	ea43 5302 	orr.w	r3, r3, r2, lsl #20
240568b2:	62a3      	str	r3, [r4, #40]	; 0x28
240568b4:	68b3      	ldr	r3, [r6, #8]
240568b6:	68f2      	ldr	r2, [r6, #12]
240568b8:	3b01      	subs	r3, #1
240568ba:	3a01      	subs	r2, #1
240568bc:	025b      	lsls	r3, r3, #9
240568be:	0412      	lsls	r2, r2, #16
240568c0:	b29b      	uxth	r3, r3
240568c2:	f402 02fe 	and.w	r2, r2, #8323072	; 0x7f0000
240568c6:	4313      	orrs	r3, r2
240568c8:	6872      	ldr	r2, [r6, #4]
240568ca:	3a01      	subs	r2, #1
240568cc:	f3c2 0208 	ubfx	r2, r2, #0, #9
240568d0:	4313      	orrs	r3, r2
240568d2:	6932      	ldr	r2, [r6, #16]
240568d4:	3a01      	subs	r2, #1
240568d6:	0612      	lsls	r2, r2, #24
240568d8:	f002 42fe 	and.w	r2, r2, #2130706432	; 0x7f000000
240568dc:	4313      	orrs	r3, r2
240568de:	6423      	str	r3, [r4, #64]	; 0x40
240568e0:	6ae3      	ldr	r3, [r4, #44]	; 0x2c
240568e2:	6972      	ldr	r2, [r6, #20]
240568e4:	f423 6340 	bic.w	r3, r3, #3072	; 0xc00
240568e8:	4313      	orrs	r3, r2
240568ea:	62e3      	str	r3, [r4, #44]	; 0x2c
240568ec:	6ae3      	ldr	r3, [r4, #44]	; 0x2c
240568ee:	69b2      	ldr	r2, [r6, #24]
240568f0:	f423 7300 	bic.w	r3, r3, #512	; 0x200
240568f4:	4313      	orrs	r3, r2
240568f6:	62e3      	str	r3, [r4, #44]	; 0x2c
240568f8:	6ae3      	ldr	r3, [r4, #44]	; 0x2c
240568fa:	f423 7380 	bic.w	r3, r3, #256	; 0x100
240568fe:	62e3      	str	r3, [r4, #44]	; 0x2c
24056900:	6c63      	ldr	r3, [r4, #68]	; 0x44
24056902:	69f2      	ldr	r2, [r6, #28]
24056904:	f423 437f 	bic.w	r3, r3, #65280	; 0xff00
24056908:	f023 03f8 	bic.w	r3, r3, #248	; 0xf8
2405690c:	ea43 03c2 	orr.w	r3, r3, r2, lsl #3
24056910:	6463      	str	r3, [r4, #68]	; 0x44
24056912:	6ae3      	ldr	r3, [r4, #44]	; 0x2c
24056914:	f443 7380 	orr.w	r3, r3, #256	; 0x100
24056918:	62e3      	str	r3, [r4, #44]	; 0x2c
2405691a:	6ae3      	ldr	r3, [r4, #44]	; 0x2c
2405691c:	b9b5      	cbnz	r5, 2405694c <RCCEx_PLL3_Config+0xcc>
2405691e:	f443 0380 	orr.w	r3, r3, #4194304	; 0x400000
24056922:	62e3      	str	r3, [r4, #44]	; 0x2c
24056924:	4c11      	ldr	r4, [pc, #68]	; (2405696c <RCCEx_PLL3_Config+0xec>)
24056926:	6823      	ldr	r3, [r4, #0]
24056928:	f043 5380 	orr.w	r3, r3, #268435456	; 0x10000000
2405692c:	6023      	str	r3, [r4, #0]
2405692e:	f7fb fff9 	bl	24052924 <HAL_GetTick>
24056932:	4605      	mov	r5, r0
24056934:	6823      	ldr	r3, [r4, #0]
24056936:	009b      	lsls	r3, r3, #2
24056938:	d50f      	bpl.n	2405695a <RCCEx_PLL3_Config+0xda>
2405693a:	2000      	movs	r0, #0
2405693c:	e005      	b.n	2405694a <RCCEx_PLL3_Config+0xca>
2405693e:	f7fb fff1 	bl	24052924 <HAL_GetTick>
24056942:	1bc0      	subs	r0, r0, r7
24056944:	2802      	cmp	r0, #2
24056946:	d9ab      	bls.n	240568a0 <RCCEx_PLL3_Config+0x20>
24056948:	2003      	movs	r0, #3
2405694a:	bdf8      	pop	{r3, r4, r5, r6, r7, pc}
2405694c:	2d01      	cmp	r5, #1
2405694e:	bf0c      	ite	eq
24056950:	f443 0300 	orreq.w	r3, r3, #8388608	; 0x800000
24056954:	f043 7380 	orrne.w	r3, r3, #16777216	; 0x1000000
24056958:	e7e3      	b.n	24056922 <RCCEx_PLL3_Config+0xa2>
2405695a:	f7fb ffe3 	bl	24052924 <HAL_GetTick>
2405695e:	1b40      	subs	r0, r0, r5
24056960:	2802      	cmp	r0, #2
24056962:	d9e7      	bls.n	24056934 <RCCEx_PLL3_Config+0xb4>
24056964:	e7f0      	b.n	24056948 <RCCEx_PLL3_Config+0xc8>
24056966:	2001      	movs	r0, #1
24056968:	e7ef      	b.n	2405694a <RCCEx_PLL3_Config+0xca>
2405696a:	bf00      	nop
2405696c:	58024400 	.word	0x58024400

24056970 <HAL_RCCEx_PeriphCLKConfig>:
24056970:	e92d 43f8 	stmdb	sp!, {r3, r4, r5, r6, r7, r8, r9, lr}
24056974:	6803      	ldr	r3, [r0, #0]
24056976:	4605      	mov	r5, r0
24056978:	0119      	lsls	r1, r3, #4
2405697a:	f003 6600 	and.w	r6, r3, #134217728	; 0x8000000
2405697e:	d509      	bpl.n	24056994 <HAL_RCCEx_PeriphCLKConfig+0x24>
24056980:	6ec3      	ldr	r3, [r0, #108]	; 0x6c
24056982:	f5b3 1f00 	cmp.w	r3, #2097152	; 0x200000
24056986:	d02c      	beq.n	240569e2 <HAL_RCCEx_PeriphCLKConfig+0x72>
24056988:	d811      	bhi.n	240569ae <HAL_RCCEx_PeriphCLKConfig+0x3e>
2405698a:	b1e3      	cbz	r3, 240569c6 <HAL_RCCEx_PeriphCLKConfig+0x56>
2405698c:	f5b3 1f80 	cmp.w	r3, #1048576	; 0x100000
24056990:	d01f      	beq.n	240569d2 <HAL_RCCEx_PeriphCLKConfig+0x62>
24056992:	2601      	movs	r6, #1
24056994:	682b      	ldr	r3, [r5, #0]
24056996:	05da      	lsls	r2, r3, #23
24056998:	f140 80d4 	bpl.w	24056b44 <HAL_RCCEx_PeriphCLKConfig+0x1d4>
2405699c:	6dab      	ldr	r3, [r5, #88]	; 0x58
2405699e:	2b04      	cmp	r3, #4
240569a0:	f200 80cf 	bhi.w	24056b42 <HAL_RCCEx_PeriphCLKConfig+0x1d2>
240569a4:	e8df f003 	tbb	[pc, r3]
240569a8:	27c72922 	.word	0x27c72922
240569ac:	27          	.byte	0x27
240569ad:	00          	.byte	0x00
240569ae:	f5b3 1f40 	cmp.w	r3, #3145728	; 0x300000
240569b2:	d1ee      	bne.n	24056992 <HAL_RCCEx_PeriphCLKConfig+0x22>
240569b4:	4aa8      	ldr	r2, [pc, #672]	; (24056c58 <HAL_RCCEx_PeriphCLKConfig+0x2e8>)
240569b6:	2600      	movs	r6, #0
240569b8:	6ee9      	ldr	r1, [r5, #108]	; 0x6c
240569ba:	6d13      	ldr	r3, [r2, #80]	; 0x50
240569bc:	f423 1340 	bic.w	r3, r3, #3145728	; 0x300000
240569c0:	430b      	orrs	r3, r1
240569c2:	6513      	str	r3, [r2, #80]	; 0x50
240569c4:	e7e6      	b.n	24056994 <HAL_RCCEx_PeriphCLKConfig+0x24>
240569c6:	4aa4      	ldr	r2, [pc, #656]	; (24056c58 <HAL_RCCEx_PeriphCLKConfig+0x2e8>)
240569c8:	6ad3      	ldr	r3, [r2, #44]	; 0x2c
240569ca:	f443 3300 	orr.w	r3, r3, #131072	; 0x20000
240569ce:	62d3      	str	r3, [r2, #44]	; 0x2c
240569d0:	e7f0      	b.n	240569b4 <HAL_RCCEx_PeriphCLKConfig+0x44>
240569d2:	2102      	movs	r1, #2
240569d4:	3008      	adds	r0, #8
240569d6:	f7ff fedb 	bl	24056790 <RCCEx_PLL2_Config>
240569da:	4606      	mov	r6, r0
240569dc:	2800      	cmp	r0, #0
240569de:	d1d9      	bne.n	24056994 <HAL_RCCEx_PeriphCLKConfig+0x24>
240569e0:	e7e8      	b.n	240569b4 <HAL_RCCEx_PeriphCLKConfig+0x44>
240569e2:	2102      	movs	r1, #2
240569e4:	3028      	adds	r0, #40	; 0x28
240569e6:	f7ff ff4b 	bl	24056880 <RCCEx_PLL3_Config>
240569ea:	e7f6      	b.n	240569da <HAL_RCCEx_PeriphCLKConfig+0x6a>
240569ec:	4a9a      	ldr	r2, [pc, #616]	; (24056c58 <HAL_RCCEx_PeriphCLKConfig+0x2e8>)
240569ee:	6ad3      	ldr	r3, [r2, #44]	; 0x2c
240569f0:	f443 3300 	orr.w	r3, r3, #131072	; 0x20000
240569f4:	62d3      	str	r3, [r2, #44]	; 0x2c
240569f6:	4634      	mov	r4, r6
240569f8:	e005      	b.n	24056a06 <HAL_RCCEx_PeriphCLKConfig+0x96>
240569fa:	2100      	movs	r1, #0
240569fc:	f105 0008 	add.w	r0, r5, #8
24056a00:	f7ff fec6 	bl	24056790 <RCCEx_PLL2_Config>
24056a04:	4604      	mov	r4, r0
24056a06:	2c00      	cmp	r4, #0
24056a08:	f040 809e 	bne.w	24056b48 <HAL_RCCEx_PeriphCLKConfig+0x1d8>
24056a0c:	4a92      	ldr	r2, [pc, #584]	; (24056c58 <HAL_RCCEx_PeriphCLKConfig+0x2e8>)
24056a0e:	6da9      	ldr	r1, [r5, #88]	; 0x58
24056a10:	6d13      	ldr	r3, [r2, #80]	; 0x50
24056a12:	f023 0307 	bic.w	r3, r3, #7
24056a16:	430b      	orrs	r3, r1
24056a18:	6513      	str	r3, [r2, #80]	; 0x50
24056a1a:	682b      	ldr	r3, [r5, #0]
24056a1c:	059b      	lsls	r3, r3, #22
24056a1e:	d50d      	bpl.n	24056a3c <HAL_RCCEx_PeriphCLKConfig+0xcc>
24056a20:	6deb      	ldr	r3, [r5, #92]	; 0x5c
24056a22:	2b80      	cmp	r3, #128	; 0x80
24056a24:	f000 80b0 	beq.w	24056b88 <HAL_RCCEx_PeriphCLKConfig+0x218>
24056a28:	f200 8090 	bhi.w	24056b4c <HAL_RCCEx_PeriphCLKConfig+0x1dc>
24056a2c:	2b00      	cmp	r3, #0
24056a2e:	f000 809e 	beq.w	24056b6e <HAL_RCCEx_PeriphCLKConfig+0x1fe>
24056a32:	2b40      	cmp	r3, #64	; 0x40
24056a34:	f000 80a1 	beq.w	24056b7a <HAL_RCCEx_PeriphCLKConfig+0x20a>
24056a38:	2601      	movs	r6, #1
24056a3a:	4634      	mov	r4, r6
24056a3c:	682b      	ldr	r3, [r5, #0]
24056a3e:	055f      	lsls	r7, r3, #21
24056a40:	d50f      	bpl.n	24056a62 <HAL_RCCEx_PeriphCLKConfig+0xf2>
24056a42:	6e2b      	ldr	r3, [r5, #96]	; 0x60
24056a44:	f5b3 6f80 	cmp.w	r3, #1024	; 0x400
24056a48:	f000 80c5 	beq.w	24056bd6 <HAL_RCCEx_PeriphCLKConfig+0x266>
24056a4c:	f200 80a4 	bhi.w	24056b98 <HAL_RCCEx_PeriphCLKConfig+0x228>
24056a50:	2b00      	cmp	r3, #0
24056a52:	f000 80b3 	beq.w	24056bbc <HAL_RCCEx_PeriphCLKConfig+0x24c>
24056a56:	f5b3 7f00 	cmp.w	r3, #512	; 0x200
24056a5a:	f000 80b5 	beq.w	24056bc8 <HAL_RCCEx_PeriphCLKConfig+0x258>
24056a5e:	2601      	movs	r6, #1
24056a60:	4634      	mov	r4, r6
24056a62:	682b      	ldr	r3, [r5, #0]
24056a64:	0198      	lsls	r0, r3, #6
24056a66:	d50d      	bpl.n	24056a84 <HAL_RCCEx_PeriphCLKConfig+0x114>
24056a68:	6ceb      	ldr	r3, [r5, #76]	; 0x4c
24056a6a:	2b20      	cmp	r3, #32
24056a6c:	f000 80cd 	beq.w	24056c0a <HAL_RCCEx_PeriphCLKConfig+0x29a>
24056a70:	f200 80b9 	bhi.w	24056be6 <HAL_RCCEx_PeriphCLKConfig+0x276>
24056a74:	2b00      	cmp	r3, #0
24056a76:	f000 80b9 	beq.w	24056bec <HAL_RCCEx_PeriphCLKConfig+0x27c>
24056a7a:	2b10      	cmp	r3, #16
24056a7c:	f000 80bf 	beq.w	24056bfe <HAL_RCCEx_PeriphCLKConfig+0x28e>
24056a80:	2601      	movs	r6, #1
24056a82:	4634      	mov	r4, r6
24056a84:	682b      	ldr	r3, [r5, #0]
24056a86:	04d9      	lsls	r1, r3, #19
24056a88:	d50f      	bpl.n	24056aaa <HAL_RCCEx_PeriphCLKConfig+0x13a>
24056a8a:	6e6b      	ldr	r3, [r5, #100]	; 0x64
24056a8c:	f5b3 5f00 	cmp.w	r3, #8192	; 0x2000
24056a90:	f000 80e4 	beq.w	24056c5c <HAL_RCCEx_PeriphCLKConfig+0x2ec>
24056a94:	f200 80c2 	bhi.w	24056c1c <HAL_RCCEx_PeriphCLKConfig+0x2ac>
24056a98:	2b00      	cmp	r3, #0
24056a9a:	f000 80cf 	beq.w	24056c3c <HAL_RCCEx_PeriphCLKConfig+0x2cc>
24056a9e:	f5b3 5f80 	cmp.w	r3, #4096	; 0x1000
24056aa2:	f000 80d1 	beq.w	24056c48 <HAL_RCCEx_PeriphCLKConfig+0x2d8>
24056aa6:	2601      	movs	r6, #1
24056aa8:	4634      	mov	r4, r6
24056aaa:	682b      	ldr	r3, [r5, #0]
24056aac:	049a      	lsls	r2, r3, #18
24056aae:	d50f      	bpl.n	24056ad0 <HAL_RCCEx_PeriphCLKConfig+0x160>
24056ab0:	6eab      	ldr	r3, [r5, #104]	; 0x68
24056ab2:	f5b3 3f00 	cmp.w	r3, #131072	; 0x20000
24056ab6:	f000 80f2 	beq.w	24056c9e <HAL_RCCEx_PeriphCLKConfig+0x32e>
24056aba:	f200 80d7 	bhi.w	24056c6c <HAL_RCCEx_PeriphCLKConfig+0x2fc>
24056abe:	2b00      	cmp	r3, #0
24056ac0:	f000 80dd 	beq.w	24056c7e <HAL_RCCEx_PeriphCLKConfig+0x30e>
24056ac4:	f5b3 3f80 	cmp.w	r3, #65536	; 0x10000
24056ac8:	f000 80e2 	beq.w	24056c90 <HAL_RCCEx_PeriphCLKConfig+0x320>
24056acc:	2601      	movs	r6, #1
24056ace:	4634      	mov	r4, r6
24056ad0:	682b      	ldr	r3, [r5, #0]
24056ad2:	045b      	lsls	r3, r3, #17
24056ad4:	d510      	bpl.n	24056af8 <HAL_RCCEx_PeriphCLKConfig+0x188>
24056ad6:	f8d5 30b0 	ldr.w	r3, [r5, #176]	; 0xb0
24056ada:	f1b3 5f00 	cmp.w	r3, #536870912	; 0x20000000
24056ade:	f000 8105 	beq.w	24056cec <HAL_RCCEx_PeriphCLKConfig+0x37c>
24056ae2:	f200 80e4 	bhi.w	24056cae <HAL_RCCEx_PeriphCLKConfig+0x33e>
24056ae6:	2b00      	cmp	r3, #0
24056ae8:	f000 80ec 	beq.w	24056cc4 <HAL_RCCEx_PeriphCLKConfig+0x354>
24056aec:	f1b3 5f80 	cmp.w	r3, #268435456	; 0x10000000
24056af0:	f000 80f5 	beq.w	24056cde <HAL_RCCEx_PeriphCLKConfig+0x36e>
24056af4:	2601      	movs	r6, #1
24056af6:	4634      	mov	r4, r6
24056af8:	682b      	ldr	r3, [r5, #0]
24056afa:	041f      	lsls	r7, r3, #16
24056afc:	d50d      	bpl.n	24056b1a <HAL_RCCEx_PeriphCLKConfig+0x1aa>
24056afe:	6fab      	ldr	r3, [r5, #120]	; 0x78
24056b00:	f1b3 5f80 	cmp.w	r3, #268435456	; 0x10000000
24056b04:	f000 80fa 	beq.w	24056cfc <HAL_RCCEx_PeriphCLKConfig+0x38c>
24056b08:	f1b3 5f00 	cmp.w	r3, #536870912	; 0x20000000
24056b0c:	f000 8104 	beq.w	24056d18 <HAL_RCCEx_PeriphCLKConfig+0x3a8>
24056b10:	2b00      	cmp	r3, #0
24056b12:	f000 80f8 	beq.w	24056d06 <HAL_RCCEx_PeriphCLKConfig+0x396>
24056b16:	2601      	movs	r6, #1
24056b18:	4634      	mov	r4, r6
24056b1a:	682b      	ldr	r3, [r5, #0]
24056b1c:	01d8      	lsls	r0, r3, #7
24056b1e:	f140 8112 	bpl.w	24056d46 <HAL_RCCEx_PeriphCLKConfig+0x3d6>
24056b22:	6cab      	ldr	r3, [r5, #72]	; 0x48
24056b24:	2b03      	cmp	r3, #3
24056b26:	f200 8153 	bhi.w	24056dd0 <HAL_RCCEx_PeriphCLKConfig+0x460>
24056b2a:	e8df f013 	tbh	[pc, r3, lsl #1]
24056b2e:	0103      	.short	0x0103
24056b30:	014a00fe 	.word	0x014a00fe
24056b34:	0103      	.short	0x0103
24056b36:	2100      	movs	r1, #0
24056b38:	f105 0028 	add.w	r0, r5, #40	; 0x28
24056b3c:	f7ff fea0 	bl	24056880 <RCCEx_PLL3_Config>
24056b40:	e760      	b.n	24056a04 <HAL_RCCEx_PeriphCLKConfig+0x94>
24056b42:	2601      	movs	r6, #1
24056b44:	4634      	mov	r4, r6
24056b46:	e768      	b.n	24056a1a <HAL_RCCEx_PeriphCLKConfig+0xaa>
24056b48:	4626      	mov	r6, r4
24056b4a:	e766      	b.n	24056a1a <HAL_RCCEx_PeriphCLKConfig+0xaa>
24056b4c:	f023 0240 	bic.w	r2, r3, #64	; 0x40
24056b50:	f5b2 7f80 	cmp.w	r2, #256	; 0x100
24056b54:	d002      	beq.n	24056b5c <HAL_RCCEx_PeriphCLKConfig+0x1ec>
24056b56:	2bc0      	cmp	r3, #192	; 0xc0
24056b58:	f47f af6e 	bne.w	24056a38 <HAL_RCCEx_PeriphCLKConfig+0xc8>
24056b5c:	b9d4      	cbnz	r4, 24056b94 <HAL_RCCEx_PeriphCLKConfig+0x224>
24056b5e:	4a3e      	ldr	r2, [pc, #248]	; (24056c58 <HAL_RCCEx_PeriphCLKConfig+0x2e8>)
24056b60:	6de9      	ldr	r1, [r5, #92]	; 0x5c
24056b62:	6d13      	ldr	r3, [r2, #80]	; 0x50
24056b64:	f423 73e0 	bic.w	r3, r3, #448	; 0x1c0
24056b68:	430b      	orrs	r3, r1
24056b6a:	6513      	str	r3, [r2, #80]	; 0x50
24056b6c:	e766      	b.n	24056a3c <HAL_RCCEx_PeriphCLKConfig+0xcc>
24056b6e:	4a3a      	ldr	r2, [pc, #232]	; (24056c58 <HAL_RCCEx_PeriphCLKConfig+0x2e8>)
24056b70:	6ad3      	ldr	r3, [r2, #44]	; 0x2c
24056b72:	f443 3300 	orr.w	r3, r3, #131072	; 0x20000
24056b76:	62d3      	str	r3, [r2, #44]	; 0x2c
24056b78:	e7f0      	b.n	24056b5c <HAL_RCCEx_PeriphCLKConfig+0x1ec>
24056b7a:	2100      	movs	r1, #0
24056b7c:	f105 0008 	add.w	r0, r5, #8
24056b80:	f7ff fe06 	bl	24056790 <RCCEx_PLL2_Config>
24056b84:	4604      	mov	r4, r0
24056b86:	e7e9      	b.n	24056b5c <HAL_RCCEx_PeriphCLKConfig+0x1ec>
24056b88:	2100      	movs	r1, #0
24056b8a:	f105 0028 	add.w	r0, r5, #40	; 0x28
24056b8e:	f7ff fe77 	bl	24056880 <RCCEx_PLL3_Config>
24056b92:	e7f7      	b.n	24056b84 <HAL_RCCEx_PeriphCLKConfig+0x214>
24056b94:	4626      	mov	r6, r4
24056b96:	e751      	b.n	24056a3c <HAL_RCCEx_PeriphCLKConfig+0xcc>
24056b98:	f423 7200 	bic.w	r2, r3, #512	; 0x200
24056b9c:	f5b2 6f00 	cmp.w	r2, #2048	; 0x800
24056ba0:	d003      	beq.n	24056baa <HAL_RCCEx_PeriphCLKConfig+0x23a>
24056ba2:	f5b3 6fc0 	cmp.w	r3, #1536	; 0x600
24056ba6:	f47f af5a 	bne.w	24056a5e <HAL_RCCEx_PeriphCLKConfig+0xee>
24056baa:	b9d4      	cbnz	r4, 24056be2 <HAL_RCCEx_PeriphCLKConfig+0x272>
24056bac:	4a2a      	ldr	r2, [pc, #168]	; (24056c58 <HAL_RCCEx_PeriphCLKConfig+0x2e8>)
24056bae:	6e29      	ldr	r1, [r5, #96]	; 0x60
24056bb0:	6d13      	ldr	r3, [r2, #80]	; 0x50
24056bb2:	f423 6360 	bic.w	r3, r3, #3584	; 0xe00
24056bb6:	430b      	orrs	r3, r1
24056bb8:	6513      	str	r3, [r2, #80]	; 0x50
24056bba:	e752      	b.n	24056a62 <HAL_RCCEx_PeriphCLKConfig+0xf2>
24056bbc:	4a26      	ldr	r2, [pc, #152]	; (24056c58 <HAL_RCCEx_PeriphCLKConfig+0x2e8>)
24056bbe:	6ad3      	ldr	r3, [r2, #44]	; 0x2c
24056bc0:	f443 3300 	orr.w	r3, r3, #131072	; 0x20000
24056bc4:	62d3      	str	r3, [r2, #44]	; 0x2c
24056bc6:	e7f0      	b.n	24056baa <HAL_RCCEx_PeriphCLKConfig+0x23a>
24056bc8:	2100      	movs	r1, #0
24056bca:	f105 0008 	add.w	r0, r5, #8
24056bce:	f7ff fddf 	bl	24056790 <RCCEx_PLL2_Config>
24056bd2:	4604      	mov	r4, r0
24056bd4:	e7e9      	b.n	24056baa <HAL_RCCEx_PeriphCLKConfig+0x23a>
24056bd6:	2100      	movs	r1, #0
24056bd8:	f105 0028 	add.w	r0, r5, #40	; 0x28
24056bdc:	f7ff fe50 	bl	24056880 <RCCEx_PLL3_Config>
24056be0:	e7f7      	b.n	24056bd2 <HAL_RCCEx_PeriphCLKConfig+0x262>
24056be2:	4626      	mov	r6, r4
24056be4:	e73d      	b.n	24056a62 <HAL_RCCEx_PeriphCLKConfig+0xf2>
24056be6:	2b30      	cmp	r3, #48	; 0x30
24056be8:	f47f af4a 	bne.w	24056a80 <HAL_RCCEx_PeriphCLKConfig+0x110>
24056bec:	b9a4      	cbnz	r4, 24056c18 <HAL_RCCEx_PeriphCLKConfig+0x2a8>
24056bee:	4a1a      	ldr	r2, [pc, #104]	; (24056c58 <HAL_RCCEx_PeriphCLKConfig+0x2e8>)
24056bf0:	6ce9      	ldr	r1, [r5, #76]	; 0x4c
24056bf2:	6cd3      	ldr	r3, [r2, #76]	; 0x4c
24056bf4:	f023 0330 	bic.w	r3, r3, #48	; 0x30
24056bf8:	430b      	orrs	r3, r1
24056bfa:	64d3      	str	r3, [r2, #76]	; 0x4c
24056bfc:	e742      	b.n	24056a84 <HAL_RCCEx_PeriphCLKConfig+0x114>
24056bfe:	4a16      	ldr	r2, [pc, #88]	; (24056c58 <HAL_RCCEx_PeriphCLKConfig+0x2e8>)
24056c00:	6ad3      	ldr	r3, [r2, #44]	; 0x2c
24056c02:	f443 3300 	orr.w	r3, r3, #131072	; 0x20000
24056c06:	62d3      	str	r3, [r2, #44]	; 0x2c
24056c08:	e7f0      	b.n	24056bec <HAL_RCCEx_PeriphCLKConfig+0x27c>
24056c0a:	2102      	movs	r1, #2
24056c0c:	f105 0008 	add.w	r0, r5, #8
24056c10:	f7ff fdbe 	bl	24056790 <RCCEx_PLL2_Config>
24056c14:	4604      	mov	r4, r0
24056c16:	e7e9      	b.n	24056bec <HAL_RCCEx_PeriphCLKConfig+0x27c>
24056c18:	4626      	mov	r6, r4
24056c1a:	e733      	b.n	24056a84 <HAL_RCCEx_PeriphCLKConfig+0x114>
24056c1c:	f5b3 5f40 	cmp.w	r3, #12288	; 0x3000
24056c20:	d003      	beq.n	24056c2a <HAL_RCCEx_PeriphCLKConfig+0x2ba>
24056c22:	f5b3 4f80 	cmp.w	r3, #16384	; 0x4000
24056c26:	f47f af3e 	bne.w	24056aa6 <HAL_RCCEx_PeriphCLKConfig+0x136>
24056c2a:	b9ec      	cbnz	r4, 24056c68 <HAL_RCCEx_PeriphCLKConfig+0x2f8>
24056c2c:	4a0a      	ldr	r2, [pc, #40]	; (24056c58 <HAL_RCCEx_PeriphCLKConfig+0x2e8>)
24056c2e:	6e69      	ldr	r1, [r5, #100]	; 0x64
24056c30:	6d13      	ldr	r3, [r2, #80]	; 0x50
24056c32:	f423 43e0 	bic.w	r3, r3, #28672	; 0x7000
24056c36:	430b      	orrs	r3, r1
24056c38:	6513      	str	r3, [r2, #80]	; 0x50
24056c3a:	e736      	b.n	24056aaa <HAL_RCCEx_PeriphCLKConfig+0x13a>
24056c3c:	4a06      	ldr	r2, [pc, #24]	; (24056c58 <HAL_RCCEx_PeriphCLKConfig+0x2e8>)
24056c3e:	6ad3      	ldr	r3, [r2, #44]	; 0x2c
24056c40:	f443 3300 	orr.w	r3, r3, #131072	; 0x20000
24056c44:	62d3      	str	r3, [r2, #44]	; 0x2c
24056c46:	e7f0      	b.n	24056c2a <HAL_RCCEx_PeriphCLKConfig+0x2ba>
24056c48:	2100      	movs	r1, #0
24056c4a:	f105 0008 	add.w	r0, r5, #8
24056c4e:	f7ff fd9f 	bl	24056790 <RCCEx_PLL2_Config>
24056c52:	4604      	mov	r4, r0
24056c54:	e7e9      	b.n	24056c2a <HAL_RCCEx_PeriphCLKConfig+0x2ba>
24056c56:	bf00      	nop
24056c58:	58024400 	.word	0x58024400
24056c5c:	2100      	movs	r1, #0
24056c5e:	f105 0028 	add.w	r0, r5, #40	; 0x28
24056c62:	f7ff fe0d 	bl	24056880 <RCCEx_PLL3_Config>
24056c66:	e7f4      	b.n	24056c52 <HAL_RCCEx_PeriphCLKConfig+0x2e2>
24056c68:	4626      	mov	r6, r4
24056c6a:	e71e      	b.n	24056aaa <HAL_RCCEx_PeriphCLKConfig+0x13a>
24056c6c:	f423 3280 	bic.w	r2, r3, #65536	; 0x10000
24056c70:	f5b2 2f80 	cmp.w	r2, #262144	; 0x40000
24056c74:	d003      	beq.n	24056c7e <HAL_RCCEx_PeriphCLKConfig+0x30e>
24056c76:	f5b3 3f40 	cmp.w	r3, #196608	; 0x30000
24056c7a:	f47f af27 	bne.w	24056acc <HAL_RCCEx_PeriphCLKConfig+0x15c>
24056c7e:	b9a4      	cbnz	r4, 24056caa <HAL_RCCEx_PeriphCLKConfig+0x33a>
24056c80:	4a96      	ldr	r2, [pc, #600]	; (24056edc <HAL_RCCEx_PeriphCLKConfig+0x56c>)
24056c82:	6ea9      	ldr	r1, [r5, #104]	; 0x68
24056c84:	6d13      	ldr	r3, [r2, #80]	; 0x50
24056c86:	f423 23e0 	bic.w	r3, r3, #458752	; 0x70000
24056c8a:	430b      	orrs	r3, r1
24056c8c:	6513      	str	r3, [r2, #80]	; 0x50
24056c8e:	e71f      	b.n	24056ad0 <HAL_RCCEx_PeriphCLKConfig+0x160>
24056c90:	2101      	movs	r1, #1
24056c92:	f105 0008 	add.w	r0, r5, #8
24056c96:	f7ff fd7b 	bl	24056790 <RCCEx_PLL2_Config>
24056c9a:	4604      	mov	r4, r0
24056c9c:	e7ef      	b.n	24056c7e <HAL_RCCEx_PeriphCLKConfig+0x30e>
24056c9e:	2101      	movs	r1, #1
24056ca0:	f105 0028 	add.w	r0, r5, #40	; 0x28
24056ca4:	f7ff fdec 	bl	24056880 <RCCEx_PLL3_Config>
24056ca8:	e7f7      	b.n	24056c9a <HAL_RCCEx_PeriphCLKConfig+0x32a>
24056caa:	4626      	mov	r6, r4
24056cac:	e710      	b.n	24056ad0 <HAL_RCCEx_PeriphCLKConfig+0x160>
24056cae:	f1b3 4fa0 	cmp.w	r3, #1342177280	; 0x50000000
24056cb2:	d007      	beq.n	24056cc4 <HAL_RCCEx_PeriphCLKConfig+0x354>
24056cb4:	d810      	bhi.n	24056cd8 <HAL_RCCEx_PeriphCLKConfig+0x368>
24056cb6:	f1b3 5f40 	cmp.w	r3, #805306368	; 0x30000000
24056cba:	d003      	beq.n	24056cc4 <HAL_RCCEx_PeriphCLKConfig+0x354>
24056cbc:	f1b3 4f80 	cmp.w	r3, #1073741824	; 0x40000000
24056cc0:	f47f af18 	bne.w	24056af4 <HAL_RCCEx_PeriphCLKConfig+0x184>
24056cc4:	b9c4      	cbnz	r4, 24056cf8 <HAL_RCCEx_PeriphCLKConfig+0x388>
24056cc6:	4a85      	ldr	r2, [pc, #532]	; (24056edc <HAL_RCCEx_PeriphCLKConfig+0x56c>)
24056cc8:	f8d5 10b0 	ldr.w	r1, [r5, #176]	; 0xb0
24056ccc:	6d93      	ldr	r3, [r2, #88]	; 0x58
24056cce:	f023 43e0 	bic.w	r3, r3, #1879048192	; 0x70000000
24056cd2:	430b      	orrs	r3, r1
24056cd4:	6593      	str	r3, [r2, #88]	; 0x58
24056cd6:	e70f      	b.n	24056af8 <HAL_RCCEx_PeriphCLKConfig+0x188>
24056cd8:	f1b3 4fc0 	cmp.w	r3, #1610612736	; 0x60000000
24056cdc:	e7f0      	b.n	24056cc0 <HAL_RCCEx_PeriphCLKConfig+0x350>
24056cde:	2101      	movs	r1, #1
24056ce0:	f105 0008 	add.w	r0, r5, #8
24056ce4:	f7ff fd54 	bl	24056790 <RCCEx_PLL2_Config>
24056ce8:	4604      	mov	r4, r0
24056cea:	e7eb      	b.n	24056cc4 <HAL_RCCEx_PeriphCLKConfig+0x354>
24056cec:	2101      	movs	r1, #1
24056cee:	f105 0028 	add.w	r0, r5, #40	; 0x28
24056cf2:	f7ff fdc5 	bl	24056880 <RCCEx_PLL3_Config>
24056cf6:	e7f7      	b.n	24056ce8 <HAL_RCCEx_PeriphCLKConfig+0x378>
24056cf8:	4626      	mov	r6, r4
24056cfa:	e6fd      	b.n	24056af8 <HAL_RCCEx_PeriphCLKConfig+0x188>
24056cfc:	4a77      	ldr	r2, [pc, #476]	; (24056edc <HAL_RCCEx_PeriphCLKConfig+0x56c>)
24056cfe:	6ad3      	ldr	r3, [r2, #44]	; 0x2c
24056d00:	f443 3300 	orr.w	r3, r3, #131072	; 0x20000
24056d04:	62d3      	str	r3, [r2, #44]	; 0x2c
24056d06:	b974      	cbnz	r4, 24056d26 <HAL_RCCEx_PeriphCLKConfig+0x3b6>
24056d08:	4a74      	ldr	r2, [pc, #464]	; (24056edc <HAL_RCCEx_PeriphCLKConfig+0x56c>)
24056d0a:	6fa9      	ldr	r1, [r5, #120]	; 0x78
24056d0c:	6d13      	ldr	r3, [r2, #80]	; 0x50
24056d0e:	f023 5340 	bic.w	r3, r3, #805306368	; 0x30000000
24056d12:	430b      	orrs	r3, r1
24056d14:	6513      	str	r3, [r2, #80]	; 0x50
24056d16:	e700      	b.n	24056b1a <HAL_RCCEx_PeriphCLKConfig+0x1aa>
24056d18:	2101      	movs	r1, #1
24056d1a:	f105 0008 	add.w	r0, r5, #8
24056d1e:	f7ff fd37 	bl	24056790 <RCCEx_PLL2_Config>
24056d22:	4604      	mov	r4, r0
24056d24:	e7ef      	b.n	24056d06 <HAL_RCCEx_PeriphCLKConfig+0x396>
24056d26:	4626      	mov	r6, r4
24056d28:	e6f7      	b.n	24056b1a <HAL_RCCEx_PeriphCLKConfig+0x1aa>
24056d2a:	4a6c      	ldr	r2, [pc, #432]	; (24056edc <HAL_RCCEx_PeriphCLKConfig+0x56c>)
24056d2c:	6ad3      	ldr	r3, [r2, #44]	; 0x2c
24056d2e:	f443 3300 	orr.w	r3, r3, #131072	; 0x20000
24056d32:	62d3      	str	r3, [r2, #44]	; 0x2c
24056d34:	2c00      	cmp	r4, #0
24056d36:	d14e      	bne.n	24056dd6 <HAL_RCCEx_PeriphCLKConfig+0x466>
24056d38:	4a68      	ldr	r2, [pc, #416]	; (24056edc <HAL_RCCEx_PeriphCLKConfig+0x56c>)
24056d3a:	6ca9      	ldr	r1, [r5, #72]	; 0x48
24056d3c:	6cd3      	ldr	r3, [r2, #76]	; 0x4c
24056d3e:	f023 0303 	bic.w	r3, r3, #3
24056d42:	430b      	orrs	r3, r1
24056d44:	64d3      	str	r3, [r2, #76]	; 0x4c
24056d46:	682b      	ldr	r3, [r5, #0]
24056d48:	0259      	lsls	r1, r3, #9
24056d4a:	d54e      	bpl.n	24056dea <HAL_RCCEx_PeriphCLKConfig+0x47a>
24056d4c:	4f64      	ldr	r7, [pc, #400]	; (24056ee0 <HAL_RCCEx_PeriphCLKConfig+0x570>)
24056d4e:	683b      	ldr	r3, [r7, #0]
24056d50:	f443 7380 	orr.w	r3, r3, #256	; 0x100
24056d54:	603b      	str	r3, [r7, #0]
24056d56:	f7fb fde5 	bl	24052924 <HAL_GetTick>
24056d5a:	4680      	mov	r8, r0
24056d5c:	683b      	ldr	r3, [r7, #0]
24056d5e:	05da      	lsls	r2, r3, #23
24056d60:	d53b      	bpl.n	24056dda <HAL_RCCEx_PeriphCLKConfig+0x46a>
24056d62:	2c00      	cmp	r4, #0
24056d64:	d16f      	bne.n	24056e46 <HAL_RCCEx_PeriphCLKConfig+0x4d6>
24056d66:	4b5d      	ldr	r3, [pc, #372]	; (24056edc <HAL_RCCEx_PeriphCLKConfig+0x56c>)
24056d68:	f8d5 00b4 	ldr.w	r0, [r5, #180]	; 0xb4
24056d6c:	6f1a      	ldr	r2, [r3, #112]	; 0x70
24056d6e:	4042      	eors	r2, r0
24056d70:	f412 7f40 	tst.w	r2, #768	; 0x300
24056d74:	d00b      	beq.n	24056d8e <HAL_RCCEx_PeriphCLKConfig+0x41e>
24056d76:	6f1a      	ldr	r2, [r3, #112]	; 0x70
24056d78:	6f19      	ldr	r1, [r3, #112]	; 0x70
24056d7a:	f422 7240 	bic.w	r2, r2, #768	; 0x300
24056d7e:	f441 3180 	orr.w	r1, r1, #65536	; 0x10000
24056d82:	6719      	str	r1, [r3, #112]	; 0x70
24056d84:	6f19      	ldr	r1, [r3, #112]	; 0x70
24056d86:	f421 3180 	bic.w	r1, r1, #65536	; 0x10000
24056d8a:	6719      	str	r1, [r3, #112]	; 0x70
24056d8c:	671a      	str	r2, [r3, #112]	; 0x70
24056d8e:	f5b0 7f80 	cmp.w	r0, #256	; 0x100
24056d92:	d043      	beq.n	24056e1c <HAL_RCCEx_PeriphCLKConfig+0x4ac>
24056d94:	f8d5 30b4 	ldr.w	r3, [r5, #180]	; 0xb4
24056d98:	4950      	ldr	r1, [pc, #320]	; (24056edc <HAL_RCCEx_PeriphCLKConfig+0x56c>)
24056d9a:	f403 7240 	and.w	r2, r3, #768	; 0x300
24056d9e:	f5b2 7f40 	cmp.w	r2, #768	; 0x300
24056da2:	d14c      	bne.n	24056e3e <HAL_RCCEx_PeriphCLKConfig+0x4ce>
24056da4:	6908      	ldr	r0, [r1, #16]
24056da6:	4a4f      	ldr	r2, [pc, #316]	; (24056ee4 <HAL_RCCEx_PeriphCLKConfig+0x574>)
24056da8:	f420 507c 	bic.w	r0, r0, #16128	; 0x3f00
24056dac:	ea02 1213 	and.w	r2, r2, r3, lsr #4
24056db0:	4302      	orrs	r2, r0
24056db2:	610a      	str	r2, [r1, #16]
24056db4:	f3c3 030b 	ubfx	r3, r3, #0, #12
24056db8:	4a48      	ldr	r2, [pc, #288]	; (24056edc <HAL_RCCEx_PeriphCLKConfig+0x56c>)
24056dba:	6f11      	ldr	r1, [r2, #112]	; 0x70
24056dbc:	430b      	orrs	r3, r1
24056dbe:	6713      	str	r3, [r2, #112]	; 0x70
24056dc0:	e013      	b.n	24056dea <HAL_RCCEx_PeriphCLKConfig+0x47a>
24056dc2:	2102      	movs	r1, #2
24056dc4:	f105 0008 	add.w	r0, r5, #8
24056dc8:	f7ff fce2 	bl	24056790 <RCCEx_PLL2_Config>
24056dcc:	4604      	mov	r4, r0
24056dce:	e7b1      	b.n	24056d34 <HAL_RCCEx_PeriphCLKConfig+0x3c4>
24056dd0:	2601      	movs	r6, #1
24056dd2:	4634      	mov	r4, r6
24056dd4:	e7b7      	b.n	24056d46 <HAL_RCCEx_PeriphCLKConfig+0x3d6>
24056dd6:	4626      	mov	r6, r4
24056dd8:	e7b5      	b.n	24056d46 <HAL_RCCEx_PeriphCLKConfig+0x3d6>
24056dda:	f7fb fda3 	bl	24052924 <HAL_GetTick>
24056dde:	eba0 0008 	sub.w	r0, r0, r8
24056de2:	2864      	cmp	r0, #100	; 0x64
24056de4:	d9ba      	bls.n	24056d5c <HAL_RCCEx_PeriphCLKConfig+0x3ec>
24056de6:	2603      	movs	r6, #3
24056de8:	4634      	mov	r4, r6
24056dea:	682b      	ldr	r3, [r5, #0]
24056dec:	07d8      	lsls	r0, r3, #31
24056dee:	d509      	bpl.n	24056e04 <HAL_RCCEx_PeriphCLKConfig+0x494>
24056df0:	f8d5 3084 	ldr.w	r3, [r5, #132]	; 0x84
24056df4:	2b10      	cmp	r3, #16
24056df6:	d03f      	beq.n	24056e78 <HAL_RCCEx_PeriphCLKConfig+0x508>
24056df8:	d827      	bhi.n	24056e4a <HAL_RCCEx_PeriphCLKConfig+0x4da>
24056dfa:	b363      	cbz	r3, 24056e56 <HAL_RCCEx_PeriphCLKConfig+0x4e6>
24056dfc:	2b08      	cmp	r3, #8
24056dfe:	d034      	beq.n	24056e6a <HAL_RCCEx_PeriphCLKConfig+0x4fa>
24056e00:	2601      	movs	r6, #1
24056e02:	4634      	mov	r4, r6
24056e04:	682b      	ldr	r3, [r5, #0]
24056e06:	0799      	lsls	r1, r3, #30
24056e08:	d54d      	bpl.n	24056ea6 <HAL_RCCEx_PeriphCLKConfig+0x536>
24056e0a:	f8d5 3080 	ldr.w	r3, [r5, #128]	; 0x80
24056e0e:	2b05      	cmp	r3, #5
24056e10:	d85f      	bhi.n	24056ed2 <HAL_RCCEx_PeriphCLKConfig+0x562>
24056e12:	e8df f003 	tbb	[pc, r3]
24056e16:	393f      	.short	0x393f
24056e18:	3f3f3f58 	.word	0x3f3f3f58
24056e1c:	f7fb fd82 	bl	24052924 <HAL_GetTick>
24056e20:	f8df 80b8 	ldr.w	r8, [pc, #184]	; 24056edc <HAL_RCCEx_PeriphCLKConfig+0x56c>
24056e24:	4607      	mov	r7, r0
24056e26:	f241 3988 	movw	r9, #5000	; 0x1388
24056e2a:	f8d8 3070 	ldr.w	r3, [r8, #112]	; 0x70
24056e2e:	079b      	lsls	r3, r3, #30
24056e30:	d4b0      	bmi.n	24056d94 <HAL_RCCEx_PeriphCLKConfig+0x424>
24056e32:	f7fb fd77 	bl	24052924 <HAL_GetTick>
24056e36:	1bc0      	subs	r0, r0, r7
24056e38:	4548      	cmp	r0, r9
24056e3a:	d9f6      	bls.n	24056e2a <HAL_RCCEx_PeriphCLKConfig+0x4ba>
24056e3c:	e7d3      	b.n	24056de6 <HAL_RCCEx_PeriphCLKConfig+0x476>
24056e3e:	690a      	ldr	r2, [r1, #16]
24056e40:	f422 527c 	bic.w	r2, r2, #16128	; 0x3f00
24056e44:	e7b5      	b.n	24056db2 <HAL_RCCEx_PeriphCLKConfig+0x442>
24056e46:	4626      	mov	r6, r4
24056e48:	e7cf      	b.n	24056dea <HAL_RCCEx_PeriphCLKConfig+0x47a>
24056e4a:	f023 0208 	bic.w	r2, r3, #8
24056e4e:	2a20      	cmp	r2, #32
24056e50:	d001      	beq.n	24056e56 <HAL_RCCEx_PeriphCLKConfig+0x4e6>
24056e52:	2b18      	cmp	r3, #24
24056e54:	d1d4      	bne.n	24056e00 <HAL_RCCEx_PeriphCLKConfig+0x490>
24056e56:	b9ac      	cbnz	r4, 24056e84 <HAL_RCCEx_PeriphCLKConfig+0x514>
24056e58:	4a20      	ldr	r2, [pc, #128]	; (24056edc <HAL_RCCEx_PeriphCLKConfig+0x56c>)
24056e5a:	f8d5 1084 	ldr.w	r1, [r5, #132]	; 0x84
24056e5e:	6d53      	ldr	r3, [r2, #84]	; 0x54
24056e60:	f023 0338 	bic.w	r3, r3, #56	; 0x38
24056e64:	430b      	orrs	r3, r1
24056e66:	6553      	str	r3, [r2, #84]	; 0x54
24056e68:	e7cc      	b.n	24056e04 <HAL_RCCEx_PeriphCLKConfig+0x494>
24056e6a:	2101      	movs	r1, #1
24056e6c:	f105 0008 	add.w	r0, r5, #8
24056e70:	f7ff fc8e 	bl	24056790 <RCCEx_PLL2_Config>
24056e74:	4604      	mov	r4, r0
24056e76:	e7ee      	b.n	24056e56 <HAL_RCCEx_PeriphCLKConfig+0x4e6>
24056e78:	2101      	movs	r1, #1
24056e7a:	f105 0028 	add.w	r0, r5, #40	; 0x28
24056e7e:	f7ff fcff 	bl	24056880 <RCCEx_PLL3_Config>
24056e82:	e7f7      	b.n	24056e74 <HAL_RCCEx_PeriphCLKConfig+0x504>
24056e84:	4626      	mov	r6, r4
24056e86:	e7bd      	b.n	24056e04 <HAL_RCCEx_PeriphCLKConfig+0x494>
24056e88:	2101      	movs	r1, #1
24056e8a:	f105 0008 	add.w	r0, r5, #8
24056e8e:	f7ff fc7f 	bl	24056790 <RCCEx_PLL2_Config>
24056e92:	4604      	mov	r4, r0
24056e94:	bb04      	cbnz	r4, 24056ed8 <HAL_RCCEx_PeriphCLKConfig+0x568>
24056e96:	4a11      	ldr	r2, [pc, #68]	; (24056edc <HAL_RCCEx_PeriphCLKConfig+0x56c>)
24056e98:	f8d5 1080 	ldr.w	r1, [r5, #128]	; 0x80
24056e9c:	6d53      	ldr	r3, [r2, #84]	; 0x54
24056e9e:	f023 0307 	bic.w	r3, r3, #7
24056ea2:	430b      	orrs	r3, r1
24056ea4:	6553      	str	r3, [r2, #84]	; 0x54
24056ea6:	682b      	ldr	r3, [r5, #0]
24056ea8:	075a      	lsls	r2, r3, #29
24056eaa:	d52e      	bpl.n	24056f0a <HAL_RCCEx_PeriphCLKConfig+0x59a>
24056eac:	f8d5 309c 	ldr.w	r3, [r5, #156]	; 0x9c
24056eb0:	2b05      	cmp	r3, #5
24056eb2:	f200 817f 	bhi.w	240571b4 <HAL_RCCEx_PeriphCLKConfig+0x844>
24056eb6:	e8df f013 	tbh	[pc, r3, lsl #1]
24056eba:	001d      	.short	0x001d
24056ebc:	01770017 	.word	0x01770017
24056ec0:	001d001d 	.word	0x001d001d
24056ec4:	001d      	.short	0x001d
24056ec6:	2101      	movs	r1, #1
24056ec8:	f105 0028 	add.w	r0, r5, #40	; 0x28
24056ecc:	f7ff fcd8 	bl	24056880 <RCCEx_PLL3_Config>
24056ed0:	e7df      	b.n	24056e92 <HAL_RCCEx_PeriphCLKConfig+0x522>
24056ed2:	2601      	movs	r6, #1
24056ed4:	4634      	mov	r4, r6
24056ed6:	e7e6      	b.n	24056ea6 <HAL_RCCEx_PeriphCLKConfig+0x536>
24056ed8:	4626      	mov	r6, r4
24056eda:	e7e4      	b.n	24056ea6 <HAL_RCCEx_PeriphCLKConfig+0x536>
24056edc:	58024400 	.word	0x58024400
24056ee0:	58024800 	.word	0x58024800
24056ee4:	00ffffcf 	.word	0x00ffffcf
24056ee8:	2101      	movs	r1, #1
24056eea:	f105 0008 	add.w	r0, r5, #8
24056eee:	f7ff fc4f 	bl	24056790 <RCCEx_PLL2_Config>
24056ef2:	4604      	mov	r4, r0
24056ef4:	2c00      	cmp	r4, #0
24056ef6:	f040 8160 	bne.w	240571ba <HAL_RCCEx_PeriphCLKConfig+0x84a>
24056efa:	4aaa      	ldr	r2, [pc, #680]	; (240571a4 <HAL_RCCEx_PeriphCLKConfig+0x834>)
24056efc:	f8d5 109c 	ldr.w	r1, [r5, #156]	; 0x9c
24056f00:	6d93      	ldr	r3, [r2, #88]	; 0x58
24056f02:	f023 0307 	bic.w	r3, r3, #7
24056f06:	430b      	orrs	r3, r1
24056f08:	6593      	str	r3, [r2, #88]	; 0x58
24056f0a:	682b      	ldr	r3, [r5, #0]
24056f0c:	069b      	lsls	r3, r3, #26
24056f0e:	d510      	bpl.n	24056f32 <HAL_RCCEx_PeriphCLKConfig+0x5c2>
24056f10:	f8d5 3098 	ldr.w	r3, [r5, #152]	; 0x98
24056f14:	f1b3 5f00 	cmp.w	r3, #536870912	; 0x20000000
24056f18:	f000 816b 	beq.w	240571f2 <HAL_RCCEx_PeriphCLKConfig+0x882>
24056f1c:	f200 814f 	bhi.w	240571be <HAL_RCCEx_PeriphCLKConfig+0x84e>
24056f20:	2b00      	cmp	r3, #0
24056f22:	f000 8155 	beq.w	240571d0 <HAL_RCCEx_PeriphCLKConfig+0x860>
24056f26:	f1b3 5f80 	cmp.w	r3, #268435456	; 0x10000000
24056f2a:	f000 815b 	beq.w	240571e4 <HAL_RCCEx_PeriphCLKConfig+0x874>
24056f2e:	2601      	movs	r6, #1
24056f30:	4634      	mov	r4, r6
24056f32:	682b      	ldr	r3, [r5, #0]
24056f34:	065f      	lsls	r7, r3, #25
24056f36:	d510      	bpl.n	24056f5a <HAL_RCCEx_PeriphCLKConfig+0x5ea>
24056f38:	f8d5 30a4 	ldr.w	r3, [r5, #164]	; 0xa4
24056f3c:	f5b3 6f00 	cmp.w	r3, #2048	; 0x800
24056f40:	f000 8179 	beq.w	24057236 <HAL_RCCEx_PeriphCLKConfig+0x8c6>
24056f44:	f200 815d 	bhi.w	24057202 <HAL_RCCEx_PeriphCLKConfig+0x892>
24056f48:	2b00      	cmp	r3, #0
24056f4a:	f000 8163 	beq.w	24057214 <HAL_RCCEx_PeriphCLKConfig+0x8a4>
24056f4e:	f5b3 6f80 	cmp.w	r3, #1024	; 0x400
24056f52:	f000 8169 	beq.w	24057228 <HAL_RCCEx_PeriphCLKConfig+0x8b8>
24056f56:	2601      	movs	r6, #1
24056f58:	4634      	mov	r4, r6
24056f5a:	682b      	ldr	r3, [r5, #0]
24056f5c:	0618      	lsls	r0, r3, #24
24056f5e:	d510      	bpl.n	24056f82 <HAL_RCCEx_PeriphCLKConfig+0x612>
24056f60:	f8d5 30a8 	ldr.w	r3, [r5, #168]	; 0xa8
24056f64:	f5b3 4f80 	cmp.w	r3, #16384	; 0x4000
24056f68:	f000 8187 	beq.w	2405727a <HAL_RCCEx_PeriphCLKConfig+0x90a>
24056f6c:	f200 816b 	bhi.w	24057246 <HAL_RCCEx_PeriphCLKConfig+0x8d6>
24056f70:	2b00      	cmp	r3, #0
24056f72:	f000 8171 	beq.w	24057258 <HAL_RCCEx_PeriphCLKConfig+0x8e8>
24056f76:	f5b3 5f00 	cmp.w	r3, #8192	; 0x2000
24056f7a:	f000 8177 	beq.w	2405726c <HAL_RCCEx_PeriphCLKConfig+0x8fc>
24056f7e:	2601      	movs	r6, #1
24056f80:	4634      	mov	r4, r6
24056f82:	682b      	ldr	r3, [r5, #0]
24056f84:	0719      	lsls	r1, r3, #28
24056f86:	d514      	bpl.n	24056fb2 <HAL_RCCEx_PeriphCLKConfig+0x642>
24056f88:	f8d5 308c 	ldr.w	r3, [r5, #140]	; 0x8c
24056f8c:	f5b3 5f80 	cmp.w	r3, #4096	; 0x1000
24056f90:	d107      	bne.n	24056fa2 <HAL_RCCEx_PeriphCLKConfig+0x632>
24056f92:	2102      	movs	r1, #2
24056f94:	f105 0028 	add.w	r0, r5, #40	; 0x28
24056f98:	f7ff fc72 	bl	24056880 <RCCEx_PLL3_Config>
24056f9c:	2800      	cmp	r0, #0
24056f9e:	bf18      	it	ne
24056fa0:	2601      	movne	r6, #1
24056fa2:	4a80      	ldr	r2, [pc, #512]	; (240571a4 <HAL_RCCEx_PeriphCLKConfig+0x834>)
24056fa4:	f8d5 108c 	ldr.w	r1, [r5, #140]	; 0x8c
24056fa8:	6d53      	ldr	r3, [r2, #84]	; 0x54
24056faa:	f423 5340 	bic.w	r3, r3, #12288	; 0x3000
24056fae:	430b      	orrs	r3, r1
24056fb0:	6553      	str	r3, [r2, #84]	; 0x54
24056fb2:	682b      	ldr	r3, [r5, #0]
24056fb4:	06da      	lsls	r2, r3, #27
24056fb6:	d514      	bpl.n	24056fe2 <HAL_RCCEx_PeriphCLKConfig+0x672>
24056fb8:	f8d5 30a0 	ldr.w	r3, [r5, #160]	; 0xa0
24056fbc:	f5b3 7f80 	cmp.w	r3, #256	; 0x100
24056fc0:	d107      	bne.n	24056fd2 <HAL_RCCEx_PeriphCLKConfig+0x662>
24056fc2:	2102      	movs	r1, #2
24056fc4:	f105 0028 	add.w	r0, r5, #40	; 0x28
24056fc8:	f7ff fc5a 	bl	24056880 <RCCEx_PLL3_Config>
24056fcc:	2800      	cmp	r0, #0
24056fce:	bf18      	it	ne
24056fd0:	2601      	movne	r6, #1
24056fd2:	4a74      	ldr	r2, [pc, #464]	; (240571a4 <HAL_RCCEx_PeriphCLKConfig+0x834>)
24056fd4:	f8d5 10a0 	ldr.w	r1, [r5, #160]	; 0xa0
24056fd8:	6d93      	ldr	r3, [r2, #88]	; 0x58
24056fda:	f423 7340 	bic.w	r3, r3, #768	; 0x300
24056fde:	430b      	orrs	r3, r1
24056fe0:	6593      	str	r3, [r2, #88]	; 0x58
24056fe2:	682b      	ldr	r3, [r5, #0]
24056fe4:	031b      	lsls	r3, r3, #12
24056fe6:	d51b      	bpl.n	24057020 <HAL_RCCEx_PeriphCLKConfig+0x6b0>
24056fe8:	f8d5 10ac 	ldr.w	r1, [r5, #172]	; 0xac
24056fec:	f5b1 3f80 	cmp.w	r1, #65536	; 0x10000
24056ff0:	f000 814b 	beq.w	2405728a <HAL_RCCEx_PeriphCLKConfig+0x91a>
24056ff4:	f5b1 3f00 	cmp.w	r1, #131072	; 0x20000
24056ff8:	d007      	beq.n	2405700a <HAL_RCCEx_PeriphCLKConfig+0x69a>
24056ffa:	2900      	cmp	r1, #0
24056ffc:	f040 814b 	bne.w	24057296 <HAL_RCCEx_PeriphCLKConfig+0x926>
24057000:	f105 0008 	add.w	r0, r5, #8
24057004:	f7ff fbc4 	bl	24056790 <RCCEx_PLL2_Config>
24057008:	4604      	mov	r4, r0
2405700a:	2c00      	cmp	r4, #0
2405700c:	f040 8146 	bne.w	2405729c <HAL_RCCEx_PeriphCLKConfig+0x92c>
24057010:	4a64      	ldr	r2, [pc, #400]	; (240571a4 <HAL_RCCEx_PeriphCLKConfig+0x834>)
24057012:	f8d5 10ac 	ldr.w	r1, [r5, #172]	; 0xac
24057016:	6d93      	ldr	r3, [r2, #88]	; 0x58
24057018:	f423 3340 	bic.w	r3, r3, #196608	; 0x30000
2405701c:	430b      	orrs	r3, r1
2405701e:	6593      	str	r3, [r2, #88]	; 0x58
24057020:	682b      	ldr	r3, [r5, #0]
24057022:	035f      	lsls	r7, r3, #13
24057024:	d51c      	bpl.n	24057060 <HAL_RCCEx_PeriphCLKConfig+0x6f0>
24057026:	f8d5 3090 	ldr.w	r3, [r5, #144]	; 0x90
2405702a:	f5b3 1f00 	cmp.w	r3, #2097152	; 0x200000
2405702e:	f000 8137 	beq.w	240572a0 <HAL_RCCEx_PeriphCLKConfig+0x930>
24057032:	f5b3 1f40 	cmp.w	r3, #3145728	; 0x300000
24057036:	d008      	beq.n	2405704a <HAL_RCCEx_PeriphCLKConfig+0x6da>
24057038:	f5b3 1f80 	cmp.w	r3, #1048576	; 0x100000
2405703c:	f040 8137 	bne.w	240572ae <HAL_RCCEx_PeriphCLKConfig+0x93e>
24057040:	4a58      	ldr	r2, [pc, #352]	; (240571a4 <HAL_RCCEx_PeriphCLKConfig+0x834>)
24057042:	6ad3      	ldr	r3, [r2, #44]	; 0x2c
24057044:	f443 3300 	orr.w	r3, r3, #131072	; 0x20000
24057048:	62d3      	str	r3, [r2, #44]	; 0x2c
2405704a:	2c00      	cmp	r4, #0
2405704c:	f040 8132 	bne.w	240572b4 <HAL_RCCEx_PeriphCLKConfig+0x944>
24057050:	4a54      	ldr	r2, [pc, #336]	; (240571a4 <HAL_RCCEx_PeriphCLKConfig+0x834>)
24057052:	f8d5 1090 	ldr.w	r1, [r5, #144]	; 0x90
24057056:	6d53      	ldr	r3, [r2, #84]	; 0x54
24057058:	f423 1340 	bic.w	r3, r3, #3145728	; 0x300000
2405705c:	430b      	orrs	r3, r1
2405705e:	6553      	str	r3, [r2, #84]	; 0x54
24057060:	682b      	ldr	r3, [r5, #0]
24057062:	03d8      	lsls	r0, r3, #15
24057064:	d509      	bpl.n	2405707a <HAL_RCCEx_PeriphCLKConfig+0x70a>
24057066:	6d2b      	ldr	r3, [r5, #80]	; 0x50
24057068:	2b00      	cmp	r3, #0
2405706a:	f000 8125 	beq.w	240572b8 <HAL_RCCEx_PeriphCLKConfig+0x948>
2405706e:	f5b3 3f80 	cmp.w	r3, #65536	; 0x10000
24057072:	f000 812f 	beq.w	240572d4 <HAL_RCCEx_PeriphCLKConfig+0x964>
24057076:	2601      	movs	r6, #1
24057078:	4634      	mov	r4, r6
2405707a:	682b      	ldr	r3, [r5, #0]
2405707c:	0099      	lsls	r1, r3, #2
2405707e:	d507      	bpl.n	24057090 <HAL_RCCEx_PeriphCLKConfig+0x720>
24057080:	2102      	movs	r1, #2
24057082:	f105 0028 	add.w	r0, r5, #40	; 0x28
24057086:	f7ff fbfb 	bl	24056880 <RCCEx_PLL3_Config>
2405708a:	2800      	cmp	r0, #0
2405708c:	bf18      	it	ne
2405708e:	2601      	movne	r6, #1
24057090:	e9d5 3100 	ldrd	r3, r1, [r5]
24057094:	039a      	lsls	r2, r3, #14
24057096:	d50b      	bpl.n	240570b0 <HAL_RCCEx_PeriphCLKConfig+0x740>
24057098:	f8d5 0088 	ldr.w	r0, [r5, #136]	; 0x88
2405709c:	f5b0 7f80 	cmp.w	r0, #256	; 0x100
240570a0:	f000 812f 	beq.w	24057302 <HAL_RCCEx_PeriphCLKConfig+0x992>
240570a4:	f200 811f 	bhi.w	240572e6 <HAL_RCCEx_PeriphCLKConfig+0x976>
240570a8:	2800      	cmp	r0, #0
240570aa:	f000 8122 	beq.w	240572f2 <HAL_RCCEx_PeriphCLKConfig+0x982>
240570ae:	2601      	movs	r6, #1
240570b0:	02df      	lsls	r7, r3, #11
240570b2:	d506      	bpl.n	240570c2 <HAL_RCCEx_PeriphCLKConfig+0x752>
240570b4:	483b      	ldr	r0, [pc, #236]	; (240571a4 <HAL_RCCEx_PeriphCLKConfig+0x834>)
240570b6:	6fec      	ldr	r4, [r5, #124]	; 0x7c
240570b8:	6d02      	ldr	r2, [r0, #80]	; 0x50
240570ba:	f022 4200 	bic.w	r2, r2, #2147483648	; 0x80000000
240570be:	4322      	orrs	r2, r4
240570c0:	6502      	str	r2, [r0, #80]	; 0x50
240570c2:	029c      	lsls	r4, r3, #10
240570c4:	d506      	bpl.n	240570d4 <HAL_RCCEx_PeriphCLKConfig+0x764>
240570c6:	4837      	ldr	r0, [pc, #220]	; (240571a4 <HAL_RCCEx_PeriphCLKConfig+0x834>)
240570c8:	6f2c      	ldr	r4, [r5, #112]	; 0x70
240570ca:	6d02      	ldr	r2, [r0, #80]	; 0x50
240570cc:	f022 7280 	bic.w	r2, r2, #16777216	; 0x1000000
240570d0:	4322      	orrs	r2, r4
240570d2:	6502      	str	r2, [r0, #80]	; 0x50
240570d4:	0518      	lsls	r0, r3, #20
240570d6:	d506      	bpl.n	240570e6 <HAL_RCCEx_PeriphCLKConfig+0x776>
240570d8:	4832      	ldr	r0, [pc, #200]	; (240571a4 <HAL_RCCEx_PeriphCLKConfig+0x834>)
240570da:	6f6c      	ldr	r4, [r5, #116]	; 0x74
240570dc:	6d82      	ldr	r2, [r0, #88]	; 0x58
240570de:	f022 6200 	bic.w	r2, r2, #134217728	; 0x8000000
240570e2:	4322      	orrs	r2, r4
240570e4:	6582      	str	r2, [r0, #88]	; 0x58
240570e6:	005a      	lsls	r2, r3, #1
240570e8:	d509      	bpl.n	240570fe <HAL_RCCEx_PeriphCLKConfig+0x78e>
240570ea:	4a2e      	ldr	r2, [pc, #184]	; (240571a4 <HAL_RCCEx_PeriphCLKConfig+0x834>)
240570ec:	6910      	ldr	r0, [r2, #16]
240570ee:	f420 4000 	bic.w	r0, r0, #32768	; 0x8000
240570f2:	6110      	str	r0, [r2, #16]
240570f4:	6910      	ldr	r0, [r2, #16]
240570f6:	f8d5 40b8 	ldr.w	r4, [r5, #184]	; 0xb8
240570fa:	4320      	orrs	r0, r4
240570fc:	6110      	str	r0, [r2, #16]
240570fe:	2b00      	cmp	r3, #0
24057100:	da06      	bge.n	24057110 <HAL_RCCEx_PeriphCLKConfig+0x7a0>
24057102:	4828      	ldr	r0, [pc, #160]	; (240571a4 <HAL_RCCEx_PeriphCLKConfig+0x834>)
24057104:	6d6c      	ldr	r4, [r5, #84]	; 0x54
24057106:	6cc2      	ldr	r2, [r0, #76]	; 0x4c
24057108:	f022 5240 	bic.w	r2, r2, #805306368	; 0x30000000
2405710c:	4322      	orrs	r2, r4
2405710e:	64c2      	str	r2, [r0, #76]	; 0x4c
24057110:	021b      	lsls	r3, r3, #8
24057112:	d507      	bpl.n	24057124 <HAL_RCCEx_PeriphCLKConfig+0x7b4>
24057114:	4a23      	ldr	r2, [pc, #140]	; (240571a4 <HAL_RCCEx_PeriphCLKConfig+0x834>)
24057116:	f8d5 0094 	ldr.w	r0, [r5, #148]	; 0x94
2405711a:	6d53      	ldr	r3, [r2, #84]	; 0x54
2405711c:	f423 0340 	bic.w	r3, r3, #12582912	; 0xc00000
24057120:	4303      	orrs	r3, r0
24057122:	6553      	str	r3, [r2, #84]	; 0x54
24057124:	07cf      	lsls	r7, r1, #31
24057126:	d507      	bpl.n	24057138 <HAL_RCCEx_PeriphCLKConfig+0x7c8>
24057128:	2100      	movs	r1, #0
2405712a:	f105 0008 	add.w	r0, r5, #8
2405712e:	f7ff fb2f 	bl	24056790 <RCCEx_PLL2_Config>
24057132:	2800      	cmp	r0, #0
24057134:	bf18      	it	ne
24057136:	4606      	movne	r6, r0
24057138:	686b      	ldr	r3, [r5, #4]
2405713a:	079c      	lsls	r4, r3, #30
2405713c:	d507      	bpl.n	2405714e <HAL_RCCEx_PeriphCLKConfig+0x7de>
2405713e:	2101      	movs	r1, #1
24057140:	f105 0008 	add.w	r0, r5, #8
24057144:	f7ff fb24 	bl	24056790 <RCCEx_PLL2_Config>
24057148:	2800      	cmp	r0, #0
2405714a:	bf18      	it	ne
2405714c:	4606      	movne	r6, r0
2405714e:	686b      	ldr	r3, [r5, #4]
24057150:	0758      	lsls	r0, r3, #29
24057152:	d507      	bpl.n	24057164 <HAL_RCCEx_PeriphCLKConfig+0x7f4>
24057154:	2102      	movs	r1, #2
24057156:	f105 0008 	add.w	r0, r5, #8
2405715a:	f7ff fb19 	bl	24056790 <RCCEx_PLL2_Config>
2405715e:	2800      	cmp	r0, #0
24057160:	bf18      	it	ne
24057162:	4606      	movne	r6, r0
24057164:	686b      	ldr	r3, [r5, #4]
24057166:	0719      	lsls	r1, r3, #28
24057168:	d507      	bpl.n	2405717a <HAL_RCCEx_PeriphCLKConfig+0x80a>
2405716a:	2100      	movs	r1, #0
2405716c:	f105 0028 	add.w	r0, r5, #40	; 0x28
24057170:	f7ff fb86 	bl	24056880 <RCCEx_PLL3_Config>
24057174:	2800      	cmp	r0, #0
24057176:	bf18      	it	ne
24057178:	4606      	movne	r6, r0
2405717a:	686b      	ldr	r3, [r5, #4]
2405717c:	06da      	lsls	r2, r3, #27
2405717e:	d507      	bpl.n	24057190 <HAL_RCCEx_PeriphCLKConfig+0x820>
24057180:	2101      	movs	r1, #1
24057182:	f105 0028 	add.w	r0, r5, #40	; 0x28
24057186:	f7ff fb7b 	bl	24056880 <RCCEx_PLL3_Config>
2405718a:	2800      	cmp	r0, #0
2405718c:	bf18      	it	ne
2405718e:	4606      	movne	r6, r0
24057190:	686b      	ldr	r3, [r5, #4]
24057192:	069b      	lsls	r3, r3, #26
24057194:	f100 80bd 	bmi.w	24057312 <HAL_RCCEx_PeriphCLKConfig+0x9a2>
24057198:	1e30      	subs	r0, r6, #0
2405719a:	bf18      	it	ne
2405719c:	2001      	movne	r0, #1
2405719e:	e8bd 83f8 	ldmia.w	sp!, {r3, r4, r5, r6, r7, r8, r9, pc}
240571a2:	bf00      	nop
240571a4:	58024400 	.word	0x58024400
240571a8:	2101      	movs	r1, #1
240571aa:	f105 0028 	add.w	r0, r5, #40	; 0x28
240571ae:	f7ff fb67 	bl	24056880 <RCCEx_PLL3_Config>
240571b2:	e69e      	b.n	24056ef2 <HAL_RCCEx_PeriphCLKConfig+0x582>
240571b4:	2601      	movs	r6, #1
240571b6:	4634      	mov	r4, r6
240571b8:	e6a7      	b.n	24056f0a <HAL_RCCEx_PeriphCLKConfig+0x59a>
240571ba:	4626      	mov	r6, r4
240571bc:	e6a5      	b.n	24056f0a <HAL_RCCEx_PeriphCLKConfig+0x59a>
240571be:	f023 5280 	bic.w	r2, r3, #268435456	; 0x10000000
240571c2:	f1b2 4f80 	cmp.w	r2, #1073741824	; 0x40000000
240571c6:	d003      	beq.n	240571d0 <HAL_RCCEx_PeriphCLKConfig+0x860>
240571c8:	f1b3 5f40 	cmp.w	r3, #805306368	; 0x30000000
240571cc:	f47f aeaf 	bne.w	24056f2e <HAL_RCCEx_PeriphCLKConfig+0x5be>
240571d0:	b9ac      	cbnz	r4, 240571fe <HAL_RCCEx_PeriphCLKConfig+0x88e>
240571d2:	4a55      	ldr	r2, [pc, #340]	; (24057328 <HAL_RCCEx_PeriphCLKConfig+0x9b8>)
240571d4:	f8d5 1098 	ldr.w	r1, [r5, #152]	; 0x98
240571d8:	6d53      	ldr	r3, [r2, #84]	; 0x54
240571da:	f023 43e0 	bic.w	r3, r3, #1879048192	; 0x70000000
240571de:	430b      	orrs	r3, r1
240571e0:	6553      	str	r3, [r2, #84]	; 0x54
240571e2:	e6a6      	b.n	24056f32 <HAL_RCCEx_PeriphCLKConfig+0x5c2>
240571e4:	2100      	movs	r1, #0
240571e6:	f105 0008 	add.w	r0, r5, #8
240571ea:	f7ff fad1 	bl	24056790 <RCCEx_PLL2_Config>
240571ee:	4604      	mov	r4, r0
240571f0:	e7ee      	b.n	240571d0 <HAL_RCCEx_PeriphCLKConfig+0x860>
240571f2:	2102      	movs	r1, #2
240571f4:	f105 0028 	add.w	r0, r5, #40	; 0x28
240571f8:	f7ff fb42 	bl	24056880 <RCCEx_PLL3_Config>
240571fc:	e7f7      	b.n	240571ee <HAL_RCCEx_PeriphCLKConfig+0x87e>
240571fe:	4626      	mov	r6, r4
24057200:	e697      	b.n	24056f32 <HAL_RCCEx_PeriphCLKConfig+0x5c2>
24057202:	f423 6280 	bic.w	r2, r3, #1024	; 0x400
24057206:	f5b2 5f80 	cmp.w	r2, #4096	; 0x1000
2405720a:	d003      	beq.n	24057214 <HAL_RCCEx_PeriphCLKConfig+0x8a4>
2405720c:	f5b3 6f40 	cmp.w	r3, #3072	; 0xc00
24057210:	f47f aea1 	bne.w	24056f56 <HAL_RCCEx_PeriphCLKConfig+0x5e6>
24057214:	b9ac      	cbnz	r4, 24057242 <HAL_RCCEx_PeriphCLKConfig+0x8d2>
24057216:	4a44      	ldr	r2, [pc, #272]	; (24057328 <HAL_RCCEx_PeriphCLKConfig+0x9b8>)
24057218:	f8d5 10a4 	ldr.w	r1, [r5, #164]	; 0xa4
2405721c:	6d93      	ldr	r3, [r2, #88]	; 0x58
2405721e:	f423 53e0 	bic.w	r3, r3, #7168	; 0x1c00
24057222:	430b      	orrs	r3, r1
24057224:	6593      	str	r3, [r2, #88]	; 0x58
24057226:	e698      	b.n	24056f5a <HAL_RCCEx_PeriphCLKConfig+0x5ea>
24057228:	2100      	movs	r1, #0
2405722a:	f105 0008 	add.w	r0, r5, #8
2405722e:	f7ff faaf 	bl	24056790 <RCCEx_PLL2_Config>
24057232:	4604      	mov	r4, r0
24057234:	e7ee      	b.n	24057214 <HAL_RCCEx_PeriphCLKConfig+0x8a4>
24057236:	2102      	movs	r1, #2
24057238:	f105 0028 	add.w	r0, r5, #40	; 0x28
2405723c:	f7ff fb20 	bl	24056880 <RCCEx_PLL3_Config>
24057240:	e7f7      	b.n	24057232 <HAL_RCCEx_PeriphCLKConfig+0x8c2>
24057242:	4626      	mov	r6, r4
24057244:	e689      	b.n	24056f5a <HAL_RCCEx_PeriphCLKConfig+0x5ea>
24057246:	f423 5200 	bic.w	r2, r3, #8192	; 0x2000
2405724a:	f5b2 4f00 	cmp.w	r2, #32768	; 0x8000
2405724e:	d003      	beq.n	24057258 <HAL_RCCEx_PeriphCLKConfig+0x8e8>
24057250:	f5b3 4fc0 	cmp.w	r3, #24576	; 0x6000
24057254:	f47f ae93 	bne.w	24056f7e <HAL_RCCEx_PeriphCLKConfig+0x60e>
24057258:	b9ac      	cbnz	r4, 24057286 <HAL_RCCEx_PeriphCLKConfig+0x916>
2405725a:	4a33      	ldr	r2, [pc, #204]	; (24057328 <HAL_RCCEx_PeriphCLKConfig+0x9b8>)
2405725c:	f8d5 10a8 	ldr.w	r1, [r5, #168]	; 0xa8
24057260:	6d93      	ldr	r3, [r2, #88]	; 0x58
24057262:	f423 4360 	bic.w	r3, r3, #57344	; 0xe000
24057266:	430b      	orrs	r3, r1
24057268:	6593      	str	r3, [r2, #88]	; 0x58
2405726a:	e68a      	b.n	24056f82 <HAL_RCCEx_PeriphCLKConfig+0x612>
2405726c:	2100      	movs	r1, #0
2405726e:	f105 0008 	add.w	r0, r5, #8
24057272:	f7ff fa8d 	bl	24056790 <RCCEx_PLL2_Config>
24057276:	4604      	mov	r4, r0
24057278:	e7ee      	b.n	24057258 <HAL_RCCEx_PeriphCLKConfig+0x8e8>
2405727a:	2102      	movs	r1, #2
2405727c:	f105 0028 	add.w	r0, r5, #40	; 0x28
24057280:	f7ff fafe 	bl	24056880 <RCCEx_PLL3_Config>
24057284:	e7f7      	b.n	24057276 <HAL_RCCEx_PeriphCLKConfig+0x906>
24057286:	4626      	mov	r6, r4
24057288:	e67b      	b.n	24056f82 <HAL_RCCEx_PeriphCLKConfig+0x612>
2405728a:	2102      	movs	r1, #2
2405728c:	f105 0028 	add.w	r0, r5, #40	; 0x28
24057290:	f7ff faf6 	bl	24056880 <RCCEx_PLL3_Config>
24057294:	e6b8      	b.n	24057008 <HAL_RCCEx_PeriphCLKConfig+0x698>
24057296:	2601      	movs	r6, #1
24057298:	4634      	mov	r4, r6
2405729a:	e6c1      	b.n	24057020 <HAL_RCCEx_PeriphCLKConfig+0x6b0>
2405729c:	4626      	mov	r6, r4
2405729e:	e6bf      	b.n	24057020 <HAL_RCCEx_PeriphCLKConfig+0x6b0>
240572a0:	2101      	movs	r1, #1
240572a2:	f105 0028 	add.w	r0, r5, #40	; 0x28
240572a6:	f7ff faeb 	bl	24056880 <RCCEx_PLL3_Config>
240572aa:	4604      	mov	r4, r0
240572ac:	e6cd      	b.n	2405704a <HAL_RCCEx_PeriphCLKConfig+0x6da>
240572ae:	2601      	movs	r6, #1
240572b0:	4634      	mov	r4, r6
240572b2:	e6d5      	b.n	24057060 <HAL_RCCEx_PeriphCLKConfig+0x6f0>
240572b4:	4626      	mov	r6, r4
240572b6:	e6d3      	b.n	24057060 <HAL_RCCEx_PeriphCLKConfig+0x6f0>
240572b8:	4a1b      	ldr	r2, [pc, #108]	; (24057328 <HAL_RCCEx_PeriphCLKConfig+0x9b8>)
240572ba:	6ad3      	ldr	r3, [r2, #44]	; 0x2c
240572bc:	f443 3300 	orr.w	r3, r3, #131072	; 0x20000
240572c0:	62d3      	str	r3, [r2, #44]	; 0x2c
240572c2:	b974      	cbnz	r4, 240572e2 <HAL_RCCEx_PeriphCLKConfig+0x972>
240572c4:	4a18      	ldr	r2, [pc, #96]	; (24057328 <HAL_RCCEx_PeriphCLKConfig+0x9b8>)
240572c6:	6d29      	ldr	r1, [r5, #80]	; 0x50
240572c8:	6cd3      	ldr	r3, [r2, #76]	; 0x4c
240572ca:	f423 3380 	bic.w	r3, r3, #65536	; 0x10000
240572ce:	430b      	orrs	r3, r1
240572d0:	64d3      	str	r3, [r2, #76]	; 0x4c
240572d2:	e6d2      	b.n	2405707a <HAL_RCCEx_PeriphCLKConfig+0x70a>
240572d4:	2102      	movs	r1, #2
240572d6:	f105 0008 	add.w	r0, r5, #8
240572da:	f7ff fa59 	bl	24056790 <RCCEx_PLL2_Config>
240572de:	4604      	mov	r4, r0
240572e0:	e7ef      	b.n	240572c2 <HAL_RCCEx_PeriphCLKConfig+0x952>
240572e2:	4626      	mov	r6, r4
240572e4:	e6c9      	b.n	2405707a <HAL_RCCEx_PeriphCLKConfig+0x70a>
240572e6:	f420 7280 	bic.w	r2, r0, #256	; 0x100
240572ea:	f5b2 7f00 	cmp.w	r2, #512	; 0x200
240572ee:	f47f aede 	bne.w	240570ae <HAL_RCCEx_PeriphCLKConfig+0x73e>
240572f2:	b964      	cbnz	r4, 2405730e <HAL_RCCEx_PeriphCLKConfig+0x99e>
240572f4:	4c0c      	ldr	r4, [pc, #48]	; (24057328 <HAL_RCCEx_PeriphCLKConfig+0x9b8>)
240572f6:	6d62      	ldr	r2, [r4, #84]	; 0x54
240572f8:	f422 7240 	bic.w	r2, r2, #768	; 0x300
240572fc:	4302      	orrs	r2, r0
240572fe:	6562      	str	r2, [r4, #84]	; 0x54
24057300:	e6d6      	b.n	240570b0 <HAL_RCCEx_PeriphCLKConfig+0x740>
24057302:	4f09      	ldr	r7, [pc, #36]	; (24057328 <HAL_RCCEx_PeriphCLKConfig+0x9b8>)
24057304:	6afa      	ldr	r2, [r7, #44]	; 0x2c
24057306:	f442 3200 	orr.w	r2, r2, #131072	; 0x20000
2405730a:	62fa      	str	r2, [r7, #44]	; 0x2c
2405730c:	e7f1      	b.n	240572f2 <HAL_RCCEx_PeriphCLKConfig+0x982>
2405730e:	4626      	mov	r6, r4
24057310:	e6ce      	b.n	240570b0 <HAL_RCCEx_PeriphCLKConfig+0x740>
24057312:	2102      	movs	r1, #2
24057314:	f105 0028 	add.w	r0, r5, #40	; 0x28
24057318:	f7ff fab2 	bl	24056880 <RCCEx_PLL3_Config>
2405731c:	2800      	cmp	r0, #0
2405731e:	f43f af3b 	beq.w	24057198 <HAL_RCCEx_PeriphCLKConfig+0x828>
24057322:	2001      	movs	r0, #1
24057324:	e73b      	b.n	2405719e <HAL_RCCEx_PeriphCLKConfig+0x82e>
24057326:	bf00      	nop
24057328:	58024400 	.word	0x58024400

2405732c <HAL_RCCEx_GetD3PCLK1Freq>:
2405732c:	b508      	push	{r3, lr}
2405732e:	f7ff f9fb 	bl	24056728 <HAL_RCC_GetHCLKFreq>
24057332:	4b05      	ldr	r3, [pc, #20]	; (24057348 <HAL_RCCEx_GetD3PCLK1Freq+0x1c>)
24057334:	4a05      	ldr	r2, [pc, #20]	; (2405734c <HAL_RCCEx_GetD3PCLK1Freq+0x20>)
24057336:	6a1b      	ldr	r3, [r3, #32]
24057338:	f3c3 1302 	ubfx	r3, r3, #4, #3
2405733c:	5cd3      	ldrb	r3, [r2, r3]
2405733e:	f003 031f 	and.w	r3, r3, #31
24057342:	40d8      	lsrs	r0, r3
24057344:	bd08      	pop	{r3, pc}
24057346:	bf00      	nop
24057348:	58024400 	.word	0x58024400
2405734c:	2405bb28 	.word	0x2405bb28

24057350 <HAL_RCCEx_GetPLL2ClockFreq>:
24057350:	494f      	ldr	r1, [pc, #316]	; (24057490 <HAL_RCCEx_GetPLL2ClockFreq+0x140>)
24057352:	b570      	push	{r4, r5, r6, lr}
24057354:	6a8c      	ldr	r4, [r1, #40]	; 0x28
24057356:	6a8e      	ldr	r6, [r1, #40]	; 0x28
24057358:	6acd      	ldr	r5, [r1, #44]	; 0x2c
2405735a:	f416 3f7c 	tst.w	r6, #258048	; 0x3f000
2405735e:	f3c6 3305 	ubfx	r3, r6, #12, #6
24057362:	6bca      	ldr	r2, [r1, #60]	; 0x3c
24057364:	f000 8090 	beq.w	24057488 <HAL_RCCEx_GetPLL2ClockFreq+0x138>
24057368:	ee07 3a90 	vmov	s15, r3
2405736c:	f3c2 03cc 	ubfx	r3, r2, #3, #13
24057370:	f3c5 1200 	ubfx	r2, r5, #4, #1
24057374:	f004 0403 	and.w	r4, r4, #3
24057378:	eeb8 7ae7 	vcvt.f32.s32	s14, s15
2405737c:	4353      	muls	r3, r2
2405737e:	2c01      	cmp	r4, #1
24057380:	eeb7 6a00 	vmov.f32	s12, #112	; 0x3f800000  1.0
24057384:	ee06 3a90 	vmov	s13, r3
24057388:	eefa 6ae9 	vcvt.f32.s32	s13, s13, #13
2405738c:	d06e      	beq.n	2405746c <HAL_RCCEx_GetPLL2ClockFreq+0x11c>
2405738e:	2c02      	cmp	r4, #2
24057390:	d05e      	beq.n	24057450 <HAL_RCCEx_GetPLL2ClockFreq+0x100>
24057392:	2c00      	cmp	r4, #0
24057394:	d16a      	bne.n	2405746c <HAL_RCCEx_GetPLL2ClockFreq+0x11c>
24057396:	680b      	ldr	r3, [r1, #0]
24057398:	069b      	lsls	r3, r3, #26
2405739a:	d547      	bpl.n	2405742c <HAL_RCCEx_GetPLL2ClockFreq+0xdc>
2405739c:	680a      	ldr	r2, [r1, #0]
2405739e:	6b8b      	ldr	r3, [r1, #56]	; 0x38
240573a0:	f3c2 01c1 	ubfx	r1, r2, #3, #2
240573a4:	4a3b      	ldr	r2, [pc, #236]	; (24057494 <HAL_RCCEx_GetPLL2ClockFreq+0x144>)
240573a6:	f3c3 0308 	ubfx	r3, r3, #0, #9
240573aa:	40ca      	lsrs	r2, r1
240573ac:	ee07 2a90 	vmov	s15, r2
240573b0:	eef8 5ae7 	vcvt.f32.s32	s11, s15
240573b4:	eec5 7a87 	vdiv.f32	s15, s11, s14
240573b8:	ee07 3a10 	vmov	s14, r3
240573bc:	eeb8 7ac7 	vcvt.f32.s32	s14, s14
240573c0:	ee37 7a26 	vadd.f32	s14, s14, s13
240573c4:	ee37 7a06 	vadd.f32	s14, s14, s12
240573c8:	ee67 7a87 	vmul.f32	s15, s15, s14
240573cc:	4a30      	ldr	r2, [pc, #192]	; (24057490 <HAL_RCCEx_GetPLL2ClockFreq+0x140>)
240573ce:	6b93      	ldr	r3, [r2, #56]	; 0x38
240573d0:	f3c3 2346 	ubfx	r3, r3, #9, #7
240573d4:	ee07 3a10 	vmov	s14, r3
240573d8:	eeb8 7ac7 	vcvt.f32.s32	s14, s14
240573dc:	ee37 7a06 	vadd.f32	s14, s14, s12
240573e0:	eec7 6a87 	vdiv.f32	s13, s15, s14
240573e4:	eefc 6ae6 	vcvt.u32.f32	s13, s13
240573e8:	edc0 6a00 	vstr	s13, [r0]
240573ec:	6b93      	ldr	r3, [r2, #56]	; 0x38
240573ee:	f3c3 4306 	ubfx	r3, r3, #16, #7
240573f2:	ee07 3a10 	vmov	s14, r3
240573f6:	eeb8 7ac7 	vcvt.f32.s32	s14, s14
240573fa:	ee37 7a06 	vadd.f32	s14, s14, s12
240573fe:	eec7 6a87 	vdiv.f32	s13, s15, s14
24057402:	eefc 6ae6 	vcvt.u32.f32	s13, s13
24057406:	edc0 6a01 	vstr	s13, [r0, #4]
2405740a:	6b93      	ldr	r3, [r2, #56]	; 0x38
2405740c:	f3c3 6306 	ubfx	r3, r3, #24, #7
24057410:	ee06 3a90 	vmov	s13, r3
24057414:	eef8 6ae6 	vcvt.f32.s32	s13, s13
24057418:	ee76 6a86 	vadd.f32	s13, s13, s12
2405741c:	ee87 7aa6 	vdiv.f32	s14, s15, s13
24057420:	eefc 7ac7 	vcvt.u32.f32	s15, s14
24057424:	ee17 3a90 	vmov	r3, s15
24057428:	6083      	str	r3, [r0, #8]
2405742a:	bd70      	pop	{r4, r5, r6, pc}
2405742c:	6b8b      	ldr	r3, [r1, #56]	; 0x38
2405742e:	eddf 5a1a 	vldr	s11, [pc, #104]	; 24057498 <HAL_RCCEx_GetPLL2ClockFreq+0x148>
24057432:	f3c3 0308 	ubfx	r3, r3, #0, #9
24057436:	ee07 3a90 	vmov	s15, r3
2405743a:	eef8 7ae7 	vcvt.f32.s32	s15, s15
2405743e:	ee77 7aa6 	vadd.f32	s15, s15, s13
24057442:	ee77 7a86 	vadd.f32	s15, s15, s12
24057446:	eec5 6a87 	vdiv.f32	s13, s11, s14
2405744a:	ee67 7aa6 	vmul.f32	s15, s15, s13
2405744e:	e7bd      	b.n	240573cc <HAL_RCCEx_GetPLL2ClockFreq+0x7c>
24057450:	6b8b      	ldr	r3, [r1, #56]	; 0x38
24057452:	eddf 5a12 	vldr	s11, [pc, #72]	; 2405749c <HAL_RCCEx_GetPLL2ClockFreq+0x14c>
24057456:	f3c3 0308 	ubfx	r3, r3, #0, #9
2405745a:	ee07 3a90 	vmov	s15, r3
2405745e:	eef8 7ae7 	vcvt.f32.s32	s15, s15
24057462:	ee77 7aa6 	vadd.f32	s15, s15, s13
24057466:	ee77 7a86 	vadd.f32	s15, s15, s12
2405746a:	e7ec      	b.n	24057446 <HAL_RCCEx_GetPLL2ClockFreq+0xf6>
2405746c:	6b8b      	ldr	r3, [r1, #56]	; 0x38
2405746e:	eddf 5a0c 	vldr	s11, [pc, #48]	; 240574a0 <HAL_RCCEx_GetPLL2ClockFreq+0x150>
24057472:	f3c3 0308 	ubfx	r3, r3, #0, #9
24057476:	ee07 3a90 	vmov	s15, r3
2405747a:	eef8 7ae7 	vcvt.f32.s32	s15, s15
2405747e:	ee77 7aa6 	vadd.f32	s15, s15, s13
24057482:	ee77 7a86 	vadd.f32	s15, s15, s12
24057486:	e7de      	b.n	24057446 <HAL_RCCEx_GetPLL2ClockFreq+0xf6>
24057488:	e9c0 3300 	strd	r3, r3, [r0]
2405748c:	e7cc      	b.n	24057428 <HAL_RCCEx_GetPLL2ClockFreq+0xd8>
2405748e:	bf00      	nop
24057490:	58024400 	.word	0x58024400
24057494:	03d09000 	.word	0x03d09000
24057498:	4c742400 	.word	0x4c742400
2405749c:	4bb71b00 	.word	0x4bb71b00
240574a0:	4a742400 	.word	0x4a742400

240574a4 <HAL_RCCEx_GetPLL3ClockFreq>:
240574a4:	494f      	ldr	r1, [pc, #316]	; (240575e4 <HAL_RCCEx_GetPLL3ClockFreq+0x140>)
240574a6:	b570      	push	{r4, r5, r6, lr}
240574a8:	6a8c      	ldr	r4, [r1, #40]	; 0x28
240574aa:	6a8e      	ldr	r6, [r1, #40]	; 0x28
240574ac:	6acd      	ldr	r5, [r1, #44]	; 0x2c
240574ae:	f016 7f7c 	tst.w	r6, #66060288	; 0x3f00000
240574b2:	f3c6 5305 	ubfx	r3, r6, #20, #6
240574b6:	6c4a      	ldr	r2, [r1, #68]	; 0x44
240574b8:	f000 8090 	beq.w	240575dc <HAL_RCCEx_GetPLL3ClockFreq+0x138>
240574bc:	ee07 3a90 	vmov	s15, r3
240574c0:	f3c2 03cc 	ubfx	r3, r2, #3, #13
240574c4:	f3c5 2200 	ubfx	r2, r5, #8, #1
240574c8:	f004 0403 	and.w	r4, r4, #3
240574cc:	eeb8 7ae7 	vcvt.f32.s32	s14, s15
240574d0:	4353      	muls	r3, r2
240574d2:	2c01      	cmp	r4, #1
240574d4:	eeb7 6a00 	vmov.f32	s12, #112	; 0x3f800000  1.0
240574d8:	ee06 3a90 	vmov	s13, r3
240574dc:	eefa 6ae9 	vcvt.f32.s32	s13, s13, #13
240574e0:	d06e      	beq.n	240575c0 <HAL_RCCEx_GetPLL3ClockFreq+0x11c>
240574e2:	2c02      	cmp	r4, #2
240574e4:	d05e      	beq.n	240575a4 <HAL_RCCEx_GetPLL3ClockFreq+0x100>
240574e6:	2c00      	cmp	r4, #0
240574e8:	d16a      	bne.n	240575c0 <HAL_RCCEx_GetPLL3ClockFreq+0x11c>
240574ea:	680b      	ldr	r3, [r1, #0]
240574ec:	069b      	lsls	r3, r3, #26
240574ee:	d547      	bpl.n	24057580 <HAL_RCCEx_GetPLL3ClockFreq+0xdc>
240574f0:	680a      	ldr	r2, [r1, #0]
240574f2:	6c0b      	ldr	r3, [r1, #64]	; 0x40
240574f4:	f3c2 01c1 	ubfx	r1, r2, #3, #2
240574f8:	4a3b      	ldr	r2, [pc, #236]	; (240575e8 <HAL_RCCEx_GetPLL3ClockFreq+0x144>)
240574fa:	f3c3 0308 	ubfx	r3, r3, #0, #9
240574fe:	40ca      	lsrs	r2, r1
24057500:	ee07 2a90 	vmov	s15, r2
24057504:	eef8 5ae7 	vcvt.f32.s32	s11, s15
24057508:	eec5 7a87 	vdiv.f32	s15, s11, s14
2405750c:	ee07 3a10 	vmov	s14, r3
24057510:	eeb8 7ac7 	vcvt.f32.s32	s14, s14
24057514:	ee37 7a26 	vadd.f32	s14, s14, s13
24057518:	ee37 7a06 	vadd.f32	s14, s14, s12
2405751c:	ee67 7a87 	vmul.f32	s15, s15, s14
24057520:	4a30      	ldr	r2, [pc, #192]	; (240575e4 <HAL_RCCEx_GetPLL3ClockFreq+0x140>)
24057522:	6c13      	ldr	r3, [r2, #64]	; 0x40
24057524:	f3c3 2346 	ubfx	r3, r3, #9, #7
24057528:	ee07 3a10 	vmov	s14, r3
2405752c:	eeb8 7ac7 	vcvt.f32.s32	s14, s14
24057530:	ee37 7a06 	vadd.f32	s14, s14, s12
24057534:	eec7 6a87 	vdiv.f32	s13, s15, s14
24057538:	eefc 6ae6 	vcvt.u32.f32	s13, s13
2405753c:	edc0 6a00 	vstr	s13, [r0]
24057540:	6c13      	ldr	r3, [r2, #64]	; 0x40
24057542:	f3c3 4306 	ubfx	r3, r3, #16, #7
24057546:	ee07 3a10 	vmov	s14, r3
2405754a:	eeb8 7ac7 	vcvt.f32.s32	s14, s14
2405754e:	ee37 7a06 	vadd.f32	s14, s14, s12
24057552:	eec7 6a87 	vdiv.f32	s13, s15, s14
24057556:	eefc 6ae6 	vcvt.u32.f32	s13, s13
2405755a:	edc0 6a01 	vstr	s13, [r0, #4]
2405755e:	6c13      	ldr	r3, [r2, #64]	; 0x40
24057560:	f3c3 6306 	ubfx	r3, r3, #24, #7
24057564:	ee06 3a90 	vmov	s13, r3
24057568:	eef8 6ae6 	vcvt.f32.s32	s13, s13
2405756c:	ee76 6a86 	vadd.f32	s13, s13, s12
24057570:	ee87 7aa6 	vdiv.f32	s14, s15, s13
24057574:	eefc 7ac7 	vcvt.u32.f32	s15, s14
24057578:	ee17 3a90 	vmov	r3, s15
2405757c:	6083      	str	r3, [r0, #8]
2405757e:	bd70      	pop	{r4, r5, r6, pc}
24057580:	6c0b      	ldr	r3, [r1, #64]	; 0x40
24057582:	eddf 5a1a 	vldr	s11, [pc, #104]	; 240575ec <HAL_RCCEx_GetPLL3ClockFreq+0x148>
24057586:	f3c3 0308 	ubfx	r3, r3, #0, #9
2405758a:	ee07 3a90 	vmov	s15, r3
2405758e:	eef8 7ae7 	vcvt.f32.s32	s15, s15
24057592:	ee77 7aa6 	vadd.f32	s15, s15, s13
24057596:	ee77 7a86 	vadd.f32	s15, s15, s12
2405759a:	eec5 6a87 	vdiv.f32	s13, s11, s14
2405759e:	ee67 7aa6 	vmul.f32	s15, s15, s13
240575a2:	e7bd      	b.n	24057520 <HAL_RCCEx_GetPLL3ClockFreq+0x7c>
240575a4:	6c0b      	ldr	r3, [r1, #64]	; 0x40
240575a6:	eddf 5a12 	vldr	s11, [pc, #72]	; 240575f0 <HAL_RCCEx_GetPLL3ClockFreq+0x14c>
240575aa:	f3c3 0308 	ubfx	r3, r3, #0, #9
240575ae:	ee07 3a90 	vmov	s15, r3
240575b2:	eef8 7ae7 	vcvt.f32.s32	s15, s15
240575b6:	ee77 7aa6 	vadd.f32	s15, s15, s13
240575ba:	ee77 7a86 	vadd.f32	s15, s15, s12
240575be:	e7ec      	b.n	2405759a <HAL_RCCEx_GetPLL3ClockFreq+0xf6>
240575c0:	6c0b      	ldr	r3, [r1, #64]	; 0x40
240575c2:	eddf 5a0c 	vldr	s11, [pc, #48]	; 240575f4 <HAL_RCCEx_GetPLL3ClockFreq+0x150>
240575c6:	f3c3 0308 	ubfx	r3, r3, #0, #9
240575ca:	ee07 3a90 	vmov	s15, r3
240575ce:	eef8 7ae7 	vcvt.f32.s32	s15, s15
240575d2:	ee77 7aa6 	vadd.f32	s15, s15, s13
240575d6:	ee77 7a86 	vadd.f32	s15, s15, s12
240575da:	e7de      	b.n	2405759a <HAL_RCCEx_GetPLL3ClockFreq+0xf6>
240575dc:	e9c0 3300 	strd	r3, r3, [r0]
240575e0:	e7cc      	b.n	2405757c <HAL_RCCEx_GetPLL3ClockFreq+0xd8>
240575e2:	bf00      	nop
240575e4:	58024400 	.word	0x58024400
240575e8:	03d09000 	.word	0x03d09000
240575ec:	4c742400 	.word	0x4c742400
240575f0:	4bb71b00 	.word	0x4bb71b00
240575f4:	4a742400 	.word	0x4a742400

240575f8 <HAL_RCCEx_GetPLL1ClockFreq>:
240575f8:	494f      	ldr	r1, [pc, #316]	; (24057738 <HAL_RCCEx_GetPLL1ClockFreq+0x140>)
240575fa:	b570      	push	{r4, r5, r6, lr}
240575fc:	6a8c      	ldr	r4, [r1, #40]	; 0x28
240575fe:	6a8e      	ldr	r6, [r1, #40]	; 0x28
24057600:	6acd      	ldr	r5, [r1, #44]	; 0x2c
24057602:	f416 7f7c 	tst.w	r6, #1008	; 0x3f0
24057606:	f3c6 1305 	ubfx	r3, r6, #4, #6
2405760a:	6b4a      	ldr	r2, [r1, #52]	; 0x34
2405760c:	f000 8090 	beq.w	24057730 <HAL_RCCEx_GetPLL1ClockFreq+0x138>
24057610:	ee07 3a90 	vmov	s15, r3
24057614:	f3c2 03cc 	ubfx	r3, r2, #3, #13
24057618:	f005 0201 	and.w	r2, r5, #1
2405761c:	f004 0403 	and.w	r4, r4, #3
24057620:	eeb8 7ae7 	vcvt.f32.s32	s14, s15
24057624:	4353      	muls	r3, r2
24057626:	2c01      	cmp	r4, #1
24057628:	eeb7 6a00 	vmov.f32	s12, #112	; 0x3f800000  1.0
2405762c:	ee06 3a90 	vmov	s13, r3
24057630:	eefa 6ae9 	vcvt.f32.s32	s13, s13, #13
24057634:	d04e      	beq.n	240576d4 <HAL_RCCEx_GetPLL1ClockFreq+0xdc>
24057636:	2c02      	cmp	r4, #2
24057638:	d05e      	beq.n	240576f8 <HAL_RCCEx_GetPLL1ClockFreq+0x100>
2405763a:	2c00      	cmp	r4, #0
2405763c:	d16a      	bne.n	24057714 <HAL_RCCEx_GetPLL1ClockFreq+0x11c>
2405763e:	680b      	ldr	r3, [r1, #0]
24057640:	069b      	lsls	r3, r3, #26
24057642:	d567      	bpl.n	24057714 <HAL_RCCEx_GetPLL1ClockFreq+0x11c>
24057644:	680a      	ldr	r2, [r1, #0]
24057646:	6b0b      	ldr	r3, [r1, #48]	; 0x30
24057648:	f3c2 01c1 	ubfx	r1, r2, #3, #2
2405764c:	4a3b      	ldr	r2, [pc, #236]	; (2405773c <HAL_RCCEx_GetPLL1ClockFreq+0x144>)
2405764e:	f3c3 0308 	ubfx	r3, r3, #0, #9
24057652:	40ca      	lsrs	r2, r1
24057654:	ee07 2a90 	vmov	s15, r2
24057658:	eef8 5ae7 	vcvt.f32.s32	s11, s15
2405765c:	eec5 7a87 	vdiv.f32	s15, s11, s14
24057660:	ee07 3a10 	vmov	s14, r3
24057664:	eeb8 7ac7 	vcvt.f32.s32	s14, s14
24057668:	ee37 7a26 	vadd.f32	s14, s14, s13
2405766c:	ee37 7a06 	vadd.f32	s14, s14, s12
24057670:	ee67 7a87 	vmul.f32	s15, s15, s14
24057674:	4a30      	ldr	r2, [pc, #192]	; (24057738 <HAL_RCCEx_GetPLL1ClockFreq+0x140>)
24057676:	6b13      	ldr	r3, [r2, #48]	; 0x30
24057678:	f3c3 2346 	ubfx	r3, r3, #9, #7
2405767c:	ee07 3a10 	vmov	s14, r3
24057680:	eeb8 7ac7 	vcvt.f32.s32	s14, s14
24057684:	ee37 7a06 	vadd.f32	s14, s14, s12
24057688:	eec7 6a87 	vdiv.f32	s13, s15, s14
2405768c:	eefc 6ae6 	vcvt.u32.f32	s13, s13
24057690:	edc0 6a00 	vstr	s13, [r0]
24057694:	6b13      	ldr	r3, [r2, #48]	; 0x30
24057696:	f3c3 4306 	ubfx	r3, r3, #16, #7
2405769a:	ee07 3a10 	vmov	s14, r3
2405769e:	eeb8 7ac7 	vcvt.f32.s32	s14, s14
240576a2:	ee37 7a06 	vadd.f32	s14, s14, s12
240576a6:	eec7 6a87 	vdiv.f32	s13, s15, s14
240576aa:	eefc 6ae6 	vcvt.u32.f32	s13, s13
240576ae:	edc0 6a01 	vstr	s13, [r0, #4]
240576b2:	6b13      	ldr	r3, [r2, #48]	; 0x30
240576b4:	f3c3 6306 	ubfx	r3, r3, #24, #7
240576b8:	ee06 3a90 	vmov	s13, r3
240576bc:	eef8 6ae6 	vcvt.f32.s32	s13, s13
240576c0:	ee76 6a86 	vadd.f32	s13, s13, s12
240576c4:	ee87 7aa6 	vdiv.f32	s14, s15, s13
240576c8:	eefc 7ac7 	vcvt.u32.f32	s15, s14
240576cc:	ee17 3a90 	vmov	r3, s15
240576d0:	6083      	str	r3, [r0, #8]
240576d2:	bd70      	pop	{r4, r5, r6, pc}
240576d4:	6b0b      	ldr	r3, [r1, #48]	; 0x30
240576d6:	eddf 5a1a 	vldr	s11, [pc, #104]	; 24057740 <HAL_RCCEx_GetPLL1ClockFreq+0x148>
240576da:	f3c3 0308 	ubfx	r3, r3, #0, #9
240576de:	ee07 3a90 	vmov	s15, r3
240576e2:	eef8 7ae7 	vcvt.f32.s32	s15, s15
240576e6:	ee77 7aa6 	vadd.f32	s15, s15, s13
240576ea:	ee77 7a86 	vadd.f32	s15, s15, s12
240576ee:	eec5 6a87 	vdiv.f32	s13, s11, s14
240576f2:	ee67 7aa6 	vmul.f32	s15, s15, s13
240576f6:	e7bd      	b.n	24057674 <HAL_RCCEx_GetPLL1ClockFreq+0x7c>
240576f8:	6b0b      	ldr	r3, [r1, #48]	; 0x30
240576fa:	eddf 5a12 	vldr	s11, [pc, #72]	; 24057744 <HAL_RCCEx_GetPLL1ClockFreq+0x14c>
240576fe:	f3c3 0308 	ubfx	r3, r3, #0, #9
24057702:	ee07 3a90 	vmov	s15, r3
24057706:	eef8 7ae7 	vcvt.f32.s32	s15, s15
2405770a:	ee77 7aa6 	vadd.f32	s15, s15, s13
2405770e:	ee77 7a86 	vadd.f32	s15, s15, s12
24057712:	e7ec      	b.n	240576ee <HAL_RCCEx_GetPLL1ClockFreq+0xf6>
24057714:	6b0b      	ldr	r3, [r1, #48]	; 0x30
24057716:	eddf 5a0c 	vldr	s11, [pc, #48]	; 24057748 <HAL_RCCEx_GetPLL1ClockFreq+0x150>
2405771a:	f3c3 0308 	ubfx	r3, r3, #0, #9
2405771e:	ee07 3a90 	vmov	s15, r3
24057722:	eef8 7ae7 	vcvt.f32.s32	s15, s15
24057726:	ee77 7aa6 	vadd.f32	s15, s15, s13
2405772a:	ee77 7a86 	vadd.f32	s15, s15, s12
2405772e:	e7de      	b.n	240576ee <HAL_RCCEx_GetPLL1ClockFreq+0xf6>
24057730:	e9c0 3300 	strd	r3, r3, [r0]
24057734:	e7cc      	b.n	240576d0 <HAL_RCCEx_GetPLL1ClockFreq+0xd8>
24057736:	bf00      	nop
24057738:	58024400 	.word	0x58024400
2405773c:	03d09000 	.word	0x03d09000
24057740:	4a742400 	.word	0x4a742400
24057744:	4bb71b00 	.word	0x4bb71b00
24057748:	4c742400 	.word	0x4c742400

2405774c <HAL_RCCEx_GetPeriphCLKFreq>:
2405774c:	b51f      	push	{r0, r1, r2, r3, r4, lr}
2405774e:	f5a0 7380 	sub.w	r3, r0, #256	; 0x100
24057752:	430b      	orrs	r3, r1
24057754:	d114      	bne.n	24057780 <HAL_RCCEx_GetPeriphCLKFreq+0x34>
24057756:	4b9d      	ldr	r3, [pc, #628]	; (240579cc <HAL_RCCEx_GetPeriphCLKFreq+0x280>)
24057758:	6d1a      	ldr	r2, [r3, #80]	; 0x50
2405775a:	f002 0207 	and.w	r2, r2, #7
2405775e:	2a04      	cmp	r2, #4
24057760:	d82f      	bhi.n	240577c2 <HAL_RCCEx_GetPeriphCLKFreq+0x76>
24057762:	e8df f012 	tbh	[pc, r2, lsl #1]
24057766:	00ed      	.short	0x00ed
24057768:	0005001d 	.word	0x0005001d
2405776c:	00490153 	.word	0x00490153
24057770:	6818      	ldr	r0, [r3, #0]
24057772:	f010 5000 	ands.w	r0, r0, #536870912	; 0x20000000
24057776:	d01b      	beq.n	240577b0 <HAL_RCCEx_GetPeriphCLKFreq+0x64>
24057778:	a801      	add	r0, sp, #4
2405777a:	f7ff fe93 	bl	240574a4 <HAL_RCCEx_GetPLL3ClockFreq>
2405777e:	e016      	b.n	240577ae <HAL_RCCEx_GetPeriphCLKFreq+0x62>
24057780:	f5a0 7300 	sub.w	r3, r0, #512	; 0x200
24057784:	430b      	orrs	r3, r1
24057786:	d11e      	bne.n	240577c6 <HAL_RCCEx_GetPeriphCLKFreq+0x7a>
24057788:	4b90      	ldr	r3, [pc, #576]	; (240579cc <HAL_RCCEx_GetPeriphCLKFreq+0x280>)
2405778a:	6d1a      	ldr	r2, [r3, #80]	; 0x50
2405778c:	f402 72e0 	and.w	r2, r2, #448	; 0x1c0
24057790:	2a80      	cmp	r2, #128	; 0x80
24057792:	d0ed      	beq.n	24057770 <HAL_RCCEx_GetPeriphCLKFreq+0x24>
24057794:	d80f      	bhi.n	240577b6 <HAL_RCCEx_GetPeriphCLKFreq+0x6a>
24057796:	2a00      	cmp	r2, #0
24057798:	f000 80d2 	beq.w	24057940 <HAL_RCCEx_GetPeriphCLKFreq+0x1f4>
2405779c:	2a40      	cmp	r2, #64	; 0x40
2405779e:	d110      	bne.n	240577c2 <HAL_RCCEx_GetPeriphCLKFreq+0x76>
240577a0:	6818      	ldr	r0, [r3, #0]
240577a2:	f010 6000 	ands.w	r0, r0, #134217728	; 0x8000000
240577a6:	d003      	beq.n	240577b0 <HAL_RCCEx_GetPeriphCLKFreq+0x64>
240577a8:	a801      	add	r0, sp, #4
240577aa:	f7ff fdd1 	bl	24057350 <HAL_RCCEx_GetPLL2ClockFreq>
240577ae:	9801      	ldr	r0, [sp, #4]
240577b0:	b005      	add	sp, #20
240577b2:	f85d fb04 	ldr.w	pc, [sp], #4
240577b6:	2ac0      	cmp	r2, #192	; 0xc0
240577b8:	f000 8128 	beq.w	24057a0c <HAL_RCCEx_GetPeriphCLKFreq+0x2c0>
240577bc:	f5b2 7f80 	cmp.w	r2, #256	; 0x100
240577c0:	d01a      	beq.n	240577f8 <HAL_RCCEx_GetPeriphCLKFreq+0xac>
240577c2:	2000      	movs	r0, #0
240577c4:	e7f4      	b.n	240577b0 <HAL_RCCEx_GetPeriphCLKFreq+0x64>
240577c6:	f5a0 6380 	sub.w	r3, r0, #1024	; 0x400
240577ca:	430b      	orrs	r3, r1
240577cc:	d133      	bne.n	24057836 <HAL_RCCEx_GetPeriphCLKFreq+0xea>
240577ce:	4b7f      	ldr	r3, [pc, #508]	; (240579cc <HAL_RCCEx_GetPeriphCLKFreq+0x280>)
240577d0:	6d1a      	ldr	r2, [r3, #80]	; 0x50
240577d2:	f402 6260 	and.w	r2, r2, #3584	; 0xe00
240577d6:	f5b2 6f80 	cmp.w	r2, #1024	; 0x400
240577da:	d0c9      	beq.n	24057770 <HAL_RCCEx_GetPeriphCLKFreq+0x24>
240577dc:	d805      	bhi.n	240577ea <HAL_RCCEx_GetPeriphCLKFreq+0x9e>
240577de:	2a00      	cmp	r2, #0
240577e0:	f000 80ae 	beq.w	24057940 <HAL_RCCEx_GetPeriphCLKFreq+0x1f4>
240577e4:	f5b2 7f00 	cmp.w	r2, #512	; 0x200
240577e8:	e7d9      	b.n	2405779e <HAL_RCCEx_GetPeriphCLKFreq+0x52>
240577ea:	f5b2 6fc0 	cmp.w	r2, #1536	; 0x600
240577ee:	f000 810d 	beq.w	24057a0c <HAL_RCCEx_GetPeriphCLKFreq+0x2c0>
240577f2:	f5b2 6f00 	cmp.w	r2, #2048	; 0x800
240577f6:	e7e3      	b.n	240577c0 <HAL_RCCEx_GetPeriphCLKFreq+0x74>
240577f8:	6cda      	ldr	r2, [r3, #76]	; 0x4c
240577fa:	6819      	ldr	r1, [r3, #0]
240577fc:	f002 5240 	and.w	r2, r2, #805306368	; 0x30000000
24057800:	0748      	lsls	r0, r1, #29
24057802:	d506      	bpl.n	24057812 <HAL_RCCEx_GetPeriphCLKFreq+0xc6>
24057804:	b92a      	cbnz	r2, 24057812 <HAL_RCCEx_GetPeriphCLKFreq+0xc6>
24057806:	681b      	ldr	r3, [r3, #0]
24057808:	f3c3 03c1 	ubfx	r3, r3, #3, #2
2405780c:	4870      	ldr	r0, [pc, #448]	; (240579d0 <HAL_RCCEx_GetPeriphCLKFreq+0x284>)
2405780e:	40d8      	lsrs	r0, r3
24057810:	e7ce      	b.n	240577b0 <HAL_RCCEx_GetPeriphCLKFreq+0x64>
24057812:	4b6e      	ldr	r3, [pc, #440]	; (240579cc <HAL_RCCEx_GetPeriphCLKFreq+0x280>)
24057814:	6819      	ldr	r1, [r3, #0]
24057816:	05c9      	lsls	r1, r1, #23
24057818:	d503      	bpl.n	24057822 <HAL_RCCEx_GetPeriphCLKFreq+0xd6>
2405781a:	f1b2 5f80 	cmp.w	r2, #268435456	; 0x10000000
2405781e:	f000 80f3 	beq.w	24057a08 <HAL_RCCEx_GetPeriphCLKFreq+0x2bc>
24057822:	6818      	ldr	r0, [r3, #0]
24057824:	f410 3000 	ands.w	r0, r0, #131072	; 0x20000
24057828:	d0c2      	beq.n	240577b0 <HAL_RCCEx_GetPeriphCLKFreq+0x64>
2405782a:	f1b2 5f00 	cmp.w	r2, #536870912	; 0x20000000
2405782e:	4869      	ldr	r0, [pc, #420]	; (240579d4 <HAL_RCCEx_GetPeriphCLKFreq+0x288>)
24057830:	bf18      	it	ne
24057832:	2000      	movne	r0, #0
24057834:	e7bc      	b.n	240577b0 <HAL_RCCEx_GetPeriphCLKFreq+0x64>
24057836:	f5a0 5380 	sub.w	r3, r0, #4096	; 0x1000
2405783a:	430b      	orrs	r3, r1
2405783c:	d124      	bne.n	24057888 <HAL_RCCEx_GetPeriphCLKFreq+0x13c>
2405783e:	4b63      	ldr	r3, [pc, #396]	; (240579cc <HAL_RCCEx_GetPeriphCLKFreq+0x280>)
24057840:	6d1a      	ldr	r2, [r3, #80]	; 0x50
24057842:	f402 42e0 	and.w	r2, r2, #28672	; 0x7000
24057846:	f5b2 5f00 	cmp.w	r2, #8192	; 0x2000
2405784a:	d091      	beq.n	24057770 <HAL_RCCEx_GetPeriphCLKFreq+0x24>
2405784c:	d804      	bhi.n	24057858 <HAL_RCCEx_GetPeriphCLKFreq+0x10c>
2405784e:	2a00      	cmp	r2, #0
24057850:	d076      	beq.n	24057940 <HAL_RCCEx_GetPeriphCLKFreq+0x1f4>
24057852:	f5b2 5f80 	cmp.w	r2, #4096	; 0x1000
24057856:	e7a2      	b.n	2405779e <HAL_RCCEx_GetPeriphCLKFreq+0x52>
24057858:	f5b2 5f40 	cmp.w	r2, #12288	; 0x3000
2405785c:	f000 80d6 	beq.w	24057a0c <HAL_RCCEx_GetPeriphCLKFreq+0x2c0>
24057860:	f5b2 4f80 	cmp.w	r2, #16384	; 0x4000
24057864:	d1ad      	bne.n	240577c2 <HAL_RCCEx_GetPeriphCLKFreq+0x76>
24057866:	6cda      	ldr	r2, [r3, #76]	; 0x4c
24057868:	6819      	ldr	r1, [r3, #0]
2405786a:	f002 5240 	and.w	r2, r2, #805306368	; 0x30000000
2405786e:	681b      	ldr	r3, [r3, #0]
24057870:	0748      	lsls	r0, r1, #29
24057872:	d501      	bpl.n	24057878 <HAL_RCCEx_GetPeriphCLKFreq+0x12c>
24057874:	2a00      	cmp	r2, #0
24057876:	d0c7      	beq.n	24057808 <HAL_RCCEx_GetPeriphCLKFreq+0xbc>
24057878:	05d9      	lsls	r1, r3, #23
2405787a:	d503      	bpl.n	24057884 <HAL_RCCEx_GetPeriphCLKFreq+0x138>
2405787c:	f1b2 5f80 	cmp.w	r2, #268435456	; 0x10000000
24057880:	f000 80c2 	beq.w	24057a08 <HAL_RCCEx_GetPeriphCLKFreq+0x2bc>
24057884:	4b51      	ldr	r3, [pc, #324]	; (240579cc <HAL_RCCEx_GetPeriphCLKFreq+0x280>)
24057886:	e7cc      	b.n	24057822 <HAL_RCCEx_GetPeriphCLKFreq+0xd6>
24057888:	f5a0 5300 	sub.w	r3, r0, #8192	; 0x2000
2405788c:	430b      	orrs	r3, r1
2405788e:	d133      	bne.n	240578f8 <HAL_RCCEx_GetPeriphCLKFreq+0x1ac>
24057890:	4a4e      	ldr	r2, [pc, #312]	; (240579cc <HAL_RCCEx_GetPeriphCLKFreq+0x280>)
24057892:	6d13      	ldr	r3, [r2, #80]	; 0x50
24057894:	f403 23e0 	and.w	r3, r3, #458752	; 0x70000
24057898:	f5b3 3f40 	cmp.w	r3, #196608	; 0x30000
2405789c:	f000 808e 	beq.w	240579bc <HAL_RCCEx_GetPeriphCLKFreq+0x270>
240578a0:	d80c      	bhi.n	240578bc <HAL_RCCEx_GetPeriphCLKFreq+0x170>
240578a2:	f5b3 3f80 	cmp.w	r3, #65536	; 0x10000
240578a6:	d015      	beq.n	240578d4 <HAL_RCCEx_GetPeriphCLKFreq+0x188>
240578a8:	f5b3 3f00 	cmp.w	r3, #131072	; 0x20000
240578ac:	d01b      	beq.n	240578e6 <HAL_RCCEx_GetPeriphCLKFreq+0x19a>
240578ae:	2b00      	cmp	r3, #0
240578b0:	d187      	bne.n	240577c2 <HAL_RCCEx_GetPeriphCLKFreq+0x76>
240578b2:	b005      	add	sp, #20
240578b4:	f85d eb04 	ldr.w	lr, [sp], #4
240578b8:	f7fe bf58 	b.w	2405676c <HAL_RCC_GetPCLK1Freq>
240578bc:	f5b3 2f80 	cmp.w	r3, #262144	; 0x40000
240578c0:	d075      	beq.n	240579ae <HAL_RCCEx_GetPeriphCLKFreq+0x262>
240578c2:	f5b3 2fa0 	cmp.w	r3, #327680	; 0x50000
240578c6:	f47f af7c 	bne.w	240577c2 <HAL_RCCEx_GetPeriphCLKFreq+0x76>
240578ca:	6810      	ldr	r0, [r2, #0]
240578cc:	4b41      	ldr	r3, [pc, #260]	; (240579d4 <HAL_RCCEx_GetPeriphCLKFreq+0x288>)
240578ce:	f410 3000 	ands.w	r0, r0, #131072	; 0x20000
240578d2:	e070      	b.n	240579b6 <HAL_RCCEx_GetPeriphCLKFreq+0x26a>
240578d4:	6810      	ldr	r0, [r2, #0]
240578d6:	f010 6000 	ands.w	r0, r0, #134217728	; 0x8000000
240578da:	f43f af69 	beq.w	240577b0 <HAL_RCCEx_GetPeriphCLKFreq+0x64>
240578de:	a801      	add	r0, sp, #4
240578e0:	f7ff fd36 	bl	24057350 <HAL_RCCEx_GetPLL2ClockFreq>
240578e4:	e034      	b.n	24057950 <HAL_RCCEx_GetPeriphCLKFreq+0x204>
240578e6:	6810      	ldr	r0, [r2, #0]
240578e8:	f010 5000 	ands.w	r0, r0, #536870912	; 0x20000000
240578ec:	f43f af60 	beq.w	240577b0 <HAL_RCCEx_GetPeriphCLKFreq+0x64>
240578f0:	a801      	add	r0, sp, #4
240578f2:	f7ff fdd7 	bl	240574a4 <HAL_RCCEx_GetPLL3ClockFreq>
240578f6:	e02b      	b.n	24057950 <HAL_RCCEx_GetPeriphCLKFreq+0x204>
240578f8:	f5a0 2300 	sub.w	r3, r0, #524288	; 0x80000
240578fc:	430b      	orrs	r3, r1
240578fe:	d117      	bne.n	24057930 <HAL_RCCEx_GetPeriphCLKFreq+0x1e4>
24057900:	4b32      	ldr	r3, [pc, #200]	; (240579cc <HAL_RCCEx_GetPeriphCLKFreq+0x280>)
24057902:	6d9a      	ldr	r2, [r3, #88]	; 0x58
24057904:	f402 3240 	and.w	r2, r2, #196608	; 0x30000
24057908:	f5b2 3f80 	cmp.w	r2, #65536	; 0x10000
2405790c:	d006      	beq.n	2405791c <HAL_RCCEx_GetPeriphCLKFreq+0x1d0>
2405790e:	f5b2 3f00 	cmp.w	r2, #131072	; 0x20000
24057912:	d0a8      	beq.n	24057866 <HAL_RCCEx_GetPeriphCLKFreq+0x11a>
24057914:	2a00      	cmp	r2, #0
24057916:	f47f af54 	bne.w	240577c2 <HAL_RCCEx_GetPeriphCLKFreq+0x76>
2405791a:	e741      	b.n	240577a0 <HAL_RCCEx_GetPeriphCLKFreq+0x54>
2405791c:	6818      	ldr	r0, [r3, #0]
2405791e:	f010 5000 	ands.w	r0, r0, #536870912	; 0x20000000
24057922:	f43f af45 	beq.w	240577b0 <HAL_RCCEx_GetPeriphCLKFreq+0x64>
24057926:	a801      	add	r0, sp, #4
24057928:	f7ff fdbc 	bl	240574a4 <HAL_RCCEx_GetPLL3ClockFreq>
2405792c:	9803      	ldr	r0, [sp, #12]
2405792e:	e73f      	b.n	240577b0 <HAL_RCCEx_GetPeriphCLKFreq+0x64>
24057930:	f5a0 3380 	sub.w	r3, r0, #65536	; 0x10000
24057934:	430b      	orrs	r3, r1
24057936:	d116      	bne.n	24057966 <HAL_RCCEx_GetPeriphCLKFreq+0x21a>
24057938:	4b24      	ldr	r3, [pc, #144]	; (240579cc <HAL_RCCEx_GetPeriphCLKFreq+0x280>)
2405793a:	6cda      	ldr	r2, [r3, #76]	; 0x4c
2405793c:	03d2      	lsls	r2, r2, #15
2405793e:	d409      	bmi.n	24057954 <HAL_RCCEx_GetPeriphCLKFreq+0x208>
24057940:	6818      	ldr	r0, [r3, #0]
24057942:	f010 7000 	ands.w	r0, r0, #33554432	; 0x2000000
24057946:	f43f af33 	beq.w	240577b0 <HAL_RCCEx_GetPeriphCLKFreq+0x64>
2405794a:	a801      	add	r0, sp, #4
2405794c:	f7ff fe54 	bl	240575f8 <HAL_RCCEx_GetPLL1ClockFreq>
24057950:	9802      	ldr	r0, [sp, #8]
24057952:	e72d      	b.n	240577b0 <HAL_RCCEx_GetPeriphCLKFreq+0x64>
24057954:	6818      	ldr	r0, [r3, #0]
24057956:	f010 6000 	ands.w	r0, r0, #134217728	; 0x8000000
2405795a:	f43f af29 	beq.w	240577b0 <HAL_RCCEx_GetPeriphCLKFreq+0x64>
2405795e:	a801      	add	r0, sp, #4
24057960:	f7ff fcf6 	bl	24057350 <HAL_RCCEx_GetPLL2ClockFreq>
24057964:	e7e2      	b.n	2405792c <HAL_RCCEx_GetPeriphCLKFreq+0x1e0>
24057966:	f5a0 4380 	sub.w	r3, r0, #16384	; 0x4000
2405796a:	430b      	orrs	r3, r1
2405796c:	d136      	bne.n	240579dc <HAL_RCCEx_GetPeriphCLKFreq+0x290>
2405796e:	4a17      	ldr	r2, [pc, #92]	; (240579cc <HAL_RCCEx_GetPeriphCLKFreq+0x280>)
24057970:	6d93      	ldr	r3, [r2, #88]	; 0x58
24057972:	f003 43e0 	and.w	r3, r3, #1879048192	; 0x70000000
24057976:	f1b3 5f40 	cmp.w	r3, #805306368	; 0x30000000
2405797a:	d01f      	beq.n	240579bc <HAL_RCCEx_GetPeriphCLKFreq+0x270>
2405797c:	d80d      	bhi.n	2405799a <HAL_RCCEx_GetPeriphCLKFreq+0x24e>
2405797e:	f1b3 5f80 	cmp.w	r3, #268435456	; 0x10000000
24057982:	d0a7      	beq.n	240578d4 <HAL_RCCEx_GetPeriphCLKFreq+0x188>
24057984:	f1b3 5f00 	cmp.w	r3, #536870912	; 0x20000000
24057988:	d0ad      	beq.n	240578e6 <HAL_RCCEx_GetPeriphCLKFreq+0x19a>
2405798a:	2b00      	cmp	r3, #0
2405798c:	f47f af19 	bne.w	240577c2 <HAL_RCCEx_GetPeriphCLKFreq+0x76>
24057990:	b005      	add	sp, #20
24057992:	f85d eb04 	ldr.w	lr, [sp], #4
24057996:	f7ff bcc9 	b.w	2405732c <HAL_RCCEx_GetD3PCLK1Freq>
2405799a:	f1b3 4fa0 	cmp.w	r3, #1342177280	; 0x50000000
2405799e:	d094      	beq.n	240578ca <HAL_RCCEx_GetPeriphCLKFreq+0x17e>
240579a0:	f1b3 4fc0 	cmp.w	r3, #1610612736	; 0x60000000
240579a4:	d032      	beq.n	24057a0c <HAL_RCCEx_GetPeriphCLKFreq+0x2c0>
240579a6:	f1b3 4f80 	cmp.w	r3, #1073741824	; 0x40000000
240579aa:	f47f af0a 	bne.w	240577c2 <HAL_RCCEx_GetPeriphCLKFreq+0x76>
240579ae:	6810      	ldr	r0, [r2, #0]
240579b0:	4b09      	ldr	r3, [pc, #36]	; (240579d8 <HAL_RCCEx_GetPeriphCLKFreq+0x28c>)
240579b2:	f410 7080 	ands.w	r0, r0, #256	; 0x100
240579b6:	bf18      	it	ne
240579b8:	4618      	movne	r0, r3
240579ba:	e6f9      	b.n	240577b0 <HAL_RCCEx_GetPeriphCLKFreq+0x64>
240579bc:	6810      	ldr	r0, [r2, #0]
240579be:	f010 0004 	ands.w	r0, r0, #4
240579c2:	f43f aef5 	beq.w	240577b0 <HAL_RCCEx_GetPeriphCLKFreq+0x64>
240579c6:	6813      	ldr	r3, [r2, #0]
240579c8:	e71e      	b.n	24057808 <HAL_RCCEx_GetPeriphCLKFreq+0xbc>
240579ca:	bf00      	nop
240579cc:	58024400 	.word	0x58024400
240579d0:	03d09000 	.word	0x03d09000
240579d4:	016e3600 	.word	0x016e3600
240579d8:	003d0900 	.word	0x003d0900
240579dc:	f5a0 4000 	sub.w	r0, r0, #32768	; 0x8000
240579e0:	4301      	orrs	r1, r0
240579e2:	f47f aeee 	bne.w	240577c2 <HAL_RCCEx_GetPeriphCLKFreq+0x76>
240579e6:	4a0a      	ldr	r2, [pc, #40]	; (24057a10 <HAL_RCCEx_GetPeriphCLKFreq+0x2c4>)
240579e8:	6d13      	ldr	r3, [r2, #80]	; 0x50
240579ea:	f003 5340 	and.w	r3, r3, #805306368	; 0x30000000
240579ee:	f1b3 5f80 	cmp.w	r3, #268435456	; 0x10000000
240579f2:	d007      	beq.n	24057a04 <HAL_RCCEx_GetPeriphCLKFreq+0x2b8>
240579f4:	f1b3 5f00 	cmp.w	r3, #536870912	; 0x20000000
240579f8:	f43f af6c 	beq.w	240578d4 <HAL_RCCEx_GetPeriphCLKFreq+0x188>
240579fc:	2b00      	cmp	r3, #0
240579fe:	f47f aee0 	bne.w	240577c2 <HAL_RCCEx_GetPeriphCLKFreq+0x76>
24057a02:	e762      	b.n	240578ca <HAL_RCCEx_GetPeriphCLKFreq+0x17e>
24057a04:	6810      	ldr	r0, [r2, #0]
24057a06:	e79c      	b.n	24057942 <HAL_RCCEx_GetPeriphCLKFreq+0x1f6>
24057a08:	4802      	ldr	r0, [pc, #8]	; (24057a14 <HAL_RCCEx_GetPeriphCLKFreq+0x2c8>)
24057a0a:	e6d1      	b.n	240577b0 <HAL_RCCEx_GetPeriphCLKFreq+0x64>
24057a0c:	4802      	ldr	r0, [pc, #8]	; (24057a18 <HAL_RCCEx_GetPeriphCLKFreq+0x2cc>)
24057a0e:	e6cf      	b.n	240577b0 <HAL_RCCEx_GetPeriphCLKFreq+0x64>
24057a10:	58024400 	.word	0x58024400
24057a14:	003d0900 	.word	0x003d0900
24057a18:	00bb8000 	.word	0x00bb8000

24057a1c <HAL_RTC_WaitForSynchro>:
24057a1c:	b538      	push	{r3, r4, r5, lr}
24057a1e:	4a0a      	ldr	r2, [pc, #40]	; (24057a48 <HAL_RTC_WaitForSynchro+0x2c>)
24057a20:	4604      	mov	r4, r0
24057a22:	6803      	ldr	r3, [r0, #0]
24057a24:	60da      	str	r2, [r3, #12]
24057a26:	f7fa ff7d 	bl	24052924 <HAL_GetTick>
24057a2a:	4605      	mov	r5, r0
24057a2c:	6823      	ldr	r3, [r4, #0]
24057a2e:	68db      	ldr	r3, [r3, #12]
24057a30:	069b      	lsls	r3, r3, #26
24057a32:	d501      	bpl.n	24057a38 <HAL_RTC_WaitForSynchro+0x1c>
24057a34:	2000      	movs	r0, #0
24057a36:	bd38      	pop	{r3, r4, r5, pc}
24057a38:	f7fa ff74 	bl	24052924 <HAL_GetTick>
24057a3c:	1b40      	subs	r0, r0, r5
24057a3e:	f5b0 7f7a 	cmp.w	r0, #1000	; 0x3e8
24057a42:	d9f3      	bls.n	24057a2c <HAL_RTC_WaitForSynchro+0x10>
24057a44:	2003      	movs	r0, #3
24057a46:	e7f6      	b.n	24057a36 <HAL_RTC_WaitForSynchro+0x1a>
24057a48:	0001005f 	.word	0x0001005f

24057a4c <RTC_EnterInitMode>:
24057a4c:	b5f8      	push	{r3, r4, r5, r6, r7, lr}
24057a4e:	6803      	ldr	r3, [r0, #0]
24057a50:	4605      	mov	r5, r0
24057a52:	68dc      	ldr	r4, [r3, #12]
24057a54:	f014 0440 	ands.w	r4, r4, #64	; 0x40
24057a58:	d119      	bne.n	24057a8e <RTC_EnterInitMode+0x42>
24057a5a:	68da      	ldr	r2, [r3, #12]
24057a5c:	2703      	movs	r7, #3
24057a5e:	f042 0280 	orr.w	r2, r2, #128	; 0x80
24057a62:	60da      	str	r2, [r3, #12]
24057a64:	f7fa ff5e 	bl	24052924 <HAL_GetTick>
24057a68:	4606      	mov	r6, r0
24057a6a:	682b      	ldr	r3, [r5, #0]
24057a6c:	68db      	ldr	r3, [r3, #12]
24057a6e:	065b      	lsls	r3, r3, #25
24057a70:	d401      	bmi.n	24057a76 <RTC_EnterInitMode+0x2a>
24057a72:	2c03      	cmp	r4, #3
24057a74:	d101      	bne.n	24057a7a <RTC_EnterInitMode+0x2e>
24057a76:	4620      	mov	r0, r4
24057a78:	bdf8      	pop	{r3, r4, r5, r6, r7, pc}
24057a7a:	f7fa ff53 	bl	24052924 <HAL_GetTick>
24057a7e:	1b80      	subs	r0, r0, r6
24057a80:	f5b0 7f7a 	cmp.w	r0, #1000	; 0x3e8
24057a84:	d9f1      	bls.n	24057a6a <RTC_EnterInitMode+0x1e>
24057a86:	2403      	movs	r4, #3
24057a88:	f885 7025 	strb.w	r7, [r5, #37]	; 0x25
24057a8c:	e7ed      	b.n	24057a6a <RTC_EnterInitMode+0x1e>
24057a8e:	2400      	movs	r4, #0
24057a90:	e7f1      	b.n	24057a76 <RTC_EnterInitMode+0x2a>
	...

24057a94 <RTC_ExitInitMode>:
24057a94:	b538      	push	{r3, r4, r5, lr}
24057a96:	4c0f      	ldr	r4, [pc, #60]	; (24057ad4 <RTC_ExitInitMode+0x40>)
24057a98:	4605      	mov	r5, r0
24057a9a:	68e3      	ldr	r3, [r4, #12]
24057a9c:	f023 0380 	bic.w	r3, r3, #128	; 0x80
24057aa0:	60e3      	str	r3, [r4, #12]
24057aa2:	69a3      	ldr	r3, [r4, #24]
24057aa4:	069b      	lsls	r3, r3, #26
24057aa6:	d406      	bmi.n	24057ab6 <RTC_ExitInitMode+0x22>
24057aa8:	f7ff ffb8 	bl	24057a1c <HAL_RTC_WaitForSynchro>
24057aac:	b110      	cbz	r0, 24057ab4 <RTC_ExitInitMode+0x20>
24057aae:	2003      	movs	r0, #3
24057ab0:	f885 0025 	strb.w	r0, [r5, #37]	; 0x25
24057ab4:	bd38      	pop	{r3, r4, r5, pc}
24057ab6:	69a3      	ldr	r3, [r4, #24]
24057ab8:	f023 0320 	bic.w	r3, r3, #32
24057abc:	61a3      	str	r3, [r4, #24]
24057abe:	f7ff ffad 	bl	24057a1c <HAL_RTC_WaitForSynchro>
24057ac2:	b110      	cbz	r0, 24057aca <RTC_ExitInitMode+0x36>
24057ac4:	2003      	movs	r0, #3
24057ac6:	f885 0025 	strb.w	r0, [r5, #37]	; 0x25
24057aca:	69a3      	ldr	r3, [r4, #24]
24057acc:	f043 0320 	orr.w	r3, r3, #32
24057ad0:	61a3      	str	r3, [r4, #24]
24057ad2:	e7ef      	b.n	24057ab4 <RTC_ExitInitMode+0x20>
24057ad4:	58004000 	.word	0x58004000

24057ad8 <HAL_RTC_Init>:
24057ad8:	b538      	push	{r3, r4, r5, lr}
24057ada:	4604      	mov	r4, r0
24057adc:	2800      	cmp	r0, #0
24057ade:	d047      	beq.n	24057b70 <HAL_RTC_Init+0x98>
24057ae0:	f890 3025 	ldrb.w	r3, [r0, #37]	; 0x25
24057ae4:	f003 02ff 	and.w	r2, r3, #255	; 0xff
24057ae8:	b91b      	cbnz	r3, 24057af2 <HAL_RTC_Init+0x1a>
24057aea:	f880 2024 	strb.w	r2, [r0, #36]	; 0x24
24057aee:	f7fa fc79 	bl	240523e4 <HAL_RTC_MspInit>
24057af2:	2302      	movs	r3, #2
24057af4:	f884 3025 	strb.w	r3, [r4, #37]	; 0x25
24057af8:	6823      	ldr	r3, [r4, #0]
24057afa:	68da      	ldr	r2, [r3, #12]
24057afc:	06d2      	lsls	r2, r2, #27
24057afe:	d504      	bpl.n	24057b0a <HAL_RTC_Init+0x32>
24057b00:	2301      	movs	r3, #1
24057b02:	2000      	movs	r0, #0
24057b04:	f884 3025 	strb.w	r3, [r4, #37]	; 0x25
24057b08:	bd38      	pop	{r3, r4, r5, pc}
24057b0a:	22ca      	movs	r2, #202	; 0xca
24057b0c:	4620      	mov	r0, r4
24057b0e:	625a      	str	r2, [r3, #36]	; 0x24
24057b10:	2253      	movs	r2, #83	; 0x53
24057b12:	625a      	str	r2, [r3, #36]	; 0x24
24057b14:	f7ff ff9a 	bl	24057a4c <RTC_EnterInitMode>
24057b18:	bb20      	cbnz	r0, 24057b64 <HAL_RTC_Init+0x8c>
24057b1a:	6822      	ldr	r2, [r4, #0]
24057b1c:	6920      	ldr	r0, [r4, #16]
24057b1e:	6993      	ldr	r3, [r2, #24]
24057b20:	f023 638e 	bic.w	r3, r3, #74448896	; 0x4700000
24057b24:	f023 0340 	bic.w	r3, r3, #64	; 0x40
24057b28:	6193      	str	r3, [r2, #24]
24057b2a:	6863      	ldr	r3, [r4, #4]
24057b2c:	6991      	ldr	r1, [r2, #24]
24057b2e:	4303      	orrs	r3, r0
24057b30:	69a0      	ldr	r0, [r4, #24]
24057b32:	4303      	orrs	r3, r0
24057b34:	4620      	mov	r0, r4
24057b36:	430b      	orrs	r3, r1
24057b38:	6193      	str	r3, [r2, #24]
24057b3a:	e9d4 1302 	ldrd	r1, r3, [r4, #8]
24057b3e:	ea43 4301 	orr.w	r3, r3, r1, lsl #16
24057b42:	6113      	str	r3, [r2, #16]
24057b44:	f7ff ffa6 	bl	24057a94 <RTC_ExitInitMode>
24057b48:	b960      	cbnz	r0, 24057b64 <HAL_RTC_Init+0x8c>
24057b4a:	6822      	ldr	r2, [r4, #0]
24057b4c:	6993      	ldr	r3, [r2, #24]
24057b4e:	f023 4360 	bic.w	r3, r3, #3758096384	; 0xe0000000
24057b52:	6193      	str	r3, [r2, #24]
24057b54:	6991      	ldr	r1, [r2, #24]
24057b56:	e9d4 5307 	ldrd	r5, r3, [r4, #28]
24057b5a:	432b      	orrs	r3, r5
24057b5c:	6965      	ldr	r5, [r4, #20]
24057b5e:	432b      	orrs	r3, r5
24057b60:	430b      	orrs	r3, r1
24057b62:	6193      	str	r3, [r2, #24]
24057b64:	6823      	ldr	r3, [r4, #0]
24057b66:	22ff      	movs	r2, #255	; 0xff
24057b68:	625a      	str	r2, [r3, #36]	; 0x24
24057b6a:	2800      	cmp	r0, #0
24057b6c:	d0c8      	beq.n	24057b00 <HAL_RTC_Init+0x28>
24057b6e:	e7cb      	b.n	24057b08 <HAL_RTC_Init+0x30>
24057b70:	2001      	movs	r0, #1
24057b72:	e7c9      	b.n	24057b08 <HAL_RTC_Init+0x30>

24057b74 <RTC_ByteToBcd2>:
24057b74:	2300      	movs	r3, #0
24057b76:	2809      	cmp	r0, #9
24057b78:	d803      	bhi.n	24057b82 <RTC_ByteToBcd2+0xe>
24057b7a:	ea40 1003 	orr.w	r0, r0, r3, lsl #4
24057b7e:	b2c0      	uxtb	r0, r0
24057b80:	4770      	bx	lr
24057b82:	380a      	subs	r0, #10
24057b84:	3301      	adds	r3, #1
24057b86:	b2c0      	uxtb	r0, r0
24057b88:	e7f5      	b.n	24057b76 <RTC_ByteToBcd2+0x2>

24057b8a <HAL_RTC_SetTime>:
24057b8a:	e92d 41f0 	stmdb	sp!, {r4, r5, r6, r7, r8, lr}
24057b8e:	f890 3024 	ldrb.w	r3, [r0, #36]	; 0x24
24057b92:	4605      	mov	r5, r0
24057b94:	460e      	mov	r6, r1
24057b96:	4690      	mov	r8, r2
24057b98:	2b01      	cmp	r3, #1
24057b9a:	f04f 0302 	mov.w	r3, #2
24057b9e:	d054      	beq.n	24057c4a <HAL_RTC_SetTime+0xc0>
24057ba0:	2201      	movs	r2, #1
24057ba2:	f880 3025 	strb.w	r3, [r0, #37]	; 0x25
24057ba6:	6803      	ldr	r3, [r0, #0]
24057ba8:	f880 2024 	strb.w	r2, [r0, #36]	; 0x24
24057bac:	22ca      	movs	r2, #202	; 0xca
24057bae:	625a      	str	r2, [r3, #36]	; 0x24
24057bb0:	2253      	movs	r2, #83	; 0x53
24057bb2:	625a      	str	r2, [r3, #36]	; 0x24
24057bb4:	f7ff ff4a 	bl	24057a4c <RTC_EnterInitMode>
24057bb8:	bb70      	cbnz	r0, 24057c18 <HAL_RTC_SetTime+0x8e>
24057bba:	6829      	ldr	r1, [r5, #0]
24057bbc:	7830      	ldrb	r0, [r6, #0]
24057bbe:	7874      	ldrb	r4, [r6, #1]
24057bc0:	78b7      	ldrb	r7, [r6, #2]
24057bc2:	698b      	ldr	r3, [r1, #24]
24057bc4:	f1b8 0f00 	cmp.w	r8, #0
24057bc8:	d132      	bne.n	24057c30 <HAL_RTC_SetTime+0xa6>
24057bca:	f013 0340 	ands.w	r3, r3, #64	; 0x40
24057bce:	bf08      	it	eq
24057bd0:	70f3      	strbeq	r3, [r6, #3]
24057bd2:	f7ff ffcf 	bl	24057b74 <RTC_ByteToBcd2>
24057bd6:	4680      	mov	r8, r0
24057bd8:	4620      	mov	r0, r4
24057bda:	f7ff ffcb 	bl	24057b74 <RTC_ByteToBcd2>
24057bde:	4602      	mov	r2, r0
24057be0:	4638      	mov	r0, r7
24057be2:	f7ff ffc7 	bl	24057b74 <RTC_ByteToBcd2>
24057be6:	78f3      	ldrb	r3, [r6, #3]
24057be8:	ea40 5383 	orr.w	r3, r0, r3, lsl #22
24057bec:	ea43 4308 	orr.w	r3, r3, r8, lsl #16
24057bf0:	ea43 2302 	orr.w	r3, r3, r2, lsl #8
24057bf4:	f003 337f 	and.w	r3, r3, #2139062143	; 0x7f7f7f7f
24057bf8:	f023 43fe 	bic.w	r3, r3, #2130706432	; 0x7f000000
24057bfc:	600b      	str	r3, [r1, #0]
24057bfe:	698b      	ldr	r3, [r1, #24]
24057c00:	f423 2380 	bic.w	r3, r3, #262144	; 0x40000
24057c04:	618b      	str	r3, [r1, #24]
24057c06:	698a      	ldr	r2, [r1, #24]
24057c08:	e9d6 3003 	ldrd	r3, r0, [r6, #12]
24057c0c:	4303      	orrs	r3, r0
24057c0e:	4628      	mov	r0, r5
24057c10:	4313      	orrs	r3, r2
24057c12:	618b      	str	r3, [r1, #24]
24057c14:	f7ff ff3e 	bl	24057a94 <RTC_ExitInitMode>
24057c18:	682b      	ldr	r3, [r5, #0]
24057c1a:	22ff      	movs	r2, #255	; 0xff
24057c1c:	625a      	str	r2, [r3, #36]	; 0x24
24057c1e:	b910      	cbnz	r0, 24057c26 <HAL_RTC_SetTime+0x9c>
24057c20:	2301      	movs	r3, #1
24057c22:	f885 3025 	strb.w	r3, [r5, #37]	; 0x25
24057c26:	2300      	movs	r3, #0
24057c28:	f885 3024 	strb.w	r3, [r5, #36]	; 0x24
24057c2c:	e8bd 81f0 	ldmia.w	sp!, {r4, r5, r6, r7, r8, pc}
24057c30:	f013 0340 	ands.w	r3, r3, #64	; 0x40
24057c34:	ea4f 2404 	mov.w	r4, r4, lsl #8
24057c38:	bf08      	it	eq
24057c3a:	70f3      	strbeq	r3, [r6, #3]
24057c3c:	ea44 4300 	orr.w	r3, r4, r0, lsl #16
24057c40:	78f2      	ldrb	r2, [r6, #3]
24057c42:	433b      	orrs	r3, r7
24057c44:	ea43 5382 	orr.w	r3, r3, r2, lsl #22
24057c48:	e7d4      	b.n	24057bf4 <HAL_RTC_SetTime+0x6a>
24057c4a:	4618      	mov	r0, r3
24057c4c:	e7ee      	b.n	24057c2c <HAL_RTC_SetTime+0xa2>

24057c4e <HAL_RTC_SetDate>:
24057c4e:	b5f8      	push	{r3, r4, r5, r6, r7, lr}
24057c50:	f890 3024 	ldrb.w	r3, [r0, #36]	; 0x24
24057c54:	4605      	mov	r5, r0
24057c56:	2b01      	cmp	r3, #1
24057c58:	f04f 0302 	mov.w	r3, #2
24057c5c:	d03d      	beq.n	24057cda <HAL_RTC_SetDate+0x8c>
24057c5e:	2001      	movs	r0, #1
24057c60:	f885 3025 	strb.w	r3, [r5, #37]	; 0x25
24057c64:	f885 0024 	strb.w	r0, [r5, #36]	; 0x24
24057c68:	780c      	ldrb	r4, [r1, #0]
24057c6a:	78c8      	ldrb	r0, [r1, #3]
24057c6c:	784e      	ldrb	r6, [r1, #1]
24057c6e:	0364      	lsls	r4, r4, #13
24057c70:	788f      	ldrb	r7, [r1, #2]
24057c72:	bba2      	cbnz	r2, 24057cde <HAL_RTC_SetDate+0x90>
24057c74:	06f3      	lsls	r3, r6, #27
24057c76:	d503      	bpl.n	24057c80 <HAL_RTC_SetDate+0x32>
24057c78:	f026 0610 	bic.w	r6, r6, #16
24057c7c:	360a      	adds	r6, #10
24057c7e:	704e      	strb	r6, [r1, #1]
24057c80:	f7ff ff78 	bl	24057b74 <RTC_ByteToBcd2>
24057c84:	4606      	mov	r6, r0
24057c86:	7848      	ldrb	r0, [r1, #1]
24057c88:	f7ff ff74 	bl	24057b74 <RTC_ByteToBcd2>
24057c8c:	4602      	mov	r2, r0
24057c8e:	4638      	mov	r0, r7
24057c90:	f7ff ff70 	bl	24057b74 <RTC_ByteToBcd2>
24057c94:	ea40 0304 	orr.w	r3, r0, r4
24057c98:	ea43 4306 	orr.w	r3, r3, r6, lsl #16
24057c9c:	ea43 2402 	orr.w	r4, r3, r2, lsl #8
24057ca0:	682b      	ldr	r3, [r5, #0]
24057ca2:	22ca      	movs	r2, #202	; 0xca
24057ca4:	4628      	mov	r0, r5
24057ca6:	625a      	str	r2, [r3, #36]	; 0x24
24057ca8:	2253      	movs	r2, #83	; 0x53
24057caa:	625a      	str	r2, [r3, #36]	; 0x24
24057cac:	f7ff fece 	bl	24057a4c <RTC_EnterInitMode>
24057cb0:	b940      	cbnz	r0, 24057cc4 <HAL_RTC_SetDate+0x76>
24057cb2:	f024 447f 	bic.w	r4, r4, #4278190080	; 0xff000000
24057cb6:	682a      	ldr	r2, [r5, #0]
24057cb8:	4628      	mov	r0, r5
24057cba:	f024 04c0 	bic.w	r4, r4, #192	; 0xc0
24057cbe:	6054      	str	r4, [r2, #4]
24057cc0:	f7ff fee8 	bl	24057a94 <RTC_ExitInitMode>
24057cc4:	682b      	ldr	r3, [r5, #0]
24057cc6:	22ff      	movs	r2, #255	; 0xff
24057cc8:	625a      	str	r2, [r3, #36]	; 0x24
24057cca:	b910      	cbnz	r0, 24057cd2 <HAL_RTC_SetDate+0x84>
24057ccc:	2301      	movs	r3, #1
24057cce:	f885 3025 	strb.w	r3, [r5, #37]	; 0x25
24057cd2:	2300      	movs	r3, #0
24057cd4:	f885 3024 	strb.w	r3, [r5, #36]	; 0x24
24057cd8:	bdf8      	pop	{r3, r4, r5, r6, r7, pc}
24057cda:	4618      	mov	r0, r3
24057cdc:	e7fc      	b.n	24057cd8 <HAL_RTC_SetDate+0x8a>
24057cde:	ea44 4400 	orr.w	r4, r4, r0, lsl #16
24057ce2:	433c      	orrs	r4, r7
24057ce4:	ea44 2406 	orr.w	r4, r4, r6, lsl #8
24057ce8:	e7da      	b.n	24057ca0 <HAL_RTC_SetDate+0x52>

24057cea <RTC_Bcd2ToByte>:
24057cea:	0903      	lsrs	r3, r0, #4
24057cec:	f000 000f 	and.w	r0, r0, #15
24057cf0:	eb03 0383 	add.w	r3, r3, r3, lsl #2
24057cf4:	eb00 0043 	add.w	r0, r0, r3, lsl #1
24057cf8:	b2c0      	uxtb	r0, r0
24057cfa:	4770      	bx	lr

24057cfc <HAL_RTC_GetTime>:
24057cfc:	b538      	push	{r3, r4, r5, lr}
24057cfe:	6803      	ldr	r3, [r0, #0]
24057d00:	6898      	ldr	r0, [r3, #8]
24057d02:	6048      	str	r0, [r1, #4]
24057d04:	6918      	ldr	r0, [r3, #16]
24057d06:	681b      	ldr	r3, [r3, #0]
24057d08:	f3c0 000e 	ubfx	r0, r0, #0, #15
24057d0c:	f3c3 2506 	ubfx	r5, r3, #8, #7
24057d10:	f003 047f 	and.w	r4, r3, #127	; 0x7f
24057d14:	6088      	str	r0, [r1, #8]
24057d16:	f3c3 4005 	ubfx	r0, r3, #16, #6
24057d1a:	f3c3 5380 	ubfx	r3, r3, #22, #1
24057d1e:	704d      	strb	r5, [r1, #1]
24057d20:	7008      	strb	r0, [r1, #0]
24057d22:	708c      	strb	r4, [r1, #2]
24057d24:	70cb      	strb	r3, [r1, #3]
24057d26:	b952      	cbnz	r2, 24057d3e <HAL_RTC_GetTime+0x42>
24057d28:	f7ff ffdf 	bl	24057cea <RTC_Bcd2ToByte>
24057d2c:	7008      	strb	r0, [r1, #0]
24057d2e:	4628      	mov	r0, r5
24057d30:	f7ff ffdb 	bl	24057cea <RTC_Bcd2ToByte>
24057d34:	7048      	strb	r0, [r1, #1]
24057d36:	4620      	mov	r0, r4
24057d38:	f7ff ffd7 	bl	24057cea <RTC_Bcd2ToByte>
24057d3c:	7088      	strb	r0, [r1, #2]
24057d3e:	2000      	movs	r0, #0
24057d40:	bd38      	pop	{r3, r4, r5, pc}

24057d42 <HAL_RTC_GetDate>:
24057d42:	b538      	push	{r3, r4, r5, lr}
24057d44:	6803      	ldr	r3, [r0, #0]
24057d46:	685b      	ldr	r3, [r3, #4]
24057d48:	f3c3 4007 	ubfx	r0, r3, #16, #8
24057d4c:	f3c3 2504 	ubfx	r5, r3, #8, #5
24057d50:	f003 043f 	and.w	r4, r3, #63	; 0x3f
24057d54:	f3c3 3342 	ubfx	r3, r3, #13, #3
24057d58:	70c8      	strb	r0, [r1, #3]
24057d5a:	704d      	strb	r5, [r1, #1]
24057d5c:	708c      	strb	r4, [r1, #2]
24057d5e:	700b      	strb	r3, [r1, #0]
24057d60:	b952      	cbnz	r2, 24057d78 <HAL_RTC_GetDate+0x36>
24057d62:	f7ff ffc2 	bl	24057cea <RTC_Bcd2ToByte>
24057d66:	70c8      	strb	r0, [r1, #3]
24057d68:	4628      	mov	r0, r5
24057d6a:	f7ff ffbe 	bl	24057cea <RTC_Bcd2ToByte>
24057d6e:	7048      	strb	r0, [r1, #1]
24057d70:	4620      	mov	r0, r4
24057d72:	f7ff ffba 	bl	24057cea <RTC_Bcd2ToByte>
24057d76:	7088      	strb	r0, [r1, #2]
24057d78:	2000      	movs	r0, #0
24057d7a:	bd38      	pop	{r3, r4, r5, pc}

24057d7c <SAI_InterruptFlag>:
24057d7c:	2901      	cmp	r1, #1
24057d7e:	6c41      	ldr	r1, [r0, #68]	; 0x44
24057d80:	6842      	ldr	r2, [r0, #4]
24057d82:	bf14      	ite	ne
24057d84:	2301      	movne	r3, #1
24057d86:	2309      	moveq	r3, #9
24057d88:	2908      	cmp	r1, #8
24057d8a:	d105      	bne.n	24057d98 <SAI_InterruptFlag+0x1c>
24057d8c:	f022 0102 	bic.w	r1, r2, #2
24057d90:	2901      	cmp	r1, #1
24057d92:	bf08      	it	eq
24057d94:	f043 0310 	orreq.w	r3, r3, #16
24057d98:	3a02      	subs	r2, #2
24057d9a:	2a01      	cmp	r2, #1
24057d9c:	bf94      	ite	ls
24057d9e:	f043 0060 	orrls.w	r0, r3, #96	; 0x60
24057da2:	f043 0004 	orrhi.w	r0, r3, #4
24057da6:	4770      	bx	lr

24057da8 <SAI_Disable>:
24057da8:	4b0d      	ldr	r3, [pc, #52]	; (24057de0 <SAI_Disable+0x38>)
24057daa:	6801      	ldr	r1, [r0, #0]
24057dac:	681a      	ldr	r2, [r3, #0]
24057dae:	f641 3358 	movw	r3, #7000	; 0x1b58
24057db2:	fbb2 f2f3 	udiv	r2, r2, r3
24057db6:	680b      	ldr	r3, [r1, #0]
24057db8:	0092      	lsls	r2, r2, #2
24057dba:	f423 3380 	bic.w	r3, r3, #65536	; 0x10000
24057dbe:	600b      	str	r3, [r1, #0]
24057dc0:	b93a      	cbnz	r2, 24057dd2 <SAI_Disable+0x2a>
24057dc2:	f8d0 3094 	ldr.w	r3, [r0, #148]	; 0x94
24057dc6:	f043 0340 	orr.w	r3, r3, #64	; 0x40
24057dca:	f8c0 3094 	str.w	r3, [r0, #148]	; 0x94
24057dce:	2003      	movs	r0, #3
24057dd0:	4770      	bx	lr
24057dd2:	680b      	ldr	r3, [r1, #0]
24057dd4:	3a01      	subs	r2, #1
24057dd6:	f413 3380 	ands.w	r3, r3, #65536	; 0x10000
24057dda:	d1f1      	bne.n	24057dc0 <SAI_Disable+0x18>
24057ddc:	4618      	mov	r0, r3
24057dde:	4770      	bx	lr
24057de0:	20000044 	.word	0x20000044

24057de4 <HAL_SAI_Init>:
24057de4:	e92d 41f0 	stmdb	sp!, {r4, r5, r6, r7, r8, lr}
24057de8:	4604      	mov	r4, r0
24057dea:	b918      	cbnz	r0, 24057df4 <HAL_SAI_Init+0x10>
24057dec:	2701      	movs	r7, #1
24057dee:	4638      	mov	r0, r7
24057df0:	e8bd 81f0 	ldmia.w	sp!, {r4, r5, r6, r7, r8, pc}
24057df4:	f890 2038 	ldrb.w	r2, [r0, #56]	; 0x38
24057df8:	6803      	ldr	r3, [r0, #0]
24057dfa:	2a01      	cmp	r2, #1
24057dfc:	f8df 8298 	ldr.w	r8, [pc, #664]	; 24058098 <HAL_SAI_Init+0x2b4>
24057e00:	f040 810e 	bne.w	24058020 <HAL_SAI_Init+0x23c>
24057e04:	4543      	cmp	r3, r8
24057e06:	d1f1      	bne.n	24057dec <HAL_SAI_Init+0x8>
24057e08:	6843      	ldr	r3, [r0, #4]
24057e0a:	2b01      	cmp	r3, #1
24057e0c:	d1ee      	bne.n	24057dec <HAL_SAI_Init+0x8>
24057e0e:	6c43      	ldr	r3, [r0, #68]	; 0x44
24057e10:	2b00      	cmp	r3, #0
24057e12:	d1eb      	bne.n	24057dec <HAL_SAI_Init+0x8>
24057e14:	4d99      	ldr	r5, [pc, #612]	; (2405807c <HAL_SAI_Init+0x298>)
24057e16:	f894 3091 	ldrb.w	r3, [r4, #145]	; 0x91
24057e1a:	f003 02ff 	and.w	r2, r3, #255	; 0xff
24057e1e:	b923      	cbnz	r3, 24057e2a <HAL_SAI_Init+0x46>
24057e20:	4620      	mov	r0, r4
24057e22:	f884 2090 	strb.w	r2, [r4, #144]	; 0x90
24057e26:	f7fa fb75 	bl	24052514 <HAL_SAI_MspInit>
24057e2a:	4620      	mov	r0, r4
24057e2c:	f7ff ffbc 	bl	24057da8 <SAI_Disable>
24057e30:	4607      	mov	r7, r0
24057e32:	2800      	cmp	r0, #0
24057e34:	d1da      	bne.n	24057dec <HAL_SAI_Init+0x8>
24057e36:	2302      	movs	r3, #2
24057e38:	f884 3091 	strb.w	r3, [r4, #145]	; 0x91
24057e3c:	68e3      	ldr	r3, [r4, #12]
24057e3e:	2b01      	cmp	r3, #1
24057e40:	f000 80ff 	beq.w	24058042 <HAL_SAI_Init+0x25e>
24057e44:	1e99      	subs	r1, r3, #2
24057e46:	424b      	negs	r3, r1
24057e48:	414b      	adcs	r3, r1
24057e4a:	015b      	lsls	r3, r3, #5
24057e4c:	68a6      	ldr	r6, [r4, #8]
24057e4e:	2e02      	cmp	r6, #2
24057e50:	f000 80fb 	beq.w	2405804a <HAL_SAI_Init+0x266>
24057e54:	2e03      	cmp	r6, #3
24057e56:	f000 80f6 	beq.w	24058046 <HAL_SAI_Init+0x262>
24057e5a:	1e72      	subs	r2, r6, #1
24057e5c:	4256      	negs	r6, r2
24057e5e:	4156      	adcs	r6, r2
24057e60:	02b6      	lsls	r6, r6, #10
24057e62:	6a22      	ldr	r2, [r4, #32]
24057e64:	602b      	str	r3, [r5, #0]
24057e66:	6823      	ldr	r3, [r4, #0]
24057e68:	2a00      	cmp	r2, #0
24057e6a:	d043      	beq.n	24057ef4 <HAL_SAI_Init+0x110>
24057e6c:	4543      	cmp	r3, r8
24057e6e:	d003      	beq.n	24057e78 <HAL_SAI_Init+0x94>
24057e70:	4a83      	ldr	r2, [pc, #524]	; (24058080 <HAL_SAI_Init+0x29c>)
24057e72:	4293      	cmp	r3, r2
24057e74:	f040 80ec 	bne.w	24058050 <HAL_SAI_Init+0x26c>
24057e78:	f44f 7080 	mov.w	r0, #256	; 0x100
24057e7c:	2100      	movs	r1, #0
24057e7e:	f7ff fc65 	bl	2405774c <HAL_RCCEx_GetPeriphCLKFreq>
24057e82:	6822      	ldr	r2, [r4, #0]
24057e84:	4b7f      	ldr	r3, [pc, #508]	; (24058084 <HAL_SAI_Init+0x2a0>)
24057e86:	429a      	cmp	r2, r3
24057e88:	d104      	bne.n	24057e94 <HAL_SAI_Init+0xb0>
24057e8a:	f44f 7000 	mov.w	r0, #512	; 0x200
24057e8e:	2100      	movs	r1, #0
24057e90:	f7ff fc5c 	bl	2405774c <HAL_RCCEx_GetPeriphCLKFreq>
24057e94:	6822      	ldr	r2, [r4, #0]
24057e96:	4b7c      	ldr	r3, [pc, #496]	; (24058088 <HAL_SAI_Init+0x2a4>)
24057e98:	429a      	cmp	r2, r3
24057e9a:	d104      	bne.n	24057ea6 <HAL_SAI_Init+0xc2>
24057e9c:	f44f 6080 	mov.w	r0, #1024	; 0x400
24057ea0:	2100      	movs	r1, #0
24057ea2:	f7ff fc53 	bl	2405774c <HAL_RCCEx_GetPeriphCLKFreq>
24057ea6:	69a2      	ldr	r2, [r4, #24]
24057ea8:	6c61      	ldr	r1, [r4, #68]	; 0x44
24057eaa:	f5b2 2f00 	cmp.w	r2, #524288	; 0x80000
24057eae:	6d63      	ldr	r3, [r4, #84]	; 0x54
24057eb0:	f8d4 e028 	ldr.w	lr, [r4, #40]	; 0x28
24057eb4:	f04f 020a 	mov.w	r2, #10
24057eb8:	f8d4 c020 	ldr.w	ip, [r4, #32]
24057ebc:	f040 80cc 	bne.w	24058058 <HAL_SAI_Init+0x274>
24057ec0:	2904      	cmp	r1, #4
24057ec2:	f000 80c7 	beq.w	24058054 <HAL_SAI_Init+0x270>
24057ec6:	2908      	cmp	r1, #8
24057ec8:	bf08      	it	eq
24057eca:	f44f 7380 	moveq.w	r3, #256	; 0x100
24057ece:	4342      	muls	r2, r0
24057ed0:	fb0c f303 	mul.w	r3, ip, r3
24057ed4:	fbb2 f0f3 	udiv	r0, r2, r3
24057ed8:	220a      	movs	r2, #10
24057eda:	fbb0 f3f2 	udiv	r3, r0, r2
24057ede:	fb02 0013 	mls	r0, r2, r3, r0
24057ee2:	2809      	cmp	r0, #9
24057ee4:	bf08      	it	eq
24057ee6:	3301      	addeq	r3, #1
24057ee8:	2904      	cmp	r1, #4
24057eea:	6263      	str	r3, [r4, #36]	; 0x24
24057eec:	6a63      	ldr	r3, [r4, #36]	; 0x24
24057eee:	bf04      	itt	eq
24057ef0:	085b      	lsreq	r3, r3, #1
24057ef2:	6263      	streq	r3, [r4, #36]	; 0x24
24057ef4:	f8d4 c004 	ldr.w	ip, [r4, #4]
24057ef8:	6d22      	ldr	r2, [r4, #80]	; 0x50
24057efa:	f03c 0302 	bics.w	r3, ip, #2
24057efe:	f040 80b8 	bne.w	24058072 <HAL_SAI_Init+0x28e>
24057f02:	3a01      	subs	r2, #1
24057f04:	bf18      	it	ne
24057f06:	2201      	movne	r2, #1
24057f08:	6823      	ldr	r3, [r4, #0]
24057f0a:	0252      	lsls	r2, r2, #9
24057f0c:	495f      	ldr	r1, [pc, #380]	; (2405808c <HAL_SAI_Init+0x2a8>)
24057f0e:	6818      	ldr	r0, [r3, #0]
24057f10:	4543      	cmp	r3, r8
24057f12:	ea01 0100 	and.w	r1, r1, r0
24057f16:	6019      	str	r1, [r3, #0]
24057f18:	6c61      	ldr	r1, [r4, #68]	; 0x44
24057f1a:	6818      	ldr	r0, [r3, #0]
24057f1c:	ea4c 0c01 	orr.w	ip, ip, r1
24057f20:	6ca1      	ldr	r1, [r4, #72]	; 0x48
24057f22:	ea4c 0c01 	orr.w	ip, ip, r1
24057f26:	6ce1      	ldr	r1, [r4, #76]	; 0x4c
24057f28:	ea4c 0c01 	orr.w	ip, ip, r1
24057f2c:	6ae1      	ldr	r1, [r4, #44]	; 0x2c
24057f2e:	ea4c 0c01 	orr.w	ip, ip, r1
24057f32:	6961      	ldr	r1, [r4, #20]
24057f34:	ea4c 0c01 	orr.w	ip, ip, r1
24057f38:	69a1      	ldr	r1, [r4, #24]
24057f3a:	ea4c 0c01 	orr.w	ip, ip, r1
24057f3e:	6aa1      	ldr	r1, [r4, #40]	; 0x28
24057f40:	ea4c 0c01 	orr.w	ip, ip, r1
24057f44:	6921      	ldr	r1, [r4, #16]
24057f46:	ea4c 0101 	orr.w	r1, ip, r1
24057f4a:	ea41 0100 	orr.w	r1, r1, r0
24057f4e:	6a60      	ldr	r0, [r4, #36]	; 0x24
24057f50:	ea41 5100 	orr.w	r1, r1, r0, lsl #20
24057f54:	6b20      	ldr	r0, [r4, #48]	; 0x30
24057f56:	ea41 0106 	orr.w	r1, r1, r6
24057f5a:	ea42 0201 	orr.w	r2, r2, r1
24057f5e:	601a      	str	r2, [r3, #0]
24057f60:	685a      	ldr	r2, [r3, #4]
24057f62:	f422 4260 	bic.w	r2, r2, #57344	; 0xe000
24057f66:	f022 020f 	bic.w	r2, r2, #15
24057f6a:	605a      	str	r2, [r3, #4]
24057f6c:	69e2      	ldr	r2, [r4, #28]
24057f6e:	6859      	ldr	r1, [r3, #4]
24057f70:	ea42 0200 	orr.w	r2, r2, r0
24057f74:	6b60      	ldr	r0, [r4, #52]	; 0x34
24057f76:	ea42 0200 	orr.w	r2, r2, r0
24057f7a:	6de0      	ldr	r0, [r4, #92]	; 0x5c
24057f7c:	ea42 0201 	orr.w	r2, r2, r1
24057f80:	605a      	str	r2, [r3, #4]
24057f82:	4a43      	ldr	r2, [pc, #268]	; (24058090 <HAL_SAI_Init+0x2ac>)
24057f84:	6899      	ldr	r1, [r3, #8]
24057f86:	ea02 0201 	and.w	r2, r2, r1
24057f8a:	609a      	str	r2, [r3, #8]
24057f8c:	6e62      	ldr	r2, [r4, #100]	; 0x64
24057f8e:	6899      	ldr	r1, [r3, #8]
24057f90:	ea42 0200 	orr.w	r2, r2, r0
24057f94:	6e20      	ldr	r0, [r4, #96]	; 0x60
24057f96:	ea42 0200 	orr.w	r2, r2, r0
24057f9a:	ea42 0201 	orr.w	r2, r2, r1
24057f9e:	6d61      	ldr	r1, [r4, #84]	; 0x54
24057fa0:	f101 31ff 	add.w	r1, r1, #4294967295
24057fa4:	ea42 0201 	orr.w	r2, r2, r1
24057fa8:	6da1      	ldr	r1, [r4, #88]	; 0x58
24057faa:	f101 31ff 	add.w	r1, r1, #4294967295
24057fae:	ea42 2201 	orr.w	r2, r2, r1, lsl #8
24057fb2:	609a      	str	r2, [r3, #8]
24057fb4:	68da      	ldr	r2, [r3, #12]
24057fb6:	f422 627d 	bic.w	r2, r2, #4048	; 0xfd0
24057fba:	f022 020f 	bic.w	r2, r2, #15
24057fbe:	ea4f 4202 	mov.w	r2, r2, lsl #16
24057fc2:	ea4f 4212 	mov.w	r2, r2, lsr #16
24057fc6:	60da      	str	r2, [r3, #12]
24057fc8:	68d9      	ldr	r1, [r3, #12]
24057fca:	e9d4 201a 	ldrd	r2, r0, [r4, #104]	; 0x68
24057fce:	ea42 0200 	orr.w	r2, r2, r0
24057fd2:	ea42 0201 	orr.w	r2, r2, r1
24057fd6:	6f61      	ldr	r1, [r4, #116]	; 0x74
24057fd8:	ea42 4201 	orr.w	r2, r2, r1, lsl #16
24057fdc:	6f21      	ldr	r1, [r4, #112]	; 0x70
24057fde:	f101 31ff 	add.w	r1, r1, #4294967295
24057fe2:	ea42 2201 	orr.w	r2, r2, r1, lsl #8
24057fe6:	60da      	str	r2, [r3, #12]
24057fe8:	d111      	bne.n	2405800e <HAL_SAI_Init+0x22a>
24057fea:	6c6b      	ldr	r3, [r5, #68]	; 0x44
24057fec:	f023 0301 	bic.w	r3, r3, #1
24057ff0:	646b      	str	r3, [r5, #68]	; 0x44
24057ff2:	f894 3038 	ldrb.w	r3, [r4, #56]	; 0x38
24057ff6:	2b01      	cmp	r3, #1
24057ff8:	d109      	bne.n	2405800e <HAL_SAI_Init+0x22a>
24057ffa:	6be3      	ldr	r3, [r4, #60]	; 0x3c
24057ffc:	1e5a      	subs	r2, r3, #1
24057ffe:	6c23      	ldr	r3, [r4, #64]	; 0x40
24058000:	ea43 1302 	orr.w	r3, r3, r2, lsl #4
24058004:	646b      	str	r3, [r5, #68]	; 0x44
24058006:	6c6b      	ldr	r3, [r5, #68]	; 0x44
24058008:	f043 0301 	orr.w	r3, r3, #1
2405800c:	646b      	str	r3, [r5, #68]	; 0x44
2405800e:	2300      	movs	r3, #0
24058010:	2201      	movs	r2, #1
24058012:	f8c4 3094 	str.w	r3, [r4, #148]	; 0x94
24058016:	f884 3090 	strb.w	r3, [r4, #144]	; 0x90
2405801a:	f884 2091 	strb.w	r2, [r4, #145]	; 0x91
2405801e:	e6e6      	b.n	24057dee <HAL_SAI_Init+0xa>
24058020:	4543      	cmp	r3, r8
24058022:	f43f aef7 	beq.w	24057e14 <HAL_SAI_Init+0x30>
24058026:	4a16      	ldr	r2, [pc, #88]	; (24058080 <HAL_SAI_Init+0x29c>)
24058028:	4293      	cmp	r3, r2
2405802a:	f43f aef3 	beq.w	24057e14 <HAL_SAI_Init+0x30>
2405802e:	f502 7278 	add.w	r2, r2, #992	; 0x3e0
24058032:	4293      	cmp	r3, r2
24058034:	d003      	beq.n	2405803e <HAL_SAI_Init+0x25a>
24058036:	3220      	adds	r2, #32
24058038:	4293      	cmp	r3, r2
2405803a:	f47f aed7 	bne.w	24057dec <HAL_SAI_Init+0x8>
2405803e:	4d15      	ldr	r5, [pc, #84]	; (24058094 <HAL_SAI_Init+0x2b0>)
24058040:	e6e9      	b.n	24057e16 <HAL_SAI_Init+0x32>
24058042:	2310      	movs	r3, #16
24058044:	e702      	b.n	24057e4c <HAL_SAI_Init+0x68>
24058046:	f043 0301 	orr.w	r3, r3, #1
2405804a:	f44f 6600 	mov.w	r6, #2048	; 0x800
2405804e:	e708      	b.n	24057e62 <HAL_SAI_Init+0x7e>
24058050:	2000      	movs	r0, #0
24058052:	e716      	b.n	24057e82 <HAL_SAI_Init+0x9e>
24058054:	2340      	movs	r3, #64	; 0x40
24058056:	e73a      	b.n	24057ece <HAL_SAI_Init+0xea>
24058058:	f1be 6f80 	cmp.w	lr, #67108864	; 0x4000000
2405805c:	fb02 f000 	mul.w	r0, r2, r0
24058060:	bf0c      	ite	eq
24058062:	2302      	moveq	r3, #2
24058064:	2301      	movne	r3, #1
24058066:	fb0c f303 	mul.w	r3, ip, r3
2405806a:	021b      	lsls	r3, r3, #8
2405806c:	fbb0 f0f3 	udiv	r0, r0, r3
24058070:	e732      	b.n	24057ed8 <HAL_SAI_Init+0xf4>
24058072:	1e53      	subs	r3, r2, #1
24058074:	425a      	negs	r2, r3
24058076:	415a      	adcs	r2, r3
24058078:	e746      	b.n	24057f08 <HAL_SAI_Init+0x124>
2405807a:	bf00      	nop
2405807c:	40015800 	.word	0x40015800
24058080:	40015824 	.word	0x40015824
24058084:	40015c04 	.word	0x40015c04
24058088:	40015c24 	.word	0x40015c24
2405808c:	f005c010 	.word	0xf005c010
24058090:	fff88000 	.word	0xfff88000
24058094:	40015c00 	.word	0x40015c00
24058098:	40015804 	.word	0x40015804

2405809c <HAL_SAI_InitProtocol>:
2405809c:	2902      	cmp	r1, #2
2405809e:	b430      	push	{r4, r5}
240580a0:	d905      	bls.n	240580ae <HAL_SAI_InitProtocol+0x12>
240580a2:	1ecc      	subs	r4, r1, #3
240580a4:	2c01      	cmp	r4, #1
240580a6:	d957      	bls.n	24058158 <HAL_SAI_InitProtocol+0xbc>
240580a8:	2001      	movs	r0, #1
240580aa:	bc30      	pop	{r4, r5}
240580ac:	4770      	bx	lr
240580ae:	6845      	ldr	r5, [r0, #4]
240580b0:	2400      	movs	r4, #0
240580b2:	6703      	str	r3, [r0, #112]	; 0x70
240580b4:	f035 0502 	bics.w	r5, r5, #2
240580b8:	6444      	str	r4, [r0, #68]	; 0x44
240580ba:	64c4      	str	r4, [r0, #76]	; 0x4c
240580bc:	bf14      	ite	ne
240580be:	2501      	movne	r5, #1
240580c0:	4625      	moveq	r5, r4
240580c2:	6684      	str	r4, [r0, #104]	; 0x68
240580c4:	f013 0401 	ands.w	r4, r3, #1
240580c8:	6505      	str	r5, [r0, #80]	; 0x50
240580ca:	f44f 3580 	mov.w	r5, #65536	; 0x10000
240580ce:	65c5      	str	r5, [r0, #92]	; 0x5c
240580d0:	f64f 75ff 	movw	r5, #65535	; 0xffff
240580d4:	6745      	str	r5, [r0, #116]	; 0x74
240580d6:	d1e7      	bne.n	240580a8 <HAL_SAI_InitProtocol+0xc>
240580d8:	b991      	cbnz	r1, 24058100 <HAL_SAI_InitProtocol+0x64>
240580da:	f44f 2480 	mov.w	r4, #262144	; 0x40000
240580de:	6601      	str	r1, [r0, #96]	; 0x60
240580e0:	6644      	str	r4, [r0, #100]	; 0x64
240580e2:	2a03      	cmp	r2, #3
240580e4:	d8e0      	bhi.n	240580a8 <HAL_SAI_InitProtocol+0xc>
240580e6:	e8df f002 	tbb	[pc, r2]
240580ea:	0f02      	.short	0x0f02
240580ec:	2f1e      	.short	0x2f1e
240580ee:	085b      	lsrs	r3, r3, #1
240580f0:	2480      	movs	r4, #128	; 0x80
240580f2:	2240      	movs	r2, #64	; 0x40
240580f4:	0159      	lsls	r1, r3, #5
240580f6:	011b      	lsls	r3, r3, #4
240580f8:	6484      	str	r4, [r0, #72]	; 0x48
240580fa:	e9c0 1315 	strd	r1, r3, [r0, #84]	; 0x54
240580fe:	e057      	b.n	240581b0 <HAL_SAI_InitProtocol+0x114>
24058100:	f44f 3500 	mov.w	r5, #131072	; 0x20000
24058104:	6605      	str	r5, [r0, #96]	; 0x60
24058106:	e7eb      	b.n	240580e0 <HAL_SAI_InitProtocol+0x44>
24058108:	085b      	lsrs	r3, r3, #1
2405810a:	2280      	movs	r2, #128	; 0x80
2405810c:	2902      	cmp	r1, #2
2405810e:	ea4f 1483 	mov.w	r4, r3, lsl #6
24058112:	6482      	str	r2, [r0, #72]	; 0x48
24058114:	ea4f 1343 	mov.w	r3, r3, lsl #5
24058118:	66c2      	str	r2, [r0, #108]	; 0x6c
2405811a:	6544      	str	r4, [r0, #84]	; 0x54
2405811c:	6583      	str	r3, [r0, #88]	; 0x58
2405811e:	d019      	beq.n	24058154 <HAL_SAI_InitProtocol+0xb8>
24058120:	bc30      	pop	{r4, r5}
24058122:	f7ff be5f 	b.w	24057de4 <HAL_SAI_Init>
24058126:	22c0      	movs	r2, #192	; 0xc0
24058128:	085b      	lsrs	r3, r3, #1
2405812a:	2902      	cmp	r1, #2
2405812c:	6482      	str	r2, [r0, #72]	; 0x48
2405812e:	ea4f 1283 	mov.w	r2, r3, lsl #6
24058132:	ea4f 1343 	mov.w	r3, r3, lsl #5
24058136:	6542      	str	r2, [r0, #84]	; 0x54
24058138:	6583      	str	r3, [r0, #88]	; 0x58
2405813a:	f04f 0380 	mov.w	r3, #128	; 0x80
2405813e:	66c3      	str	r3, [r0, #108]	; 0x6c
24058140:	d1ee      	bne.n	24058120 <HAL_SAI_InitProtocol+0x84>
24058142:	2308      	movs	r3, #8
24058144:	6683      	str	r3, [r0, #104]	; 0x68
24058146:	e7eb      	b.n	24058120 <HAL_SAI_InitProtocol+0x84>
24058148:	085b      	lsrs	r3, r3, #1
2405814a:	24e0      	movs	r4, #224	; 0xe0
2405814c:	2280      	movs	r2, #128	; 0x80
2405814e:	0199      	lsls	r1, r3, #6
24058150:	015b      	lsls	r3, r3, #5
24058152:	e7d1      	b.n	240580f8 <HAL_SAI_InitProtocol+0x5c>
24058154:	2310      	movs	r3, #16
24058156:	e7f5      	b.n	24058144 <HAL_SAI_InitProtocol+0xa8>
24058158:	6845      	ldr	r5, [r0, #4]
2405815a:	2400      	movs	r4, #0
2405815c:	f44f 3c00 	mov.w	ip, #131072	; 0x20000
24058160:	6703      	str	r3, [r0, #112]	; 0x70
24058162:	f035 0502 	bics.w	r5, r5, #2
24058166:	6444      	str	r4, [r0, #68]	; 0x44
24058168:	64c4      	str	r4, [r0, #76]	; 0x4c
2405816a:	bf14      	ite	ne
2405816c:	4625      	movne	r5, r4
2405816e:	2501      	moveq	r5, #1
24058170:	2904      	cmp	r1, #4
24058172:	65c4      	str	r4, [r0, #92]	; 0x5c
24058174:	6505      	str	r5, [r0, #80]	; 0x50
24058176:	f44f 2580 	mov.w	r5, #262144	; 0x40000
2405817a:	bf0c      	ite	eq
2405817c:	2101      	moveq	r1, #1
2405817e:	210d      	movne	r1, #13
24058180:	6684      	str	r4, [r0, #104]	; 0x68
24058182:	f64f 74ff 	movw	r4, #65535	; 0xffff
24058186:	6581      	str	r1, [r0, #88]	; 0x58
24058188:	6744      	str	r4, [r0, #116]	; 0x74
2405818a:	e9c0 c518 	strd	ip, r5, [r0, #96]	; 0x60
2405818e:	2a03      	cmp	r2, #3
24058190:	d88a      	bhi.n	240580a8 <HAL_SAI_InitProtocol+0xc>
24058192:	e8df f002 	tbb	[pc, r2]
24058196:	0902      	.short	0x0902
24058198:	150f      	.short	0x150f
2405819a:	011b      	lsls	r3, r3, #4
2405819c:	2280      	movs	r2, #128	; 0x80
2405819e:	6543      	str	r3, [r0, #84]	; 0x54
240581a0:	2340      	movs	r3, #64	; 0x40
240581a2:	6482      	str	r2, [r0, #72]	; 0x48
240581a4:	66c3      	str	r3, [r0, #108]	; 0x6c
240581a6:	e7bb      	b.n	24058120 <HAL_SAI_InitProtocol+0x84>
240581a8:	2280      	movs	r2, #128	; 0x80
240581aa:	015b      	lsls	r3, r3, #5
240581ac:	6482      	str	r2, [r0, #72]	; 0x48
240581ae:	6543      	str	r3, [r0, #84]	; 0x54
240581b0:	66c2      	str	r2, [r0, #108]	; 0x6c
240581b2:	e7b5      	b.n	24058120 <HAL_SAI_InitProtocol+0x84>
240581b4:	22c0      	movs	r2, #192	; 0xc0
240581b6:	015b      	lsls	r3, r3, #5
240581b8:	6482      	str	r2, [r0, #72]	; 0x48
240581ba:	6543      	str	r3, [r0, #84]	; 0x54
240581bc:	2380      	movs	r3, #128	; 0x80
240581be:	e7f1      	b.n	240581a4 <HAL_SAI_InitProtocol+0x108>
240581c0:	22e0      	movs	r2, #224	; 0xe0
240581c2:	e7f8      	b.n	240581b6 <HAL_SAI_InitProtocol+0x11a>

240581c4 <HAL_SAI_Abort>:
240581c4:	b5f8      	push	{r3, r4, r5, r6, r7, lr}
240581c6:	f890 3090 	ldrb.w	r3, [r0, #144]	; 0x90
240581ca:	4604      	mov	r4, r0
240581cc:	2b01      	cmp	r3, #1
240581ce:	d052      	beq.n	24058276 <HAL_SAI_Abort+0xb2>
240581d0:	2601      	movs	r6, #1
240581d2:	6803      	ldr	r3, [r0, #0]
240581d4:	f880 6090 	strb.w	r6, [r0, #144]	; 0x90
240581d8:	681d      	ldr	r5, [r3, #0]
240581da:	f415 3500 	ands.w	r5, r5, #131072	; 0x20000
240581de:	d01e      	beq.n	2405821e <HAL_SAI_Abort+0x5a>
240581e0:	681a      	ldr	r2, [r3, #0]
240581e2:	f422 3200 	bic.w	r2, r2, #131072	; 0x20000
240581e6:	601a      	str	r2, [r3, #0]
240581e8:	f890 3091 	ldrb.w	r3, [r0, #145]	; 0x91
240581ec:	2b12      	cmp	r3, #18
240581ee:	d02d      	beq.n	2405824c <HAL_SAI_Abort+0x88>
240581f0:	2500      	movs	r5, #0
240581f2:	f894 3091 	ldrb.w	r3, [r4, #145]	; 0x91
240581f6:	2b22      	cmp	r3, #34	; 0x22
240581f8:	d111      	bne.n	2405821e <HAL_SAI_Abort+0x5a>
240581fa:	f8d4 0084 	ldr.w	r0, [r4, #132]	; 0x84
240581fe:	b170      	cbz	r0, 2405821e <HAL_SAI_Abort+0x5a>
24058200:	f7fc f8da 	bl	240543b8 <HAL_DMA_Abort>
24058204:	b158      	cbz	r0, 2405821e <HAL_SAI_Abort+0x5a>
24058206:	f8d4 3084 	ldr.w	r3, [r4, #132]	; 0x84
2405820a:	6d5b      	ldr	r3, [r3, #84]	; 0x54
2405820c:	2b80      	cmp	r3, #128	; 0x80
2405820e:	d006      	beq.n	2405821e <HAL_SAI_Abort+0x5a>
24058210:	f8d4 3094 	ldr.w	r3, [r4, #148]	; 0x94
24058214:	2501      	movs	r5, #1
24058216:	f043 0380 	orr.w	r3, r3, #128	; 0x80
2405821a:	f8c4 3094 	str.w	r3, [r4, #148]	; 0x94
2405821e:	6826      	ldr	r6, [r4, #0]
24058220:	2700      	movs	r7, #0
24058222:	f04f 33ff 	mov.w	r3, #4294967295
24058226:	4620      	mov	r0, r4
24058228:	6137      	str	r7, [r6, #16]
2405822a:	61b3      	str	r3, [r6, #24]
2405822c:	f7ff fdbc 	bl	24057da8 <SAI_Disable>
24058230:	6873      	ldr	r3, [r6, #4]
24058232:	42b8      	cmp	r0, r7
24058234:	f043 0308 	orr.w	r3, r3, #8
24058238:	bf18      	it	ne
2405823a:	2501      	movne	r5, #1
2405823c:	6073      	str	r3, [r6, #4]
2405823e:	2301      	movs	r3, #1
24058240:	f884 7090 	strb.w	r7, [r4, #144]	; 0x90
24058244:	f884 3091 	strb.w	r3, [r4, #145]	; 0x91
24058248:	4628      	mov	r0, r5
2405824a:	bdf8      	pop	{r3, r4, r5, r6, r7, pc}
2405824c:	f8d0 0080 	ldr.w	r0, [r0, #128]	; 0x80
24058250:	2800      	cmp	r0, #0
24058252:	d0cd      	beq.n	240581f0 <HAL_SAI_Abort+0x2c>
24058254:	f7fc f8b0 	bl	240543b8 <HAL_DMA_Abort>
24058258:	2800      	cmp	r0, #0
2405825a:	d0c9      	beq.n	240581f0 <HAL_SAI_Abort+0x2c>
2405825c:	f8d4 3080 	ldr.w	r3, [r4, #128]	; 0x80
24058260:	6d5b      	ldr	r3, [r3, #84]	; 0x54
24058262:	2b80      	cmp	r3, #128	; 0x80
24058264:	d0c4      	beq.n	240581f0 <HAL_SAI_Abort+0x2c>
24058266:	f8d4 3094 	ldr.w	r3, [r4, #148]	; 0x94
2405826a:	4635      	mov	r5, r6
2405826c:	f043 0380 	orr.w	r3, r3, #128	; 0x80
24058270:	f8c4 3094 	str.w	r3, [r4, #148]	; 0x94
24058274:	e7bd      	b.n	240581f2 <HAL_SAI_Abort+0x2e>
24058276:	2502      	movs	r5, #2
24058278:	e7e6      	b.n	24058248 <HAL_SAI_Abort+0x84>
	...

2405827c <HAL_SAI_Transmit_DMA>:
2405827c:	e92d 43f8 	stmdb	sp!, {r3, r4, r5, r6, r7, r8, r9, lr}
24058280:	460f      	mov	r7, r1
24058282:	4604      	mov	r4, r0
24058284:	4616      	mov	r6, r2
24058286:	f7fa fb4d 	bl	24052924 <HAL_GetTick>
2405828a:	4680      	mov	r8, r0
2405828c:	2f00      	cmp	r7, #0
2405828e:	d05a      	beq.n	24058346 <HAL_SAI_Transmit_DMA+0xca>
24058290:	2e00      	cmp	r6, #0
24058292:	d058      	beq.n	24058346 <HAL_SAI_Transmit_DMA+0xca>
24058294:	f894 3091 	ldrb.w	r3, [r4, #145]	; 0x91
24058298:	2b01      	cmp	r3, #1
2405829a:	b2dd      	uxtb	r5, r3
2405829c:	d155      	bne.n	2405834a <HAL_SAI_Transmit_DMA+0xce>
2405829e:	f894 3090 	ldrb.w	r3, [r4, #144]	; 0x90
240582a2:	2b01      	cmp	r3, #1
240582a4:	d051      	beq.n	2405834a <HAL_SAI_Transmit_DMA+0xce>
240582a6:	f04f 0900 	mov.w	r9, #0
240582aa:	2312      	movs	r3, #18
240582ac:	f8d4 0080 	ldr.w	r0, [r4, #128]	; 0x80
240582b0:	4639      	mov	r1, r7
240582b2:	f8c4 9094 	str.w	r9, [r4, #148]	; 0x94
240582b6:	f884 3091 	strb.w	r3, [r4, #145]	; 0x91
240582ba:	4b25      	ldr	r3, [pc, #148]	; (24058350 <HAL_SAI_Transmit_DMA+0xd4>)
240582bc:	f884 5090 	strb.w	r5, [r4, #144]	; 0x90
240582c0:	67a7      	str	r7, [r4, #120]	; 0x78
240582c2:	f8a4 607c 	strh.w	r6, [r4, #124]	; 0x7c
240582c6:	f8a4 607e 	strh.w	r6, [r4, #126]	; 0x7e
240582ca:	6403      	str	r3, [r0, #64]	; 0x40
240582cc:	4b21      	ldr	r3, [pc, #132]	; (24058354 <HAL_SAI_Transmit_DMA+0xd8>)
240582ce:	6822      	ldr	r2, [r4, #0]
240582d0:	63c3      	str	r3, [r0, #60]	; 0x3c
240582d2:	4b21      	ldr	r3, [pc, #132]	; (24058358 <HAL_SAI_Transmit_DMA+0xdc>)
240582d4:	321c      	adds	r2, #28
240582d6:	e9c0 3913 	strd	r3, r9, [r0, #76]	; 0x4c
240582da:	4633      	mov	r3, r6
240582dc:	f7fb ff52 	bl	24054184 <HAL_DMA_Start_IT>
240582e0:	4601      	mov	r1, r0
240582e2:	b120      	cbz	r0, 240582ee <HAL_SAI_Transmit_DMA+0x72>
240582e4:	f884 9090 	strb.w	r9, [r4, #144]	; 0x90
240582e8:	4628      	mov	r0, r5
240582ea:	e8bd 83f8 	ldmia.w	sp!, {r3, r4, r5, r6, r7, r8, r9, pc}
240582ee:	4620      	mov	r0, r4
240582f0:	f7ff fd44 	bl	24057d7c <SAI_InterruptFlag>
240582f4:	6823      	ldr	r3, [r4, #0]
240582f6:	691a      	ldr	r2, [r3, #16]
240582f8:	4310      	orrs	r0, r2
240582fa:	6118      	str	r0, [r3, #16]
240582fc:	681a      	ldr	r2, [r3, #0]
240582fe:	f442 3200 	orr.w	r2, r2, #131072	; 0x20000
24058302:	601a      	str	r2, [r3, #0]
24058304:	6823      	ldr	r3, [r4, #0]
24058306:	695d      	ldr	r5, [r3, #20]
24058308:	f415 25e0 	ands.w	r5, r5, #458752	; 0x70000
2405830c:	d00a      	beq.n	24058324 <HAL_SAI_Transmit_DMA+0xa8>
2405830e:	681a      	ldr	r2, [r3, #0]
24058310:	03d2      	lsls	r2, r2, #15
24058312:	d403      	bmi.n	2405831c <HAL_SAI_Transmit_DMA+0xa0>
24058314:	681a      	ldr	r2, [r3, #0]
24058316:	f442 3280 	orr.w	r2, r2, #65536	; 0x10000
2405831a:	601a      	str	r2, [r3, #0]
2405831c:	2500      	movs	r5, #0
2405831e:	f884 5090 	strb.w	r5, [r4, #144]	; 0x90
24058322:	e7e1      	b.n	240582e8 <HAL_SAI_Transmit_DMA+0x6c>
24058324:	f7fa fafe 	bl	24052924 <HAL_GetTick>
24058328:	eba0 0008 	sub.w	r0, r0, r8
2405832c:	f5b0 7f7a 	cmp.w	r0, #1000	; 0x3e8
24058330:	d9e8      	bls.n	24058304 <HAL_SAI_Transmit_DMA+0x88>
24058332:	f8d4 3094 	ldr.w	r3, [r4, #148]	; 0x94
24058336:	f884 5090 	strb.w	r5, [r4, #144]	; 0x90
2405833a:	2503      	movs	r5, #3
2405833c:	f043 0340 	orr.w	r3, r3, #64	; 0x40
24058340:	f8c4 3094 	str.w	r3, [r4, #148]	; 0x94
24058344:	e7d0      	b.n	240582e8 <HAL_SAI_Transmit_DMA+0x6c>
24058346:	2501      	movs	r5, #1
24058348:	e7ce      	b.n	240582e8 <HAL_SAI_Transmit_DMA+0x6c>
2405834a:	2502      	movs	r5, #2
2405834c:	e7cc      	b.n	240582e8 <HAL_SAI_Transmit_DMA+0x6c>
2405834e:	bf00      	nop
24058350:	24058395 	.word	0x24058395
24058354:	2405835d 	.word	0x2405835d
24058358:	240583a1 	.word	0x240583a1

2405835c <SAI_DMATxCplt>:
2405835c:	b538      	push	{r3, r4, r5, lr}
2405835e:	69c3      	ldr	r3, [r0, #28]
24058360:	6b84      	ldr	r4, [r0, #56]	; 0x38
24058362:	f5b3 7f80 	cmp.w	r3, #256	; 0x100
24058366:	d011      	beq.n	2405838c <SAI_DMATxCplt+0x30>
24058368:	6825      	ldr	r5, [r4, #0]
2405836a:	2100      	movs	r1, #0
2405836c:	4620      	mov	r0, r4
2405836e:	682b      	ldr	r3, [r5, #0]
24058370:	f8a4 107e 	strh.w	r1, [r4, #126]	; 0x7e
24058374:	f423 3300 	bic.w	r3, r3, #131072	; 0x20000
24058378:	602b      	str	r3, [r5, #0]
2405837a:	f7ff fcff 	bl	24057d7c <SAI_InterruptFlag>
2405837e:	692b      	ldr	r3, [r5, #16]
24058380:	ea23 0000 	bic.w	r0, r3, r0
24058384:	2301      	movs	r3, #1
24058386:	6128      	str	r0, [r5, #16]
24058388:	f884 3091 	strb.w	r3, [r4, #145]	; 0x91
2405838c:	4620      	mov	r0, r4
2405838e:	f7f7 ffdb 	bl	24050348 <HAL_SAI_TxCpltCallback>
24058392:	bd38      	pop	{r3, r4, r5, pc}

24058394 <SAI_DMATxHalfCplt>:
24058394:	6b80      	ldr	r0, [r0, #56]	; 0x38
24058396:	b508      	push	{r3, lr}
24058398:	f7f8 f832 	bl	24050400 <HAL_SAI_TxHalfCpltCallback>
2405839c:	bd08      	pop	{r3, pc}

2405839e <HAL_SAI_ErrorCallback>:
2405839e:	4770      	bx	lr

240583a0 <SAI_DMAError>:
240583a0:	b510      	push	{r4, lr}
240583a2:	6b84      	ldr	r4, [r0, #56]	; 0x38
240583a4:	f7fc fc30 	bl	24054c08 <HAL_DMA_GetError>
240583a8:	2802      	cmp	r0, #2
240583aa:	d016      	beq.n	240583da <SAI_DMAError+0x3a>
240583ac:	f8d4 3094 	ldr.w	r3, [r4, #148]	; 0x94
240583b0:	4620      	mov	r0, r4
240583b2:	6822      	ldr	r2, [r4, #0]
240583b4:	f043 0380 	orr.w	r3, r3, #128	; 0x80
240583b8:	f8c4 3094 	str.w	r3, [r4, #148]	; 0x94
240583bc:	6813      	ldr	r3, [r2, #0]
240583be:	f423 3300 	bic.w	r3, r3, #131072	; 0x20000
240583c2:	6013      	str	r3, [r2, #0]
240583c4:	f7ff fcf0 	bl	24057da8 <SAI_Disable>
240583c8:	2301      	movs	r3, #1
240583ca:	4620      	mov	r0, r4
240583cc:	f884 3091 	strb.w	r3, [r4, #145]	; 0x91
240583d0:	2300      	movs	r3, #0
240583d2:	f8a4 307e 	strh.w	r3, [r4, #126]	; 0x7e
240583d6:	f7ff ffe2 	bl	2405839e <HAL_SAI_ErrorCallback>
240583da:	bd10      	pop	{r4, pc}

240583dc <HAL_SAI_IRQHandler>:
240583dc:	b570      	push	{r4, r5, r6, lr}
240583de:	f890 3091 	ldrb.w	r3, [r0, #145]	; 0x91
240583e2:	4604      	mov	r4, r0
240583e4:	2b00      	cmp	r3, #0
240583e6:	d05c      	beq.n	240584a2 <HAL_SAI_IRQHandler+0xc6>
240583e8:	6803      	ldr	r3, [r0, #0]
240583ea:	6959      	ldr	r1, [r3, #20]
240583ec:	691a      	ldr	r2, [r3, #16]
240583ee:	070e      	lsls	r6, r1, #28
240583f0:	681d      	ldr	r5, [r3, #0]
240583f2:	d506      	bpl.n	24058402 <HAL_SAI_IRQHandler+0x26>
240583f4:	0716      	lsls	r6, r2, #28
240583f6:	d504      	bpl.n	24058402 <HAL_SAI_IRQHandler+0x26>
240583f8:	f8d0 308c 	ldr.w	r3, [r0, #140]	; 0x8c
240583fc:	e8bd 4070 	ldmia.w	sp!, {r4, r5, r6, lr}
24058400:	4718      	bx	r3
24058402:	07c8      	lsls	r0, r1, #31
24058404:	d50f      	bpl.n	24058426 <HAL_SAI_IRQHandler+0x4a>
24058406:	f012 0001 	ands.w	r0, r2, #1
2405840a:	d00c      	beq.n	24058426 <HAL_SAI_IRQHandler+0x4a>
2405840c:	2201      	movs	r2, #1
2405840e:	619a      	str	r2, [r3, #24]
24058410:	f894 3091 	ldrb.w	r3, [r4, #145]	; 0x91
24058414:	2b22      	cmp	r3, #34	; 0x22
24058416:	f8d4 3094 	ldr.w	r3, [r4, #148]	; 0x94
2405841a:	bf18      	it	ne
2405841c:	2002      	movne	r0, #2
2405841e:	4303      	orrs	r3, r0
24058420:	f8c4 3094 	str.w	r3, [r4, #148]	; 0x94
24058424:	e03a      	b.n	2405849c <HAL_SAI_IRQHandler+0xc0>
24058426:	078e      	lsls	r6, r1, #30
24058428:	d509      	bpl.n	2405843e <HAL_SAI_IRQHandler+0x62>
2405842a:	0790      	lsls	r0, r2, #30
2405842c:	d507      	bpl.n	2405843e <HAL_SAI_IRQHandler+0x62>
2405842e:	2202      	movs	r2, #2
24058430:	619a      	str	r2, [r3, #24]
24058432:	f8d4 3088 	ldr.w	r3, [r4, #136]	; 0x88
24058436:	b3a3      	cbz	r3, 240584a2 <HAL_SAI_IRQHandler+0xc6>
24058438:	e8bd 4070 	ldmia.w	sp!, {r4, r5, r6, lr}
2405843c:	4718      	bx	r3
2405843e:	068e      	lsls	r6, r1, #26
24058440:	d530      	bpl.n	240584a4 <HAL_SAI_IRQHandler+0xc8>
24058442:	0690      	lsls	r0, r2, #26
24058444:	d52e      	bpl.n	240584a4 <HAL_SAI_IRQHandler+0xc8>
24058446:	2220      	movs	r2, #32
24058448:	619a      	str	r2, [r3, #24]
2405844a:	f8d4 3094 	ldr.w	r3, [r4, #148]	; 0x94
2405844e:	f043 0304 	orr.w	r3, r3, #4
24058452:	f8c4 3094 	str.w	r3, [r4, #148]	; 0x94
24058456:	03ab      	lsls	r3, r5, #14
24058458:	d51d      	bpl.n	24058496 <HAL_SAI_IRQHandler+0xba>
2405845a:	f8d4 0080 	ldr.w	r0, [r4, #128]	; 0x80
2405845e:	b168      	cbz	r0, 2405847c <HAL_SAI_IRQHandler+0xa0>
24058460:	4b27      	ldr	r3, [pc, #156]	; (24058500 <HAL_SAI_IRQHandler+0x124>)
24058462:	6503      	str	r3, [r0, #80]	; 0x50
24058464:	f7fc f94e 	bl	24054704 <HAL_DMA_Abort_IT>
24058468:	b140      	cbz	r0, 2405847c <HAL_SAI_IRQHandler+0xa0>
2405846a:	f8d4 3094 	ldr.w	r3, [r4, #148]	; 0x94
2405846e:	4620      	mov	r0, r4
24058470:	f043 0380 	orr.w	r3, r3, #128	; 0x80
24058474:	f8c4 3094 	str.w	r3, [r4, #148]	; 0x94
24058478:	f7ff ff91 	bl	2405839e <HAL_SAI_ErrorCallback>
2405847c:	f8d4 0084 	ldr.w	r0, [r4, #132]	; 0x84
24058480:	b178      	cbz	r0, 240584a2 <HAL_SAI_IRQHandler+0xc6>
24058482:	4b1f      	ldr	r3, [pc, #124]	; (24058500 <HAL_SAI_IRQHandler+0x124>)
24058484:	6503      	str	r3, [r0, #80]	; 0x50
24058486:	f7fc f93d 	bl	24054704 <HAL_DMA_Abort_IT>
2405848a:	b150      	cbz	r0, 240584a2 <HAL_SAI_IRQHandler+0xc6>
2405848c:	f8d4 3094 	ldr.w	r3, [r4, #148]	; 0x94
24058490:	f043 0380 	orr.w	r3, r3, #128	; 0x80
24058494:	e7c4      	b.n	24058420 <HAL_SAI_IRQHandler+0x44>
24058496:	4620      	mov	r0, r4
24058498:	f7ff fe94 	bl	240581c4 <HAL_SAI_Abort>
2405849c:	4620      	mov	r0, r4
2405849e:	f7ff ff7e 	bl	2405839e <HAL_SAI_ErrorCallback>
240584a2:	bd70      	pop	{r4, r5, r6, pc}
240584a4:	064e      	lsls	r6, r1, #25
240584a6:	d508      	bpl.n	240584ba <HAL_SAI_IRQHandler+0xde>
240584a8:	0650      	lsls	r0, r2, #25
240584aa:	d506      	bpl.n	240584ba <HAL_SAI_IRQHandler+0xde>
240584ac:	2240      	movs	r2, #64	; 0x40
240584ae:	619a      	str	r2, [r3, #24]
240584b0:	f8d4 3094 	ldr.w	r3, [r4, #148]	; 0x94
240584b4:	f043 0308 	orr.w	r3, r3, #8
240584b8:	e7cb      	b.n	24058452 <HAL_SAI_IRQHandler+0x76>
240584ba:	074e      	lsls	r6, r1, #29
240584bc:	d516      	bpl.n	240584ec <HAL_SAI_IRQHandler+0x110>
240584be:	0750      	lsls	r0, r2, #29
240584c0:	d514      	bpl.n	240584ec <HAL_SAI_IRQHandler+0x110>
240584c2:	2204      	movs	r2, #4
240584c4:	f415 3500 	ands.w	r5, r5, #131072	; 0x20000
240584c8:	619a      	str	r2, [r3, #24]
240584ca:	f8d4 2094 	ldr.w	r2, [r4, #148]	; 0x94
240584ce:	f042 0220 	orr.w	r2, r2, #32
240584d2:	f8c4 2094 	str.w	r2, [r4, #148]	; 0x94
240584d6:	d1c0      	bne.n	2405845a <HAL_SAI_IRQHandler+0x7e>
240584d8:	f04f 32ff 	mov.w	r2, #4294967295
240584dc:	611d      	str	r5, [r3, #16]
240584de:	619a      	str	r2, [r3, #24]
240584e0:	2301      	movs	r3, #1
240584e2:	f8a4 507e 	strh.w	r5, [r4, #126]	; 0x7e
240584e6:	f884 3091 	strb.w	r3, [r4, #145]	; 0x91
240584ea:	e7d7      	b.n	2405849c <HAL_SAI_IRQHandler+0xc0>
240584ec:	06c9      	lsls	r1, r1, #27
240584ee:	d5d8      	bpl.n	240584a2 <HAL_SAI_IRQHandler+0xc6>
240584f0:	06d2      	lsls	r2, r2, #27
240584f2:	d5d6      	bpl.n	240584a2 <HAL_SAI_IRQHandler+0xc6>
240584f4:	2210      	movs	r2, #16
240584f6:	619a      	str	r2, [r3, #24]
240584f8:	f8d4 3094 	ldr.w	r3, [r4, #148]	; 0x94
240584fc:	4313      	orrs	r3, r2
240584fe:	e78f      	b.n	24058420 <HAL_SAI_IRQHandler+0x44>
24058500:	24058505 	.word	0x24058505

24058504 <SAI_DMAAbort>:
24058504:	b538      	push	{r3, r4, r5, lr}
24058506:	6b84      	ldr	r4, [r0, #56]	; 0x38
24058508:	6825      	ldr	r5, [r4, #0]
2405850a:	682b      	ldr	r3, [r5, #0]
2405850c:	f423 3300 	bic.w	r3, r3, #131072	; 0x20000
24058510:	602b      	str	r3, [r5, #0]
24058512:	2300      	movs	r3, #0
24058514:	612b      	str	r3, [r5, #16]
24058516:	f04f 33ff 	mov.w	r3, #4294967295
2405851a:	61ab      	str	r3, [r5, #24]
2405851c:	f8d4 3094 	ldr.w	r3, [r4, #148]	; 0x94
24058520:	2b20      	cmp	r3, #32
24058522:	d006      	beq.n	24058532 <SAI_DMAAbort+0x2e>
24058524:	4620      	mov	r0, r4
24058526:	f7ff fc3f 	bl	24057da8 <SAI_Disable>
2405852a:	686b      	ldr	r3, [r5, #4]
2405852c:	f043 0308 	orr.w	r3, r3, #8
24058530:	606b      	str	r3, [r5, #4]
24058532:	2301      	movs	r3, #1
24058534:	4620      	mov	r0, r4
24058536:	f884 3091 	strb.w	r3, [r4, #145]	; 0x91
2405853a:	2300      	movs	r3, #0
2405853c:	f8a4 307e 	strh.w	r3, [r4, #126]	; 0x7e
24058540:	f7ff ff2d 	bl	2405839e <HAL_SAI_ErrorCallback>
24058544:	bd38      	pop	{r3, r4, r5, pc}

24058546 <SPI_CloseTransfer>:
24058546:	6803      	ldr	r3, [r0, #0]
24058548:	6959      	ldr	r1, [r3, #20]
2405854a:	699a      	ldr	r2, [r3, #24]
2405854c:	f042 0208 	orr.w	r2, r2, #8
24058550:	619a      	str	r2, [r3, #24]
24058552:	699a      	ldr	r2, [r3, #24]
24058554:	f042 0210 	orr.w	r2, r2, #16
24058558:	619a      	str	r2, [r3, #24]
2405855a:	681a      	ldr	r2, [r3, #0]
2405855c:	f022 0201 	bic.w	r2, r2, #1
24058560:	601a      	str	r2, [r3, #0]
24058562:	691a      	ldr	r2, [r3, #16]
24058564:	f422 725b 	bic.w	r2, r2, #876	; 0x36c
24058568:	f022 0203 	bic.w	r2, r2, #3
2405856c:	611a      	str	r2, [r3, #16]
2405856e:	689a      	ldr	r2, [r3, #8]
24058570:	f422 4240 	bic.w	r2, r2, #49152	; 0xc000
24058574:	609a      	str	r2, [r3, #8]
24058576:	f890 2081 	ldrb.w	r2, [r0, #129]	; 0x81
2405857a:	2a04      	cmp	r2, #4
2405857c:	d00b      	beq.n	24058596 <SPI_CloseTransfer+0x50>
2405857e:	068a      	lsls	r2, r1, #26
24058580:	d509      	bpl.n	24058596 <SPI_CloseTransfer+0x50>
24058582:	f8d0 2084 	ldr.w	r2, [r0, #132]	; 0x84
24058586:	f042 0280 	orr.w	r2, r2, #128	; 0x80
2405858a:	f8c0 2084 	str.w	r2, [r0, #132]	; 0x84
2405858e:	699a      	ldr	r2, [r3, #24]
24058590:	f042 0220 	orr.w	r2, r2, #32
24058594:	619a      	str	r2, [r3, #24]
24058596:	f890 2081 	ldrb.w	r2, [r0, #129]	; 0x81
2405859a:	2a03      	cmp	r2, #3
2405859c:	d00b      	beq.n	240585b6 <SPI_CloseTransfer+0x70>
2405859e:	064a      	lsls	r2, r1, #25
240585a0:	d509      	bpl.n	240585b6 <SPI_CloseTransfer+0x70>
240585a2:	f8d0 2084 	ldr.w	r2, [r0, #132]	; 0x84
240585a6:	f042 0204 	orr.w	r2, r2, #4
240585aa:	f8c0 2084 	str.w	r2, [r0, #132]	; 0x84
240585ae:	699a      	ldr	r2, [r3, #24]
240585b0:	f042 0240 	orr.w	r2, r2, #64	; 0x40
240585b4:	619a      	str	r2, [r3, #24]
240585b6:	058a      	lsls	r2, r1, #22
240585b8:	d509      	bpl.n	240585ce <SPI_CloseTransfer+0x88>
240585ba:	f8d0 2084 	ldr.w	r2, [r0, #132]	; 0x84
240585be:	f042 0201 	orr.w	r2, r2, #1
240585c2:	f8c0 2084 	str.w	r2, [r0, #132]	; 0x84
240585c6:	699a      	ldr	r2, [r3, #24]
240585c8:	f442 7200 	orr.w	r2, r2, #512	; 0x200
240585cc:	619a      	str	r2, [r3, #24]
240585ce:	05ca      	lsls	r2, r1, #23
240585d0:	d509      	bpl.n	240585e6 <SPI_CloseTransfer+0xa0>
240585d2:	f8d0 2084 	ldr.w	r2, [r0, #132]	; 0x84
240585d6:	f042 0208 	orr.w	r2, r2, #8
240585da:	f8c0 2084 	str.w	r2, [r0, #132]	; 0x84
240585de:	699a      	ldr	r2, [r3, #24]
240585e0:	f442 7280 	orr.w	r2, r2, #256	; 0x100
240585e4:	619a      	str	r2, [r3, #24]
240585e6:	2300      	movs	r3, #0
240585e8:	f8a0 3062 	strh.w	r3, [r0, #98]	; 0x62
240585ec:	f8a0 306a 	strh.w	r3, [r0, #106]	; 0x6a
240585f0:	4770      	bx	lr
	...

240585f4 <HAL_SPI_Init>:
240585f4:	b5f8      	push	{r3, r4, r5, r6, r7, lr}
240585f6:	4604      	mov	r4, r0
240585f8:	b908      	cbnz	r0, 240585fe <HAL_SPI_Init+0xa>
240585fa:	2001      	movs	r0, #1
240585fc:	bdf8      	pop	{r3, r4, r5, r6, r7, pc}
240585fe:	6802      	ldr	r2, [r0, #0]
24058600:	2300      	movs	r3, #0
24058602:	494d      	ldr	r1, [pc, #308]	; (24058738 <HAL_SPI_Init+0x144>)
24058604:	6283      	str	r3, [r0, #40]	; 0x28
24058606:	428a      	cmp	r2, r1
24058608:	68c3      	ldr	r3, [r0, #12]
2405860a:	d009      	beq.n	24058620 <HAL_SPI_Init+0x2c>
2405860c:	f5a1 4178 	sub.w	r1, r1, #63488	; 0xf800
24058610:	428a      	cmp	r2, r1
24058612:	d005      	beq.n	24058620 <HAL_SPI_Init+0x2c>
24058614:	f501 6180 	add.w	r1, r1, #1024	; 0x400
24058618:	428a      	cmp	r2, r1
2405861a:	d001      	beq.n	24058620 <HAL_SPI_Init+0x2c>
2405861c:	2b0f      	cmp	r3, #15
2405861e:	d8ec      	bhi.n	240585fa <HAL_SPI_Init+0x6>
24058620:	6be1      	ldr	r1, [r4, #60]	; 0x3c
24058622:	3308      	adds	r3, #8
24058624:	0949      	lsrs	r1, r1, #5
24058626:	08db      	lsrs	r3, r3, #3
24058628:	fb01 3303 	mla	r3, r1, r3, r3
2405862c:	4942      	ldr	r1, [pc, #264]	; (24058738 <HAL_SPI_Init+0x144>)
2405862e:	428a      	cmp	r2, r1
24058630:	d073      	beq.n	2405871a <HAL_SPI_Init+0x126>
24058632:	f5a1 4178 	sub.w	r1, r1, #63488	; 0xf800
24058636:	428a      	cmp	r2, r1
24058638:	d06f      	beq.n	2405871a <HAL_SPI_Init+0x126>
2405863a:	f501 6180 	add.w	r1, r1, #1024	; 0x400
2405863e:	428a      	cmp	r2, r1
24058640:	d06b      	beq.n	2405871a <HAL_SPI_Init+0x126>
24058642:	2b08      	cmp	r3, #8
24058644:	d8d9      	bhi.n	240585fa <HAL_SPI_Init+0x6>
24058646:	f894 3081 	ldrb.w	r3, [r4, #129]	; 0x81
2405864a:	f003 02ff 	and.w	r2, r3, #255	; 0xff
2405864e:	b923      	cbnz	r3, 2405865a <HAL_SPI_Init+0x66>
24058650:	4620      	mov	r0, r4
24058652:	f884 2080 	strb.w	r2, [r4, #128]	; 0x80
24058656:	f7f9 feeb 	bl	24052430 <HAL_SPI_MspInit>
2405865a:	6822      	ldr	r2, [r4, #0]
2405865c:	2302      	movs	r3, #2
2405865e:	6861      	ldr	r1, [r4, #4]
24058660:	f884 3081 	strb.w	r3, [r4, #129]	; 0x81
24058664:	6813      	ldr	r3, [r2, #0]
24058666:	6ba6      	ldr	r6, [r4, #56]	; 0x38
24058668:	f023 0301 	bic.w	r3, r3, #1
2405866c:	6013      	str	r3, [r2, #0]
2405866e:	6893      	ldr	r3, [r2, #8]
24058670:	f403 1cf8 	and.w	ip, r3, #2031616	; 0x1f0000
24058674:	69a3      	ldr	r3, [r4, #24]
24058676:	f1b3 6f80 	cmp.w	r3, #67108864	; 0x4000000
2405867a:	d104      	bne.n	24058686 <HAL_SPI_Init+0x92>
2405867c:	f5b1 0f80 	cmp.w	r1, #4194304	; 0x400000
24058680:	d14d      	bne.n	2405871e <HAL_SPI_Init+0x12a>
24058682:	2e00      	cmp	r6, #0
24058684:	d050      	beq.n	24058728 <HAL_SPI_Init+0x134>
24058686:	f411 0080 	ands.w	r0, r1, #4194304	; 0x400000
2405868a:	68e5      	ldr	r5, [r4, #12]
2405868c:	6817      	ldr	r7, [r2, #0]
2405868e:	d050      	beq.n	24058732 <HAL_SPI_Init+0x13e>
24058690:	2d06      	cmp	r5, #6
24058692:	d94e      	bls.n	24058732 <HAL_SPI_Init+0x13e>
24058694:	f427 7e80 	bic.w	lr, r7, #256	; 0x100
24058698:	6d27      	ldr	r7, [r4, #80]	; 0x50
2405869a:	ea4e 0707 	orr.w	r7, lr, r7
2405869e:	6017      	str	r7, [r2, #0]
240586a0:	430b      	orrs	r3, r1
240586a2:	69e7      	ldr	r7, [r4, #28]
240586a4:	4333      	orrs	r3, r6
240586a6:	433d      	orrs	r5, r7
240586a8:	6aa7      	ldr	r7, [r4, #40]	; 0x28
240586aa:	433d      	orrs	r5, r7
240586ac:	6be7      	ldr	r7, [r4, #60]	; 0x3c
240586ae:	433d      	orrs	r5, r7
240586b0:	ea45 050c 	orr.w	r5, r5, ip
240586b4:	6095      	str	r5, [r2, #8]
240586b6:	6b65      	ldr	r5, [r4, #52]	; 0x34
240586b8:	432b      	orrs	r3, r5
240586ba:	6a65      	ldr	r5, [r4, #36]	; 0x24
240586bc:	432b      	orrs	r3, r5
240586be:	6925      	ldr	r5, [r4, #16]
240586c0:	432b      	orrs	r3, r5
240586c2:	6965      	ldr	r5, [r4, #20]
240586c4:	432b      	orrs	r3, r5
240586c6:	6a25      	ldr	r5, [r4, #32]
240586c8:	432b      	orrs	r3, r5
240586ca:	6ce5      	ldr	r5, [r4, #76]	; 0x4c
240586cc:	432b      	orrs	r3, r5
240586ce:	68a5      	ldr	r5, [r4, #8]
240586d0:	432b      	orrs	r3, r5
240586d2:	6ca5      	ldr	r5, [r4, #72]	; 0x48
240586d4:	432b      	orrs	r3, r5
240586d6:	6da5      	ldr	r5, [r4, #88]	; 0x58
240586d8:	432b      	orrs	r3, r5
240586da:	60d3      	str	r3, [r2, #12]
240586dc:	b959      	cbnz	r1, 240586f6 <HAL_SPI_Init+0x102>
240586de:	6893      	ldr	r3, [r2, #8]
240586e0:	f423 53c0 	bic.w	r3, r3, #6144	; 0x1800
240586e4:	f443 6300 	orr.w	r3, r3, #2048	; 0x800
240586e8:	6093      	str	r3, [r2, #8]
240586ea:	6893      	ldr	r3, [r2, #8]
240586ec:	f423 63c0 	bic.w	r3, r3, #1536	; 0x600
240586f0:	f443 6380 	orr.w	r3, r3, #1024	; 0x400
240586f4:	6093      	str	r3, [r2, #8]
240586f6:	6d13      	ldr	r3, [r2, #80]	; 0x50
240586f8:	f023 0301 	bic.w	r3, r3, #1
240586fc:	6513      	str	r3, [r2, #80]	; 0x50
240586fe:	b128      	cbz	r0, 2405870c <HAL_SPI_Init+0x118>
24058700:	68d3      	ldr	r3, [r2, #12]
24058702:	6d61      	ldr	r1, [r4, #84]	; 0x54
24058704:	f023 4300 	bic.w	r3, r3, #2147483648	; 0x80000000
24058708:	430b      	orrs	r3, r1
2405870a:	60d3      	str	r3, [r2, #12]
2405870c:	2000      	movs	r0, #0
2405870e:	2301      	movs	r3, #1
24058710:	f8c4 0084 	str.w	r0, [r4, #132]	; 0x84
24058714:	f884 3081 	strb.w	r3, [r4, #129]	; 0x81
24058718:	e770      	b.n	240585fc <HAL_SPI_Init+0x8>
2405871a:	2b10      	cmp	r3, #16
2405871c:	e792      	b.n	24058644 <HAL_SPI_Init+0x50>
2405871e:	2900      	cmp	r1, #0
24058720:	d1b1      	bne.n	24058686 <HAL_SPI_Init+0x92>
24058722:	f1b6 5f80 	cmp.w	r6, #268435456	; 0x10000000
24058726:	d1ae      	bne.n	24058686 <HAL_SPI_Init+0x92>
24058728:	6810      	ldr	r0, [r2, #0]
2405872a:	f440 5080 	orr.w	r0, r0, #4096	; 0x1000
2405872e:	6010      	str	r0, [r2, #0]
24058730:	e7a9      	b.n	24058686 <HAL_SPI_Init+0x92>
24058732:	f427 7780 	bic.w	r7, r7, #256	; 0x100
24058736:	e7b2      	b.n	2405869e <HAL_SPI_Init+0xaa>
24058738:	40013000 	.word	0x40013000

2405873c <HAL_SPI_Transmit>:
2405873c:	e92d 43f8 	stmdb	sp!, {r3, r4, r5, r6, r7, r8, r9, lr}
24058740:	461d      	mov	r5, r3
24058742:	f890 3080 	ldrb.w	r3, [r0, #128]	; 0x80
24058746:	4604      	mov	r4, r0
24058748:	4689      	mov	r9, r1
2405874a:	2b01      	cmp	r3, #1
2405874c:	4690      	mov	r8, r2
2405874e:	d00e      	beq.n	2405876e <HAL_SPI_Transmit+0x32>
24058750:	2301      	movs	r3, #1
24058752:	6807      	ldr	r7, [r0, #0]
24058754:	f880 3080 	strb.w	r3, [r0, #128]	; 0x80
24058758:	f7fa f8e4 	bl	24052924 <HAL_GetTick>
2405875c:	f894 3081 	ldrb.w	r3, [r4, #129]	; 0x81
24058760:	4606      	mov	r6, r0
24058762:	2b01      	cmp	r3, #1
24058764:	b2d8      	uxtb	r0, r3
24058766:	d004      	beq.n	24058772 <HAL_SPI_Transmit+0x36>
24058768:	2300      	movs	r3, #0
2405876a:	f884 3080 	strb.w	r3, [r4, #128]	; 0x80
2405876e:	2002      	movs	r0, #2
24058770:	e008      	b.n	24058784 <HAL_SPI_Transmit+0x48>
24058772:	f1b9 0f00 	cmp.w	r9, #0
24058776:	d002      	beq.n	2405877e <HAL_SPI_Transmit+0x42>
24058778:	f1b8 0f00 	cmp.w	r8, #0
2405877c:	d104      	bne.n	24058788 <HAL_SPI_Transmit+0x4c>
2405877e:	2300      	movs	r3, #0
24058780:	f884 3080 	strb.w	r3, [r4, #128]	; 0x80
24058784:	e8bd 83f8 	ldmia.w	sp!, {r3, r4, r5, r6, r7, r8, r9, pc}
24058788:	2303      	movs	r3, #3
2405878a:	68a2      	ldr	r2, [r4, #8]
2405878c:	f8c4 905c 	str.w	r9, [r4, #92]	; 0x5c
24058790:	f884 3081 	strb.w	r3, [r4, #129]	; 0x81
24058794:	f5b2 2fc0 	cmp.w	r2, #393216	; 0x60000
24058798:	f04f 0300 	mov.w	r3, #0
2405879c:	f8a4 8060 	strh.w	r8, [r4, #96]	; 0x60
240587a0:	f8c4 3084 	str.w	r3, [r4, #132]	; 0x84
240587a4:	6663      	str	r3, [r4, #100]	; 0x64
240587a6:	f8a4 8062 	strh.w	r8, [r4, #98]	; 0x62
240587aa:	f8a4 3068 	strh.w	r3, [r4, #104]	; 0x68
240587ae:	f8a4 306a 	strh.w	r3, [r4, #106]	; 0x6a
240587b2:	e9c4 331c 	strd	r3, r3, [r4, #112]	; 0x70
240587b6:	6823      	ldr	r3, [r4, #0]
240587b8:	d13b      	bne.n	24058832 <HAL_SPI_Transmit+0xf6>
240587ba:	681a      	ldr	r2, [r3, #0]
240587bc:	f442 6200 	orr.w	r2, r2, #2048	; 0x800
240587c0:	601a      	str	r2, [r3, #0]
240587c2:	6859      	ldr	r1, [r3, #4]
240587c4:	0c09      	lsrs	r1, r1, #16
240587c6:	0409      	lsls	r1, r1, #16
240587c8:	ea41 0108 	orr.w	r1, r1, r8
240587cc:	6059      	str	r1, [r3, #4]
240587ce:	681a      	ldr	r2, [r3, #0]
240587d0:	f042 0201 	orr.w	r2, r2, #1
240587d4:	601a      	str	r2, [r3, #0]
240587d6:	6862      	ldr	r2, [r4, #4]
240587d8:	f5b2 0f80 	cmp.w	r2, #4194304	; 0x400000
240587dc:	d103      	bne.n	240587e6 <HAL_SPI_Transmit+0xaa>
240587de:	681a      	ldr	r2, [r3, #0]
240587e0:	f442 7200 	orr.w	r2, r2, #512	; 0x200
240587e4:	601a      	str	r2, [r3, #0]
240587e6:	68e3      	ldr	r3, [r4, #12]
240587e8:	2b0f      	cmp	r3, #15
240587ea:	d838      	bhi.n	2405885e <HAL_SPI_Transmit+0x122>
240587ec:	2b07      	cmp	r3, #7
240587ee:	d87c      	bhi.n	240588ea <HAL_SPI_Transmit+0x1ae>
240587f0:	f8b4 3062 	ldrh.w	r3, [r4, #98]	; 0x62
240587f4:	6821      	ldr	r1, [r4, #0]
240587f6:	b29b      	uxth	r3, r3
240587f8:	2b00      	cmp	r3, #0
240587fa:	d036      	beq.n	2405886a <HAL_SPI_Transmit+0x12e>
240587fc:	694b      	ldr	r3, [r1, #20]
240587fe:	f013 0802 	ands.w	r8, r3, #2
24058802:	f000 80a7 	beq.w	24058954 <HAL_SPI_Transmit+0x218>
24058806:	f8b4 3062 	ldrh.w	r3, [r4, #98]	; 0x62
2405880a:	6de2      	ldr	r2, [r4, #92]	; 0x5c
2405880c:	b29b      	uxth	r3, r3
2405880e:	2b03      	cmp	r3, #3
24058810:	f240 8087 	bls.w	24058922 <HAL_SPI_Transmit+0x1e6>
24058814:	6be3      	ldr	r3, [r4, #60]	; 0x3c
24058816:	2b40      	cmp	r3, #64	; 0x40
24058818:	f240 8083 	bls.w	24058922 <HAL_SPI_Transmit+0x1e6>
2405881c:	f852 3b04 	ldr.w	r3, [r2], #4
24058820:	620b      	str	r3, [r1, #32]
24058822:	f8b4 3062 	ldrh.w	r3, [r4, #98]	; 0x62
24058826:	65e2      	str	r2, [r4, #92]	; 0x5c
24058828:	3b04      	subs	r3, #4
2405882a:	b29b      	uxth	r3, r3
2405882c:	f8a4 3062 	strh.w	r3, [r4, #98]	; 0x62
24058830:	e7de      	b.n	240587f0 <HAL_SPI_Transmit+0xb4>
24058832:	68da      	ldr	r2, [r3, #12]
24058834:	f422 22c0 	bic.w	r2, r2, #393216	; 0x60000
24058838:	f442 3200 	orr.w	r2, r2, #131072	; 0x20000
2405883c:	60da      	str	r2, [r3, #12]
2405883e:	e7c0      	b.n	240587c2 <HAL_SPI_Transmit+0x86>
24058840:	6957      	ldr	r7, [r2, #20]
24058842:	f017 0702 	ands.w	r7, r7, #2
24058846:	d023      	beq.n	24058890 <HAL_SPI_Transmit+0x154>
24058848:	6de3      	ldr	r3, [r4, #92]	; 0x5c
2405884a:	f853 1b04 	ldr.w	r1, [r3], #4
2405884e:	6211      	str	r1, [r2, #32]
24058850:	65e3      	str	r3, [r4, #92]	; 0x5c
24058852:	f8b4 3062 	ldrh.w	r3, [r4, #98]	; 0x62
24058856:	3b01      	subs	r3, #1
24058858:	b29b      	uxth	r3, r3
2405885a:	f8a4 3062 	strh.w	r3, [r4, #98]	; 0x62
2405885e:	f8b4 3062 	ldrh.w	r3, [r4, #98]	; 0x62
24058862:	6822      	ldr	r2, [r4, #0]
24058864:	b29b      	uxth	r3, r3
24058866:	2b00      	cmp	r3, #0
24058868:	d1ea      	bne.n	24058840 <HAL_SPI_Transmit+0x104>
2405886a:	6823      	ldr	r3, [r4, #0]
2405886c:	695b      	ldr	r3, [r3, #20]
2405886e:	071b      	lsls	r3, r3, #28
24058870:	d57a      	bpl.n	24058968 <HAL_SPI_Transmit+0x22c>
24058872:	4620      	mov	r0, r4
24058874:	f7ff fe67 	bl	24058546 <SPI_CloseTransfer>
24058878:	2300      	movs	r3, #0
2405887a:	f884 3080 	strb.w	r3, [r4, #128]	; 0x80
2405887e:	2301      	movs	r3, #1
24058880:	f884 3081 	strb.w	r3, [r4, #129]	; 0x81
24058884:	f8d4 0084 	ldr.w	r0, [r4, #132]	; 0x84
24058888:	3800      	subs	r0, #0
2405888a:	bf18      	it	ne
2405888c:	2001      	movne	r0, #1
2405888e:	e779      	b.n	24058784 <HAL_SPI_Transmit+0x48>
24058890:	f7fa f848 	bl	24052924 <HAL_GetTick>
24058894:	1b80      	subs	r0, r0, r6
24058896:	42a8      	cmp	r0, r5
24058898:	d3e1      	bcc.n	2405885e <HAL_SPI_Transmit+0x122>
2405889a:	1c6b      	adds	r3, r5, #1
2405889c:	d0df      	beq.n	2405885e <HAL_SPI_Transmit+0x122>
2405889e:	4620      	mov	r0, r4
240588a0:	f7ff fe51 	bl	24058546 <SPI_CloseTransfer>
240588a4:	f884 7080 	strb.w	r7, [r4, #128]	; 0x80
240588a8:	f8d0 3084 	ldr.w	r3, [r0, #132]	; 0x84
240588ac:	f443 7380 	orr.w	r3, r3, #256	; 0x100
240588b0:	f8c0 3084 	str.w	r3, [r0, #132]	; 0x84
240588b4:	2301      	movs	r3, #1
240588b6:	f880 3081 	strb.w	r3, [r0, #129]	; 0x81
240588ba:	2003      	movs	r0, #3
240588bc:	e762      	b.n	24058784 <HAL_SPI_Transmit+0x48>
240588be:	694b      	ldr	r3, [r1, #20]
240588c0:	f013 0802 	ands.w	r8, r3, #2
240588c4:	d020      	beq.n	24058908 <HAL_SPI_Transmit+0x1cc>
240588c6:	f8b4 2062 	ldrh.w	r2, [r4, #98]	; 0x62
240588ca:	6de3      	ldr	r3, [r4, #92]	; 0x5c
240588cc:	b292      	uxth	r2, r2
240588ce:	2a01      	cmp	r2, #1
240588d0:	d912      	bls.n	240588f8 <HAL_SPI_Transmit+0x1bc>
240588d2:	6be2      	ldr	r2, [r4, #60]	; 0x3c
240588d4:	b182      	cbz	r2, 240588f8 <HAL_SPI_Transmit+0x1bc>
240588d6:	f853 2b04 	ldr.w	r2, [r3], #4
240588da:	620a      	str	r2, [r1, #32]
240588dc:	65e3      	str	r3, [r4, #92]	; 0x5c
240588de:	f8b4 3062 	ldrh.w	r3, [r4, #98]	; 0x62
240588e2:	3b02      	subs	r3, #2
240588e4:	b29b      	uxth	r3, r3
240588e6:	f8a4 3062 	strh.w	r3, [r4, #98]	; 0x62
240588ea:	f8b4 3062 	ldrh.w	r3, [r4, #98]	; 0x62
240588ee:	6821      	ldr	r1, [r4, #0]
240588f0:	b29b      	uxth	r3, r3
240588f2:	2b00      	cmp	r3, #0
240588f4:	d1e3      	bne.n	240588be <HAL_SPI_Transmit+0x182>
240588f6:	e7b8      	b.n	2405886a <HAL_SPI_Transmit+0x12e>
240588f8:	f833 2b02 	ldrh.w	r2, [r3], #2
240588fc:	843a      	strh	r2, [r7, #32]
240588fe:	65e3      	str	r3, [r4, #92]	; 0x5c
24058900:	f8b4 3062 	ldrh.w	r3, [r4, #98]	; 0x62
24058904:	3b01      	subs	r3, #1
24058906:	e7ed      	b.n	240588e4 <HAL_SPI_Transmit+0x1a8>
24058908:	f7fa f80c 	bl	24052924 <HAL_GetTick>
2405890c:	1b80      	subs	r0, r0, r6
2405890e:	42a8      	cmp	r0, r5
24058910:	d3eb      	bcc.n	240588ea <HAL_SPI_Transmit+0x1ae>
24058912:	1c68      	adds	r0, r5, #1
24058914:	d0e9      	beq.n	240588ea <HAL_SPI_Transmit+0x1ae>
24058916:	4620      	mov	r0, r4
24058918:	f7ff fe15 	bl	24058546 <SPI_CloseTransfer>
2405891c:	f884 8080 	strb.w	r8, [r4, #128]	; 0x80
24058920:	e7c2      	b.n	240588a8 <HAL_SPI_Transmit+0x16c>
24058922:	f8b4 3062 	ldrh.w	r3, [r4, #98]	; 0x62
24058926:	b29b      	uxth	r3, r3
24058928:	2b01      	cmp	r3, #1
2405892a:	d909      	bls.n	24058940 <HAL_SPI_Transmit+0x204>
2405892c:	6be3      	ldr	r3, [r4, #60]	; 0x3c
2405892e:	b13b      	cbz	r3, 24058940 <HAL_SPI_Transmit+0x204>
24058930:	f832 3b02 	ldrh.w	r3, [r2], #2
24058934:	843b      	strh	r3, [r7, #32]
24058936:	f8b4 3062 	ldrh.w	r3, [r4, #98]	; 0x62
2405893a:	65e2      	str	r2, [r4, #92]	; 0x5c
2405893c:	3b02      	subs	r3, #2
2405893e:	e774      	b.n	2405882a <HAL_SPI_Transmit+0xee>
24058940:	7813      	ldrb	r3, [r2, #0]
24058942:	f881 3020 	strb.w	r3, [r1, #32]
24058946:	6de3      	ldr	r3, [r4, #92]	; 0x5c
24058948:	3301      	adds	r3, #1
2405894a:	65e3      	str	r3, [r4, #92]	; 0x5c
2405894c:	f8b4 3062 	ldrh.w	r3, [r4, #98]	; 0x62
24058950:	3b01      	subs	r3, #1
24058952:	e76a      	b.n	2405882a <HAL_SPI_Transmit+0xee>
24058954:	f7f9 ffe6 	bl	24052924 <HAL_GetTick>
24058958:	1b80      	subs	r0, r0, r6
2405895a:	42a8      	cmp	r0, r5
2405895c:	f4ff af48 	bcc.w	240587f0 <HAL_SPI_Transmit+0xb4>
24058960:	1c69      	adds	r1, r5, #1
24058962:	f43f af45 	beq.w	240587f0 <HAL_SPI_Transmit+0xb4>
24058966:	e7d6      	b.n	24058916 <HAL_SPI_Transmit+0x1da>
24058968:	f7f9 ffdc 	bl	24052924 <HAL_GetTick>
2405896c:	1b80      	subs	r0, r0, r6
2405896e:	4285      	cmp	r5, r0
24058970:	f63f af7b 	bhi.w	2405886a <HAL_SPI_Transmit+0x12e>
24058974:	1c6a      	adds	r2, r5, #1
24058976:	f43f af78 	beq.w	2405886a <HAL_SPI_Transmit+0x12e>
2405897a:	f8d4 3084 	ldr.w	r3, [r4, #132]	; 0x84
2405897e:	f043 0320 	orr.w	r3, r3, #32
24058982:	f8c4 3084 	str.w	r3, [r4, #132]	; 0x84
24058986:	e774      	b.n	24058872 <HAL_SPI_Transmit+0x136>

24058988 <HAL_TIM_Base_Start_IT>:
24058988:	f890 303d 	ldrb.w	r3, [r0, #61]	; 0x3d
2405898c:	2b01      	cmp	r3, #1
2405898e:	d133      	bne.n	240589f8 <HAL_TIM_Base_Start_IT+0x70>
24058990:	2302      	movs	r3, #2
24058992:	f880 303d 	strb.w	r3, [r0, #61]	; 0x3d
24058996:	6803      	ldr	r3, [r0, #0]
24058998:	68da      	ldr	r2, [r3, #12]
2405899a:	f042 0201 	orr.w	r2, r2, #1
2405899e:	60da      	str	r2, [r3, #12]
240589a0:	4a16      	ldr	r2, [pc, #88]	; (240589fc <HAL_TIM_Base_Start_IT+0x74>)
240589a2:	4293      	cmp	r3, r2
240589a4:	d01a      	beq.n	240589dc <HAL_TIM_Base_Start_IT+0x54>
240589a6:	f1b3 4f80 	cmp.w	r3, #1073741824	; 0x40000000
240589aa:	d017      	beq.n	240589dc <HAL_TIM_Base_Start_IT+0x54>
240589ac:	f5a2 427c 	sub.w	r2, r2, #64512	; 0xfc00
240589b0:	4293      	cmp	r3, r2
240589b2:	d013      	beq.n	240589dc <HAL_TIM_Base_Start_IT+0x54>
240589b4:	f502 6280 	add.w	r2, r2, #1024	; 0x400
240589b8:	4293      	cmp	r3, r2
240589ba:	d00f      	beq.n	240589dc <HAL_TIM_Base_Start_IT+0x54>
240589bc:	f502 6280 	add.w	r2, r2, #1024	; 0x400
240589c0:	4293      	cmp	r3, r2
240589c2:	d00b      	beq.n	240589dc <HAL_TIM_Base_Start_IT+0x54>
240589c4:	f502 4278 	add.w	r2, r2, #63488	; 0xf800
240589c8:	4293      	cmp	r3, r2
240589ca:	d007      	beq.n	240589dc <HAL_TIM_Base_Start_IT+0x54>
240589cc:	f5a2 426c 	sub.w	r2, r2, #60416	; 0xec00
240589d0:	4293      	cmp	r3, r2
240589d2:	d003      	beq.n	240589dc <HAL_TIM_Base_Start_IT+0x54>
240589d4:	f502 3294 	add.w	r2, r2, #75776	; 0x12800
240589d8:	4293      	cmp	r3, r2
240589da:	d107      	bne.n	240589ec <HAL_TIM_Base_Start_IT+0x64>
240589dc:	6899      	ldr	r1, [r3, #8]
240589de:	4a08      	ldr	r2, [pc, #32]	; (24058a00 <HAL_TIM_Base_Start_IT+0x78>)
240589e0:	400a      	ands	r2, r1
240589e2:	2a06      	cmp	r2, #6
240589e4:	d006      	beq.n	240589f4 <HAL_TIM_Base_Start_IT+0x6c>
240589e6:	f5b2 3f80 	cmp.w	r2, #65536	; 0x10000
240589ea:	d003      	beq.n	240589f4 <HAL_TIM_Base_Start_IT+0x6c>
240589ec:	681a      	ldr	r2, [r3, #0]
240589ee:	f042 0201 	orr.w	r2, r2, #1
240589f2:	601a      	str	r2, [r3, #0]
240589f4:	2000      	movs	r0, #0
240589f6:	4770      	bx	lr
240589f8:	2001      	movs	r0, #1
240589fa:	4770      	bx	lr
240589fc:	40010000 	.word	0x40010000
24058a00:	00010007 	.word	0x00010007

24058a04 <HAL_TIM_PeriodElapsedCallback>:
24058a04:	4770      	bx	lr

24058a06 <HAL_TIM_OC_DelayElapsedCallback>:
24058a06:	4770      	bx	lr

24058a08 <HAL_TIM_IC_CaptureCallback>:
24058a08:	4770      	bx	lr

24058a0a <HAL_TIM_PWM_PulseFinishedCallback>:
24058a0a:	4770      	bx	lr

24058a0c <HAL_TIM_TriggerCallback>:
24058a0c:	4770      	bx	lr

24058a0e <HAL_TIM_IRQHandler>:
24058a0e:	6803      	ldr	r3, [r0, #0]
24058a10:	691a      	ldr	r2, [r3, #16]
24058a12:	0791      	lsls	r1, r2, #30
24058a14:	b510      	push	{r4, lr}
24058a16:	4604      	mov	r4, r0
24058a18:	d50f      	bpl.n	24058a3a <HAL_TIM_IRQHandler+0x2c>
24058a1a:	68da      	ldr	r2, [r3, #12]
24058a1c:	0792      	lsls	r2, r2, #30
24058a1e:	d50c      	bpl.n	24058a3a <HAL_TIM_IRQHandler+0x2c>
24058a20:	f06f 0202 	mvn.w	r2, #2
24058a24:	611a      	str	r2, [r3, #16]
24058a26:	2201      	movs	r2, #1
24058a28:	7702      	strb	r2, [r0, #28]
24058a2a:	699b      	ldr	r3, [r3, #24]
24058a2c:	0799      	lsls	r1, r3, #30
24058a2e:	f000 8085 	beq.w	24058b3c <HAL_TIM_IRQHandler+0x12e>
24058a32:	f7ff ffe9 	bl	24058a08 <HAL_TIM_IC_CaptureCallback>
24058a36:	2300      	movs	r3, #0
24058a38:	7723      	strb	r3, [r4, #28]
24058a3a:	6823      	ldr	r3, [r4, #0]
24058a3c:	691a      	ldr	r2, [r3, #16]
24058a3e:	0752      	lsls	r2, r2, #29
24058a40:	d510      	bpl.n	24058a64 <HAL_TIM_IRQHandler+0x56>
24058a42:	68da      	ldr	r2, [r3, #12]
24058a44:	0750      	lsls	r0, r2, #29
24058a46:	d50d      	bpl.n	24058a64 <HAL_TIM_IRQHandler+0x56>
24058a48:	f06f 0204 	mvn.w	r2, #4
24058a4c:	4620      	mov	r0, r4
24058a4e:	611a      	str	r2, [r3, #16]
24058a50:	2202      	movs	r2, #2
24058a52:	7722      	strb	r2, [r4, #28]
24058a54:	699b      	ldr	r3, [r3, #24]
24058a56:	f413 7f40 	tst.w	r3, #768	; 0x300
24058a5a:	d075      	beq.n	24058b48 <HAL_TIM_IRQHandler+0x13a>
24058a5c:	f7ff ffd4 	bl	24058a08 <HAL_TIM_IC_CaptureCallback>
24058a60:	2300      	movs	r3, #0
24058a62:	7723      	strb	r3, [r4, #28]
24058a64:	6823      	ldr	r3, [r4, #0]
24058a66:	691a      	ldr	r2, [r3, #16]
24058a68:	0711      	lsls	r1, r2, #28
24058a6a:	d50f      	bpl.n	24058a8c <HAL_TIM_IRQHandler+0x7e>
24058a6c:	68da      	ldr	r2, [r3, #12]
24058a6e:	0712      	lsls	r2, r2, #28
24058a70:	d50c      	bpl.n	24058a8c <HAL_TIM_IRQHandler+0x7e>
24058a72:	f06f 0208 	mvn.w	r2, #8
24058a76:	4620      	mov	r0, r4
24058a78:	611a      	str	r2, [r3, #16]
24058a7a:	2204      	movs	r2, #4
24058a7c:	7722      	strb	r2, [r4, #28]
24058a7e:	69db      	ldr	r3, [r3, #28]
24058a80:	079b      	lsls	r3, r3, #30
24058a82:	d067      	beq.n	24058b54 <HAL_TIM_IRQHandler+0x146>
24058a84:	f7ff ffc0 	bl	24058a08 <HAL_TIM_IC_CaptureCallback>
24058a88:	2300      	movs	r3, #0
24058a8a:	7723      	strb	r3, [r4, #28]
24058a8c:	6823      	ldr	r3, [r4, #0]
24058a8e:	691a      	ldr	r2, [r3, #16]
24058a90:	06d0      	lsls	r0, r2, #27
24058a92:	d510      	bpl.n	24058ab6 <HAL_TIM_IRQHandler+0xa8>
24058a94:	68da      	ldr	r2, [r3, #12]
24058a96:	06d1      	lsls	r1, r2, #27
24058a98:	d50d      	bpl.n	24058ab6 <HAL_TIM_IRQHandler+0xa8>
24058a9a:	f06f 0210 	mvn.w	r2, #16
24058a9e:	4620      	mov	r0, r4
24058aa0:	611a      	str	r2, [r3, #16]
24058aa2:	2208      	movs	r2, #8
24058aa4:	7722      	strb	r2, [r4, #28]
24058aa6:	69db      	ldr	r3, [r3, #28]
24058aa8:	f413 7f40 	tst.w	r3, #768	; 0x300
24058aac:	d058      	beq.n	24058b60 <HAL_TIM_IRQHandler+0x152>
24058aae:	f7ff ffab 	bl	24058a08 <HAL_TIM_IC_CaptureCallback>
24058ab2:	2300      	movs	r3, #0
24058ab4:	7723      	strb	r3, [r4, #28]
24058ab6:	6823      	ldr	r3, [r4, #0]
24058ab8:	691a      	ldr	r2, [r3, #16]
24058aba:	07d2      	lsls	r2, r2, #31
24058abc:	d508      	bpl.n	24058ad0 <HAL_TIM_IRQHandler+0xc2>
24058abe:	68da      	ldr	r2, [r3, #12]
24058ac0:	07d0      	lsls	r0, r2, #31
24058ac2:	d505      	bpl.n	24058ad0 <HAL_TIM_IRQHandler+0xc2>
24058ac4:	f06f 0201 	mvn.w	r2, #1
24058ac8:	4620      	mov	r0, r4
24058aca:	611a      	str	r2, [r3, #16]
24058acc:	f7ff ff9a 	bl	24058a04 <HAL_TIM_PeriodElapsedCallback>
24058ad0:	6823      	ldr	r3, [r4, #0]
24058ad2:	691a      	ldr	r2, [r3, #16]
24058ad4:	0611      	lsls	r1, r2, #24
24058ad6:	d508      	bpl.n	24058aea <HAL_TIM_IRQHandler+0xdc>
24058ad8:	68da      	ldr	r2, [r3, #12]
24058ada:	0612      	lsls	r2, r2, #24
24058adc:	d505      	bpl.n	24058aea <HAL_TIM_IRQHandler+0xdc>
24058ade:	f06f 0280 	mvn.w	r2, #128	; 0x80
24058ae2:	4620      	mov	r0, r4
24058ae4:	611a      	str	r2, [r3, #16]
24058ae6:	f000 f9ec 	bl	24058ec2 <HAL_TIMEx_BreakCallback>
24058aea:	6823      	ldr	r3, [r4, #0]
24058aec:	691a      	ldr	r2, [r3, #16]
24058aee:	05d0      	lsls	r0, r2, #23
24058af0:	d508      	bpl.n	24058b04 <HAL_TIM_IRQHandler+0xf6>
24058af2:	68da      	ldr	r2, [r3, #12]
24058af4:	0611      	lsls	r1, r2, #24
24058af6:	d505      	bpl.n	24058b04 <HAL_TIM_IRQHandler+0xf6>
24058af8:	f46f 7280 	mvn.w	r2, #256	; 0x100
24058afc:	4620      	mov	r0, r4
24058afe:	611a      	str	r2, [r3, #16]
24058b00:	f000 f9e0 	bl	24058ec4 <HAL_TIMEx_Break2Callback>
24058b04:	6823      	ldr	r3, [r4, #0]
24058b06:	691a      	ldr	r2, [r3, #16]
24058b08:	0652      	lsls	r2, r2, #25
24058b0a:	d508      	bpl.n	24058b1e <HAL_TIM_IRQHandler+0x110>
24058b0c:	68da      	ldr	r2, [r3, #12]
24058b0e:	0650      	lsls	r0, r2, #25
24058b10:	d505      	bpl.n	24058b1e <HAL_TIM_IRQHandler+0x110>
24058b12:	f06f 0240 	mvn.w	r2, #64	; 0x40
24058b16:	4620      	mov	r0, r4
24058b18:	611a      	str	r2, [r3, #16]
24058b1a:	f7ff ff77 	bl	24058a0c <HAL_TIM_TriggerCallback>
24058b1e:	6823      	ldr	r3, [r4, #0]
24058b20:	691a      	ldr	r2, [r3, #16]
24058b22:	0691      	lsls	r1, r2, #26
24058b24:	d522      	bpl.n	24058b6c <HAL_TIM_IRQHandler+0x15e>
24058b26:	68da      	ldr	r2, [r3, #12]
24058b28:	0692      	lsls	r2, r2, #26
24058b2a:	d51f      	bpl.n	24058b6c <HAL_TIM_IRQHandler+0x15e>
24058b2c:	f06f 0220 	mvn.w	r2, #32
24058b30:	4620      	mov	r0, r4
24058b32:	611a      	str	r2, [r3, #16]
24058b34:	e8bd 4010 	ldmia.w	sp!, {r4, lr}
24058b38:	f000 b9c2 	b.w	24058ec0 <HAL_TIMEx_CommutCallback>
24058b3c:	f7ff ff63 	bl	24058a06 <HAL_TIM_OC_DelayElapsedCallback>
24058b40:	4620      	mov	r0, r4
24058b42:	f7ff ff62 	bl	24058a0a <HAL_TIM_PWM_PulseFinishedCallback>
24058b46:	e776      	b.n	24058a36 <HAL_TIM_IRQHandler+0x28>
24058b48:	f7ff ff5d 	bl	24058a06 <HAL_TIM_OC_DelayElapsedCallback>
24058b4c:	4620      	mov	r0, r4
24058b4e:	f7ff ff5c 	bl	24058a0a <HAL_TIM_PWM_PulseFinishedCallback>
24058b52:	e785      	b.n	24058a60 <HAL_TIM_IRQHandler+0x52>
24058b54:	f7ff ff57 	bl	24058a06 <HAL_TIM_OC_DelayElapsedCallback>
24058b58:	4620      	mov	r0, r4
24058b5a:	f7ff ff56 	bl	24058a0a <HAL_TIM_PWM_PulseFinishedCallback>
24058b5e:	e793      	b.n	24058a88 <HAL_TIM_IRQHandler+0x7a>
24058b60:	f7ff ff51 	bl	24058a06 <HAL_TIM_OC_DelayElapsedCallback>
24058b64:	4620      	mov	r0, r4
24058b66:	f7ff ff50 	bl	24058a0a <HAL_TIM_PWM_PulseFinishedCallback>
24058b6a:	e7a2      	b.n	24058ab2 <HAL_TIM_IRQHandler+0xa4>
24058b6c:	bd10      	pop	{r4, pc}
	...

24058b70 <TIM_Base_SetConfig>:
24058b70:	4a30      	ldr	r2, [pc, #192]	; (24058c34 <TIM_Base_SetConfig+0xc4>)
24058b72:	6803      	ldr	r3, [r0, #0]
24058b74:	4290      	cmp	r0, r2
24058b76:	d012      	beq.n	24058b9e <TIM_Base_SetConfig+0x2e>
24058b78:	f1b0 4f80 	cmp.w	r0, #1073741824	; 0x40000000
24058b7c:	d00f      	beq.n	24058b9e <TIM_Base_SetConfig+0x2e>
24058b7e:	f5a2 427c 	sub.w	r2, r2, #64512	; 0xfc00
24058b82:	4290      	cmp	r0, r2
24058b84:	d00b      	beq.n	24058b9e <TIM_Base_SetConfig+0x2e>
24058b86:	f502 6280 	add.w	r2, r2, #1024	; 0x400
24058b8a:	4290      	cmp	r0, r2
24058b8c:	d007      	beq.n	24058b9e <TIM_Base_SetConfig+0x2e>
24058b8e:	f502 6280 	add.w	r2, r2, #1024	; 0x400
24058b92:	4290      	cmp	r0, r2
24058b94:	d003      	beq.n	24058b9e <TIM_Base_SetConfig+0x2e>
24058b96:	f502 4278 	add.w	r2, r2, #63488	; 0xf800
24058b9a:	4290      	cmp	r0, r2
24058b9c:	d119      	bne.n	24058bd2 <TIM_Base_SetConfig+0x62>
24058b9e:	684a      	ldr	r2, [r1, #4]
24058ba0:	f023 0370 	bic.w	r3, r3, #112	; 0x70
24058ba4:	4313      	orrs	r3, r2
24058ba6:	4a23      	ldr	r2, [pc, #140]	; (24058c34 <TIM_Base_SetConfig+0xc4>)
24058ba8:	4290      	cmp	r0, r2
24058baa:	d01d      	beq.n	24058be8 <TIM_Base_SetConfig+0x78>
24058bac:	f1b0 4f80 	cmp.w	r0, #1073741824	; 0x40000000
24058bb0:	d01a      	beq.n	24058be8 <TIM_Base_SetConfig+0x78>
24058bb2:	f5a2 427c 	sub.w	r2, r2, #64512	; 0xfc00
24058bb6:	4290      	cmp	r0, r2
24058bb8:	d016      	beq.n	24058be8 <TIM_Base_SetConfig+0x78>
24058bba:	f502 6280 	add.w	r2, r2, #1024	; 0x400
24058bbe:	4290      	cmp	r0, r2
24058bc0:	d012      	beq.n	24058be8 <TIM_Base_SetConfig+0x78>
24058bc2:	f502 6280 	add.w	r2, r2, #1024	; 0x400
24058bc6:	4290      	cmp	r0, r2
24058bc8:	d00e      	beq.n	24058be8 <TIM_Base_SetConfig+0x78>
24058bca:	f502 4278 	add.w	r2, r2, #63488	; 0xf800
24058bce:	4290      	cmp	r0, r2
24058bd0:	d00a      	beq.n	24058be8 <TIM_Base_SetConfig+0x78>
24058bd2:	4a19      	ldr	r2, [pc, #100]	; (24058c38 <TIM_Base_SetConfig+0xc8>)
24058bd4:	4290      	cmp	r0, r2
24058bd6:	d007      	beq.n	24058be8 <TIM_Base_SetConfig+0x78>
24058bd8:	f502 6280 	add.w	r2, r2, #1024	; 0x400
24058bdc:	4290      	cmp	r0, r2
24058bde:	d003      	beq.n	24058be8 <TIM_Base_SetConfig+0x78>
24058be0:	f502 6280 	add.w	r2, r2, #1024	; 0x400
24058be4:	4290      	cmp	r0, r2
24058be6:	d103      	bne.n	24058bf0 <TIM_Base_SetConfig+0x80>
24058be8:	f423 7340 	bic.w	r3, r3, #768	; 0x300
24058bec:	68ca      	ldr	r2, [r1, #12]
24058bee:	4313      	orrs	r3, r2
24058bf0:	694a      	ldr	r2, [r1, #20]
24058bf2:	f023 0380 	bic.w	r3, r3, #128	; 0x80
24058bf6:	4313      	orrs	r3, r2
24058bf8:	6003      	str	r3, [r0, #0]
24058bfa:	688b      	ldr	r3, [r1, #8]
24058bfc:	62c3      	str	r3, [r0, #44]	; 0x2c
24058bfe:	680b      	ldr	r3, [r1, #0]
24058c00:	6283      	str	r3, [r0, #40]	; 0x28
24058c02:	4b0c      	ldr	r3, [pc, #48]	; (24058c34 <TIM_Base_SetConfig+0xc4>)
24058c04:	4298      	cmp	r0, r3
24058c06:	d00f      	beq.n	24058c28 <TIM_Base_SetConfig+0xb8>
24058c08:	f503 6380 	add.w	r3, r3, #1024	; 0x400
24058c0c:	4298      	cmp	r0, r3
24058c0e:	d00b      	beq.n	24058c28 <TIM_Base_SetConfig+0xb8>
24058c10:	f503 5370 	add.w	r3, r3, #15360	; 0x3c00
24058c14:	4298      	cmp	r0, r3
24058c16:	d007      	beq.n	24058c28 <TIM_Base_SetConfig+0xb8>
24058c18:	f503 6380 	add.w	r3, r3, #1024	; 0x400
24058c1c:	4298      	cmp	r0, r3
24058c1e:	d003      	beq.n	24058c28 <TIM_Base_SetConfig+0xb8>
24058c20:	f503 6380 	add.w	r3, r3, #1024	; 0x400
24058c24:	4298      	cmp	r0, r3
24058c26:	d101      	bne.n	24058c2c <TIM_Base_SetConfig+0xbc>
24058c28:	690b      	ldr	r3, [r1, #16]
24058c2a:	6303      	str	r3, [r0, #48]	; 0x30
24058c2c:	2301      	movs	r3, #1
24058c2e:	6143      	str	r3, [r0, #20]
24058c30:	4770      	bx	lr
24058c32:	bf00      	nop
24058c34:	40010000 	.word	0x40010000
24058c38:	40014000 	.word	0x40014000

24058c3c <HAL_TIM_Base_Init>:
24058c3c:	b510      	push	{r4, lr}
24058c3e:	4604      	mov	r4, r0
24058c40:	b350      	cbz	r0, 24058c98 <HAL_TIM_Base_Init+0x5c>
24058c42:	f890 303d 	ldrb.w	r3, [r0, #61]	; 0x3d
24058c46:	f003 02ff 	and.w	r2, r3, #255	; 0xff
24058c4a:	b91b      	cbnz	r3, 24058c54 <HAL_TIM_Base_Init+0x18>
24058c4c:	f880 203c 	strb.w	r2, [r0, #60]	; 0x3c
24058c50:	f7f9 fc3c 	bl	240524cc <HAL_TIM_Base_MspInit>
24058c54:	2302      	movs	r3, #2
24058c56:	6820      	ldr	r0, [r4, #0]
24058c58:	1d21      	adds	r1, r4, #4
24058c5a:	f884 303d 	strb.w	r3, [r4, #61]	; 0x3d
24058c5e:	f7ff ff87 	bl	24058b70 <TIM_Base_SetConfig>
24058c62:	2301      	movs	r3, #1
24058c64:	2000      	movs	r0, #0
24058c66:	f884 3048 	strb.w	r3, [r4, #72]	; 0x48
24058c6a:	f884 303e 	strb.w	r3, [r4, #62]	; 0x3e
24058c6e:	f884 303f 	strb.w	r3, [r4, #63]	; 0x3f
24058c72:	f884 3040 	strb.w	r3, [r4, #64]	; 0x40
24058c76:	f884 3041 	strb.w	r3, [r4, #65]	; 0x41
24058c7a:	f884 3042 	strb.w	r3, [r4, #66]	; 0x42
24058c7e:	f884 3043 	strb.w	r3, [r4, #67]	; 0x43
24058c82:	f884 3044 	strb.w	r3, [r4, #68]	; 0x44
24058c86:	f884 3045 	strb.w	r3, [r4, #69]	; 0x45
24058c8a:	f884 3046 	strb.w	r3, [r4, #70]	; 0x46
24058c8e:	f884 3047 	strb.w	r3, [r4, #71]	; 0x47
24058c92:	f884 303d 	strb.w	r3, [r4, #61]	; 0x3d
24058c96:	bd10      	pop	{r4, pc}
24058c98:	2001      	movs	r0, #1
24058c9a:	e7fc      	b.n	24058c96 <HAL_TIM_Base_Init+0x5a>

24058c9c <TIM_ETR_SetConfig>:
24058c9c:	4311      	orrs	r1, r2
24058c9e:	b510      	push	{r4, lr}
24058ca0:	6884      	ldr	r4, [r0, #8]
24058ca2:	ea41 2303 	orr.w	r3, r1, r3, lsl #8
24058ca6:	f424 447f 	bic.w	r4, r4, #65280	; 0xff00
24058caa:	4323      	orrs	r3, r4
24058cac:	6083      	str	r3, [r0, #8]
24058cae:	bd10      	pop	{r4, pc}

24058cb0 <HAL_TIM_ConfigClockSource>:
24058cb0:	b538      	push	{r3, r4, r5, lr}
24058cb2:	f890 303c 	ldrb.w	r3, [r0, #60]	; 0x3c
24058cb6:	4604      	mov	r4, r0
24058cb8:	2b01      	cmp	r3, #1
24058cba:	f04f 0302 	mov.w	r3, #2
24058cbe:	f000 80aa 	beq.w	24058e16 <HAL_TIM_ConfigClockSource+0x166>
24058cc2:	2201      	movs	r2, #1
24058cc4:	f880 303d 	strb.w	r3, [r0, #61]	; 0x3d
24058cc8:	4b54      	ldr	r3, [pc, #336]	; (24058e1c <HAL_TIM_ConfigClockSource+0x16c>)
24058cca:	f880 203c 	strb.w	r2, [r0, #60]	; 0x3c
24058cce:	6800      	ldr	r0, [r0, #0]
24058cd0:	6885      	ldr	r5, [r0, #8]
24058cd2:	402b      	ands	r3, r5
24058cd4:	6083      	str	r3, [r0, #8]
24058cd6:	680b      	ldr	r3, [r1, #0]
24058cd8:	2b70      	cmp	r3, #112	; 0x70
24058cda:	d056      	beq.n	24058d8a <HAL_TIM_ConfigClockSource+0xda>
24058cdc:	d83c      	bhi.n	24058d58 <HAL_TIM_ConfigClockSource+0xa8>
24058cde:	2b50      	cmp	r3, #80	; 0x50
24058ce0:	d067      	beq.n	24058db2 <HAL_TIM_ConfigClockSource+0x102>
24058ce2:	d81d      	bhi.n	24058d20 <HAL_TIM_ConfigClockSource+0x70>
24058ce4:	2b40      	cmp	r3, #64	; 0x40
24058ce6:	d07d      	beq.n	24058de4 <HAL_TIM_ConfigClockSource+0x134>
24058ce8:	d806      	bhi.n	24058cf8 <HAL_TIM_ConfigClockSource+0x48>
24058cea:	2b20      	cmp	r3, #32
24058cec:	d00e      	beq.n	24058d0c <HAL_TIM_ConfigClockSource+0x5c>
24058cee:	d80b      	bhi.n	24058d08 <HAL_TIM_ConfigClockSource+0x58>
24058cf0:	f033 0210 	bics.w	r2, r3, #16
24058cf4:	d00a      	beq.n	24058d0c <HAL_TIM_ConfigClockSource+0x5c>
24058cf6:	2201      	movs	r2, #1
24058cf8:	2301      	movs	r3, #1
24058cfa:	f884 303d 	strb.w	r3, [r4, #61]	; 0x3d
24058cfe:	2300      	movs	r3, #0
24058d00:	f884 303c 	strb.w	r3, [r4, #60]	; 0x3c
24058d04:	4610      	mov	r0, r2
24058d06:	bd38      	pop	{r3, r4, r5, pc}
24058d08:	2b30      	cmp	r3, #48	; 0x30
24058d0a:	d1f4      	bne.n	24058cf6 <HAL_TIM_ConfigClockSource+0x46>
24058d0c:	6882      	ldr	r2, [r0, #8]
24058d0e:	f422 1240 	bic.w	r2, r2, #3145728	; 0x300000
24058d12:	f022 0270 	bic.w	r2, r2, #112	; 0x70
24058d16:	431a      	orrs	r2, r3
24058d18:	f042 0207 	orr.w	r2, r2, #7
24058d1c:	6082      	str	r2, [r0, #8]
24058d1e:	e03d      	b.n	24058d9c <HAL_TIM_ConfigClockSource+0xec>
24058d20:	2b60      	cmp	r3, #96	; 0x60
24058d22:	d1e9      	bne.n	24058cf8 <HAL_TIM_ConfigClockSource+0x48>
24058d24:	6a03      	ldr	r3, [r0, #32]
24058d26:	684d      	ldr	r5, [r1, #4]
24058d28:	f023 0310 	bic.w	r3, r3, #16
24058d2c:	68c9      	ldr	r1, [r1, #12]
24058d2e:	6203      	str	r3, [r0, #32]
24058d30:	6982      	ldr	r2, [r0, #24]
24058d32:	6a03      	ldr	r3, [r0, #32]
24058d34:	f422 4270 	bic.w	r2, r2, #61440	; 0xf000
24058d38:	f023 03a0 	bic.w	r3, r3, #160	; 0xa0
24058d3c:	ea42 3201 	orr.w	r2, r2, r1, lsl #12
24058d40:	ea43 1305 	orr.w	r3, r3, r5, lsl #4
24058d44:	6182      	str	r2, [r0, #24]
24058d46:	6203      	str	r3, [r0, #32]
24058d48:	6883      	ldr	r3, [r0, #8]
24058d4a:	f423 1340 	bic.w	r3, r3, #3145728	; 0x300000
24058d4e:	f023 0370 	bic.w	r3, r3, #112	; 0x70
24058d52:	f043 0367 	orr.w	r3, r3, #103	; 0x67
24058d56:	e020      	b.n	24058d9a <HAL_TIM_ConfigClockSource+0xea>
24058d58:	f5b3 5f00 	cmp.w	r3, #8192	; 0x2000
24058d5c:	d020      	beq.n	24058da0 <HAL_TIM_ConfigClockSource+0xf0>
24058d5e:	d804      	bhi.n	24058d6a <HAL_TIM_ConfigClockSource+0xba>
24058d60:	f5b3 5280 	subs.w	r2, r3, #4096	; 0x1000
24058d64:	bf18      	it	ne
24058d66:	2201      	movne	r2, #1
24058d68:	e7c6      	b.n	24058cf8 <HAL_TIM_ConfigClockSource+0x48>
24058d6a:	492d      	ldr	r1, [pc, #180]	; (24058e20 <HAL_TIM_ConfigClockSource+0x170>)
24058d6c:	428b      	cmp	r3, r1
24058d6e:	d0cd      	beq.n	24058d0c <HAL_TIM_ConfigClockSource+0x5c>
24058d70:	d805      	bhi.n	24058d7e <HAL_TIM_ConfigClockSource+0xce>
24058d72:	f023 0110 	bic.w	r1, r3, #16
24058d76:	f5b1 1f80 	cmp.w	r1, #1048576	; 0x100000
24058d7a:	d0c7      	beq.n	24058d0c <HAL_TIM_ConfigClockSource+0x5c>
24058d7c:	e7bc      	b.n	24058cf8 <HAL_TIM_ConfigClockSource+0x48>
24058d7e:	4929      	ldr	r1, [pc, #164]	; (24058e24 <HAL_TIM_ConfigClockSource+0x174>)
24058d80:	428b      	cmp	r3, r1
24058d82:	d0c3      	beq.n	24058d0c <HAL_TIM_ConfigClockSource+0x5c>
24058d84:	3110      	adds	r1, #16
24058d86:	428b      	cmp	r3, r1
24058d88:	e7f7      	b.n	24058d7a <HAL_TIM_ConfigClockSource+0xca>
24058d8a:	68cb      	ldr	r3, [r1, #12]
24058d8c:	e9d1 2101 	ldrd	r2, r1, [r1, #4]
24058d90:	f7ff ff84 	bl	24058c9c <TIM_ETR_SetConfig>
24058d94:	6883      	ldr	r3, [r0, #8]
24058d96:	f043 0377 	orr.w	r3, r3, #119	; 0x77
24058d9a:	6083      	str	r3, [r0, #8]
24058d9c:	2200      	movs	r2, #0
24058d9e:	e7ab      	b.n	24058cf8 <HAL_TIM_ConfigClockSource+0x48>
24058da0:	68cb      	ldr	r3, [r1, #12]
24058da2:	e9d1 2101 	ldrd	r2, r1, [r1, #4]
24058da6:	f7ff ff79 	bl	24058c9c <TIM_ETR_SetConfig>
24058daa:	6883      	ldr	r3, [r0, #8]
24058dac:	f443 4380 	orr.w	r3, r3, #16384	; 0x4000
24058db0:	e7f3      	b.n	24058d9a <HAL_TIM_ConfigClockSource+0xea>
24058db2:	684a      	ldr	r2, [r1, #4]
24058db4:	68cd      	ldr	r5, [r1, #12]
24058db6:	6a01      	ldr	r1, [r0, #32]
24058db8:	6a03      	ldr	r3, [r0, #32]
24058dba:	f021 010a 	bic.w	r1, r1, #10
24058dbe:	f023 0301 	bic.w	r3, r3, #1
24058dc2:	430a      	orrs	r2, r1
24058dc4:	6203      	str	r3, [r0, #32]
24058dc6:	6983      	ldr	r3, [r0, #24]
24058dc8:	f023 03f0 	bic.w	r3, r3, #240	; 0xf0
24058dcc:	ea43 1305 	orr.w	r3, r3, r5, lsl #4
24058dd0:	6183      	str	r3, [r0, #24]
24058dd2:	6202      	str	r2, [r0, #32]
24058dd4:	6883      	ldr	r3, [r0, #8]
24058dd6:	f423 1340 	bic.w	r3, r3, #3145728	; 0x300000
24058dda:	f023 0370 	bic.w	r3, r3, #112	; 0x70
24058dde:	f043 0357 	orr.w	r3, r3, #87	; 0x57
24058de2:	e7da      	b.n	24058d9a <HAL_TIM_ConfigClockSource+0xea>
24058de4:	684a      	ldr	r2, [r1, #4]
24058de6:	68cd      	ldr	r5, [r1, #12]
24058de8:	6a01      	ldr	r1, [r0, #32]
24058dea:	6a03      	ldr	r3, [r0, #32]
24058dec:	f021 010a 	bic.w	r1, r1, #10
24058df0:	f023 0301 	bic.w	r3, r3, #1
24058df4:	430a      	orrs	r2, r1
24058df6:	6203      	str	r3, [r0, #32]
24058df8:	6983      	ldr	r3, [r0, #24]
24058dfa:	f023 03f0 	bic.w	r3, r3, #240	; 0xf0
24058dfe:	ea43 1305 	orr.w	r3, r3, r5, lsl #4
24058e02:	6183      	str	r3, [r0, #24]
24058e04:	6202      	str	r2, [r0, #32]
24058e06:	6883      	ldr	r3, [r0, #8]
24058e08:	f423 1340 	bic.w	r3, r3, #3145728	; 0x300000
24058e0c:	f023 0370 	bic.w	r3, r3, #112	; 0x70
24058e10:	f043 0347 	orr.w	r3, r3, #71	; 0x47
24058e14:	e7c1      	b.n	24058d9a <HAL_TIM_ConfigClockSource+0xea>
24058e16:	461a      	mov	r2, r3
24058e18:	e774      	b.n	24058d04 <HAL_TIM_ConfigClockSource+0x54>
24058e1a:	bf00      	nop
24058e1c:	ffce0088 	.word	0xffce0088
24058e20:	00100020 	.word	0x00100020
24058e24:	00100030 	.word	0x00100030

24058e28 <HAL_TIMEx_MasterConfigSynchronization>:
24058e28:	b570      	push	{r4, r5, r6, lr}
24058e2a:	f890 303c 	ldrb.w	r3, [r0, #60]	; 0x3c
24058e2e:	2b01      	cmp	r3, #1
24058e30:	f04f 0302 	mov.w	r3, #2
24058e34:	d03b      	beq.n	24058eae <HAL_TIMEx_MasterConfigSynchronization+0x86>
24058e36:	f880 303d 	strb.w	r3, [r0, #61]	; 0x3d
24058e3a:	4d1e      	ldr	r5, [pc, #120]	; (24058eb4 <HAL_TIMEx_MasterConfigSynchronization+0x8c>)
24058e3c:	6803      	ldr	r3, [r0, #0]
24058e3e:	42ab      	cmp	r3, r5
24058e40:	685a      	ldr	r2, [r3, #4]
24058e42:	689c      	ldr	r4, [r3, #8]
24058e44:	d002      	beq.n	24058e4c <HAL_TIMEx_MasterConfigSynchronization+0x24>
24058e46:	4e1c      	ldr	r6, [pc, #112]	; (24058eb8 <HAL_TIMEx_MasterConfigSynchronization+0x90>)
24058e48:	42b3      	cmp	r3, r6
24058e4a:	d103      	bne.n	24058e54 <HAL_TIMEx_MasterConfigSynchronization+0x2c>
24058e4c:	f422 0270 	bic.w	r2, r2, #15728640	; 0xf00000
24058e50:	684e      	ldr	r6, [r1, #4]
24058e52:	4332      	orrs	r2, r6
24058e54:	680e      	ldr	r6, [r1, #0]
24058e56:	f022 0270 	bic.w	r2, r2, #112	; 0x70
24058e5a:	42ab      	cmp	r3, r5
24058e5c:	ea42 0206 	orr.w	r2, r2, r6
24058e60:	605a      	str	r2, [r3, #4]
24058e62:	d019      	beq.n	24058e98 <HAL_TIMEx_MasterConfigSynchronization+0x70>
24058e64:	f1b3 4f80 	cmp.w	r3, #1073741824	; 0x40000000
24058e68:	d016      	beq.n	24058e98 <HAL_TIMEx_MasterConfigSynchronization+0x70>
24058e6a:	4a14      	ldr	r2, [pc, #80]	; (24058ebc <HAL_TIMEx_MasterConfigSynchronization+0x94>)
24058e6c:	4293      	cmp	r3, r2
24058e6e:	d013      	beq.n	24058e98 <HAL_TIMEx_MasterConfigSynchronization+0x70>
24058e70:	f502 6280 	add.w	r2, r2, #1024	; 0x400
24058e74:	4293      	cmp	r3, r2
24058e76:	d00f      	beq.n	24058e98 <HAL_TIMEx_MasterConfigSynchronization+0x70>
24058e78:	f502 6280 	add.w	r2, r2, #1024	; 0x400
24058e7c:	4293      	cmp	r3, r2
24058e7e:	d00b      	beq.n	24058e98 <HAL_TIMEx_MasterConfigSynchronization+0x70>
24058e80:	f502 4278 	add.w	r2, r2, #63488	; 0xf800
24058e84:	4293      	cmp	r3, r2
24058e86:	d007      	beq.n	24058e98 <HAL_TIMEx_MasterConfigSynchronization+0x70>
24058e88:	f5a2 426c 	sub.w	r2, r2, #60416	; 0xec00
24058e8c:	4293      	cmp	r3, r2
24058e8e:	d003      	beq.n	24058e98 <HAL_TIMEx_MasterConfigSynchronization+0x70>
24058e90:	f502 3294 	add.w	r2, r2, #75776	; 0x12800
24058e94:	4293      	cmp	r3, r2
24058e96:	d104      	bne.n	24058ea2 <HAL_TIMEx_MasterConfigSynchronization+0x7a>
24058e98:	6889      	ldr	r1, [r1, #8]
24058e9a:	f024 0280 	bic.w	r2, r4, #128	; 0x80
24058e9e:	430a      	orrs	r2, r1
24058ea0:	609a      	str	r2, [r3, #8]
24058ea2:	2301      	movs	r3, #1
24058ea4:	f880 303d 	strb.w	r3, [r0, #61]	; 0x3d
24058ea8:	2300      	movs	r3, #0
24058eaa:	f880 303c 	strb.w	r3, [r0, #60]	; 0x3c
24058eae:	4618      	mov	r0, r3
24058eb0:	bd70      	pop	{r4, r5, r6, pc}
24058eb2:	bf00      	nop
24058eb4:	40010000 	.word	0x40010000
24058eb8:	40010400 	.word	0x40010400
24058ebc:	40000400 	.word	0x40000400

24058ec0 <HAL_TIMEx_CommutCallback>:
24058ec0:	4770      	bx	lr

24058ec2 <HAL_TIMEx_BreakCallback>:
24058ec2:	4770      	bx	lr

24058ec4 <HAL_TIMEx_Break2Callback>:
24058ec4:	4770      	bx	lr
	...

24058ec8 <__assert_func>:
24058ec8:	b51f      	push	{r0, r1, r2, r3, r4, lr}
24058eca:	4614      	mov	r4, r2
24058ecc:	461a      	mov	r2, r3
24058ece:	4b09      	ldr	r3, [pc, #36]	; (24058ef4 <__assert_func+0x2c>)
24058ed0:	681b      	ldr	r3, [r3, #0]
24058ed2:	4605      	mov	r5, r0
24058ed4:	68d8      	ldr	r0, [r3, #12]
24058ed6:	b14c      	cbz	r4, 24058eec <__assert_func+0x24>
24058ed8:	4b07      	ldr	r3, [pc, #28]	; (24058ef8 <__assert_func+0x30>)
24058eda:	9100      	str	r1, [sp, #0]
24058edc:	e9cd 3401 	strd	r3, r4, [sp, #4]
24058ee0:	4906      	ldr	r1, [pc, #24]	; (24058efc <__assert_func+0x34>)
24058ee2:	462b      	mov	r3, r5
24058ee4:	f000 f91e 	bl	24059124 <fiprintf>
24058ee8:	f000 fb5d 	bl	240595a6 <abort>
24058eec:	4b04      	ldr	r3, [pc, #16]	; (24058f00 <__assert_func+0x38>)
24058eee:	461c      	mov	r4, r3
24058ef0:	e7f3      	b.n	24058eda <__assert_func+0x12>
24058ef2:	bf00      	nop
24058ef4:	200000ac 	.word	0x200000ac
24058ef8:	2405bb47 	.word	0x2405bb47
24058efc:	2405bb54 	.word	0x2405bb54
24058f00:	2405b5d7 	.word	0x2405b5d7

24058f04 <srand>:
24058f04:	b538      	push	{r3, r4, r5, lr}
24058f06:	4b10      	ldr	r3, [pc, #64]	; (24058f48 <srand+0x44>)
24058f08:	681d      	ldr	r5, [r3, #0]
24058f0a:	6b2b      	ldr	r3, [r5, #48]	; 0x30
24058f0c:	4604      	mov	r4, r0
24058f0e:	b9b3      	cbnz	r3, 24058f3e <srand+0x3a>
24058f10:	2018      	movs	r0, #24
24058f12:	f000 fb9b 	bl	2405964c <malloc>
24058f16:	4602      	mov	r2, r0
24058f18:	6328      	str	r0, [r5, #48]	; 0x30
24058f1a:	b920      	cbnz	r0, 24058f26 <srand+0x22>
24058f1c:	4b0b      	ldr	r3, [pc, #44]	; (24058f4c <srand+0x48>)
24058f1e:	480c      	ldr	r0, [pc, #48]	; (24058f50 <srand+0x4c>)
24058f20:	2146      	movs	r1, #70	; 0x46
24058f22:	f7ff ffd1 	bl	24058ec8 <__assert_func>
24058f26:	490b      	ldr	r1, [pc, #44]	; (24058f54 <srand+0x50>)
24058f28:	4b0b      	ldr	r3, [pc, #44]	; (24058f58 <srand+0x54>)
24058f2a:	e9c0 1300 	strd	r1, r3, [r0]
24058f2e:	4b0b      	ldr	r3, [pc, #44]	; (24058f5c <srand+0x58>)
24058f30:	6083      	str	r3, [r0, #8]
24058f32:	230b      	movs	r3, #11
24058f34:	8183      	strh	r3, [r0, #12]
24058f36:	2100      	movs	r1, #0
24058f38:	2001      	movs	r0, #1
24058f3a:	e9c2 0104 	strd	r0, r1, [r2, #16]
24058f3e:	6b2b      	ldr	r3, [r5, #48]	; 0x30
24058f40:	2200      	movs	r2, #0
24058f42:	611c      	str	r4, [r3, #16]
24058f44:	615a      	str	r2, [r3, #20]
24058f46:	bd38      	pop	{r3, r4, r5, pc}
24058f48:	200000ac 	.word	0x200000ac
24058f4c:	2405bb83 	.word	0x2405bb83
24058f50:	2405bb9a 	.word	0x2405bb9a
24058f54:	abcd330e 	.word	0xabcd330e
24058f58:	e66d1234 	.word	0xe66d1234
24058f5c:	0005deec 	.word	0x0005deec

24058f60 <rand>:
24058f60:	4b16      	ldr	r3, [pc, #88]	; (24058fbc <rand+0x5c>)
24058f62:	b510      	push	{r4, lr}
24058f64:	681c      	ldr	r4, [r3, #0]
24058f66:	6b23      	ldr	r3, [r4, #48]	; 0x30
24058f68:	b9b3      	cbnz	r3, 24058f98 <rand+0x38>
24058f6a:	2018      	movs	r0, #24
24058f6c:	f000 fb6e 	bl	2405964c <malloc>
24058f70:	4602      	mov	r2, r0
24058f72:	6320      	str	r0, [r4, #48]	; 0x30
24058f74:	b920      	cbnz	r0, 24058f80 <rand+0x20>
24058f76:	4b12      	ldr	r3, [pc, #72]	; (24058fc0 <rand+0x60>)
24058f78:	4812      	ldr	r0, [pc, #72]	; (24058fc4 <rand+0x64>)
24058f7a:	2152      	movs	r1, #82	; 0x52
24058f7c:	f7ff ffa4 	bl	24058ec8 <__assert_func>
24058f80:	4911      	ldr	r1, [pc, #68]	; (24058fc8 <rand+0x68>)
24058f82:	4b12      	ldr	r3, [pc, #72]	; (24058fcc <rand+0x6c>)
24058f84:	e9c0 1300 	strd	r1, r3, [r0]
24058f88:	4b11      	ldr	r3, [pc, #68]	; (24058fd0 <rand+0x70>)
24058f8a:	6083      	str	r3, [r0, #8]
24058f8c:	230b      	movs	r3, #11
24058f8e:	8183      	strh	r3, [r0, #12]
24058f90:	2100      	movs	r1, #0
24058f92:	2001      	movs	r0, #1
24058f94:	e9c2 0104 	strd	r0, r1, [r2, #16]
24058f98:	6b21      	ldr	r1, [r4, #48]	; 0x30
24058f9a:	480e      	ldr	r0, [pc, #56]	; (24058fd4 <rand+0x74>)
24058f9c:	690b      	ldr	r3, [r1, #16]
24058f9e:	694c      	ldr	r4, [r1, #20]
24058fa0:	4a0d      	ldr	r2, [pc, #52]	; (24058fd8 <rand+0x78>)
24058fa2:	4358      	muls	r0, r3
24058fa4:	fb02 0004 	mla	r0, r2, r4, r0
24058fa8:	fba3 3202 	umull	r3, r2, r3, r2
24058fac:	3301      	adds	r3, #1
24058fae:	eb40 0002 	adc.w	r0, r0, r2
24058fb2:	e9c1 3004 	strd	r3, r0, [r1, #16]
24058fb6:	f020 4000 	bic.w	r0, r0, #2147483648	; 0x80000000
24058fba:	bd10      	pop	{r4, pc}
24058fbc:	200000ac 	.word	0x200000ac
24058fc0:	2405bb83 	.word	0x2405bb83
24058fc4:	2405bb9a 	.word	0x2405bb9a
24058fc8:	abcd330e 	.word	0xabcd330e
24058fcc:	e66d1234 	.word	0xe66d1234
24058fd0:	0005deec 	.word	0x0005deec
24058fd4:	5851f42d 	.word	0x5851f42d
24058fd8:	4c957f2d 	.word	0x4c957f2d

24058fdc <std>:
24058fdc:	2300      	movs	r3, #0
24058fde:	b510      	push	{r4, lr}
24058fe0:	4604      	mov	r4, r0
24058fe2:	e9c0 3300 	strd	r3, r3, [r0]
24058fe6:	e9c0 3304 	strd	r3, r3, [r0, #16]
24058fea:	6083      	str	r3, [r0, #8]
24058fec:	8181      	strh	r1, [r0, #12]
24058fee:	6643      	str	r3, [r0, #100]	; 0x64
24058ff0:	81c2      	strh	r2, [r0, #14]
24058ff2:	6183      	str	r3, [r0, #24]
24058ff4:	4619      	mov	r1, r3
24058ff6:	2208      	movs	r2, #8
24058ff8:	305c      	adds	r0, #92	; 0x5c
24058ffa:	f000 fa43 	bl	24059484 <memset>
24058ffe:	4b0d      	ldr	r3, [pc, #52]	; (24059034 <std+0x58>)
24059000:	6263      	str	r3, [r4, #36]	; 0x24
24059002:	4b0d      	ldr	r3, [pc, #52]	; (24059038 <std+0x5c>)
24059004:	62a3      	str	r3, [r4, #40]	; 0x28
24059006:	4b0d      	ldr	r3, [pc, #52]	; (2405903c <std+0x60>)
24059008:	62e3      	str	r3, [r4, #44]	; 0x2c
2405900a:	4b0d      	ldr	r3, [pc, #52]	; (24059040 <std+0x64>)
2405900c:	6323      	str	r3, [r4, #48]	; 0x30
2405900e:	4b0d      	ldr	r3, [pc, #52]	; (24059044 <std+0x68>)
24059010:	6224      	str	r4, [r4, #32]
24059012:	429c      	cmp	r4, r3
24059014:	d006      	beq.n	24059024 <std+0x48>
24059016:	f103 0268 	add.w	r2, r3, #104	; 0x68
2405901a:	4294      	cmp	r4, r2
2405901c:	d002      	beq.n	24059024 <std+0x48>
2405901e:	33d0      	adds	r3, #208	; 0xd0
24059020:	429c      	cmp	r4, r3
24059022:	d105      	bne.n	24059030 <std+0x54>
24059024:	f104 0058 	add.w	r0, r4, #88	; 0x58
24059028:	e8bd 4010 	ldmia.w	sp!, {r4, lr}
2405902c:	f000 baa2 	b.w	24059574 <__retarget_lock_init_recursive>
24059030:	bd10      	pop	{r4, pc}
24059032:	bf00      	nop
24059034:	240592a1 	.word	0x240592a1
24059038:	240592c3 	.word	0x240592c3
2405903c:	240592fb 	.word	0x240592fb
24059040:	2405931f 	.word	0x2405931f
24059044:	20000620 	.word	0x20000620

24059048 <stdio_exit_handler>:
24059048:	4a02      	ldr	r2, [pc, #8]	; (24059054 <stdio_exit_handler+0xc>)
2405904a:	4903      	ldr	r1, [pc, #12]	; (24059058 <stdio_exit_handler+0x10>)
2405904c:	4803      	ldr	r0, [pc, #12]	; (2405905c <stdio_exit_handler+0x14>)
2405904e:	f000 b87b 	b.w	24059148 <_fwalk_sglue>
24059052:	bf00      	nop
24059054:	20000054 	.word	0x20000054
24059058:	2405a119 	.word	0x2405a119
2405905c:	20000060 	.word	0x20000060

24059060 <cleanup_stdio>:
24059060:	6841      	ldr	r1, [r0, #4]
24059062:	4b0c      	ldr	r3, [pc, #48]	; (24059094 <cleanup_stdio+0x34>)
24059064:	4299      	cmp	r1, r3
24059066:	b510      	push	{r4, lr}
24059068:	4604      	mov	r4, r0
2405906a:	d001      	beq.n	24059070 <cleanup_stdio+0x10>
2405906c:	f001 f854 	bl	2405a118 <_fflush_r>
24059070:	68a1      	ldr	r1, [r4, #8]
24059072:	4b09      	ldr	r3, [pc, #36]	; (24059098 <cleanup_stdio+0x38>)
24059074:	4299      	cmp	r1, r3
24059076:	d002      	beq.n	2405907e <cleanup_stdio+0x1e>
24059078:	4620      	mov	r0, r4
2405907a:	f001 f84d 	bl	2405a118 <_fflush_r>
2405907e:	68e1      	ldr	r1, [r4, #12]
24059080:	4b06      	ldr	r3, [pc, #24]	; (2405909c <cleanup_stdio+0x3c>)
24059082:	4299      	cmp	r1, r3
24059084:	d004      	beq.n	24059090 <cleanup_stdio+0x30>
24059086:	4620      	mov	r0, r4
24059088:	e8bd 4010 	ldmia.w	sp!, {r4, lr}
2405908c:	f001 b844 	b.w	2405a118 <_fflush_r>
24059090:	bd10      	pop	{r4, pc}
24059092:	bf00      	nop
24059094:	20000620 	.word	0x20000620
24059098:	20000688 	.word	0x20000688
2405909c:	200006f0 	.word	0x200006f0

240590a0 <global_stdio_init.part.0>:
240590a0:	b510      	push	{r4, lr}
240590a2:	4b0b      	ldr	r3, [pc, #44]	; (240590d0 <global_stdio_init.part.0+0x30>)
240590a4:	4c0b      	ldr	r4, [pc, #44]	; (240590d4 <global_stdio_init.part.0+0x34>)
240590a6:	4a0c      	ldr	r2, [pc, #48]	; (240590d8 <global_stdio_init.part.0+0x38>)
240590a8:	601a      	str	r2, [r3, #0]
240590aa:	4620      	mov	r0, r4
240590ac:	2200      	movs	r2, #0
240590ae:	2104      	movs	r1, #4
240590b0:	f7ff ff94 	bl	24058fdc <std>
240590b4:	f104 0068 	add.w	r0, r4, #104	; 0x68
240590b8:	2201      	movs	r2, #1
240590ba:	2109      	movs	r1, #9
240590bc:	f7ff ff8e 	bl	24058fdc <std>
240590c0:	f104 00d0 	add.w	r0, r4, #208	; 0xd0
240590c4:	2202      	movs	r2, #2
240590c6:	e8bd 4010 	ldmia.w	sp!, {r4, lr}
240590ca:	2112      	movs	r1, #18
240590cc:	f7ff bf86 	b.w	24058fdc <std>
240590d0:	20000758 	.word	0x20000758
240590d4:	20000620 	.word	0x20000620
240590d8:	24059049 	.word	0x24059049

240590dc <__sfp_lock_acquire>:
240590dc:	4801      	ldr	r0, [pc, #4]	; (240590e4 <__sfp_lock_acquire+0x8>)
240590de:	f000 ba4a 	b.w	24059576 <__retarget_lock_acquire_recursive>
240590e2:	bf00      	nop
240590e4:	20000761 	.word	0x20000761

240590e8 <__sfp_lock_release>:
240590e8:	4801      	ldr	r0, [pc, #4]	; (240590f0 <__sfp_lock_release+0x8>)
240590ea:	f000 ba45 	b.w	24059578 <__retarget_lock_release_recursive>
240590ee:	bf00      	nop
240590f0:	20000761 	.word	0x20000761

240590f4 <__sinit>:
240590f4:	b510      	push	{r4, lr}
240590f6:	4604      	mov	r4, r0
240590f8:	f7ff fff0 	bl	240590dc <__sfp_lock_acquire>
240590fc:	6a23      	ldr	r3, [r4, #32]
240590fe:	b11b      	cbz	r3, 24059108 <__sinit+0x14>
24059100:	e8bd 4010 	ldmia.w	sp!, {r4, lr}
24059104:	f7ff bff0 	b.w	240590e8 <__sfp_lock_release>
24059108:	4b04      	ldr	r3, [pc, #16]	; (2405911c <__sinit+0x28>)
2405910a:	6223      	str	r3, [r4, #32]
2405910c:	4b04      	ldr	r3, [pc, #16]	; (24059120 <__sinit+0x2c>)
2405910e:	681b      	ldr	r3, [r3, #0]
24059110:	2b00      	cmp	r3, #0
24059112:	d1f5      	bne.n	24059100 <__sinit+0xc>
24059114:	f7ff ffc4 	bl	240590a0 <global_stdio_init.part.0>
24059118:	e7f2      	b.n	24059100 <__sinit+0xc>
2405911a:	bf00      	nop
2405911c:	24059061 	.word	0x24059061
24059120:	20000758 	.word	0x20000758

24059124 <fiprintf>:
24059124:	b40e      	push	{r1, r2, r3}
24059126:	b503      	push	{r0, r1, lr}
24059128:	4601      	mov	r1, r0
2405912a:	ab03      	add	r3, sp, #12
2405912c:	4805      	ldr	r0, [pc, #20]	; (24059144 <fiprintf+0x20>)
2405912e:	f853 2b04 	ldr.w	r2, [r3], #4
24059132:	6800      	ldr	r0, [r0, #0]
24059134:	9301      	str	r3, [sp, #4]
24059136:	f000 fcbf 	bl	24059ab8 <_vfiprintf_r>
2405913a:	b002      	add	sp, #8
2405913c:	f85d eb04 	ldr.w	lr, [sp], #4
24059140:	b003      	add	sp, #12
24059142:	4770      	bx	lr
24059144:	200000ac 	.word	0x200000ac

24059148 <_fwalk_sglue>:
24059148:	e92d 43f8 	stmdb	sp!, {r3, r4, r5, r6, r7, r8, r9, lr}
2405914c:	4607      	mov	r7, r0
2405914e:	4688      	mov	r8, r1
24059150:	4614      	mov	r4, r2
24059152:	2600      	movs	r6, #0
24059154:	e9d4 9501 	ldrd	r9, r5, [r4, #4]
24059158:	f1b9 0901 	subs.w	r9, r9, #1
2405915c:	d505      	bpl.n	2405916a <_fwalk_sglue+0x22>
2405915e:	6824      	ldr	r4, [r4, #0]
24059160:	2c00      	cmp	r4, #0
24059162:	d1f7      	bne.n	24059154 <_fwalk_sglue+0xc>
24059164:	4630      	mov	r0, r6
24059166:	e8bd 83f8 	ldmia.w	sp!, {r3, r4, r5, r6, r7, r8, r9, pc}
2405916a:	89ab      	ldrh	r3, [r5, #12]
2405916c:	2b01      	cmp	r3, #1
2405916e:	d907      	bls.n	24059180 <_fwalk_sglue+0x38>
24059170:	f9b5 300e 	ldrsh.w	r3, [r5, #14]
24059174:	3301      	adds	r3, #1
24059176:	d003      	beq.n	24059180 <_fwalk_sglue+0x38>
24059178:	4629      	mov	r1, r5
2405917a:	4638      	mov	r0, r7
2405917c:	47c0      	blx	r8
2405917e:	4306      	orrs	r6, r0
24059180:	3568      	adds	r5, #104	; 0x68
24059182:	e7e9      	b.n	24059158 <_fwalk_sglue+0x10>

24059184 <iprintf>:
24059184:	b40f      	push	{r0, r1, r2, r3}
24059186:	b507      	push	{r0, r1, r2, lr}
24059188:	4906      	ldr	r1, [pc, #24]	; (240591a4 <iprintf+0x20>)
2405918a:	ab04      	add	r3, sp, #16
2405918c:	6808      	ldr	r0, [r1, #0]
2405918e:	f853 2b04 	ldr.w	r2, [r3], #4
24059192:	6881      	ldr	r1, [r0, #8]
24059194:	9301      	str	r3, [sp, #4]
24059196:	f000 fc8f 	bl	24059ab8 <_vfiprintf_r>
2405919a:	b003      	add	sp, #12
2405919c:	f85d eb04 	ldr.w	lr, [sp], #4
240591a0:	b004      	add	sp, #16
240591a2:	4770      	bx	lr
240591a4:	200000ac 	.word	0x200000ac

240591a8 <_puts_r>:
240591a8:	6a03      	ldr	r3, [r0, #32]
240591aa:	b570      	push	{r4, r5, r6, lr}
240591ac:	6884      	ldr	r4, [r0, #8]
240591ae:	4605      	mov	r5, r0
240591b0:	460e      	mov	r6, r1
240591b2:	b90b      	cbnz	r3, 240591b8 <_puts_r+0x10>
240591b4:	f7ff ff9e 	bl	240590f4 <__sinit>
240591b8:	6e63      	ldr	r3, [r4, #100]	; 0x64
240591ba:	07db      	lsls	r3, r3, #31
240591bc:	d405      	bmi.n	240591ca <_puts_r+0x22>
240591be:	89a3      	ldrh	r3, [r4, #12]
240591c0:	0598      	lsls	r0, r3, #22
240591c2:	d402      	bmi.n	240591ca <_puts_r+0x22>
240591c4:	6da0      	ldr	r0, [r4, #88]	; 0x58
240591c6:	f000 f9d6 	bl	24059576 <__retarget_lock_acquire_recursive>
240591ca:	89a3      	ldrh	r3, [r4, #12]
240591cc:	0719      	lsls	r1, r3, #28
240591ce:	d513      	bpl.n	240591f8 <_puts_r+0x50>
240591d0:	6923      	ldr	r3, [r4, #16]
240591d2:	b18b      	cbz	r3, 240591f8 <_puts_r+0x50>
240591d4:	3e01      	subs	r6, #1
240591d6:	68a3      	ldr	r3, [r4, #8]
240591d8:	f816 1f01 	ldrb.w	r1, [r6, #1]!
240591dc:	3b01      	subs	r3, #1
240591de:	60a3      	str	r3, [r4, #8]
240591e0:	b9e9      	cbnz	r1, 2405921e <_puts_r+0x76>
240591e2:	2b00      	cmp	r3, #0
240591e4:	da2e      	bge.n	24059244 <_puts_r+0x9c>
240591e6:	4622      	mov	r2, r4
240591e8:	210a      	movs	r1, #10
240591ea:	4628      	mov	r0, r5
240591ec:	f000 f89b 	bl	24059326 <__swbuf_r>
240591f0:	3001      	adds	r0, #1
240591f2:	d007      	beq.n	24059204 <_puts_r+0x5c>
240591f4:	250a      	movs	r5, #10
240591f6:	e007      	b.n	24059208 <_puts_r+0x60>
240591f8:	4621      	mov	r1, r4
240591fa:	4628      	mov	r0, r5
240591fc:	f000 f8d0 	bl	240593a0 <__swsetup_r>
24059200:	2800      	cmp	r0, #0
24059202:	d0e7      	beq.n	240591d4 <_puts_r+0x2c>
24059204:	f04f 35ff 	mov.w	r5, #4294967295
24059208:	6e63      	ldr	r3, [r4, #100]	; 0x64
2405920a:	07da      	lsls	r2, r3, #31
2405920c:	d405      	bmi.n	2405921a <_puts_r+0x72>
2405920e:	89a3      	ldrh	r3, [r4, #12]
24059210:	059b      	lsls	r3, r3, #22
24059212:	d402      	bmi.n	2405921a <_puts_r+0x72>
24059214:	6da0      	ldr	r0, [r4, #88]	; 0x58
24059216:	f000 f9af 	bl	24059578 <__retarget_lock_release_recursive>
2405921a:	4628      	mov	r0, r5
2405921c:	bd70      	pop	{r4, r5, r6, pc}
2405921e:	2b00      	cmp	r3, #0
24059220:	da04      	bge.n	2405922c <_puts_r+0x84>
24059222:	69a2      	ldr	r2, [r4, #24]
24059224:	429a      	cmp	r2, r3
24059226:	dc06      	bgt.n	24059236 <_puts_r+0x8e>
24059228:	290a      	cmp	r1, #10
2405922a:	d004      	beq.n	24059236 <_puts_r+0x8e>
2405922c:	6823      	ldr	r3, [r4, #0]
2405922e:	1c5a      	adds	r2, r3, #1
24059230:	6022      	str	r2, [r4, #0]
24059232:	7019      	strb	r1, [r3, #0]
24059234:	e7cf      	b.n	240591d6 <_puts_r+0x2e>
24059236:	4622      	mov	r2, r4
24059238:	4628      	mov	r0, r5
2405923a:	f000 f874 	bl	24059326 <__swbuf_r>
2405923e:	3001      	adds	r0, #1
24059240:	d1c9      	bne.n	240591d6 <_puts_r+0x2e>
24059242:	e7df      	b.n	24059204 <_puts_r+0x5c>
24059244:	6823      	ldr	r3, [r4, #0]
24059246:	250a      	movs	r5, #10
24059248:	1c5a      	adds	r2, r3, #1
2405924a:	6022      	str	r2, [r4, #0]
2405924c:	701d      	strb	r5, [r3, #0]
2405924e:	e7db      	b.n	24059208 <_puts_r+0x60>

24059250 <puts>:
24059250:	4b02      	ldr	r3, [pc, #8]	; (2405925c <puts+0xc>)
24059252:	4601      	mov	r1, r0
24059254:	6818      	ldr	r0, [r3, #0]
24059256:	f7ff bfa7 	b.w	240591a8 <_puts_r>
2405925a:	bf00      	nop
2405925c:	200000ac 	.word	0x200000ac

24059260 <siprintf>:
24059260:	b40e      	push	{r1, r2, r3}
24059262:	b500      	push	{lr}
24059264:	b09c      	sub	sp, #112	; 0x70
24059266:	ab1d      	add	r3, sp, #116	; 0x74
24059268:	9002      	str	r0, [sp, #8]
2405926a:	9006      	str	r0, [sp, #24]
2405926c:	f06f 4100 	mvn.w	r1, #2147483648	; 0x80000000
24059270:	4809      	ldr	r0, [pc, #36]	; (24059298 <siprintf+0x38>)
24059272:	9107      	str	r1, [sp, #28]
24059274:	9104      	str	r1, [sp, #16]
24059276:	4909      	ldr	r1, [pc, #36]	; (2405929c <siprintf+0x3c>)
24059278:	f853 2b04 	ldr.w	r2, [r3], #4
2405927c:	9105      	str	r1, [sp, #20]
2405927e:	6800      	ldr	r0, [r0, #0]
24059280:	9301      	str	r3, [sp, #4]
24059282:	a902      	add	r1, sp, #8
24059284:	f000 faf0 	bl	24059868 <_svfiprintf_r>
24059288:	9b02      	ldr	r3, [sp, #8]
2405928a:	2200      	movs	r2, #0
2405928c:	701a      	strb	r2, [r3, #0]
2405928e:	b01c      	add	sp, #112	; 0x70
24059290:	f85d eb04 	ldr.w	lr, [sp], #4
24059294:	b003      	add	sp, #12
24059296:	4770      	bx	lr
24059298:	200000ac 	.word	0x200000ac
2405929c:	ffff0208 	.word	0xffff0208

240592a0 <__sread>:
240592a0:	b510      	push	{r4, lr}
240592a2:	460c      	mov	r4, r1
240592a4:	f9b1 100e 	ldrsh.w	r1, [r1, #14]
240592a8:	f000 f916 	bl	240594d8 <_read_r>
240592ac:	2800      	cmp	r0, #0
240592ae:	bfab      	itete	ge
240592b0:	6d63      	ldrge	r3, [r4, #84]	; 0x54
240592b2:	89a3      	ldrhlt	r3, [r4, #12]
240592b4:	181b      	addge	r3, r3, r0
240592b6:	f423 5380 	biclt.w	r3, r3, #4096	; 0x1000
240592ba:	bfac      	ite	ge
240592bc:	6563      	strge	r3, [r4, #84]	; 0x54
240592be:	81a3      	strhlt	r3, [r4, #12]
240592c0:	bd10      	pop	{r4, pc}

240592c2 <__swrite>:
240592c2:	e92d 41f0 	stmdb	sp!, {r4, r5, r6, r7, r8, lr}
240592c6:	461f      	mov	r7, r3
240592c8:	898b      	ldrh	r3, [r1, #12]
240592ca:	05db      	lsls	r3, r3, #23
240592cc:	4605      	mov	r5, r0
240592ce:	460c      	mov	r4, r1
240592d0:	4616      	mov	r6, r2
240592d2:	d505      	bpl.n	240592e0 <__swrite+0x1e>
240592d4:	f9b1 100e 	ldrsh.w	r1, [r1, #14]
240592d8:	2302      	movs	r3, #2
240592da:	2200      	movs	r2, #0
240592dc:	f000 f8ea 	bl	240594b4 <_lseek_r>
240592e0:	89a3      	ldrh	r3, [r4, #12]
240592e2:	f9b4 100e 	ldrsh.w	r1, [r4, #14]
240592e6:	f423 5380 	bic.w	r3, r3, #4096	; 0x1000
240592ea:	81a3      	strh	r3, [r4, #12]
240592ec:	4632      	mov	r2, r6
240592ee:	463b      	mov	r3, r7
240592f0:	4628      	mov	r0, r5
240592f2:	e8bd 41f0 	ldmia.w	sp!, {r4, r5, r6, r7, r8, lr}
240592f6:	f000 b901 	b.w	240594fc <_write_r>

240592fa <__sseek>:
240592fa:	b510      	push	{r4, lr}
240592fc:	460c      	mov	r4, r1
240592fe:	f9b1 100e 	ldrsh.w	r1, [r1, #14]
24059302:	f000 f8d7 	bl	240594b4 <_lseek_r>
24059306:	1c43      	adds	r3, r0, #1
24059308:	89a3      	ldrh	r3, [r4, #12]
2405930a:	bf15      	itete	ne
2405930c:	6560      	strne	r0, [r4, #84]	; 0x54
2405930e:	f423 5380 	biceq.w	r3, r3, #4096	; 0x1000
24059312:	f443 5380 	orrne.w	r3, r3, #4096	; 0x1000
24059316:	81a3      	strheq	r3, [r4, #12]
24059318:	bf18      	it	ne
2405931a:	81a3      	strhne	r3, [r4, #12]
2405931c:	bd10      	pop	{r4, pc}

2405931e <__sclose>:
2405931e:	f9b1 100e 	ldrsh.w	r1, [r1, #14]
24059322:	f000 b8b7 	b.w	24059494 <_close_r>

24059326 <__swbuf_r>:
24059326:	b5f8      	push	{r3, r4, r5, r6, r7, lr}
24059328:	460e      	mov	r6, r1
2405932a:	4614      	mov	r4, r2
2405932c:	4605      	mov	r5, r0
2405932e:	b118      	cbz	r0, 24059338 <__swbuf_r+0x12>
24059330:	6a03      	ldr	r3, [r0, #32]
24059332:	b90b      	cbnz	r3, 24059338 <__swbuf_r+0x12>
24059334:	f7ff fede 	bl	240590f4 <__sinit>
24059338:	69a3      	ldr	r3, [r4, #24]
2405933a:	60a3      	str	r3, [r4, #8]
2405933c:	89a3      	ldrh	r3, [r4, #12]
2405933e:	071a      	lsls	r2, r3, #28
24059340:	d525      	bpl.n	2405938e <__swbuf_r+0x68>
24059342:	6923      	ldr	r3, [r4, #16]
24059344:	b31b      	cbz	r3, 2405938e <__swbuf_r+0x68>
24059346:	6823      	ldr	r3, [r4, #0]
24059348:	6922      	ldr	r2, [r4, #16]
2405934a:	1a98      	subs	r0, r3, r2
2405934c:	6963      	ldr	r3, [r4, #20]
2405934e:	b2f6      	uxtb	r6, r6
24059350:	4283      	cmp	r3, r0
24059352:	4637      	mov	r7, r6
24059354:	dc04      	bgt.n	24059360 <__swbuf_r+0x3a>
24059356:	4621      	mov	r1, r4
24059358:	4628      	mov	r0, r5
2405935a:	f000 fedd 	bl	2405a118 <_fflush_r>
2405935e:	b9e0      	cbnz	r0, 2405939a <__swbuf_r+0x74>
24059360:	68a3      	ldr	r3, [r4, #8]
24059362:	3b01      	subs	r3, #1
24059364:	60a3      	str	r3, [r4, #8]
24059366:	6823      	ldr	r3, [r4, #0]
24059368:	1c5a      	adds	r2, r3, #1
2405936a:	6022      	str	r2, [r4, #0]
2405936c:	701e      	strb	r6, [r3, #0]
2405936e:	6962      	ldr	r2, [r4, #20]
24059370:	1c43      	adds	r3, r0, #1
24059372:	429a      	cmp	r2, r3
24059374:	d004      	beq.n	24059380 <__swbuf_r+0x5a>
24059376:	89a3      	ldrh	r3, [r4, #12]
24059378:	07db      	lsls	r3, r3, #31
2405937a:	d506      	bpl.n	2405938a <__swbuf_r+0x64>
2405937c:	2e0a      	cmp	r6, #10
2405937e:	d104      	bne.n	2405938a <__swbuf_r+0x64>
24059380:	4621      	mov	r1, r4
24059382:	4628      	mov	r0, r5
24059384:	f000 fec8 	bl	2405a118 <_fflush_r>
24059388:	b938      	cbnz	r0, 2405939a <__swbuf_r+0x74>
2405938a:	4638      	mov	r0, r7
2405938c:	bdf8      	pop	{r3, r4, r5, r6, r7, pc}
2405938e:	4621      	mov	r1, r4
24059390:	4628      	mov	r0, r5
24059392:	f000 f805 	bl	240593a0 <__swsetup_r>
24059396:	2800      	cmp	r0, #0
24059398:	d0d5      	beq.n	24059346 <__swbuf_r+0x20>
2405939a:	f04f 37ff 	mov.w	r7, #4294967295
2405939e:	e7f4      	b.n	2405938a <__swbuf_r+0x64>

240593a0 <__swsetup_r>:
240593a0:	b538      	push	{r3, r4, r5, lr}
240593a2:	4b2a      	ldr	r3, [pc, #168]	; (2405944c <__swsetup_r+0xac>)
240593a4:	4605      	mov	r5, r0
240593a6:	6818      	ldr	r0, [r3, #0]
240593a8:	460c      	mov	r4, r1
240593aa:	b118      	cbz	r0, 240593b4 <__swsetup_r+0x14>
240593ac:	6a03      	ldr	r3, [r0, #32]
240593ae:	b90b      	cbnz	r3, 240593b4 <__swsetup_r+0x14>
240593b0:	f7ff fea0 	bl	240590f4 <__sinit>
240593b4:	89a3      	ldrh	r3, [r4, #12]
240593b6:	f9b4 200c 	ldrsh.w	r2, [r4, #12]
240593ba:	0718      	lsls	r0, r3, #28
240593bc:	d422      	bmi.n	24059404 <__swsetup_r+0x64>
240593be:	06d9      	lsls	r1, r3, #27
240593c0:	d407      	bmi.n	240593d2 <__swsetup_r+0x32>
240593c2:	2309      	movs	r3, #9
240593c4:	602b      	str	r3, [r5, #0]
240593c6:	f042 0340 	orr.w	r3, r2, #64	; 0x40
240593ca:	81a3      	strh	r3, [r4, #12]
240593cc:	f04f 30ff 	mov.w	r0, #4294967295
240593d0:	e034      	b.n	2405943c <__swsetup_r+0x9c>
240593d2:	0758      	lsls	r0, r3, #29
240593d4:	d512      	bpl.n	240593fc <__swsetup_r+0x5c>
240593d6:	6b61      	ldr	r1, [r4, #52]	; 0x34
240593d8:	b141      	cbz	r1, 240593ec <__swsetup_r+0x4c>
240593da:	f104 0344 	add.w	r3, r4, #68	; 0x44
240593de:	4299      	cmp	r1, r3
240593e0:	d002      	beq.n	240593e8 <__swsetup_r+0x48>
240593e2:	4628      	mov	r0, r5
240593e4:	f000 f8e6 	bl	240595b4 <_free_r>
240593e8:	2300      	movs	r3, #0
240593ea:	6363      	str	r3, [r4, #52]	; 0x34
240593ec:	89a3      	ldrh	r3, [r4, #12]
240593ee:	f023 0324 	bic.w	r3, r3, #36	; 0x24
240593f2:	81a3      	strh	r3, [r4, #12]
240593f4:	2300      	movs	r3, #0
240593f6:	6063      	str	r3, [r4, #4]
240593f8:	6923      	ldr	r3, [r4, #16]
240593fa:	6023      	str	r3, [r4, #0]
240593fc:	89a3      	ldrh	r3, [r4, #12]
240593fe:	f043 0308 	orr.w	r3, r3, #8
24059402:	81a3      	strh	r3, [r4, #12]
24059404:	6923      	ldr	r3, [r4, #16]
24059406:	b94b      	cbnz	r3, 2405941c <__swsetup_r+0x7c>
24059408:	89a3      	ldrh	r3, [r4, #12]
2405940a:	f403 7320 	and.w	r3, r3, #640	; 0x280
2405940e:	f5b3 7f00 	cmp.w	r3, #512	; 0x200
24059412:	d003      	beq.n	2405941c <__swsetup_r+0x7c>
24059414:	4621      	mov	r1, r4
24059416:	4628      	mov	r0, r5
24059418:	f000 fecc 	bl	2405a1b4 <__smakebuf_r>
2405941c:	89a0      	ldrh	r0, [r4, #12]
2405941e:	f9b4 200c 	ldrsh.w	r2, [r4, #12]
24059422:	f010 0301 	ands.w	r3, r0, #1
24059426:	d00a      	beq.n	2405943e <__swsetup_r+0x9e>
24059428:	2300      	movs	r3, #0
2405942a:	60a3      	str	r3, [r4, #8]
2405942c:	6963      	ldr	r3, [r4, #20]
2405942e:	425b      	negs	r3, r3
24059430:	61a3      	str	r3, [r4, #24]
24059432:	6923      	ldr	r3, [r4, #16]
24059434:	b943      	cbnz	r3, 24059448 <__swsetup_r+0xa8>
24059436:	f010 0080 	ands.w	r0, r0, #128	; 0x80
2405943a:	d1c4      	bne.n	240593c6 <__swsetup_r+0x26>
2405943c:	bd38      	pop	{r3, r4, r5, pc}
2405943e:	0781      	lsls	r1, r0, #30
24059440:	bf58      	it	pl
24059442:	6963      	ldrpl	r3, [r4, #20]
24059444:	60a3      	str	r3, [r4, #8]
24059446:	e7f4      	b.n	24059432 <__swsetup_r+0x92>
24059448:	2000      	movs	r0, #0
2405944a:	e7f7      	b.n	2405943c <__swsetup_r+0x9c>
2405944c:	200000ac 	.word	0x200000ac

24059450 <memmove>:
24059450:	4288      	cmp	r0, r1
24059452:	b510      	push	{r4, lr}
24059454:	eb01 0402 	add.w	r4, r1, r2
24059458:	d902      	bls.n	24059460 <memmove+0x10>
2405945a:	4284      	cmp	r4, r0
2405945c:	4623      	mov	r3, r4
2405945e:	d807      	bhi.n	24059470 <memmove+0x20>
24059460:	1e43      	subs	r3, r0, #1
24059462:	42a1      	cmp	r1, r4
24059464:	d008      	beq.n	24059478 <memmove+0x28>
24059466:	f811 2b01 	ldrb.w	r2, [r1], #1
2405946a:	f803 2f01 	strb.w	r2, [r3, #1]!
2405946e:	e7f8      	b.n	24059462 <memmove+0x12>
24059470:	4402      	add	r2, r0
24059472:	4601      	mov	r1, r0
24059474:	428a      	cmp	r2, r1
24059476:	d100      	bne.n	2405947a <memmove+0x2a>
24059478:	bd10      	pop	{r4, pc}
2405947a:	f813 4d01 	ldrb.w	r4, [r3, #-1]!
2405947e:	f802 4d01 	strb.w	r4, [r2, #-1]!
24059482:	e7f7      	b.n	24059474 <memmove+0x24>

24059484 <memset>:
24059484:	4402      	add	r2, r0
24059486:	4603      	mov	r3, r0
24059488:	4293      	cmp	r3, r2
2405948a:	d100      	bne.n	2405948e <memset+0xa>
2405948c:	4770      	bx	lr
2405948e:	f803 1b01 	strb.w	r1, [r3], #1
24059492:	e7f9      	b.n	24059488 <memset+0x4>

24059494 <_close_r>:
24059494:	b538      	push	{r3, r4, r5, lr}
24059496:	4d06      	ldr	r5, [pc, #24]	; (240594b0 <_close_r+0x1c>)
24059498:	2300      	movs	r3, #0
2405949a:	4604      	mov	r4, r0
2405949c:	4608      	mov	r0, r1
2405949e:	602b      	str	r3, [r5, #0]
240594a0:	f7f9 f934 	bl	2405270c <_close>
240594a4:	1c43      	adds	r3, r0, #1
240594a6:	d102      	bne.n	240594ae <_close_r+0x1a>
240594a8:	682b      	ldr	r3, [r5, #0]
240594aa:	b103      	cbz	r3, 240594ae <_close_r+0x1a>
240594ac:	6023      	str	r3, [r4, #0]
240594ae:	bd38      	pop	{r3, r4, r5, pc}
240594b0:	2000075c 	.word	0x2000075c

240594b4 <_lseek_r>:
240594b4:	b538      	push	{r3, r4, r5, lr}
240594b6:	4d07      	ldr	r5, [pc, #28]	; (240594d4 <_lseek_r+0x20>)
240594b8:	4604      	mov	r4, r0
240594ba:	4608      	mov	r0, r1
240594bc:	4611      	mov	r1, r2
240594be:	2200      	movs	r2, #0
240594c0:	602a      	str	r2, [r5, #0]
240594c2:	461a      	mov	r2, r3
240594c4:	f7f9 f92c 	bl	24052720 <_lseek>
240594c8:	1c43      	adds	r3, r0, #1
240594ca:	d102      	bne.n	240594d2 <_lseek_r+0x1e>
240594cc:	682b      	ldr	r3, [r5, #0]
240594ce:	b103      	cbz	r3, 240594d2 <_lseek_r+0x1e>
240594d0:	6023      	str	r3, [r4, #0]
240594d2:	bd38      	pop	{r3, r4, r5, pc}
240594d4:	2000075c 	.word	0x2000075c

240594d8 <_read_r>:
240594d8:	b538      	push	{r3, r4, r5, lr}
240594da:	4d07      	ldr	r5, [pc, #28]	; (240594f8 <_read_r+0x20>)
240594dc:	4604      	mov	r4, r0
240594de:	4608      	mov	r0, r1
240594e0:	4611      	mov	r1, r2
240594e2:	2200      	movs	r2, #0
240594e4:	602a      	str	r2, [r5, #0]
240594e6:	461a      	mov	r2, r3
240594e8:	f7f9 f8f4 	bl	240526d4 <_read>
240594ec:	1c43      	adds	r3, r0, #1
240594ee:	d102      	bne.n	240594f6 <_read_r+0x1e>
240594f0:	682b      	ldr	r3, [r5, #0]
240594f2:	b103      	cbz	r3, 240594f6 <_read_r+0x1e>
240594f4:	6023      	str	r3, [r4, #0]
240594f6:	bd38      	pop	{r3, r4, r5, pc}
240594f8:	2000075c 	.word	0x2000075c

240594fc <_write_r>:
240594fc:	b538      	push	{r3, r4, r5, lr}
240594fe:	4d07      	ldr	r5, [pc, #28]	; (2405951c <_write_r+0x20>)
24059500:	4604      	mov	r4, r0
24059502:	4608      	mov	r0, r1
24059504:	4611      	mov	r1, r2
24059506:	2200      	movs	r2, #0
24059508:	602a      	str	r2, [r5, #0]
2405950a:	461a      	mov	r2, r3
2405950c:	f7f9 f8f0 	bl	240526f0 <_write>
24059510:	1c43      	adds	r3, r0, #1
24059512:	d102      	bne.n	2405951a <_write_r+0x1e>
24059514:	682b      	ldr	r3, [r5, #0]
24059516:	b103      	cbz	r3, 2405951a <_write_r+0x1e>
24059518:	6023      	str	r3, [r4, #0]
2405951a:	bd38      	pop	{r3, r4, r5, pc}
2405951c:	2000075c 	.word	0x2000075c

24059520 <__errno>:
24059520:	4b01      	ldr	r3, [pc, #4]	; (24059528 <__errno+0x8>)
24059522:	6818      	ldr	r0, [r3, #0]
24059524:	4770      	bx	lr
24059526:	bf00      	nop
24059528:	200000ac 	.word	0x200000ac

2405952c <__libc_init_array>:
2405952c:	b570      	push	{r4, r5, r6, lr}
2405952e:	4d0d      	ldr	r5, [pc, #52]	; (24059564 <__libc_init_array+0x38>)
24059530:	4c0d      	ldr	r4, [pc, #52]	; (24059568 <__libc_init_array+0x3c>)
24059532:	1b64      	subs	r4, r4, r5
24059534:	10a4      	asrs	r4, r4, #2
24059536:	2600      	movs	r6, #0
24059538:	42a6      	cmp	r6, r4
2405953a:	d109      	bne.n	24059550 <__libc_init_array+0x24>
2405953c:	4d0b      	ldr	r5, [pc, #44]	; (2405956c <__libc_init_array+0x40>)
2405953e:	4c0c      	ldr	r4, [pc, #48]	; (24059570 <__libc_init_array+0x44>)
24059540:	f000 ff22 	bl	2405a388 <_init>
24059544:	1b64      	subs	r4, r4, r5
24059546:	10a4      	asrs	r4, r4, #2
24059548:	2600      	movs	r6, #0
2405954a:	42a6      	cmp	r6, r4
2405954c:	d105      	bne.n	2405955a <__libc_init_array+0x2e>
2405954e:	bd70      	pop	{r4, r5, r6, pc}
24059550:	f855 3b04 	ldr.w	r3, [r5], #4
24059554:	4798      	blx	r3
24059556:	3601      	adds	r6, #1
24059558:	e7ee      	b.n	24059538 <__libc_init_array+0xc>
2405955a:	f855 3b04 	ldr.w	r3, [r5], #4
2405955e:	4798      	blx	r3
24059560:	3601      	adds	r6, #1
24059562:	e7f2      	b.n	2405954a <__libc_init_array+0x1e>
24059564:	2405bc28 	.word	0x2405bc28
24059568:	2405bc28 	.word	0x2405bc28
2405956c:	2405bc28 	.word	0x2405bc28
24059570:	2405bc2c 	.word	0x2405bc2c

24059574 <__retarget_lock_init_recursive>:
24059574:	4770      	bx	lr

24059576 <__retarget_lock_acquire_recursive>:
24059576:	4770      	bx	lr

24059578 <__retarget_lock_release_recursive>:
24059578:	4770      	bx	lr

2405957a <strcpy>:
2405957a:	4603      	mov	r3, r0
2405957c:	f811 2b01 	ldrb.w	r2, [r1], #1
24059580:	f803 2b01 	strb.w	r2, [r3], #1
24059584:	2a00      	cmp	r2, #0
24059586:	d1f9      	bne.n	2405957c <strcpy+0x2>
24059588:	4770      	bx	lr

2405958a <memcpy>:
2405958a:	440a      	add	r2, r1
2405958c:	4291      	cmp	r1, r2
2405958e:	f100 33ff 	add.w	r3, r0, #4294967295
24059592:	d100      	bne.n	24059596 <memcpy+0xc>
24059594:	4770      	bx	lr
24059596:	b510      	push	{r4, lr}
24059598:	f811 4b01 	ldrb.w	r4, [r1], #1
2405959c:	f803 4f01 	strb.w	r4, [r3, #1]!
240595a0:	4291      	cmp	r1, r2
240595a2:	d1f9      	bne.n	24059598 <memcpy+0xe>
240595a4:	bd10      	pop	{r4, pc}

240595a6 <abort>:
240595a6:	b508      	push	{r3, lr}
240595a8:	2006      	movs	r0, #6
240595aa:	f000 fe67 	bl	2405a27c <raise>
240595ae:	2001      	movs	r0, #1
240595b0:	f7f9 f88a 	bl	240526c8 <_exit>

240595b4 <_free_r>:
240595b4:	b537      	push	{r0, r1, r2, r4, r5, lr}
240595b6:	2900      	cmp	r1, #0
240595b8:	d044      	beq.n	24059644 <_free_r+0x90>
240595ba:	f851 3c04 	ldr.w	r3, [r1, #-4]
240595be:	9001      	str	r0, [sp, #4]
240595c0:	2b00      	cmp	r3, #0
240595c2:	f1a1 0404 	sub.w	r4, r1, #4
240595c6:	bfb8      	it	lt
240595c8:	18e4      	addlt	r4, r4, r3
240595ca:	f000 f8e7 	bl	2405979c <__malloc_lock>
240595ce:	4a1e      	ldr	r2, [pc, #120]	; (24059648 <_free_r+0x94>)
240595d0:	9801      	ldr	r0, [sp, #4]
240595d2:	6813      	ldr	r3, [r2, #0]
240595d4:	b933      	cbnz	r3, 240595e4 <_free_r+0x30>
240595d6:	6063      	str	r3, [r4, #4]
240595d8:	6014      	str	r4, [r2, #0]
240595da:	b003      	add	sp, #12
240595dc:	e8bd 4030 	ldmia.w	sp!, {r4, r5, lr}
240595e0:	f000 b8e2 	b.w	240597a8 <__malloc_unlock>
240595e4:	42a3      	cmp	r3, r4
240595e6:	d908      	bls.n	240595fa <_free_r+0x46>
240595e8:	6825      	ldr	r5, [r4, #0]
240595ea:	1961      	adds	r1, r4, r5
240595ec:	428b      	cmp	r3, r1
240595ee:	bf01      	itttt	eq
240595f0:	6819      	ldreq	r1, [r3, #0]
240595f2:	685b      	ldreq	r3, [r3, #4]
240595f4:	1949      	addeq	r1, r1, r5
240595f6:	6021      	streq	r1, [r4, #0]
240595f8:	e7ed      	b.n	240595d6 <_free_r+0x22>
240595fa:	461a      	mov	r2, r3
240595fc:	685b      	ldr	r3, [r3, #4]
240595fe:	b10b      	cbz	r3, 24059604 <_free_r+0x50>
24059600:	42a3      	cmp	r3, r4
24059602:	d9fa      	bls.n	240595fa <_free_r+0x46>
24059604:	6811      	ldr	r1, [r2, #0]
24059606:	1855      	adds	r5, r2, r1
24059608:	42a5      	cmp	r5, r4
2405960a:	d10b      	bne.n	24059624 <_free_r+0x70>
2405960c:	6824      	ldr	r4, [r4, #0]
2405960e:	4421      	add	r1, r4
24059610:	1854      	adds	r4, r2, r1
24059612:	42a3      	cmp	r3, r4
24059614:	6011      	str	r1, [r2, #0]
24059616:	d1e0      	bne.n	240595da <_free_r+0x26>
24059618:	681c      	ldr	r4, [r3, #0]
2405961a:	685b      	ldr	r3, [r3, #4]
2405961c:	6053      	str	r3, [r2, #4]
2405961e:	440c      	add	r4, r1
24059620:	6014      	str	r4, [r2, #0]
24059622:	e7da      	b.n	240595da <_free_r+0x26>
24059624:	d902      	bls.n	2405962c <_free_r+0x78>
24059626:	230c      	movs	r3, #12
24059628:	6003      	str	r3, [r0, #0]
2405962a:	e7d6      	b.n	240595da <_free_r+0x26>
2405962c:	6825      	ldr	r5, [r4, #0]
2405962e:	1961      	adds	r1, r4, r5
24059630:	428b      	cmp	r3, r1
24059632:	bf04      	itt	eq
24059634:	6819      	ldreq	r1, [r3, #0]
24059636:	685b      	ldreq	r3, [r3, #4]
24059638:	6063      	str	r3, [r4, #4]
2405963a:	bf04      	itt	eq
2405963c:	1949      	addeq	r1, r1, r5
2405963e:	6021      	streq	r1, [r4, #0]
24059640:	6054      	str	r4, [r2, #4]
24059642:	e7ca      	b.n	240595da <_free_r+0x26>
24059644:	b003      	add	sp, #12
24059646:	bd30      	pop	{r4, r5, pc}
24059648:	20000764 	.word	0x20000764

2405964c <malloc>:
2405964c:	4b02      	ldr	r3, [pc, #8]	; (24059658 <malloc+0xc>)
2405964e:	4601      	mov	r1, r0
24059650:	6818      	ldr	r0, [r3, #0]
24059652:	f000 b823 	b.w	2405969c <_malloc_r>
24059656:	bf00      	nop
24059658:	200000ac 	.word	0x200000ac

2405965c <sbrk_aligned>:
2405965c:	b570      	push	{r4, r5, r6, lr}
2405965e:	4e0e      	ldr	r6, [pc, #56]	; (24059698 <sbrk_aligned+0x3c>)
24059660:	460c      	mov	r4, r1
24059662:	6831      	ldr	r1, [r6, #0]
24059664:	4605      	mov	r5, r0
24059666:	b911      	cbnz	r1, 2405966e <sbrk_aligned+0x12>
24059668:	f000 fe46 	bl	2405a2f8 <_sbrk_r>
2405966c:	6030      	str	r0, [r6, #0]
2405966e:	4621      	mov	r1, r4
24059670:	4628      	mov	r0, r5
24059672:	f000 fe41 	bl	2405a2f8 <_sbrk_r>
24059676:	1c43      	adds	r3, r0, #1
24059678:	d00a      	beq.n	24059690 <sbrk_aligned+0x34>
2405967a:	1cc4      	adds	r4, r0, #3
2405967c:	f024 0403 	bic.w	r4, r4, #3
24059680:	42a0      	cmp	r0, r4
24059682:	d007      	beq.n	24059694 <sbrk_aligned+0x38>
24059684:	1a21      	subs	r1, r4, r0
24059686:	4628      	mov	r0, r5
24059688:	f000 fe36 	bl	2405a2f8 <_sbrk_r>
2405968c:	3001      	adds	r0, #1
2405968e:	d101      	bne.n	24059694 <sbrk_aligned+0x38>
24059690:	f04f 34ff 	mov.w	r4, #4294967295
24059694:	4620      	mov	r0, r4
24059696:	bd70      	pop	{r4, r5, r6, pc}
24059698:	20000768 	.word	0x20000768

2405969c <_malloc_r>:
2405969c:	e92d 43f8 	stmdb	sp!, {r3, r4, r5, r6, r7, r8, r9, lr}
240596a0:	1ccd      	adds	r5, r1, #3
240596a2:	f025 0503 	bic.w	r5, r5, #3
240596a6:	3508      	adds	r5, #8
240596a8:	2d0c      	cmp	r5, #12
240596aa:	bf38      	it	cc
240596ac:	250c      	movcc	r5, #12
240596ae:	2d00      	cmp	r5, #0
240596b0:	4607      	mov	r7, r0
240596b2:	db01      	blt.n	240596b8 <_malloc_r+0x1c>
240596b4:	42a9      	cmp	r1, r5
240596b6:	d905      	bls.n	240596c4 <_malloc_r+0x28>
240596b8:	230c      	movs	r3, #12
240596ba:	603b      	str	r3, [r7, #0]
240596bc:	2600      	movs	r6, #0
240596be:	4630      	mov	r0, r6
240596c0:	e8bd 83f8 	ldmia.w	sp!, {r3, r4, r5, r6, r7, r8, r9, pc}
240596c4:	f8df 80d0 	ldr.w	r8, [pc, #208]	; 24059798 <_malloc_r+0xfc>
240596c8:	f000 f868 	bl	2405979c <__malloc_lock>
240596cc:	f8d8 3000 	ldr.w	r3, [r8]
240596d0:	461c      	mov	r4, r3
240596d2:	bb5c      	cbnz	r4, 2405972c <_malloc_r+0x90>
240596d4:	4629      	mov	r1, r5
240596d6:	4638      	mov	r0, r7
240596d8:	f7ff ffc0 	bl	2405965c <sbrk_aligned>
240596dc:	1c43      	adds	r3, r0, #1
240596de:	4604      	mov	r4, r0
240596e0:	d155      	bne.n	2405978e <_malloc_r+0xf2>
240596e2:	f8d8 4000 	ldr.w	r4, [r8]
240596e6:	4626      	mov	r6, r4
240596e8:	2e00      	cmp	r6, #0
240596ea:	d145      	bne.n	24059778 <_malloc_r+0xdc>
240596ec:	2c00      	cmp	r4, #0
240596ee:	d048      	beq.n	24059782 <_malloc_r+0xe6>
240596f0:	6823      	ldr	r3, [r4, #0]
240596f2:	4631      	mov	r1, r6
240596f4:	4638      	mov	r0, r7
240596f6:	eb04 0903 	add.w	r9, r4, r3
240596fa:	f000 fdfd 	bl	2405a2f8 <_sbrk_r>
240596fe:	4581      	cmp	r9, r0
24059700:	d13f      	bne.n	24059782 <_malloc_r+0xe6>
24059702:	6821      	ldr	r1, [r4, #0]
24059704:	1a6d      	subs	r5, r5, r1
24059706:	4629      	mov	r1, r5
24059708:	4638      	mov	r0, r7
2405970a:	f7ff ffa7 	bl	2405965c <sbrk_aligned>
2405970e:	3001      	adds	r0, #1
24059710:	d037      	beq.n	24059782 <_malloc_r+0xe6>
24059712:	6823      	ldr	r3, [r4, #0]
24059714:	442b      	add	r3, r5
24059716:	6023      	str	r3, [r4, #0]
24059718:	f8d8 3000 	ldr.w	r3, [r8]
2405971c:	2b00      	cmp	r3, #0
2405971e:	d038      	beq.n	24059792 <_malloc_r+0xf6>
24059720:	685a      	ldr	r2, [r3, #4]
24059722:	42a2      	cmp	r2, r4
24059724:	d12b      	bne.n	2405977e <_malloc_r+0xe2>
24059726:	2200      	movs	r2, #0
24059728:	605a      	str	r2, [r3, #4]
2405972a:	e00f      	b.n	2405974c <_malloc_r+0xb0>
2405972c:	6822      	ldr	r2, [r4, #0]
2405972e:	1b52      	subs	r2, r2, r5
24059730:	d41f      	bmi.n	24059772 <_malloc_r+0xd6>
24059732:	2a0b      	cmp	r2, #11
24059734:	d917      	bls.n	24059766 <_malloc_r+0xca>
24059736:	1961      	adds	r1, r4, r5
24059738:	42a3      	cmp	r3, r4
2405973a:	6025      	str	r5, [r4, #0]
2405973c:	bf18      	it	ne
2405973e:	6059      	strne	r1, [r3, #4]
24059740:	6863      	ldr	r3, [r4, #4]
24059742:	bf08      	it	eq
24059744:	f8c8 1000 	streq.w	r1, [r8]
24059748:	5162      	str	r2, [r4, r5]
2405974a:	604b      	str	r3, [r1, #4]
2405974c:	4638      	mov	r0, r7
2405974e:	f104 060b 	add.w	r6, r4, #11
24059752:	f000 f829 	bl	240597a8 <__malloc_unlock>
24059756:	f026 0607 	bic.w	r6, r6, #7
2405975a:	1d23      	adds	r3, r4, #4
2405975c:	1af2      	subs	r2, r6, r3
2405975e:	d0ae      	beq.n	240596be <_malloc_r+0x22>
24059760:	1b9b      	subs	r3, r3, r6
24059762:	50a3      	str	r3, [r4, r2]
24059764:	e7ab      	b.n	240596be <_malloc_r+0x22>
24059766:	42a3      	cmp	r3, r4
24059768:	6862      	ldr	r2, [r4, #4]
2405976a:	d1dd      	bne.n	24059728 <_malloc_r+0x8c>
2405976c:	f8c8 2000 	str.w	r2, [r8]
24059770:	e7ec      	b.n	2405974c <_malloc_r+0xb0>
24059772:	4623      	mov	r3, r4
24059774:	6864      	ldr	r4, [r4, #4]
24059776:	e7ac      	b.n	240596d2 <_malloc_r+0x36>
24059778:	4634      	mov	r4, r6
2405977a:	6876      	ldr	r6, [r6, #4]
2405977c:	e7b4      	b.n	240596e8 <_malloc_r+0x4c>
2405977e:	4613      	mov	r3, r2
24059780:	e7cc      	b.n	2405971c <_malloc_r+0x80>
24059782:	230c      	movs	r3, #12
24059784:	603b      	str	r3, [r7, #0]
24059786:	4638      	mov	r0, r7
24059788:	f000 f80e 	bl	240597a8 <__malloc_unlock>
2405978c:	e797      	b.n	240596be <_malloc_r+0x22>
2405978e:	6025      	str	r5, [r4, #0]
24059790:	e7dc      	b.n	2405974c <_malloc_r+0xb0>
24059792:	605b      	str	r3, [r3, #4]
24059794:	deff      	udf	#255	; 0xff
24059796:	bf00      	nop
24059798:	20000764 	.word	0x20000764

2405979c <__malloc_lock>:
2405979c:	4801      	ldr	r0, [pc, #4]	; (240597a4 <__malloc_lock+0x8>)
2405979e:	f7ff beea 	b.w	24059576 <__retarget_lock_acquire_recursive>
240597a2:	bf00      	nop
240597a4:	20000760 	.word	0x20000760

240597a8 <__malloc_unlock>:
240597a8:	4801      	ldr	r0, [pc, #4]	; (240597b0 <__malloc_unlock+0x8>)
240597aa:	f7ff bee5 	b.w	24059578 <__retarget_lock_release_recursive>
240597ae:	bf00      	nop
240597b0:	20000760 	.word	0x20000760

240597b4 <__ssputs_r>:
240597b4:	e92d 47f0 	stmdb	sp!, {r4, r5, r6, r7, r8, r9, sl, lr}
240597b8:	688e      	ldr	r6, [r1, #8]
240597ba:	461f      	mov	r7, r3
240597bc:	42be      	cmp	r6, r7
240597be:	680b      	ldr	r3, [r1, #0]
240597c0:	4682      	mov	sl, r0
240597c2:	460c      	mov	r4, r1
240597c4:	4690      	mov	r8, r2
240597c6:	d82c      	bhi.n	24059822 <__ssputs_r+0x6e>
240597c8:	898a      	ldrh	r2, [r1, #12]
240597ca:	f412 6f90 	tst.w	r2, #1152	; 0x480
240597ce:	d026      	beq.n	2405981e <__ssputs_r+0x6a>
240597d0:	6965      	ldr	r5, [r4, #20]
240597d2:	6909      	ldr	r1, [r1, #16]
240597d4:	eb05 0545 	add.w	r5, r5, r5, lsl #1
240597d8:	eba3 0901 	sub.w	r9, r3, r1
240597dc:	eb05 75d5 	add.w	r5, r5, r5, lsr #31
240597e0:	1c7b      	adds	r3, r7, #1
240597e2:	444b      	add	r3, r9
240597e4:	106d      	asrs	r5, r5, #1
240597e6:	429d      	cmp	r5, r3
240597e8:	bf38      	it	cc
240597ea:	461d      	movcc	r5, r3
240597ec:	0553      	lsls	r3, r2, #21
240597ee:	d527      	bpl.n	24059840 <__ssputs_r+0x8c>
240597f0:	4629      	mov	r1, r5
240597f2:	f7ff ff53 	bl	2405969c <_malloc_r>
240597f6:	4606      	mov	r6, r0
240597f8:	b360      	cbz	r0, 24059854 <__ssputs_r+0xa0>
240597fa:	6921      	ldr	r1, [r4, #16]
240597fc:	464a      	mov	r2, r9
240597fe:	f7ff fec4 	bl	2405958a <memcpy>
24059802:	89a3      	ldrh	r3, [r4, #12]
24059804:	f423 6390 	bic.w	r3, r3, #1152	; 0x480
24059808:	f043 0380 	orr.w	r3, r3, #128	; 0x80
2405980c:	81a3      	strh	r3, [r4, #12]
2405980e:	6126      	str	r6, [r4, #16]
24059810:	6165      	str	r5, [r4, #20]
24059812:	444e      	add	r6, r9
24059814:	eba5 0509 	sub.w	r5, r5, r9
24059818:	6026      	str	r6, [r4, #0]
2405981a:	60a5      	str	r5, [r4, #8]
2405981c:	463e      	mov	r6, r7
2405981e:	42be      	cmp	r6, r7
24059820:	d900      	bls.n	24059824 <__ssputs_r+0x70>
24059822:	463e      	mov	r6, r7
24059824:	6820      	ldr	r0, [r4, #0]
24059826:	4632      	mov	r2, r6
24059828:	4641      	mov	r1, r8
2405982a:	f7ff fe11 	bl	24059450 <memmove>
2405982e:	68a3      	ldr	r3, [r4, #8]
24059830:	1b9b      	subs	r3, r3, r6
24059832:	60a3      	str	r3, [r4, #8]
24059834:	6823      	ldr	r3, [r4, #0]
24059836:	4433      	add	r3, r6
24059838:	6023      	str	r3, [r4, #0]
2405983a:	2000      	movs	r0, #0
2405983c:	e8bd 87f0 	ldmia.w	sp!, {r4, r5, r6, r7, r8, r9, sl, pc}
24059840:	462a      	mov	r2, r5
24059842:	f000 fd69 	bl	2405a318 <_realloc_r>
24059846:	4606      	mov	r6, r0
24059848:	2800      	cmp	r0, #0
2405984a:	d1e0      	bne.n	2405980e <__ssputs_r+0x5a>
2405984c:	6921      	ldr	r1, [r4, #16]
2405984e:	4650      	mov	r0, sl
24059850:	f7ff feb0 	bl	240595b4 <_free_r>
24059854:	230c      	movs	r3, #12
24059856:	f8ca 3000 	str.w	r3, [sl]
2405985a:	89a3      	ldrh	r3, [r4, #12]
2405985c:	f043 0340 	orr.w	r3, r3, #64	; 0x40
24059860:	81a3      	strh	r3, [r4, #12]
24059862:	f04f 30ff 	mov.w	r0, #4294967295
24059866:	e7e9      	b.n	2405983c <__ssputs_r+0x88>

24059868 <_svfiprintf_r>:
24059868:	e92d 4ff0 	stmdb	sp!, {r4, r5, r6, r7, r8, r9, sl, fp, lr}
2405986c:	4698      	mov	r8, r3
2405986e:	898b      	ldrh	r3, [r1, #12]
24059870:	061b      	lsls	r3, r3, #24
24059872:	b09d      	sub	sp, #116	; 0x74
24059874:	4607      	mov	r7, r0
24059876:	460d      	mov	r5, r1
24059878:	4614      	mov	r4, r2
2405987a:	d50e      	bpl.n	2405989a <_svfiprintf_r+0x32>
2405987c:	690b      	ldr	r3, [r1, #16]
2405987e:	b963      	cbnz	r3, 2405989a <_svfiprintf_r+0x32>
24059880:	2140      	movs	r1, #64	; 0x40
24059882:	f7ff ff0b 	bl	2405969c <_malloc_r>
24059886:	6028      	str	r0, [r5, #0]
24059888:	6128      	str	r0, [r5, #16]
2405988a:	b920      	cbnz	r0, 24059896 <_svfiprintf_r+0x2e>
2405988c:	230c      	movs	r3, #12
2405988e:	603b      	str	r3, [r7, #0]
24059890:	f04f 30ff 	mov.w	r0, #4294967295
24059894:	e0d0      	b.n	24059a38 <_svfiprintf_r+0x1d0>
24059896:	2340      	movs	r3, #64	; 0x40
24059898:	616b      	str	r3, [r5, #20]
2405989a:	2300      	movs	r3, #0
2405989c:	9309      	str	r3, [sp, #36]	; 0x24
2405989e:	2320      	movs	r3, #32
240598a0:	f88d 3029 	strb.w	r3, [sp, #41]	; 0x29
240598a4:	f8cd 800c 	str.w	r8, [sp, #12]
240598a8:	2330      	movs	r3, #48	; 0x30
240598aa:	f8df 81a4 	ldr.w	r8, [pc, #420]	; 24059a50 <_svfiprintf_r+0x1e8>
240598ae:	f88d 302a 	strb.w	r3, [sp, #42]	; 0x2a
240598b2:	f04f 0901 	mov.w	r9, #1
240598b6:	4623      	mov	r3, r4
240598b8:	469a      	mov	sl, r3
240598ba:	f813 2b01 	ldrb.w	r2, [r3], #1
240598be:	b10a      	cbz	r2, 240598c4 <_svfiprintf_r+0x5c>
240598c0:	2a25      	cmp	r2, #37	; 0x25
240598c2:	d1f9      	bne.n	240598b8 <_svfiprintf_r+0x50>
240598c4:	ebba 0b04 	subs.w	fp, sl, r4
240598c8:	d00b      	beq.n	240598e2 <_svfiprintf_r+0x7a>
240598ca:	465b      	mov	r3, fp
240598cc:	4622      	mov	r2, r4
240598ce:	4629      	mov	r1, r5
240598d0:	4638      	mov	r0, r7
240598d2:	f7ff ff6f 	bl	240597b4 <__ssputs_r>
240598d6:	3001      	adds	r0, #1
240598d8:	f000 80a9 	beq.w	24059a2e <_svfiprintf_r+0x1c6>
240598dc:	9a09      	ldr	r2, [sp, #36]	; 0x24
240598de:	445a      	add	r2, fp
240598e0:	9209      	str	r2, [sp, #36]	; 0x24
240598e2:	f89a 3000 	ldrb.w	r3, [sl]
240598e6:	2b00      	cmp	r3, #0
240598e8:	f000 80a1 	beq.w	24059a2e <_svfiprintf_r+0x1c6>
240598ec:	2300      	movs	r3, #0
240598ee:	f04f 32ff 	mov.w	r2, #4294967295
240598f2:	e9cd 2305 	strd	r2, r3, [sp, #20]
240598f6:	f10a 0a01 	add.w	sl, sl, #1
240598fa:	9304      	str	r3, [sp, #16]
240598fc:	9307      	str	r3, [sp, #28]
240598fe:	f88d 3053 	strb.w	r3, [sp, #83]	; 0x53
24059902:	931a      	str	r3, [sp, #104]	; 0x68
24059904:	4654      	mov	r4, sl
24059906:	2205      	movs	r2, #5
24059908:	f814 1b01 	ldrb.w	r1, [r4], #1
2405990c:	4850      	ldr	r0, [pc, #320]	; (24059a50 <_svfiprintf_r+0x1e8>)
2405990e:	f7f6 fb97 	bl	24050040 <memchr>
24059912:	9a04      	ldr	r2, [sp, #16]
24059914:	b9d8      	cbnz	r0, 2405994e <_svfiprintf_r+0xe6>
24059916:	06d0      	lsls	r0, r2, #27
24059918:	bf44      	itt	mi
2405991a:	2320      	movmi	r3, #32
2405991c:	f88d 3053 	strbmi.w	r3, [sp, #83]	; 0x53
24059920:	0711      	lsls	r1, r2, #28
24059922:	bf44      	itt	mi
24059924:	232b      	movmi	r3, #43	; 0x2b
24059926:	f88d 3053 	strbmi.w	r3, [sp, #83]	; 0x53
2405992a:	f89a 3000 	ldrb.w	r3, [sl]
2405992e:	2b2a      	cmp	r3, #42	; 0x2a
24059930:	d015      	beq.n	2405995e <_svfiprintf_r+0xf6>
24059932:	9a07      	ldr	r2, [sp, #28]
24059934:	4654      	mov	r4, sl
24059936:	2000      	movs	r0, #0
24059938:	f04f 0c0a 	mov.w	ip, #10
2405993c:	4621      	mov	r1, r4
2405993e:	f811 3b01 	ldrb.w	r3, [r1], #1
24059942:	3b30      	subs	r3, #48	; 0x30
24059944:	2b09      	cmp	r3, #9
24059946:	d94d      	bls.n	240599e4 <_svfiprintf_r+0x17c>
24059948:	b1b0      	cbz	r0, 24059978 <_svfiprintf_r+0x110>
2405994a:	9207      	str	r2, [sp, #28]
2405994c:	e014      	b.n	24059978 <_svfiprintf_r+0x110>
2405994e:	eba0 0308 	sub.w	r3, r0, r8
24059952:	fa09 f303 	lsl.w	r3, r9, r3
24059956:	4313      	orrs	r3, r2
24059958:	9304      	str	r3, [sp, #16]
2405995a:	46a2      	mov	sl, r4
2405995c:	e7d2      	b.n	24059904 <_svfiprintf_r+0x9c>
2405995e:	9b03      	ldr	r3, [sp, #12]
24059960:	1d19      	adds	r1, r3, #4
24059962:	681b      	ldr	r3, [r3, #0]
24059964:	9103      	str	r1, [sp, #12]
24059966:	2b00      	cmp	r3, #0
24059968:	bfbb      	ittet	lt
2405996a:	425b      	neglt	r3, r3
2405996c:	f042 0202 	orrlt.w	r2, r2, #2
24059970:	9307      	strge	r3, [sp, #28]
24059972:	9307      	strlt	r3, [sp, #28]
24059974:	bfb8      	it	lt
24059976:	9204      	strlt	r2, [sp, #16]
24059978:	7823      	ldrb	r3, [r4, #0]
2405997a:	2b2e      	cmp	r3, #46	; 0x2e
2405997c:	d10c      	bne.n	24059998 <_svfiprintf_r+0x130>
2405997e:	7863      	ldrb	r3, [r4, #1]
24059980:	2b2a      	cmp	r3, #42	; 0x2a
24059982:	d134      	bne.n	240599ee <_svfiprintf_r+0x186>
24059984:	9b03      	ldr	r3, [sp, #12]
24059986:	1d1a      	adds	r2, r3, #4
24059988:	681b      	ldr	r3, [r3, #0]
2405998a:	9203      	str	r2, [sp, #12]
2405998c:	2b00      	cmp	r3, #0
2405998e:	bfb8      	it	lt
24059990:	f04f 33ff 	movlt.w	r3, #4294967295
24059994:	3402      	adds	r4, #2
24059996:	9305      	str	r3, [sp, #20]
24059998:	f8df a0c4 	ldr.w	sl, [pc, #196]	; 24059a60 <_svfiprintf_r+0x1f8>
2405999c:	7821      	ldrb	r1, [r4, #0]
2405999e:	2203      	movs	r2, #3
240599a0:	4650      	mov	r0, sl
240599a2:	f7f6 fb4d 	bl	24050040 <memchr>
240599a6:	b138      	cbz	r0, 240599b8 <_svfiprintf_r+0x150>
240599a8:	9b04      	ldr	r3, [sp, #16]
240599aa:	eba0 000a 	sub.w	r0, r0, sl
240599ae:	2240      	movs	r2, #64	; 0x40
240599b0:	4082      	lsls	r2, r0
240599b2:	4313      	orrs	r3, r2
240599b4:	3401      	adds	r4, #1
240599b6:	9304      	str	r3, [sp, #16]
240599b8:	f814 1b01 	ldrb.w	r1, [r4], #1
240599bc:	4825      	ldr	r0, [pc, #148]	; (24059a54 <_svfiprintf_r+0x1ec>)
240599be:	f88d 1028 	strb.w	r1, [sp, #40]	; 0x28
240599c2:	2206      	movs	r2, #6
240599c4:	f7f6 fb3c 	bl	24050040 <memchr>
240599c8:	2800      	cmp	r0, #0
240599ca:	d038      	beq.n	24059a3e <_svfiprintf_r+0x1d6>
240599cc:	4b22      	ldr	r3, [pc, #136]	; (24059a58 <_svfiprintf_r+0x1f0>)
240599ce:	bb1b      	cbnz	r3, 24059a18 <_svfiprintf_r+0x1b0>
240599d0:	9b03      	ldr	r3, [sp, #12]
240599d2:	3307      	adds	r3, #7
240599d4:	f023 0307 	bic.w	r3, r3, #7
240599d8:	3308      	adds	r3, #8
240599da:	9303      	str	r3, [sp, #12]
240599dc:	9b09      	ldr	r3, [sp, #36]	; 0x24
240599de:	4433      	add	r3, r6
240599e0:	9309      	str	r3, [sp, #36]	; 0x24
240599e2:	e768      	b.n	240598b6 <_svfiprintf_r+0x4e>
240599e4:	fb0c 3202 	mla	r2, ip, r2, r3
240599e8:	460c      	mov	r4, r1
240599ea:	2001      	movs	r0, #1
240599ec:	e7a6      	b.n	2405993c <_svfiprintf_r+0xd4>
240599ee:	2300      	movs	r3, #0
240599f0:	3401      	adds	r4, #1
240599f2:	9305      	str	r3, [sp, #20]
240599f4:	4619      	mov	r1, r3
240599f6:	f04f 0c0a 	mov.w	ip, #10
240599fa:	4620      	mov	r0, r4
240599fc:	f810 2b01 	ldrb.w	r2, [r0], #1
24059a00:	3a30      	subs	r2, #48	; 0x30
24059a02:	2a09      	cmp	r2, #9
24059a04:	d903      	bls.n	24059a0e <_svfiprintf_r+0x1a6>
24059a06:	2b00      	cmp	r3, #0
24059a08:	d0c6      	beq.n	24059998 <_svfiprintf_r+0x130>
24059a0a:	9105      	str	r1, [sp, #20]
24059a0c:	e7c4      	b.n	24059998 <_svfiprintf_r+0x130>
24059a0e:	fb0c 2101 	mla	r1, ip, r1, r2
24059a12:	4604      	mov	r4, r0
24059a14:	2301      	movs	r3, #1
24059a16:	e7f0      	b.n	240599fa <_svfiprintf_r+0x192>
24059a18:	ab03      	add	r3, sp, #12
24059a1a:	9300      	str	r3, [sp, #0]
24059a1c:	462a      	mov	r2, r5
24059a1e:	4b0f      	ldr	r3, [pc, #60]	; (24059a5c <_svfiprintf_r+0x1f4>)
24059a20:	a904      	add	r1, sp, #16
24059a22:	4638      	mov	r0, r7
24059a24:	f3af 8000 	nop.w
24059a28:	1c42      	adds	r2, r0, #1
24059a2a:	4606      	mov	r6, r0
24059a2c:	d1d6      	bne.n	240599dc <_svfiprintf_r+0x174>
24059a2e:	89ab      	ldrh	r3, [r5, #12]
24059a30:	065b      	lsls	r3, r3, #25
24059a32:	f53f af2d 	bmi.w	24059890 <_svfiprintf_r+0x28>
24059a36:	9809      	ldr	r0, [sp, #36]	; 0x24
24059a38:	b01d      	add	sp, #116	; 0x74
24059a3a:	e8bd 8ff0 	ldmia.w	sp!, {r4, r5, r6, r7, r8, r9, sl, fp, pc}
24059a3e:	ab03      	add	r3, sp, #12
24059a40:	9300      	str	r3, [sp, #0]
24059a42:	462a      	mov	r2, r5
24059a44:	4b05      	ldr	r3, [pc, #20]	; (24059a5c <_svfiprintf_r+0x1f4>)
24059a46:	a904      	add	r1, sp, #16
24059a48:	4638      	mov	r0, r7
24059a4a:	f000 f9bd 	bl	24059dc8 <_printf_i>
24059a4e:	e7eb      	b.n	24059a28 <_svfiprintf_r+0x1c0>
24059a50:	2405bbf2 	.word	0x2405bbf2
24059a54:	2405bbfc 	.word	0x2405bbfc
24059a58:	00000000 	.word	0x00000000
24059a5c:	240597b5 	.word	0x240597b5
24059a60:	2405bbf8 	.word	0x2405bbf8

24059a64 <__sfputc_r>:
24059a64:	6893      	ldr	r3, [r2, #8]
24059a66:	3b01      	subs	r3, #1
24059a68:	2b00      	cmp	r3, #0
24059a6a:	b410      	push	{r4}
24059a6c:	6093      	str	r3, [r2, #8]
24059a6e:	da08      	bge.n	24059a82 <__sfputc_r+0x1e>
24059a70:	6994      	ldr	r4, [r2, #24]
24059a72:	42a3      	cmp	r3, r4
24059a74:	db01      	blt.n	24059a7a <__sfputc_r+0x16>
24059a76:	290a      	cmp	r1, #10
24059a78:	d103      	bne.n	24059a82 <__sfputc_r+0x1e>
24059a7a:	f85d 4b04 	ldr.w	r4, [sp], #4
24059a7e:	f7ff bc52 	b.w	24059326 <__swbuf_r>
24059a82:	6813      	ldr	r3, [r2, #0]
24059a84:	1c58      	adds	r0, r3, #1
24059a86:	6010      	str	r0, [r2, #0]
24059a88:	7019      	strb	r1, [r3, #0]
24059a8a:	4608      	mov	r0, r1
24059a8c:	f85d 4b04 	ldr.w	r4, [sp], #4
24059a90:	4770      	bx	lr

24059a92 <__sfputs_r>:
24059a92:	b5f8      	push	{r3, r4, r5, r6, r7, lr}
24059a94:	4606      	mov	r6, r0
24059a96:	460f      	mov	r7, r1
24059a98:	4614      	mov	r4, r2
24059a9a:	18d5      	adds	r5, r2, r3
24059a9c:	42ac      	cmp	r4, r5
24059a9e:	d101      	bne.n	24059aa4 <__sfputs_r+0x12>
24059aa0:	2000      	movs	r0, #0
24059aa2:	e007      	b.n	24059ab4 <__sfputs_r+0x22>
24059aa4:	f814 1b01 	ldrb.w	r1, [r4], #1
24059aa8:	463a      	mov	r2, r7
24059aaa:	4630      	mov	r0, r6
24059aac:	f7ff ffda 	bl	24059a64 <__sfputc_r>
24059ab0:	1c43      	adds	r3, r0, #1
24059ab2:	d1f3      	bne.n	24059a9c <__sfputs_r+0xa>
24059ab4:	bdf8      	pop	{r3, r4, r5, r6, r7, pc}
	...

24059ab8 <_vfiprintf_r>:
24059ab8:	e92d 4ff0 	stmdb	sp!, {r4, r5, r6, r7, r8, r9, sl, fp, lr}
24059abc:	460d      	mov	r5, r1
24059abe:	b09d      	sub	sp, #116	; 0x74
24059ac0:	4614      	mov	r4, r2
24059ac2:	4698      	mov	r8, r3
24059ac4:	4606      	mov	r6, r0
24059ac6:	b118      	cbz	r0, 24059ad0 <_vfiprintf_r+0x18>
24059ac8:	6a03      	ldr	r3, [r0, #32]
24059aca:	b90b      	cbnz	r3, 24059ad0 <_vfiprintf_r+0x18>
24059acc:	f7ff fb12 	bl	240590f4 <__sinit>
24059ad0:	6e6b      	ldr	r3, [r5, #100]	; 0x64
24059ad2:	07d9      	lsls	r1, r3, #31
24059ad4:	d405      	bmi.n	24059ae2 <_vfiprintf_r+0x2a>
24059ad6:	89ab      	ldrh	r3, [r5, #12]
24059ad8:	059a      	lsls	r2, r3, #22
24059ada:	d402      	bmi.n	24059ae2 <_vfiprintf_r+0x2a>
24059adc:	6da8      	ldr	r0, [r5, #88]	; 0x58
24059ade:	f7ff fd4a 	bl	24059576 <__retarget_lock_acquire_recursive>
24059ae2:	89ab      	ldrh	r3, [r5, #12]
24059ae4:	071b      	lsls	r3, r3, #28
24059ae6:	d501      	bpl.n	24059aec <_vfiprintf_r+0x34>
24059ae8:	692b      	ldr	r3, [r5, #16]
24059aea:	b99b      	cbnz	r3, 24059b14 <_vfiprintf_r+0x5c>
24059aec:	4629      	mov	r1, r5
24059aee:	4630      	mov	r0, r6
24059af0:	f7ff fc56 	bl	240593a0 <__swsetup_r>
24059af4:	b170      	cbz	r0, 24059b14 <_vfiprintf_r+0x5c>
24059af6:	6e6b      	ldr	r3, [r5, #100]	; 0x64
24059af8:	07dc      	lsls	r4, r3, #31
24059afa:	d504      	bpl.n	24059b06 <_vfiprintf_r+0x4e>
24059afc:	f04f 30ff 	mov.w	r0, #4294967295
24059b00:	b01d      	add	sp, #116	; 0x74
24059b02:	e8bd 8ff0 	ldmia.w	sp!, {r4, r5, r6, r7, r8, r9, sl, fp, pc}
24059b06:	89ab      	ldrh	r3, [r5, #12]
24059b08:	0598      	lsls	r0, r3, #22
24059b0a:	d4f7      	bmi.n	24059afc <_vfiprintf_r+0x44>
24059b0c:	6da8      	ldr	r0, [r5, #88]	; 0x58
24059b0e:	f7ff fd33 	bl	24059578 <__retarget_lock_release_recursive>
24059b12:	e7f3      	b.n	24059afc <_vfiprintf_r+0x44>
24059b14:	2300      	movs	r3, #0
24059b16:	9309      	str	r3, [sp, #36]	; 0x24
24059b18:	2320      	movs	r3, #32
24059b1a:	f88d 3029 	strb.w	r3, [sp, #41]	; 0x29
24059b1e:	f8cd 800c 	str.w	r8, [sp, #12]
24059b22:	2330      	movs	r3, #48	; 0x30
24059b24:	f8df 81b0 	ldr.w	r8, [pc, #432]	; 24059cd8 <_vfiprintf_r+0x220>
24059b28:	f88d 302a 	strb.w	r3, [sp, #42]	; 0x2a
24059b2c:	f04f 0901 	mov.w	r9, #1
24059b30:	4623      	mov	r3, r4
24059b32:	469a      	mov	sl, r3
24059b34:	f813 2b01 	ldrb.w	r2, [r3], #1
24059b38:	b10a      	cbz	r2, 24059b3e <_vfiprintf_r+0x86>
24059b3a:	2a25      	cmp	r2, #37	; 0x25
24059b3c:	d1f9      	bne.n	24059b32 <_vfiprintf_r+0x7a>
24059b3e:	ebba 0b04 	subs.w	fp, sl, r4
24059b42:	d00b      	beq.n	24059b5c <_vfiprintf_r+0xa4>
24059b44:	465b      	mov	r3, fp
24059b46:	4622      	mov	r2, r4
24059b48:	4629      	mov	r1, r5
24059b4a:	4630      	mov	r0, r6
24059b4c:	f7ff ffa1 	bl	24059a92 <__sfputs_r>
24059b50:	3001      	adds	r0, #1
24059b52:	f000 80a9 	beq.w	24059ca8 <_vfiprintf_r+0x1f0>
24059b56:	9a09      	ldr	r2, [sp, #36]	; 0x24
24059b58:	445a      	add	r2, fp
24059b5a:	9209      	str	r2, [sp, #36]	; 0x24
24059b5c:	f89a 3000 	ldrb.w	r3, [sl]
24059b60:	2b00      	cmp	r3, #0
24059b62:	f000 80a1 	beq.w	24059ca8 <_vfiprintf_r+0x1f0>
24059b66:	2300      	movs	r3, #0
24059b68:	f04f 32ff 	mov.w	r2, #4294967295
24059b6c:	e9cd 2305 	strd	r2, r3, [sp, #20]
24059b70:	f10a 0a01 	add.w	sl, sl, #1
24059b74:	9304      	str	r3, [sp, #16]
24059b76:	9307      	str	r3, [sp, #28]
24059b78:	f88d 3053 	strb.w	r3, [sp, #83]	; 0x53
24059b7c:	931a      	str	r3, [sp, #104]	; 0x68
24059b7e:	4654      	mov	r4, sl
24059b80:	2205      	movs	r2, #5
24059b82:	f814 1b01 	ldrb.w	r1, [r4], #1
24059b86:	4854      	ldr	r0, [pc, #336]	; (24059cd8 <_vfiprintf_r+0x220>)
24059b88:	f7f6 fa5a 	bl	24050040 <memchr>
24059b8c:	9a04      	ldr	r2, [sp, #16]
24059b8e:	b9d8      	cbnz	r0, 24059bc8 <_vfiprintf_r+0x110>
24059b90:	06d1      	lsls	r1, r2, #27
24059b92:	bf44      	itt	mi
24059b94:	2320      	movmi	r3, #32
24059b96:	f88d 3053 	strbmi.w	r3, [sp, #83]	; 0x53
24059b9a:	0713      	lsls	r3, r2, #28
24059b9c:	bf44      	itt	mi
24059b9e:	232b      	movmi	r3, #43	; 0x2b
24059ba0:	f88d 3053 	strbmi.w	r3, [sp, #83]	; 0x53
24059ba4:	f89a 3000 	ldrb.w	r3, [sl]
24059ba8:	2b2a      	cmp	r3, #42	; 0x2a
24059baa:	d015      	beq.n	24059bd8 <_vfiprintf_r+0x120>
24059bac:	9a07      	ldr	r2, [sp, #28]
24059bae:	4654      	mov	r4, sl
24059bb0:	2000      	movs	r0, #0
24059bb2:	f04f 0c0a 	mov.w	ip, #10
24059bb6:	4621      	mov	r1, r4
24059bb8:	f811 3b01 	ldrb.w	r3, [r1], #1
24059bbc:	3b30      	subs	r3, #48	; 0x30
24059bbe:	2b09      	cmp	r3, #9
24059bc0:	d94d      	bls.n	24059c5e <_vfiprintf_r+0x1a6>
24059bc2:	b1b0      	cbz	r0, 24059bf2 <_vfiprintf_r+0x13a>
24059bc4:	9207      	str	r2, [sp, #28]
24059bc6:	e014      	b.n	24059bf2 <_vfiprintf_r+0x13a>
24059bc8:	eba0 0308 	sub.w	r3, r0, r8
24059bcc:	fa09 f303 	lsl.w	r3, r9, r3
24059bd0:	4313      	orrs	r3, r2
24059bd2:	9304      	str	r3, [sp, #16]
24059bd4:	46a2      	mov	sl, r4
24059bd6:	e7d2      	b.n	24059b7e <_vfiprintf_r+0xc6>
24059bd8:	9b03      	ldr	r3, [sp, #12]
24059bda:	1d19      	adds	r1, r3, #4
24059bdc:	681b      	ldr	r3, [r3, #0]
24059bde:	9103      	str	r1, [sp, #12]
24059be0:	2b00      	cmp	r3, #0
24059be2:	bfbb      	ittet	lt
24059be4:	425b      	neglt	r3, r3
24059be6:	f042 0202 	orrlt.w	r2, r2, #2
24059bea:	9307      	strge	r3, [sp, #28]
24059bec:	9307      	strlt	r3, [sp, #28]
24059bee:	bfb8      	it	lt
24059bf0:	9204      	strlt	r2, [sp, #16]
24059bf2:	7823      	ldrb	r3, [r4, #0]
24059bf4:	2b2e      	cmp	r3, #46	; 0x2e
24059bf6:	d10c      	bne.n	24059c12 <_vfiprintf_r+0x15a>
24059bf8:	7863      	ldrb	r3, [r4, #1]
24059bfa:	2b2a      	cmp	r3, #42	; 0x2a
24059bfc:	d134      	bne.n	24059c68 <_vfiprintf_r+0x1b0>
24059bfe:	9b03      	ldr	r3, [sp, #12]
24059c00:	1d1a      	adds	r2, r3, #4
24059c02:	681b      	ldr	r3, [r3, #0]
24059c04:	9203      	str	r2, [sp, #12]
24059c06:	2b00      	cmp	r3, #0
24059c08:	bfb8      	it	lt
24059c0a:	f04f 33ff 	movlt.w	r3, #4294967295
24059c0e:	3402      	adds	r4, #2
24059c10:	9305      	str	r3, [sp, #20]
24059c12:	f8df a0d4 	ldr.w	sl, [pc, #212]	; 24059ce8 <_vfiprintf_r+0x230>
24059c16:	7821      	ldrb	r1, [r4, #0]
24059c18:	2203      	movs	r2, #3
24059c1a:	4650      	mov	r0, sl
24059c1c:	f7f6 fa10 	bl	24050040 <memchr>
24059c20:	b138      	cbz	r0, 24059c32 <_vfiprintf_r+0x17a>
24059c22:	9b04      	ldr	r3, [sp, #16]
24059c24:	eba0 000a 	sub.w	r0, r0, sl
24059c28:	2240      	movs	r2, #64	; 0x40
24059c2a:	4082      	lsls	r2, r0
24059c2c:	4313      	orrs	r3, r2
24059c2e:	3401      	adds	r4, #1
24059c30:	9304      	str	r3, [sp, #16]
24059c32:	f814 1b01 	ldrb.w	r1, [r4], #1
24059c36:	4829      	ldr	r0, [pc, #164]	; (24059cdc <_vfiprintf_r+0x224>)
24059c38:	f88d 1028 	strb.w	r1, [sp, #40]	; 0x28
24059c3c:	2206      	movs	r2, #6
24059c3e:	f7f6 f9ff 	bl	24050040 <memchr>
24059c42:	2800      	cmp	r0, #0
24059c44:	d03f      	beq.n	24059cc6 <_vfiprintf_r+0x20e>
24059c46:	4b26      	ldr	r3, [pc, #152]	; (24059ce0 <_vfiprintf_r+0x228>)
24059c48:	bb1b      	cbnz	r3, 24059c92 <_vfiprintf_r+0x1da>
24059c4a:	9b03      	ldr	r3, [sp, #12]
24059c4c:	3307      	adds	r3, #7
24059c4e:	f023 0307 	bic.w	r3, r3, #7
24059c52:	3308      	adds	r3, #8
24059c54:	9303      	str	r3, [sp, #12]
24059c56:	9b09      	ldr	r3, [sp, #36]	; 0x24
24059c58:	443b      	add	r3, r7
24059c5a:	9309      	str	r3, [sp, #36]	; 0x24
24059c5c:	e768      	b.n	24059b30 <_vfiprintf_r+0x78>
24059c5e:	fb0c 3202 	mla	r2, ip, r2, r3
24059c62:	460c      	mov	r4, r1
24059c64:	2001      	movs	r0, #1
24059c66:	e7a6      	b.n	24059bb6 <_vfiprintf_r+0xfe>
24059c68:	2300      	movs	r3, #0
24059c6a:	3401      	adds	r4, #1
24059c6c:	9305      	str	r3, [sp, #20]
24059c6e:	4619      	mov	r1, r3
24059c70:	f04f 0c0a 	mov.w	ip, #10
24059c74:	4620      	mov	r0, r4
24059c76:	f810 2b01 	ldrb.w	r2, [r0], #1
24059c7a:	3a30      	subs	r2, #48	; 0x30
24059c7c:	2a09      	cmp	r2, #9
24059c7e:	d903      	bls.n	24059c88 <_vfiprintf_r+0x1d0>
24059c80:	2b00      	cmp	r3, #0
24059c82:	d0c6      	beq.n	24059c12 <_vfiprintf_r+0x15a>
24059c84:	9105      	str	r1, [sp, #20]
24059c86:	e7c4      	b.n	24059c12 <_vfiprintf_r+0x15a>
24059c88:	fb0c 2101 	mla	r1, ip, r1, r2
24059c8c:	4604      	mov	r4, r0
24059c8e:	2301      	movs	r3, #1
24059c90:	e7f0      	b.n	24059c74 <_vfiprintf_r+0x1bc>
24059c92:	ab03      	add	r3, sp, #12
24059c94:	9300      	str	r3, [sp, #0]
24059c96:	462a      	mov	r2, r5
24059c98:	4b12      	ldr	r3, [pc, #72]	; (24059ce4 <_vfiprintf_r+0x22c>)
24059c9a:	a904      	add	r1, sp, #16
24059c9c:	4630      	mov	r0, r6
24059c9e:	f3af 8000 	nop.w
24059ca2:	4607      	mov	r7, r0
24059ca4:	1c78      	adds	r0, r7, #1
24059ca6:	d1d6      	bne.n	24059c56 <_vfiprintf_r+0x19e>
24059ca8:	6e6b      	ldr	r3, [r5, #100]	; 0x64
24059caa:	07d9      	lsls	r1, r3, #31
24059cac:	d405      	bmi.n	24059cba <_vfiprintf_r+0x202>
24059cae:	89ab      	ldrh	r3, [r5, #12]
24059cb0:	059a      	lsls	r2, r3, #22
24059cb2:	d402      	bmi.n	24059cba <_vfiprintf_r+0x202>
24059cb4:	6da8      	ldr	r0, [r5, #88]	; 0x58
24059cb6:	f7ff fc5f 	bl	24059578 <__retarget_lock_release_recursive>
24059cba:	89ab      	ldrh	r3, [r5, #12]
24059cbc:	065b      	lsls	r3, r3, #25
24059cbe:	f53f af1d 	bmi.w	24059afc <_vfiprintf_r+0x44>
24059cc2:	9809      	ldr	r0, [sp, #36]	; 0x24
24059cc4:	e71c      	b.n	24059b00 <_vfiprintf_r+0x48>
24059cc6:	ab03      	add	r3, sp, #12
24059cc8:	9300      	str	r3, [sp, #0]
24059cca:	462a      	mov	r2, r5
24059ccc:	4b05      	ldr	r3, [pc, #20]	; (24059ce4 <_vfiprintf_r+0x22c>)
24059cce:	a904      	add	r1, sp, #16
24059cd0:	4630      	mov	r0, r6
24059cd2:	f000 f879 	bl	24059dc8 <_printf_i>
24059cd6:	e7e4      	b.n	24059ca2 <_vfiprintf_r+0x1ea>
24059cd8:	2405bbf2 	.word	0x2405bbf2
24059cdc:	2405bbfc 	.word	0x2405bbfc
24059ce0:	00000000 	.word	0x00000000
24059ce4:	24059a93 	.word	0x24059a93
24059ce8:	2405bbf8 	.word	0x2405bbf8

24059cec <_printf_common>:
24059cec:	e92d 47f0 	stmdb	sp!, {r4, r5, r6, r7, r8, r9, sl, lr}
24059cf0:	4616      	mov	r6, r2
24059cf2:	4699      	mov	r9, r3
24059cf4:	688a      	ldr	r2, [r1, #8]
24059cf6:	690b      	ldr	r3, [r1, #16]
24059cf8:	f8dd 8020 	ldr.w	r8, [sp, #32]
24059cfc:	4293      	cmp	r3, r2
24059cfe:	bfb8      	it	lt
24059d00:	4613      	movlt	r3, r2
24059d02:	6033      	str	r3, [r6, #0]
24059d04:	f891 2043 	ldrb.w	r2, [r1, #67]	; 0x43
24059d08:	4607      	mov	r7, r0
24059d0a:	460c      	mov	r4, r1
24059d0c:	b10a      	cbz	r2, 24059d12 <_printf_common+0x26>
24059d0e:	3301      	adds	r3, #1
24059d10:	6033      	str	r3, [r6, #0]
24059d12:	6823      	ldr	r3, [r4, #0]
24059d14:	0699      	lsls	r1, r3, #26
24059d16:	bf42      	ittt	mi
24059d18:	6833      	ldrmi	r3, [r6, #0]
24059d1a:	3302      	addmi	r3, #2
24059d1c:	6033      	strmi	r3, [r6, #0]
24059d1e:	6825      	ldr	r5, [r4, #0]
24059d20:	f015 0506 	ands.w	r5, r5, #6
24059d24:	d106      	bne.n	24059d34 <_printf_common+0x48>
24059d26:	f104 0a19 	add.w	sl, r4, #25
24059d2a:	68e3      	ldr	r3, [r4, #12]
24059d2c:	6832      	ldr	r2, [r6, #0]
24059d2e:	1a9b      	subs	r3, r3, r2
24059d30:	42ab      	cmp	r3, r5
24059d32:	dc26      	bgt.n	24059d82 <_printf_common+0x96>
24059d34:	f894 2043 	ldrb.w	r2, [r4, #67]	; 0x43
24059d38:	1e13      	subs	r3, r2, #0
24059d3a:	6822      	ldr	r2, [r4, #0]
24059d3c:	bf18      	it	ne
24059d3e:	2301      	movne	r3, #1
24059d40:	0692      	lsls	r2, r2, #26
24059d42:	d42b      	bmi.n	24059d9c <_printf_common+0xb0>
24059d44:	f104 0243 	add.w	r2, r4, #67	; 0x43
24059d48:	4649      	mov	r1, r9
24059d4a:	4638      	mov	r0, r7
24059d4c:	47c0      	blx	r8
24059d4e:	3001      	adds	r0, #1
24059d50:	d01e      	beq.n	24059d90 <_printf_common+0xa4>
24059d52:	6823      	ldr	r3, [r4, #0]
24059d54:	6922      	ldr	r2, [r4, #16]
24059d56:	f003 0306 	and.w	r3, r3, #6
24059d5a:	2b04      	cmp	r3, #4
24059d5c:	bf02      	ittt	eq
24059d5e:	68e5      	ldreq	r5, [r4, #12]
24059d60:	6833      	ldreq	r3, [r6, #0]
24059d62:	1aed      	subeq	r5, r5, r3
24059d64:	68a3      	ldr	r3, [r4, #8]
24059d66:	bf0c      	ite	eq
24059d68:	ea25 75e5 	biceq.w	r5, r5, r5, asr #31
24059d6c:	2500      	movne	r5, #0
24059d6e:	4293      	cmp	r3, r2
24059d70:	bfc4      	itt	gt
24059d72:	1a9b      	subgt	r3, r3, r2
24059d74:	18ed      	addgt	r5, r5, r3
24059d76:	2600      	movs	r6, #0
24059d78:	341a      	adds	r4, #26
24059d7a:	42b5      	cmp	r5, r6
24059d7c:	d11a      	bne.n	24059db4 <_printf_common+0xc8>
24059d7e:	2000      	movs	r0, #0
24059d80:	e008      	b.n	24059d94 <_printf_common+0xa8>
24059d82:	2301      	movs	r3, #1
24059d84:	4652      	mov	r2, sl
24059d86:	4649      	mov	r1, r9
24059d88:	4638      	mov	r0, r7
24059d8a:	47c0      	blx	r8
24059d8c:	3001      	adds	r0, #1
24059d8e:	d103      	bne.n	24059d98 <_printf_common+0xac>
24059d90:	f04f 30ff 	mov.w	r0, #4294967295
24059d94:	e8bd 87f0 	ldmia.w	sp!, {r4, r5, r6, r7, r8, r9, sl, pc}
24059d98:	3501      	adds	r5, #1
24059d9a:	e7c6      	b.n	24059d2a <_printf_common+0x3e>
24059d9c:	18e1      	adds	r1, r4, r3
24059d9e:	1c5a      	adds	r2, r3, #1
24059da0:	2030      	movs	r0, #48	; 0x30
24059da2:	f881 0043 	strb.w	r0, [r1, #67]	; 0x43
24059da6:	4422      	add	r2, r4
24059da8:	f894 1045 	ldrb.w	r1, [r4, #69]	; 0x45
24059dac:	f882 1043 	strb.w	r1, [r2, #67]	; 0x43
24059db0:	3302      	adds	r3, #2
24059db2:	e7c7      	b.n	24059d44 <_printf_common+0x58>
24059db4:	2301      	movs	r3, #1
24059db6:	4622      	mov	r2, r4
24059db8:	4649      	mov	r1, r9
24059dba:	4638      	mov	r0, r7
24059dbc:	47c0      	blx	r8
24059dbe:	3001      	adds	r0, #1
24059dc0:	d0e6      	beq.n	24059d90 <_printf_common+0xa4>
24059dc2:	3601      	adds	r6, #1
24059dc4:	e7d9      	b.n	24059d7a <_printf_common+0x8e>
	...

24059dc8 <_printf_i>:
24059dc8:	e92d 47ff 	stmdb	sp!, {r0, r1, r2, r3, r4, r5, r6, r7, r8, r9, sl, lr}
24059dcc:	7e0f      	ldrb	r7, [r1, #24]
24059dce:	9d0c      	ldr	r5, [sp, #48]	; 0x30
24059dd0:	2f78      	cmp	r7, #120	; 0x78
24059dd2:	4691      	mov	r9, r2
24059dd4:	4680      	mov	r8, r0
24059dd6:	460c      	mov	r4, r1
24059dd8:	469a      	mov	sl, r3
24059dda:	f101 0243 	add.w	r2, r1, #67	; 0x43
24059dde:	d807      	bhi.n	24059df0 <_printf_i+0x28>
24059de0:	2f62      	cmp	r7, #98	; 0x62
24059de2:	d80a      	bhi.n	24059dfa <_printf_i+0x32>
24059de4:	2f00      	cmp	r7, #0
24059de6:	f000 80d4 	beq.w	24059f92 <_printf_i+0x1ca>
24059dea:	2f58      	cmp	r7, #88	; 0x58
24059dec:	f000 80c0 	beq.w	24059f70 <_printf_i+0x1a8>
24059df0:	f104 0542 	add.w	r5, r4, #66	; 0x42
24059df4:	f884 7042 	strb.w	r7, [r4, #66]	; 0x42
24059df8:	e03a      	b.n	24059e70 <_printf_i+0xa8>
24059dfa:	f1a7 0363 	sub.w	r3, r7, #99	; 0x63
24059dfe:	2b15      	cmp	r3, #21
24059e00:	d8f6      	bhi.n	24059df0 <_printf_i+0x28>
24059e02:	a101      	add	r1, pc, #4	; (adr r1, 24059e08 <_printf_i+0x40>)
24059e04:	f851 f023 	ldr.w	pc, [r1, r3, lsl #2]
24059e08:	24059e61 	.word	0x24059e61
24059e0c:	24059e75 	.word	0x24059e75
24059e10:	24059df1 	.word	0x24059df1
24059e14:	24059df1 	.word	0x24059df1
24059e18:	24059df1 	.word	0x24059df1
24059e1c:	24059df1 	.word	0x24059df1
24059e20:	24059e75 	.word	0x24059e75
24059e24:	24059df1 	.word	0x24059df1
24059e28:	24059df1 	.word	0x24059df1
24059e2c:	24059df1 	.word	0x24059df1
24059e30:	24059df1 	.word	0x24059df1
24059e34:	24059f79 	.word	0x24059f79
24059e38:	24059ea1 	.word	0x24059ea1
24059e3c:	24059f33 	.word	0x24059f33
24059e40:	24059df1 	.word	0x24059df1
24059e44:	24059df1 	.word	0x24059df1
24059e48:	24059f9b 	.word	0x24059f9b
24059e4c:	24059df1 	.word	0x24059df1
24059e50:	24059ea1 	.word	0x24059ea1
24059e54:	24059df1 	.word	0x24059df1
24059e58:	24059df1 	.word	0x24059df1
24059e5c:	24059f3b 	.word	0x24059f3b
24059e60:	682b      	ldr	r3, [r5, #0]
24059e62:	1d1a      	adds	r2, r3, #4
24059e64:	681b      	ldr	r3, [r3, #0]
24059e66:	602a      	str	r2, [r5, #0]
24059e68:	f104 0542 	add.w	r5, r4, #66	; 0x42
24059e6c:	f884 3042 	strb.w	r3, [r4, #66]	; 0x42
24059e70:	2301      	movs	r3, #1
24059e72:	e09f      	b.n	24059fb4 <_printf_i+0x1ec>
24059e74:	6820      	ldr	r0, [r4, #0]
24059e76:	682b      	ldr	r3, [r5, #0]
24059e78:	0607      	lsls	r7, r0, #24
24059e7a:	f103 0104 	add.w	r1, r3, #4
24059e7e:	6029      	str	r1, [r5, #0]
24059e80:	d501      	bpl.n	24059e86 <_printf_i+0xbe>
24059e82:	681e      	ldr	r6, [r3, #0]
24059e84:	e003      	b.n	24059e8e <_printf_i+0xc6>
24059e86:	0646      	lsls	r6, r0, #25
24059e88:	d5fb      	bpl.n	24059e82 <_printf_i+0xba>
24059e8a:	f9b3 6000 	ldrsh.w	r6, [r3]
24059e8e:	2e00      	cmp	r6, #0
24059e90:	da03      	bge.n	24059e9a <_printf_i+0xd2>
24059e92:	232d      	movs	r3, #45	; 0x2d
24059e94:	4276      	negs	r6, r6
24059e96:	f884 3043 	strb.w	r3, [r4, #67]	; 0x43
24059e9a:	485a      	ldr	r0, [pc, #360]	; (2405a004 <_printf_i+0x23c>)
24059e9c:	230a      	movs	r3, #10
24059e9e:	e012      	b.n	24059ec6 <_printf_i+0xfe>
24059ea0:	682b      	ldr	r3, [r5, #0]
24059ea2:	6820      	ldr	r0, [r4, #0]
24059ea4:	1d19      	adds	r1, r3, #4
24059ea6:	6029      	str	r1, [r5, #0]
24059ea8:	0605      	lsls	r5, r0, #24
24059eaa:	d501      	bpl.n	24059eb0 <_printf_i+0xe8>
24059eac:	681e      	ldr	r6, [r3, #0]
24059eae:	e002      	b.n	24059eb6 <_printf_i+0xee>
24059eb0:	0641      	lsls	r1, r0, #25
24059eb2:	d5fb      	bpl.n	24059eac <_printf_i+0xe4>
24059eb4:	881e      	ldrh	r6, [r3, #0]
24059eb6:	4853      	ldr	r0, [pc, #332]	; (2405a004 <_printf_i+0x23c>)
24059eb8:	2f6f      	cmp	r7, #111	; 0x6f
24059eba:	bf0c      	ite	eq
24059ebc:	2308      	moveq	r3, #8
24059ebe:	230a      	movne	r3, #10
24059ec0:	2100      	movs	r1, #0
24059ec2:	f884 1043 	strb.w	r1, [r4, #67]	; 0x43
24059ec6:	6865      	ldr	r5, [r4, #4]
24059ec8:	60a5      	str	r5, [r4, #8]
24059eca:	2d00      	cmp	r5, #0
24059ecc:	bfa2      	ittt	ge
24059ece:	6821      	ldrge	r1, [r4, #0]
24059ed0:	f021 0104 	bicge.w	r1, r1, #4
24059ed4:	6021      	strge	r1, [r4, #0]
24059ed6:	b90e      	cbnz	r6, 24059edc <_printf_i+0x114>
24059ed8:	2d00      	cmp	r5, #0
24059eda:	d04b      	beq.n	24059f74 <_printf_i+0x1ac>
24059edc:	4615      	mov	r5, r2
24059ede:	fbb6 f1f3 	udiv	r1, r6, r3
24059ee2:	fb03 6711 	mls	r7, r3, r1, r6
24059ee6:	5dc7      	ldrb	r7, [r0, r7]
24059ee8:	f805 7d01 	strb.w	r7, [r5, #-1]!
24059eec:	4637      	mov	r7, r6
24059eee:	42bb      	cmp	r3, r7
24059ef0:	460e      	mov	r6, r1
24059ef2:	d9f4      	bls.n	24059ede <_printf_i+0x116>
24059ef4:	2b08      	cmp	r3, #8
24059ef6:	d10b      	bne.n	24059f10 <_printf_i+0x148>
24059ef8:	6823      	ldr	r3, [r4, #0]
24059efa:	07de      	lsls	r6, r3, #31
24059efc:	d508      	bpl.n	24059f10 <_printf_i+0x148>
24059efe:	6923      	ldr	r3, [r4, #16]
24059f00:	6861      	ldr	r1, [r4, #4]
24059f02:	4299      	cmp	r1, r3
24059f04:	bfde      	ittt	le
24059f06:	2330      	movle	r3, #48	; 0x30
24059f08:	f805 3c01 	strble.w	r3, [r5, #-1]
24059f0c:	f105 35ff 	addle.w	r5, r5, #4294967295
24059f10:	1b52      	subs	r2, r2, r5
24059f12:	6122      	str	r2, [r4, #16]
24059f14:	f8cd a000 	str.w	sl, [sp]
24059f18:	464b      	mov	r3, r9
24059f1a:	aa03      	add	r2, sp, #12
24059f1c:	4621      	mov	r1, r4
24059f1e:	4640      	mov	r0, r8
24059f20:	f7ff fee4 	bl	24059cec <_printf_common>
24059f24:	3001      	adds	r0, #1
24059f26:	d14a      	bne.n	24059fbe <_printf_i+0x1f6>
24059f28:	f04f 30ff 	mov.w	r0, #4294967295
24059f2c:	b004      	add	sp, #16
24059f2e:	e8bd 87f0 	ldmia.w	sp!, {r4, r5, r6, r7, r8, r9, sl, pc}
24059f32:	6823      	ldr	r3, [r4, #0]
24059f34:	f043 0320 	orr.w	r3, r3, #32
24059f38:	6023      	str	r3, [r4, #0]
24059f3a:	4833      	ldr	r0, [pc, #204]	; (2405a008 <_printf_i+0x240>)
24059f3c:	2778      	movs	r7, #120	; 0x78
24059f3e:	f884 7045 	strb.w	r7, [r4, #69]	; 0x45
24059f42:	6823      	ldr	r3, [r4, #0]
24059f44:	6829      	ldr	r1, [r5, #0]
24059f46:	061f      	lsls	r7, r3, #24
24059f48:	f851 6b04 	ldr.w	r6, [r1], #4
24059f4c:	d402      	bmi.n	24059f54 <_printf_i+0x18c>
24059f4e:	065f      	lsls	r7, r3, #25
24059f50:	bf48      	it	mi
24059f52:	b2b6      	uxthmi	r6, r6
24059f54:	07df      	lsls	r7, r3, #31
24059f56:	bf48      	it	mi
24059f58:	f043 0320 	orrmi.w	r3, r3, #32
24059f5c:	6029      	str	r1, [r5, #0]
24059f5e:	bf48      	it	mi
24059f60:	6023      	strmi	r3, [r4, #0]
24059f62:	b91e      	cbnz	r6, 24059f6c <_printf_i+0x1a4>
24059f64:	6823      	ldr	r3, [r4, #0]
24059f66:	f023 0320 	bic.w	r3, r3, #32
24059f6a:	6023      	str	r3, [r4, #0]
24059f6c:	2310      	movs	r3, #16
24059f6e:	e7a7      	b.n	24059ec0 <_printf_i+0xf8>
24059f70:	4824      	ldr	r0, [pc, #144]	; (2405a004 <_printf_i+0x23c>)
24059f72:	e7e4      	b.n	24059f3e <_printf_i+0x176>
24059f74:	4615      	mov	r5, r2
24059f76:	e7bd      	b.n	24059ef4 <_printf_i+0x12c>
24059f78:	682b      	ldr	r3, [r5, #0]
24059f7a:	6826      	ldr	r6, [r4, #0]
24059f7c:	6961      	ldr	r1, [r4, #20]
24059f7e:	1d18      	adds	r0, r3, #4
24059f80:	6028      	str	r0, [r5, #0]
24059f82:	0635      	lsls	r5, r6, #24
24059f84:	681b      	ldr	r3, [r3, #0]
24059f86:	d501      	bpl.n	24059f8c <_printf_i+0x1c4>
24059f88:	6019      	str	r1, [r3, #0]
24059f8a:	e002      	b.n	24059f92 <_printf_i+0x1ca>
24059f8c:	0670      	lsls	r0, r6, #25
24059f8e:	d5fb      	bpl.n	24059f88 <_printf_i+0x1c0>
24059f90:	8019      	strh	r1, [r3, #0]
24059f92:	2300      	movs	r3, #0
24059f94:	6123      	str	r3, [r4, #16]
24059f96:	4615      	mov	r5, r2
24059f98:	e7bc      	b.n	24059f14 <_printf_i+0x14c>
24059f9a:	682b      	ldr	r3, [r5, #0]
24059f9c:	1d1a      	adds	r2, r3, #4
24059f9e:	602a      	str	r2, [r5, #0]
24059fa0:	681d      	ldr	r5, [r3, #0]
24059fa2:	6862      	ldr	r2, [r4, #4]
24059fa4:	2100      	movs	r1, #0
24059fa6:	4628      	mov	r0, r5
24059fa8:	f7f6 f84a 	bl	24050040 <memchr>
24059fac:	b108      	cbz	r0, 24059fb2 <_printf_i+0x1ea>
24059fae:	1b40      	subs	r0, r0, r5
24059fb0:	6060      	str	r0, [r4, #4]
24059fb2:	6863      	ldr	r3, [r4, #4]
24059fb4:	6123      	str	r3, [r4, #16]
24059fb6:	2300      	movs	r3, #0
24059fb8:	f884 3043 	strb.w	r3, [r4, #67]	; 0x43
24059fbc:	e7aa      	b.n	24059f14 <_printf_i+0x14c>
24059fbe:	6923      	ldr	r3, [r4, #16]
24059fc0:	462a      	mov	r2, r5
24059fc2:	4649      	mov	r1, r9
24059fc4:	4640      	mov	r0, r8
24059fc6:	47d0      	blx	sl
24059fc8:	3001      	adds	r0, #1
24059fca:	d0ad      	beq.n	24059f28 <_printf_i+0x160>
24059fcc:	6823      	ldr	r3, [r4, #0]
24059fce:	079b      	lsls	r3, r3, #30
24059fd0:	d413      	bmi.n	24059ffa <_printf_i+0x232>
24059fd2:	68e0      	ldr	r0, [r4, #12]
24059fd4:	9b03      	ldr	r3, [sp, #12]
24059fd6:	4298      	cmp	r0, r3
24059fd8:	bfb8      	it	lt
24059fda:	4618      	movlt	r0, r3
24059fdc:	e7a6      	b.n	24059f2c <_printf_i+0x164>
24059fde:	2301      	movs	r3, #1
24059fe0:	4632      	mov	r2, r6
24059fe2:	4649      	mov	r1, r9
24059fe4:	4640      	mov	r0, r8
24059fe6:	47d0      	blx	sl
24059fe8:	3001      	adds	r0, #1
24059fea:	d09d      	beq.n	24059f28 <_printf_i+0x160>
24059fec:	3501      	adds	r5, #1
24059fee:	68e3      	ldr	r3, [r4, #12]
24059ff0:	9903      	ldr	r1, [sp, #12]
24059ff2:	1a5b      	subs	r3, r3, r1
24059ff4:	42ab      	cmp	r3, r5
24059ff6:	dcf2      	bgt.n	24059fde <_printf_i+0x216>
24059ff8:	e7eb      	b.n	24059fd2 <_printf_i+0x20a>
24059ffa:	2500      	movs	r5, #0
24059ffc:	f104 0619 	add.w	r6, r4, #25
2405a000:	e7f5      	b.n	24059fee <_printf_i+0x226>
2405a002:	bf00      	nop
2405a004:	2405bc03 	.word	0x2405bc03
2405a008:	2405bc14 	.word	0x2405bc14

2405a00c <__sflush_r>:
2405a00c:	898a      	ldrh	r2, [r1, #12]
2405a00e:	e92d 41f0 	stmdb	sp!, {r4, r5, r6, r7, r8, lr}
2405a012:	4605      	mov	r5, r0
2405a014:	0710      	lsls	r0, r2, #28
2405a016:	460c      	mov	r4, r1
2405a018:	d458      	bmi.n	2405a0cc <__sflush_r+0xc0>
2405a01a:	684b      	ldr	r3, [r1, #4]
2405a01c:	2b00      	cmp	r3, #0
2405a01e:	dc05      	bgt.n	2405a02c <__sflush_r+0x20>
2405a020:	6c0b      	ldr	r3, [r1, #64]	; 0x40
2405a022:	2b00      	cmp	r3, #0
2405a024:	dc02      	bgt.n	2405a02c <__sflush_r+0x20>
2405a026:	2000      	movs	r0, #0
2405a028:	e8bd 81f0 	ldmia.w	sp!, {r4, r5, r6, r7, r8, pc}
2405a02c:	6ae6      	ldr	r6, [r4, #44]	; 0x2c
2405a02e:	2e00      	cmp	r6, #0
2405a030:	d0f9      	beq.n	2405a026 <__sflush_r+0x1a>
2405a032:	2300      	movs	r3, #0
2405a034:	f412 5280 	ands.w	r2, r2, #4096	; 0x1000
2405a038:	682f      	ldr	r7, [r5, #0]
2405a03a:	6a21      	ldr	r1, [r4, #32]
2405a03c:	602b      	str	r3, [r5, #0]
2405a03e:	d032      	beq.n	2405a0a6 <__sflush_r+0x9a>
2405a040:	6d60      	ldr	r0, [r4, #84]	; 0x54
2405a042:	89a3      	ldrh	r3, [r4, #12]
2405a044:	075a      	lsls	r2, r3, #29
2405a046:	d505      	bpl.n	2405a054 <__sflush_r+0x48>
2405a048:	6863      	ldr	r3, [r4, #4]
2405a04a:	1ac0      	subs	r0, r0, r3
2405a04c:	6b63      	ldr	r3, [r4, #52]	; 0x34
2405a04e:	b10b      	cbz	r3, 2405a054 <__sflush_r+0x48>
2405a050:	6c23      	ldr	r3, [r4, #64]	; 0x40
2405a052:	1ac0      	subs	r0, r0, r3
2405a054:	2300      	movs	r3, #0
2405a056:	4602      	mov	r2, r0
2405a058:	6ae6      	ldr	r6, [r4, #44]	; 0x2c
2405a05a:	6a21      	ldr	r1, [r4, #32]
2405a05c:	4628      	mov	r0, r5
2405a05e:	47b0      	blx	r6
2405a060:	1c43      	adds	r3, r0, #1
2405a062:	89a3      	ldrh	r3, [r4, #12]
2405a064:	d106      	bne.n	2405a074 <__sflush_r+0x68>
2405a066:	6829      	ldr	r1, [r5, #0]
2405a068:	291d      	cmp	r1, #29
2405a06a:	d82b      	bhi.n	2405a0c4 <__sflush_r+0xb8>
2405a06c:	4a29      	ldr	r2, [pc, #164]	; (2405a114 <__sflush_r+0x108>)
2405a06e:	410a      	asrs	r2, r1
2405a070:	07d6      	lsls	r6, r2, #31
2405a072:	d427      	bmi.n	2405a0c4 <__sflush_r+0xb8>
2405a074:	2200      	movs	r2, #0
2405a076:	6062      	str	r2, [r4, #4]
2405a078:	04d9      	lsls	r1, r3, #19
2405a07a:	6922      	ldr	r2, [r4, #16]
2405a07c:	6022      	str	r2, [r4, #0]
2405a07e:	d504      	bpl.n	2405a08a <__sflush_r+0x7e>
2405a080:	1c42      	adds	r2, r0, #1
2405a082:	d101      	bne.n	2405a088 <__sflush_r+0x7c>
2405a084:	682b      	ldr	r3, [r5, #0]
2405a086:	b903      	cbnz	r3, 2405a08a <__sflush_r+0x7e>
2405a088:	6560      	str	r0, [r4, #84]	; 0x54
2405a08a:	6b61      	ldr	r1, [r4, #52]	; 0x34
2405a08c:	602f      	str	r7, [r5, #0]
2405a08e:	2900      	cmp	r1, #0
2405a090:	d0c9      	beq.n	2405a026 <__sflush_r+0x1a>
2405a092:	f104 0344 	add.w	r3, r4, #68	; 0x44
2405a096:	4299      	cmp	r1, r3
2405a098:	d002      	beq.n	2405a0a0 <__sflush_r+0x94>
2405a09a:	4628      	mov	r0, r5
2405a09c:	f7ff fa8a 	bl	240595b4 <_free_r>
2405a0a0:	2000      	movs	r0, #0
2405a0a2:	6360      	str	r0, [r4, #52]	; 0x34
2405a0a4:	e7c0      	b.n	2405a028 <__sflush_r+0x1c>
2405a0a6:	2301      	movs	r3, #1
2405a0a8:	4628      	mov	r0, r5
2405a0aa:	47b0      	blx	r6
2405a0ac:	1c41      	adds	r1, r0, #1
2405a0ae:	d1c8      	bne.n	2405a042 <__sflush_r+0x36>
2405a0b0:	682b      	ldr	r3, [r5, #0]
2405a0b2:	2b00      	cmp	r3, #0
2405a0b4:	d0c5      	beq.n	2405a042 <__sflush_r+0x36>
2405a0b6:	2b1d      	cmp	r3, #29
2405a0b8:	d001      	beq.n	2405a0be <__sflush_r+0xb2>
2405a0ba:	2b16      	cmp	r3, #22
2405a0bc:	d101      	bne.n	2405a0c2 <__sflush_r+0xb6>
2405a0be:	602f      	str	r7, [r5, #0]
2405a0c0:	e7b1      	b.n	2405a026 <__sflush_r+0x1a>
2405a0c2:	89a3      	ldrh	r3, [r4, #12]
2405a0c4:	f043 0340 	orr.w	r3, r3, #64	; 0x40
2405a0c8:	81a3      	strh	r3, [r4, #12]
2405a0ca:	e7ad      	b.n	2405a028 <__sflush_r+0x1c>
2405a0cc:	690f      	ldr	r7, [r1, #16]
2405a0ce:	2f00      	cmp	r7, #0
2405a0d0:	d0a9      	beq.n	2405a026 <__sflush_r+0x1a>
2405a0d2:	0793      	lsls	r3, r2, #30
2405a0d4:	680e      	ldr	r6, [r1, #0]
2405a0d6:	bf08      	it	eq
2405a0d8:	694b      	ldreq	r3, [r1, #20]
2405a0da:	600f      	str	r7, [r1, #0]
2405a0dc:	bf18      	it	ne
2405a0de:	2300      	movne	r3, #0
2405a0e0:	eba6 0807 	sub.w	r8, r6, r7
2405a0e4:	608b      	str	r3, [r1, #8]
2405a0e6:	f1b8 0f00 	cmp.w	r8, #0
2405a0ea:	dd9c      	ble.n	2405a026 <__sflush_r+0x1a>
2405a0ec:	6a21      	ldr	r1, [r4, #32]
2405a0ee:	6aa6      	ldr	r6, [r4, #40]	; 0x28
2405a0f0:	4643      	mov	r3, r8
2405a0f2:	463a      	mov	r2, r7
2405a0f4:	4628      	mov	r0, r5
2405a0f6:	47b0      	blx	r6
2405a0f8:	2800      	cmp	r0, #0
2405a0fa:	dc06      	bgt.n	2405a10a <__sflush_r+0xfe>
2405a0fc:	89a3      	ldrh	r3, [r4, #12]
2405a0fe:	f043 0340 	orr.w	r3, r3, #64	; 0x40
2405a102:	81a3      	strh	r3, [r4, #12]
2405a104:	f04f 30ff 	mov.w	r0, #4294967295
2405a108:	e78e      	b.n	2405a028 <__sflush_r+0x1c>
2405a10a:	4407      	add	r7, r0
2405a10c:	eba8 0800 	sub.w	r8, r8, r0
2405a110:	e7e9      	b.n	2405a0e6 <__sflush_r+0xda>
2405a112:	bf00      	nop
2405a114:	dfbffffe 	.word	0xdfbffffe

2405a118 <_fflush_r>:
2405a118:	b538      	push	{r3, r4, r5, lr}
2405a11a:	690b      	ldr	r3, [r1, #16]
2405a11c:	4605      	mov	r5, r0
2405a11e:	460c      	mov	r4, r1
2405a120:	b913      	cbnz	r3, 2405a128 <_fflush_r+0x10>
2405a122:	2500      	movs	r5, #0
2405a124:	4628      	mov	r0, r5
2405a126:	bd38      	pop	{r3, r4, r5, pc}
2405a128:	b118      	cbz	r0, 2405a132 <_fflush_r+0x1a>
2405a12a:	6a03      	ldr	r3, [r0, #32]
2405a12c:	b90b      	cbnz	r3, 2405a132 <_fflush_r+0x1a>
2405a12e:	f7fe ffe1 	bl	240590f4 <__sinit>
2405a132:	f9b4 300c 	ldrsh.w	r3, [r4, #12]
2405a136:	2b00      	cmp	r3, #0
2405a138:	d0f3      	beq.n	2405a122 <_fflush_r+0xa>
2405a13a:	6e62      	ldr	r2, [r4, #100]	; 0x64
2405a13c:	07d0      	lsls	r0, r2, #31
2405a13e:	d404      	bmi.n	2405a14a <_fflush_r+0x32>
2405a140:	0599      	lsls	r1, r3, #22
2405a142:	d402      	bmi.n	2405a14a <_fflush_r+0x32>
2405a144:	6da0      	ldr	r0, [r4, #88]	; 0x58
2405a146:	f7ff fa16 	bl	24059576 <__retarget_lock_acquire_recursive>
2405a14a:	4628      	mov	r0, r5
2405a14c:	4621      	mov	r1, r4
2405a14e:	f7ff ff5d 	bl	2405a00c <__sflush_r>
2405a152:	6e63      	ldr	r3, [r4, #100]	; 0x64
2405a154:	07da      	lsls	r2, r3, #31
2405a156:	4605      	mov	r5, r0
2405a158:	d4e4      	bmi.n	2405a124 <_fflush_r+0xc>
2405a15a:	89a3      	ldrh	r3, [r4, #12]
2405a15c:	059b      	lsls	r3, r3, #22
2405a15e:	d4e1      	bmi.n	2405a124 <_fflush_r+0xc>
2405a160:	6da0      	ldr	r0, [r4, #88]	; 0x58
2405a162:	f7ff fa09 	bl	24059578 <__retarget_lock_release_recursive>
2405a166:	e7dd      	b.n	2405a124 <_fflush_r+0xc>

2405a168 <__swhatbuf_r>:
2405a168:	b570      	push	{r4, r5, r6, lr}
2405a16a:	460c      	mov	r4, r1
2405a16c:	f9b1 100e 	ldrsh.w	r1, [r1, #14]
2405a170:	2900      	cmp	r1, #0
2405a172:	b096      	sub	sp, #88	; 0x58
2405a174:	4615      	mov	r5, r2
2405a176:	461e      	mov	r6, r3
2405a178:	da0d      	bge.n	2405a196 <__swhatbuf_r+0x2e>
2405a17a:	89a3      	ldrh	r3, [r4, #12]
2405a17c:	f013 0f80 	tst.w	r3, #128	; 0x80
2405a180:	f04f 0100 	mov.w	r1, #0
2405a184:	bf0c      	ite	eq
2405a186:	f44f 6380 	moveq.w	r3, #1024	; 0x400
2405a18a:	2340      	movne	r3, #64	; 0x40
2405a18c:	2000      	movs	r0, #0
2405a18e:	6031      	str	r1, [r6, #0]
2405a190:	602b      	str	r3, [r5, #0]
2405a192:	b016      	add	sp, #88	; 0x58
2405a194:	bd70      	pop	{r4, r5, r6, pc}
2405a196:	466a      	mov	r2, sp
2405a198:	f000 f878 	bl	2405a28c <_fstat_r>
2405a19c:	2800      	cmp	r0, #0
2405a19e:	dbec      	blt.n	2405a17a <__swhatbuf_r+0x12>
2405a1a0:	9901      	ldr	r1, [sp, #4]
2405a1a2:	f401 4170 	and.w	r1, r1, #61440	; 0xf000
2405a1a6:	f5a1 5300 	sub.w	r3, r1, #8192	; 0x2000
2405a1aa:	4259      	negs	r1, r3
2405a1ac:	4159      	adcs	r1, r3
2405a1ae:	f44f 6380 	mov.w	r3, #1024	; 0x400
2405a1b2:	e7eb      	b.n	2405a18c <__swhatbuf_r+0x24>

2405a1b4 <__smakebuf_r>:
2405a1b4:	898b      	ldrh	r3, [r1, #12]
2405a1b6:	b573      	push	{r0, r1, r4, r5, r6, lr}
2405a1b8:	079d      	lsls	r5, r3, #30
2405a1ba:	4606      	mov	r6, r0
2405a1bc:	460c      	mov	r4, r1
2405a1be:	d507      	bpl.n	2405a1d0 <__smakebuf_r+0x1c>
2405a1c0:	f104 0347 	add.w	r3, r4, #71	; 0x47
2405a1c4:	6023      	str	r3, [r4, #0]
2405a1c6:	6123      	str	r3, [r4, #16]
2405a1c8:	2301      	movs	r3, #1
2405a1ca:	6163      	str	r3, [r4, #20]
2405a1cc:	b002      	add	sp, #8
2405a1ce:	bd70      	pop	{r4, r5, r6, pc}
2405a1d0:	ab01      	add	r3, sp, #4
2405a1d2:	466a      	mov	r2, sp
2405a1d4:	f7ff ffc8 	bl	2405a168 <__swhatbuf_r>
2405a1d8:	9900      	ldr	r1, [sp, #0]
2405a1da:	4605      	mov	r5, r0
2405a1dc:	4630      	mov	r0, r6
2405a1de:	f7ff fa5d 	bl	2405969c <_malloc_r>
2405a1e2:	b948      	cbnz	r0, 2405a1f8 <__smakebuf_r+0x44>
2405a1e4:	f9b4 300c 	ldrsh.w	r3, [r4, #12]
2405a1e8:	059a      	lsls	r2, r3, #22
2405a1ea:	d4ef      	bmi.n	2405a1cc <__smakebuf_r+0x18>
2405a1ec:	f023 0303 	bic.w	r3, r3, #3
2405a1f0:	f043 0302 	orr.w	r3, r3, #2
2405a1f4:	81a3      	strh	r3, [r4, #12]
2405a1f6:	e7e3      	b.n	2405a1c0 <__smakebuf_r+0xc>
2405a1f8:	89a3      	ldrh	r3, [r4, #12]
2405a1fa:	6020      	str	r0, [r4, #0]
2405a1fc:	f043 0380 	orr.w	r3, r3, #128	; 0x80
2405a200:	81a3      	strh	r3, [r4, #12]
2405a202:	9b00      	ldr	r3, [sp, #0]
2405a204:	6163      	str	r3, [r4, #20]
2405a206:	9b01      	ldr	r3, [sp, #4]
2405a208:	6120      	str	r0, [r4, #16]
2405a20a:	b15b      	cbz	r3, 2405a224 <__smakebuf_r+0x70>
2405a20c:	f9b4 100e 	ldrsh.w	r1, [r4, #14]
2405a210:	4630      	mov	r0, r6
2405a212:	f000 f84d 	bl	2405a2b0 <_isatty_r>
2405a216:	b128      	cbz	r0, 2405a224 <__smakebuf_r+0x70>
2405a218:	89a3      	ldrh	r3, [r4, #12]
2405a21a:	f023 0303 	bic.w	r3, r3, #3
2405a21e:	f043 0301 	orr.w	r3, r3, #1
2405a222:	81a3      	strh	r3, [r4, #12]
2405a224:	89a3      	ldrh	r3, [r4, #12]
2405a226:	431d      	orrs	r5, r3
2405a228:	81a5      	strh	r5, [r4, #12]
2405a22a:	e7cf      	b.n	2405a1cc <__smakebuf_r+0x18>

2405a22c <_raise_r>:
2405a22c:	291f      	cmp	r1, #31
2405a22e:	b538      	push	{r3, r4, r5, lr}
2405a230:	4604      	mov	r4, r0
2405a232:	460d      	mov	r5, r1
2405a234:	d904      	bls.n	2405a240 <_raise_r+0x14>
2405a236:	2316      	movs	r3, #22
2405a238:	6003      	str	r3, [r0, #0]
2405a23a:	f04f 30ff 	mov.w	r0, #4294967295
2405a23e:	bd38      	pop	{r3, r4, r5, pc}
2405a240:	6bc2      	ldr	r2, [r0, #60]	; 0x3c
2405a242:	b112      	cbz	r2, 2405a24a <_raise_r+0x1e>
2405a244:	f852 3021 	ldr.w	r3, [r2, r1, lsl #2]
2405a248:	b94b      	cbnz	r3, 2405a25e <_raise_r+0x32>
2405a24a:	4620      	mov	r0, r4
2405a24c:	f000 f852 	bl	2405a2f4 <_getpid_r>
2405a250:	462a      	mov	r2, r5
2405a252:	4601      	mov	r1, r0
2405a254:	4620      	mov	r0, r4
2405a256:	e8bd 4038 	ldmia.w	sp!, {r3, r4, r5, lr}
2405a25a:	f000 b839 	b.w	2405a2d0 <_kill_r>
2405a25e:	2b01      	cmp	r3, #1
2405a260:	d00a      	beq.n	2405a278 <_raise_r+0x4c>
2405a262:	1c59      	adds	r1, r3, #1
2405a264:	d103      	bne.n	2405a26e <_raise_r+0x42>
2405a266:	2316      	movs	r3, #22
2405a268:	6003      	str	r3, [r0, #0]
2405a26a:	2001      	movs	r0, #1
2405a26c:	e7e7      	b.n	2405a23e <_raise_r+0x12>
2405a26e:	2400      	movs	r4, #0
2405a270:	f842 4025 	str.w	r4, [r2, r5, lsl #2]
2405a274:	4628      	mov	r0, r5
2405a276:	4798      	blx	r3
2405a278:	2000      	movs	r0, #0
2405a27a:	e7e0      	b.n	2405a23e <_raise_r+0x12>

2405a27c <raise>:
2405a27c:	4b02      	ldr	r3, [pc, #8]	; (2405a288 <raise+0xc>)
2405a27e:	4601      	mov	r1, r0
2405a280:	6818      	ldr	r0, [r3, #0]
2405a282:	f7ff bfd3 	b.w	2405a22c <_raise_r>
2405a286:	bf00      	nop
2405a288:	200000ac 	.word	0x200000ac

2405a28c <_fstat_r>:
2405a28c:	b538      	push	{r3, r4, r5, lr}
2405a28e:	4d07      	ldr	r5, [pc, #28]	; (2405a2ac <_fstat_r+0x20>)
2405a290:	2300      	movs	r3, #0
2405a292:	4604      	mov	r4, r0
2405a294:	4608      	mov	r0, r1
2405a296:	4611      	mov	r1, r2
2405a298:	602b      	str	r3, [r5, #0]
2405a29a:	f7f8 fa3a 	bl	24052712 <_fstat>
2405a29e:	1c43      	adds	r3, r0, #1
2405a2a0:	d102      	bne.n	2405a2a8 <_fstat_r+0x1c>
2405a2a2:	682b      	ldr	r3, [r5, #0]
2405a2a4:	b103      	cbz	r3, 2405a2a8 <_fstat_r+0x1c>
2405a2a6:	6023      	str	r3, [r4, #0]
2405a2a8:	bd38      	pop	{r3, r4, r5, pc}
2405a2aa:	bf00      	nop
2405a2ac:	2000075c 	.word	0x2000075c

2405a2b0 <_isatty_r>:
2405a2b0:	b538      	push	{r3, r4, r5, lr}
2405a2b2:	4d06      	ldr	r5, [pc, #24]	; (2405a2cc <_isatty_r+0x1c>)
2405a2b4:	2300      	movs	r3, #0
2405a2b6:	4604      	mov	r4, r0
2405a2b8:	4608      	mov	r0, r1
2405a2ba:	602b      	str	r3, [r5, #0]
2405a2bc:	f7f8 fa2e 	bl	2405271c <_isatty>
2405a2c0:	1c43      	adds	r3, r0, #1
2405a2c2:	d102      	bne.n	2405a2ca <_isatty_r+0x1a>
2405a2c4:	682b      	ldr	r3, [r5, #0]
2405a2c6:	b103      	cbz	r3, 2405a2ca <_isatty_r+0x1a>
2405a2c8:	6023      	str	r3, [r4, #0]
2405a2ca:	bd38      	pop	{r3, r4, r5, pc}
2405a2cc:	2000075c 	.word	0x2000075c

2405a2d0 <_kill_r>:
2405a2d0:	b538      	push	{r3, r4, r5, lr}
2405a2d2:	4d07      	ldr	r5, [pc, #28]	; (2405a2f0 <_kill_r+0x20>)
2405a2d4:	2300      	movs	r3, #0
2405a2d6:	4604      	mov	r4, r0
2405a2d8:	4608      	mov	r0, r1
2405a2da:	4611      	mov	r1, r2
2405a2dc:	602b      	str	r3, [r5, #0]
2405a2de:	f7f8 f9eb 	bl	240526b8 <_kill>
2405a2e2:	1c43      	adds	r3, r0, #1
2405a2e4:	d102      	bne.n	2405a2ec <_kill_r+0x1c>
2405a2e6:	682b      	ldr	r3, [r5, #0]
2405a2e8:	b103      	cbz	r3, 2405a2ec <_kill_r+0x1c>
2405a2ea:	6023      	str	r3, [r4, #0]
2405a2ec:	bd38      	pop	{r3, r4, r5, pc}
2405a2ee:	bf00      	nop
2405a2f0:	2000075c 	.word	0x2000075c

2405a2f4 <_getpid_r>:
2405a2f4:	f7f8 b9de 	b.w	240526b4 <_getpid>

2405a2f8 <_sbrk_r>:
2405a2f8:	b538      	push	{r3, r4, r5, lr}
2405a2fa:	4d06      	ldr	r5, [pc, #24]	; (2405a314 <_sbrk_r+0x1c>)
2405a2fc:	2300      	movs	r3, #0
2405a2fe:	4604      	mov	r4, r0
2405a300:	4608      	mov	r0, r1
2405a302:	602b      	str	r3, [r5, #0]
2405a304:	f7f8 fa0e 	bl	24052724 <_sbrk>
2405a308:	1c43      	adds	r3, r0, #1
2405a30a:	d102      	bne.n	2405a312 <_sbrk_r+0x1a>
2405a30c:	682b      	ldr	r3, [r5, #0]
2405a30e:	b103      	cbz	r3, 2405a312 <_sbrk_r+0x1a>
2405a310:	6023      	str	r3, [r4, #0]
2405a312:	bd38      	pop	{r3, r4, r5, pc}
2405a314:	2000075c 	.word	0x2000075c

2405a318 <_realloc_r>:
2405a318:	e92d 41f0 	stmdb	sp!, {r4, r5, r6, r7, r8, lr}
2405a31c:	4680      	mov	r8, r0
2405a31e:	4614      	mov	r4, r2
2405a320:	460e      	mov	r6, r1
2405a322:	b921      	cbnz	r1, 2405a32e <_realloc_r+0x16>
2405a324:	e8bd 41f0 	ldmia.w	sp!, {r4, r5, r6, r7, r8, lr}
2405a328:	4611      	mov	r1, r2
2405a32a:	f7ff b9b7 	b.w	2405969c <_malloc_r>
2405a32e:	b92a      	cbnz	r2, 2405a33c <_realloc_r+0x24>
2405a330:	f7ff f940 	bl	240595b4 <_free_r>
2405a334:	4625      	mov	r5, r4
2405a336:	4628      	mov	r0, r5
2405a338:	e8bd 81f0 	ldmia.w	sp!, {r4, r5, r6, r7, r8, pc}
2405a33c:	f000 f81b 	bl	2405a376 <_malloc_usable_size_r>
2405a340:	4284      	cmp	r4, r0
2405a342:	4607      	mov	r7, r0
2405a344:	d802      	bhi.n	2405a34c <_realloc_r+0x34>
2405a346:	ebb4 0f50 	cmp.w	r4, r0, lsr #1
2405a34a:	d812      	bhi.n	2405a372 <_realloc_r+0x5a>
2405a34c:	4621      	mov	r1, r4
2405a34e:	4640      	mov	r0, r8
2405a350:	f7ff f9a4 	bl	2405969c <_malloc_r>
2405a354:	4605      	mov	r5, r0
2405a356:	2800      	cmp	r0, #0
2405a358:	d0ed      	beq.n	2405a336 <_realloc_r+0x1e>
2405a35a:	42bc      	cmp	r4, r7
2405a35c:	4622      	mov	r2, r4
2405a35e:	4631      	mov	r1, r6
2405a360:	bf28      	it	cs
2405a362:	463a      	movcs	r2, r7
2405a364:	f7ff f911 	bl	2405958a <memcpy>
2405a368:	4631      	mov	r1, r6
2405a36a:	4640      	mov	r0, r8
2405a36c:	f7ff f922 	bl	240595b4 <_free_r>
2405a370:	e7e1      	b.n	2405a336 <_realloc_r+0x1e>
2405a372:	4635      	mov	r5, r6
2405a374:	e7df      	b.n	2405a336 <_realloc_r+0x1e>

2405a376 <_malloc_usable_size_r>:
2405a376:	f851 3c04 	ldr.w	r3, [r1, #-4]
2405a37a:	1f18      	subs	r0, r3, #4
2405a37c:	2b00      	cmp	r3, #0
2405a37e:	bfbc      	itt	lt
2405a380:	580b      	ldrlt	r3, [r1, r0]
2405a382:	18c0      	addlt	r0, r0, r3
2405a384:	4770      	bx	lr
	...

2405a388 <_init>:
2405a388:	b5f8      	push	{r3, r4, r5, r6, r7, lr}
2405a38a:	bf00      	nop
2405a38c:	bcf8      	pop	{r3, r4, r5, r6, r7}
2405a38e:	bc08      	pop	{r3}
2405a390:	469e      	mov	lr, r3
2405a392:	4770      	bx	lr

2405a394 <_fini>:
2405a394:	b5f8      	push	{r3, r4, r5, r6, r7, lr}
2405a396:	bf00      	nop
2405a398:	bcf8      	pop	{r3, r4, r5, r6, r7}
2405a39a:	bc08      	pop	{r3}
2405a39c:	469e      	mov	lr, r3
2405a39e:	4770      	bx	lr
