
GamePong.elf:     file format elf32-littlearm

Sections:
Idx Name          Size      VMA       LMA       File off  Algn
  0 .isr_vector   000002ac  24000000  24000000  00001000  2**0
                  CONTENTS, ALLOC, LOAD, READONLY, DATA
  1 ._itcram      00000000  00000100  00000100  00013114  2**0
                  CONTENTS
  2 ._itcram_hot  00000000  00000100  00000100  00013114  2**0
                  CONTENTS
  3 ._ram_uc      0004b000  240002b0  240002b0  000012ac  2**4
                  ALLOC
  4 ._ram_exec    00000000  24050000  24050000  00013114  2**0
                  CONTENTS
  5 ._extflash    00000000  90000000  90000000  00013114  2**0
                  CONTENTS
  6 ._configflash 00000000  900ff000  900ff000  00013114  2**0
                  CONTENTS
  7 ._ram         00000000  24050000  24050000  00013114  2**0
                  CONTENTS
  8 ._ahbram      00005fa0  30000000  30000000  00014000  2**4
                  ALLOC
  9 .text         0000bef4  24050000  24050000  00002000  2**4
                  CONTENTS, ALLOC, LOAD, READONLY, CODE
 10 .rodata       00004438  2405bef4  2405bef4  0000def4  2**2
                  CONTENTS, ALLOC, LOAD, READONLY, DATA
 11 .ARM          00000008  2406032c  2406032c  0001232c  2**2
                  CONTENTS, ALLOC, LOAD, READONLY, DATA
 12 .init_array   00000004  24060334  24060334  00012334  2**2
                  CONTENTS, ALLOC, LOAD, DATA
 13 .fini_array   00000004  24060338  24060338  00012338  2**2
                  CONTENTS, ALLOC, LOAD, DATA
 14 .data         00000114  20000000  2406033c  00013000  2**2
                  CONTENTS, ALLOC, LOAD, DATA
 15 ._flash_end   00000000  2406033c  2406033c  00013114  2**0
                  CONTENTS
 16 .bss          00000680  20000114  20000114  00000114  2**2
                  ALLOC
 17 ._persistent  00000004  20000794  20000794  00000114  2**0
                  ALLOC
 18 ._user_heap   00008008  20000798  20000798  00000114  2**0
                  ALLOC
 19 ._user_stack  00017860  200087a0  200087a0  00000114  2**0
                  ALLOC
 20 .ARM.attributes 0000002e  00000000  00000000  00013114  2**0
                  CONTENTS, READONLY
 21 .comment      00000043  00000000  00000000  00013142  2**0
                  CONTENTS, READONLY
 22 .debug_frame  00000c00  00000000  00000000  00013188  2**2
                  CONTENTS, READONLY, DEBUGGING, OCTETS

Disassembly of section .text:

24050000 <__do_global_dtors_aux>:
24050000:	b510      	push	{r4, lr}
24050002:	4c05      	ldr	r4, [pc, #20]	@ (24050018 <__do_global_dtors_aux+0x18>)
24050004:	7823      	ldrb	r3, [r4, #0]
24050006:	b933      	cbnz	r3, 24050016 <__do_global_dtors_aux+0x16>
24050008:	4b04      	ldr	r3, [pc, #16]	@ (2405001c <__do_global_dtors_aux+0x1c>)
2405000a:	b113      	cbz	r3, 24050012 <__do_global_dtors_aux+0x12>
2405000c:	4804      	ldr	r0, [pc, #16]	@ (24050020 <__do_global_dtors_aux+0x20>)
2405000e:	f3af 8000 	nop.w
24050012:	2301      	movs	r3, #1
24050014:	7023      	strb	r3, [r4, #0]
24050016:	bd10      	pop	{r4, pc}
24050018:	20000114 	.word	0x20000114
2405001c:	00000000 	.word	0x00000000
24050020:	2405bedc 	.word	0x2405bedc

24050024 <frame_dummy>:
24050024:	b508      	push	{r3, lr}
24050026:	4b03      	ldr	r3, [pc, #12]	@ (24050034 <frame_dummy+0x10>)
24050028:	b11b      	cbz	r3, 24050032 <frame_dummy+0xe>
2405002a:	4903      	ldr	r1, [pc, #12]	@ (24050038 <frame_dummy+0x14>)
2405002c:	4803      	ldr	r0, [pc, #12]	@ (2405003c <frame_dummy+0x18>)
2405002e:	f3af 8000 	nop.w
24050032:	bd08      	pop	{r3, pc}
24050034:	00000000 	.word	0x00000000
24050038:	20000118 	.word	0x20000118
2405003c:	2405bedc 	.word	0x2405bedc

24050040 <strlen>:
24050040:	4603      	mov	r3, r0
24050042:	f813 2b01 	ldrb.w	r2, [r3], #1
24050046:	2a00      	cmp	r2, #0
24050048:	d1fb      	bne.n	24050042 <strlen+0x2>
2405004a:	1a18      	subs	r0, r3, r0
2405004c:	3801      	subs	r0, #1
2405004e:	4770      	bx	lr

24050050 <memchr>:
24050050:	f001 01ff 	and.w	r1, r1, #255	@ 0xff
24050054:	2a10      	cmp	r2, #16
24050056:	db2b      	blt.n	240500b0 <memchr+0x60>
24050058:	f010 0f07 	tst.w	r0, #7
2405005c:	d008      	beq.n	24050070 <memchr+0x20>
2405005e:	f810 3b01 	ldrb.w	r3, [r0], #1
24050062:	3a01      	subs	r2, #1
24050064:	428b      	cmp	r3, r1
24050066:	d02d      	beq.n	240500c4 <memchr+0x74>
24050068:	f010 0f07 	tst.w	r0, #7
2405006c:	b342      	cbz	r2, 240500c0 <memchr+0x70>
2405006e:	d1f6      	bne.n	2405005e <memchr+0xe>
24050070:	b4f0      	push	{r4, r5, r6, r7}
24050072:	ea41 2101 	orr.w	r1, r1, r1, lsl #8
24050076:	ea41 4101 	orr.w	r1, r1, r1, lsl #16
2405007a:	f022 0407 	bic.w	r4, r2, #7
2405007e:	f07f 0700 	mvns.w	r7, #0
24050082:	2300      	movs	r3, #0
24050084:	e8f0 5602 	ldrd	r5, r6, [r0], #8
24050088:	3c08      	subs	r4, #8
2405008a:	ea85 0501 	eor.w	r5, r5, r1
2405008e:	ea86 0601 	eor.w	r6, r6, r1
24050092:	fa85 f547 	uadd8	r5, r5, r7
24050096:	faa3 f587 	sel	r5, r3, r7
2405009a:	fa86 f647 	uadd8	r6, r6, r7
2405009e:	faa5 f687 	sel	r6, r5, r7
240500a2:	b98e      	cbnz	r6, 240500c8 <memchr+0x78>
240500a4:	d1ee      	bne.n	24050084 <memchr+0x34>
240500a6:	bcf0      	pop	{r4, r5, r6, r7}
240500a8:	f001 01ff 	and.w	r1, r1, #255	@ 0xff
240500ac:	f002 0207 	and.w	r2, r2, #7
240500b0:	b132      	cbz	r2, 240500c0 <memchr+0x70>
240500b2:	f810 3b01 	ldrb.w	r3, [r0], #1
240500b6:	3a01      	subs	r2, #1
240500b8:	ea83 0301 	eor.w	r3, r3, r1
240500bc:	b113      	cbz	r3, 240500c4 <memchr+0x74>
240500be:	d1f8      	bne.n	240500b2 <memchr+0x62>
240500c0:	2000      	movs	r0, #0
240500c2:	4770      	bx	lr
240500c4:	3801      	subs	r0, #1
240500c6:	4770      	bx	lr
240500c8:	2d00      	cmp	r5, #0
240500ca:	bf06      	itte	eq
240500cc:	4635      	moveq	r5, r6
240500ce:	3803      	subeq	r0, #3
240500d0:	3807      	subne	r0, #7
240500d2:	f015 0f01 	tst.w	r5, #1
240500d6:	d107      	bne.n	240500e8 <memchr+0x98>
240500d8:	3001      	adds	r0, #1
240500da:	f415 7f80 	tst.w	r5, #256	@ 0x100
240500de:	bf02      	ittt	eq
240500e0:	3001      	addeq	r0, #1
240500e2:	f415 3fc0 	tsteq.w	r5, #98304	@ 0x18000
240500e6:	3001      	addeq	r0, #1
240500e8:	bcf0      	pop	{r4, r5, r6, r7}
240500ea:	3801      	subs	r0, #1
240500ec:	4770      	bx	lr
240500ee:	bf00      	nop

240500f0 <draw_background>:
240500f0:	b573      	push	{r0, r1, r4, r5, r6, lr}
240500f2:	2100      	movs	r1, #0
240500f4:	4604      	mov	r4, r0
240500f6:	f000 fd90 	bl	24050c1a <LCD_Clear>
240500fa:	4e20      	ldr	r6, [pc, #128]	@ (2405017c <draw_background+0x8c>)
240500fc:	f000 fd64 	bl	24050bc8 <LCD_GetXSize>
24050100:	4605      	mov	r5, r0
24050102:	f000 fd64 	bl	24050bce <LCD_GetYSize>
24050106:	3815      	subs	r0, #21
24050108:	1e6b      	subs	r3, r5, #1
2405010a:	f64f 75ff 	movw	r5, #65535	@ 0xffff
2405010e:	b280      	uxth	r0, r0
24050110:	2214      	movs	r2, #20
24050112:	b29b      	uxth	r3, r3
24050114:	2100      	movs	r1, #0
24050116:	9501      	str	r5, [sp, #4]
24050118:	9000      	str	r0, [sp, #0]
2405011a:	4620      	mov	r0, r4
2405011c:	f000 fe0e 	bl	24050d3c <LCD_DrawRect>
24050120:	4628      	mov	r0, r5
24050122:	f000 fd57 	bl	24050bd4 <LCD_SetTextColor>
24050126:	4816      	ldr	r0, [pc, #88]	@ (24050180 <draw_background+0x90>)
24050128:	f000 fd60 	bl	24050bec <LCD_SetFont>
2405012c:	4d15      	ldr	r5, [pc, #84]	@ (24050184 <draw_background+0x94>)
2405012e:	4b16      	ldr	r3, [pc, #88]	@ (24050188 <draw_background+0x98>)
24050130:	4631      	mov	r1, r6
24050132:	4628      	mov	r0, r5
24050134:	681a      	ldr	r2, [r3, #0]
24050136:	f00a ff31 	bl	2405af9c <siprintf>
2405013a:	2303      	movs	r3, #3
2405013c:	4620      	mov	r0, r4
2405013e:	2204      	movs	r2, #4
24050140:	9300      	str	r3, [sp, #0]
24050142:	2100      	movs	r1, #0
24050144:	462b      	mov	r3, r5
24050146:	4d11      	ldr	r5, [pc, #68]	@ (2405018c <draw_background+0x9c>)
24050148:	f000 fee8 	bl	24050f1c <LCD_DisplayStringAt>
2405014c:	4b10      	ldr	r3, [pc, #64]	@ (24050190 <draw_background+0xa0>)
2405014e:	4631      	mov	r1, r6
24050150:	4628      	mov	r0, r5
24050152:	681a      	ldr	r2, [r3, #0]
24050154:	f00a ff22 	bl	2405af9c <siprintf>
24050158:	2302      	movs	r3, #2
2405015a:	4620      	mov	r0, r4
2405015c:	2204      	movs	r2, #4
2405015e:	9300      	str	r3, [sp, #0]
24050160:	2100      	movs	r1, #0
24050162:	462b      	mov	r3, r5
24050164:	f000 feda 	bl	24050f1c <LCD_DisplayStringAt>
24050168:	2101      	movs	r1, #1
2405016a:	4b0a      	ldr	r3, [pc, #40]	@ (24050194 <draw_background+0xa4>)
2405016c:	2204      	movs	r2, #4
2405016e:	4620      	mov	r0, r4
24050170:	9100      	str	r1, [sp, #0]
24050172:	f000 fed3 	bl	24050f1c <LCD_DisplayStringAt>
24050176:	b002      	add	sp, #8
24050178:	bd70      	pop	{r4, r5, r6, pc}
2405017a:	bf00      	nop
2405017c:	2405fab9 	.word	0x2405fab9
24050180:	20000008 	.word	0x20000008
24050184:	200001ba 	.word	0x200001ba
24050188:	200001c4 	.word	0x200001c4
2405018c:	200001b4 	.word	0x200001b4
24050190:	200001c0 	.word	0x200001c0
24050194:	2405bef4 	.word	0x2405bef4

24050198 <update_score>:
24050198:	b510      	push	{r4, lr}
2405019a:	4604      	mov	r4, r0
2405019c:	f002 fa2e 	bl	240525fc <lcd_sync>
240501a0:	2c01      	cmp	r4, #1
240501a2:	d12f      	bne.n	24050204 <update_score+0x6c>
240501a4:	4a19      	ldr	r2, [pc, #100]	@ (2405020c <update_score+0x74>)
240501a6:	6813      	ldr	r3, [r2, #0]
240501a8:	3301      	adds	r3, #1
240501aa:	6013      	str	r3, [r2, #0]
240501ac:	f44f 70fa 	mov.w	r0, #500	@ 0x1f4
240501b0:	f004 f8ac 	bl	2405430c <HAL_Delay>
240501b4:	4b16      	ldr	r3, [pc, #88]	@ (24050210 <update_score+0x78>)
240501b6:	2200      	movs	r2, #0
240501b8:	701a      	strb	r2, [r3, #0]
240501ba:	2201      	movs	r2, #1
240501bc:	4b15      	ldr	r3, [pc, #84]	@ (24050214 <update_score+0x7c>)
240501be:	601a      	str	r2, [r3, #0]
240501c0:	f00a fd3c 	bl	2405ac3c <rand>
240501c4:	f1b0 4f80 	cmp.w	r0, #1073741824	@ 0x40000000
240501c8:	4b13      	ldr	r3, [pc, #76]	@ (24050218 <update_score+0x80>)
240501ca:	bfb4      	ite	lt
240501cc:	2201      	movlt	r2, #1
240501ce:	f04f 32ff 	movge.w	r2, #4294967295
240501d2:	601a      	str	r2, [r3, #0]
240501d4:	f00a fd32 	bl	2405ac3c <rand>
240501d8:	2315      	movs	r3, #21
240501da:	fb90 f2f3 	sdiv	r2, r0, r3
240501de:	fb02 0013 	mls	r0, r2, r3, r0
240501e2:	4b0e      	ldr	r3, [pc, #56]	@ (2405021c <update_score+0x84>)
240501e4:	301e      	adds	r0, #30
240501e6:	6018      	str	r0, [r3, #0]
240501e8:	f00a fd28 	bl	2405ac3c <rand>
240501ec:	2329      	movs	r3, #41	@ 0x29
240501ee:	fb90 f2f3 	sdiv	r2, r0, r3
240501f2:	fb02 0013 	mls	r0, r2, r3, r0
240501f6:	4b0a      	ldr	r3, [pc, #40]	@ (24050220 <update_score+0x88>)
240501f8:	2273      	movs	r2, #115	@ 0x73
240501fa:	3064      	adds	r0, #100	@ 0x64
240501fc:	6018      	str	r0, [r3, #0]
240501fe:	4b09      	ldr	r3, [pc, #36]	@ (24050224 <update_score+0x8c>)
24050200:	805a      	strh	r2, [r3, #2]
24050202:	bd10      	pop	{r4, pc}
24050204:	3401      	adds	r4, #1
24050206:	d1d1      	bne.n	240501ac <update_score+0x14>
24050208:	4a07      	ldr	r2, [pc, #28]	@ (24050228 <update_score+0x90>)
2405020a:	e7cc      	b.n	240501a6 <update_score+0xe>
2405020c:	200001c4 	.word	0x200001c4
24050210:	20000144 	.word	0x20000144
24050214:	2000014c 	.word	0x2000014c
24050218:	20000148 	.word	0x20000148
2405021c:	20000024 	.word	0x20000024
24050220:	20000020 	.word	0x20000020
24050224:	20000194 	.word	0x20000194
24050228:	200001c0 	.word	0x200001c0

2405022c <update_ball>:
2405022c:	b5f8      	push	{r3, r4, r5, r6, r7, lr}
2405022e:	2703      	movs	r7, #3
24050230:	4d2c      	ldr	r5, [pc, #176]	@ (240502e4 <update_ball+0xb8>)
24050232:	4e2d      	ldr	r6, [pc, #180]	@ (240502e8 <update_ball+0xbc>)
24050234:	6833      	ldr	r3, [r6, #0]
24050236:	682a      	ldr	r2, [r5, #0]
24050238:	2b07      	cmp	r3, #7
2405023a:	4c2c      	ldr	r4, [pc, #176]	@ (240502ec <update_ball+0xc0>)
2405023c:	d133      	bne.n	240502a6 <update_ball+0x7a>
2405023e:	4b2c      	ldr	r3, [pc, #176]	@ (240502f0 <update_ball+0xc4>)
24050240:	885b      	ldrh	r3, [r3, #2]
24050242:	f1a3 010b 	sub.w	r1, r3, #11
24050246:	4291      	cmp	r1, r2
24050248:	dc27      	bgt.n	2405029a <update_ball+0x6e>
2405024a:	3323      	adds	r3, #35	@ 0x23
2405024c:	4293      	cmp	r3, r2
2405024e:	db24      	blt.n	2405029a <update_ball+0x6e>
24050250:	2301      	movs	r3, #1
24050252:	6023      	str	r3, [r4, #0]
24050254:	682b      	ldr	r3, [r5, #0]
24050256:	4927      	ldr	r1, [pc, #156]	@ (240502f4 <update_ball+0xc8>)
24050258:	2b15      	cmp	r3, #21
2405025a:	d13d      	bne.n	240502d8 <update_ball+0xac>
2405025c:	2201      	movs	r2, #1
2405025e:	600a      	str	r2, [r1, #0]
24050260:	6832      	ldr	r2, [r6, #0]
24050262:	3f01      	subs	r7, #1
24050264:	6820      	ldr	r0, [r4, #0]
24050266:	6809      	ldr	r1, [r1, #0]
24050268:	4402      	add	r2, r0
2405026a:	440b      	add	r3, r1
2405026c:	6032      	str	r2, [r6, #0]
2405026e:	602b      	str	r3, [r5, #0]
24050270:	d1e0      	bne.n	24050234 <update_ball+0x8>
24050272:	b292      	uxth	r2, r2
24050274:	4920      	ldr	r1, [pc, #128]	@ (240502f8 <update_ball+0xcc>)
24050276:	b29b      	uxth	r3, r3
24050278:	4820      	ldr	r0, [pc, #128]	@ (240502fc <update_ball+0xd0>)
2405027a:	800a      	strh	r2, [r1, #0]
2405027c:	804b      	strh	r3, [r1, #2]
2405027e:	f102 0108 	add.w	r1, r2, #8
24050282:	8043      	strh	r3, [r0, #2]
24050284:	3308      	adds	r3, #8
24050286:	b289      	uxth	r1, r1
24050288:	b29b      	uxth	r3, r3
2405028a:	8001      	strh	r1, [r0, #0]
2405028c:	481c      	ldr	r0, [pc, #112]	@ (24050300 <update_ball+0xd4>)
2405028e:	8002      	strh	r2, [r0, #0]
24050290:	4a1c      	ldr	r2, [pc, #112]	@ (24050304 <update_ball+0xd8>)
24050292:	8043      	strh	r3, [r0, #2]
24050294:	8011      	strh	r1, [r2, #0]
24050296:	8053      	strh	r3, [r2, #2]
24050298:	bdf8      	pop	{r3, r4, r5, r6, r7, pc}
2405029a:	2301      	movs	r3, #1
2405029c:	f04f 30ff 	mov.w	r0, #4294967295
240502a0:	6023      	str	r3, [r4, #0]
240502a2:	f7ff ff79 	bl	24050198 <update_score>
240502a6:	6832      	ldr	r2, [r6, #0]
240502a8:	f240 1329 	movw	r3, #297	@ 0x129
240502ac:	429a      	cmp	r2, r3
240502ae:	d1d1      	bne.n	24050254 <update_ball+0x28>
240502b0:	4b15      	ldr	r3, [pc, #84]	@ (24050308 <update_ball+0xdc>)
240502b2:	682a      	ldr	r2, [r5, #0]
240502b4:	885b      	ldrh	r3, [r3, #2]
240502b6:	f1a3 010b 	sub.w	r1, r3, #11
240502ba:	4291      	cmp	r1, r2
240502bc:	dc05      	bgt.n	240502ca <update_ball+0x9e>
240502be:	3323      	adds	r3, #35	@ 0x23
240502c0:	4293      	cmp	r3, r2
240502c2:	db02      	blt.n	240502ca <update_ball+0x9e>
240502c4:	f04f 33ff 	mov.w	r3, #4294967295
240502c8:	e7c3      	b.n	24050252 <update_ball+0x26>
240502ca:	f04f 33ff 	mov.w	r3, #4294967295
240502ce:	2001      	movs	r0, #1
240502d0:	6023      	str	r3, [r4, #0]
240502d2:	f7ff ff61 	bl	24050198 <update_score>
240502d6:	e7bd      	b.n	24050254 <update_ball+0x28>
240502d8:	2bdf      	cmp	r3, #223	@ 0xdf
240502da:	d1c1      	bne.n	24050260 <update_ball+0x34>
240502dc:	f04f 32ff 	mov.w	r2, #4294967295
240502e0:	e7bd      	b.n	2405025e <update_ball+0x32>
240502e2:	bf00      	nop
240502e4:	20000020 	.word	0x20000020
240502e8:	20000024 	.word	0x20000024
240502ec:	2000014c 	.word	0x2000014c
240502f0:	200001a4 	.word	0x200001a4
240502f4:	20000148 	.word	0x20000148
240502f8:	20000184 	.word	0x20000184
240502fc:	20000174 	.word	0x20000174
24050300:	20000164 	.word	0x20000164
24050304:	20000154 	.word	0x20000154
24050308:	20000194 	.word	0x20000194

2405030c <game_init>:
2405030c:	e92d 4ff0 	stmdb	sp!, {r4, r5, r6, r7, r8, r9, sl, fp, lr}
24050310:	f8df a318 	ldr.w	sl, [pc, #792]	@ 2405062c <game_init+0x320>
24050314:	b085      	sub	sp, #20
24050316:	f8da 3000 	ldr.w	r3, [sl]
2405031a:	b99b      	cbnz	r3, 24050344 <game_init+0x38>
2405031c:	4aac      	ldr	r2, [pc, #688]	@ (240505d0 <game_init+0x2c4>)
2405031e:	6013      	str	r3, [r2, #0]
24050320:	2301      	movs	r3, #1
24050322:	4aac      	ldr	r2, [pc, #688]	@ (240505d4 <game_init+0x2c8>)
24050324:	6013      	str	r3, [r2, #0]
24050326:	4bac      	ldr	r3, [pc, #688]	@ (240505d8 <game_init+0x2cc>)
24050328:	781b      	ldrb	r3, [r3, #0]
2405032a:	2b01      	cmp	r3, #1
2405032c:	f000 80b8 	beq.w	240504a0 <game_init+0x194>
24050330:	2b02      	cmp	r3, #2
24050332:	f000 80bb 	beq.w	240504ac <game_init+0x1a0>
24050336:	b92b      	cbnz	r3, 24050344 <game_init+0x38>
24050338:	4ba8      	ldr	r3, [pc, #672]	@ (240505dc <game_init+0x2d0>)
2405033a:	22f0      	movs	r2, #240	@ 0xf0
2405033c:	601a      	str	r2, [r3, #0]
2405033e:	2214      	movs	r2, #20
24050340:	4ba7      	ldr	r3, [pc, #668]	@ (240505e0 <game_init+0x2d4>)
24050342:	601a      	str	r2, [r3, #0]
24050344:	2300      	movs	r3, #0
24050346:	4aa7      	ldr	r2, [pc, #668]	@ (240505e4 <game_init+0x2d8>)
24050348:	f04f 0b01 	mov.w	fp, #1
2405034c:	f8df 82e0 	ldr.w	r8, [pc, #736]	@ 24050630 <game_init+0x324>
24050350:	6013      	str	r3, [r2, #0]
24050352:	f04f 0915 	mov.w	r9, #21
24050356:	4aa4      	ldr	r2, [pc, #656]	@ (240505e8 <game_init+0x2dc>)
24050358:	2408      	movs	r4, #8
2405035a:	f888 3000 	strb.w	r3, [r8]
2405035e:	6013      	str	r3, [r2, #0]
24050360:	4aa2      	ldr	r2, [pc, #648]	@ (240505ec <game_init+0x2e0>)
24050362:	4da3      	ldr	r5, [pc, #652]	@ (240505f0 <game_init+0x2e4>)
24050364:	f8c2 b000 	str.w	fp, [r2]
24050368:	f00a fc68 	bl	2405ac3c <rand>
2405036c:	f1b0 4f80 	cmp.w	r0, #1073741824	@ 0x40000000
24050370:	4ba0      	ldr	r3, [pc, #640]	@ (240505f4 <game_init+0x2e8>)
24050372:	4fa1      	ldr	r7, [pc, #644]	@ (240505f8 <game_init+0x2ec>)
24050374:	bfb4      	ite	lt
24050376:	465a      	movlt	r2, fp
24050378:	f04f 32ff 	movge.w	r2, #4294967295
2405037c:	4e9f      	ldr	r6, [pc, #636]	@ (240505fc <game_init+0x2f0>)
2405037e:	601a      	str	r2, [r3, #0]
24050380:	f00a fc5c 	bl	2405ac3c <rand>
24050384:	fb90 f2f9 	sdiv	r2, r0, r9
24050388:	fb02 0019 	mls	r0, r2, r9, r0
2405038c:	301e      	adds	r0, #30
2405038e:	6028      	str	r0, [r5, #0]
24050390:	f00a fc54 	bl	2405ac3c <rand>
24050394:	2229      	movs	r2, #41	@ 0x29
24050396:	4b9a      	ldr	r3, [pc, #616]	@ (24050600 <game_init+0x2f4>)
24050398:	fb90 f1f2 	sdiv	r1, r0, r2
2405039c:	fb01 0012 	mls	r0, r1, r2, r0
240503a0:	4a98      	ldr	r2, [pc, #608]	@ (24050604 <game_init+0x2f8>)
240503a2:	2102      	movs	r1, #2
240503a4:	8812      	ldrh	r2, [r2, #0]
240503a6:	3064      	adds	r0, #100	@ 0x64
240503a8:	807a      	strh	r2, [r7, #2]
240503aa:	4a97      	ldr	r2, [pc, #604]	@ (24050608 <game_init+0x2fc>)
240503ac:	6030      	str	r0, [r6, #0]
240503ae:	8812      	ldrh	r2, [r2, #0]
240503b0:	4896      	ldr	r0, [pc, #600]	@ (2405060c <game_init+0x300>)
240503b2:	80ba      	strh	r2, [r7, #4]
240503b4:	226e      	movs	r2, #110	@ 0x6e
240503b6:	f8cd 9004 	str.w	r9, [sp, #4]
240503ba:	9400      	str	r4, [sp, #0]
240503bc:	e9cd 7302 	strd	r7, r3, [sp, #8]
240503c0:	465b      	mov	r3, fp
240503c2:	f000 fe61 	bl	24051088 <init_sprite>
240503c6:	4b8e      	ldr	r3, [pc, #568]	@ (24050600 <game_init+0x2f4>)
240503c8:	226e      	movs	r2, #110	@ 0x6e
240503ca:	f240 1139 	movw	r1, #313	@ 0x139
240503ce:	4890      	ldr	r0, [pc, #576]	@ (24050610 <game_init+0x304>)
240503d0:	e9cd 4900 	strd	r4, r9, [sp]
240503d4:	e9cd 7302 	strd	r7, r3, [sp, #8]
240503d8:	465b      	mov	r3, fp
240503da:	f8df 9258 	ldr.w	r9, [pc, #600]	@ 24050634 <game_init+0x328>
240503de:	f000 fe53 	bl	24051088 <init_sprite>
240503e2:	2311      	movs	r3, #17
240503e4:	488b      	ldr	r0, [pc, #556]	@ (24050614 <game_init+0x308>)
240503e6:	f8df b224 	ldr.w	fp, [pc, #548]	@ 2405060c <game_init+0x300>
240503ea:	e9cd 4300 	strd	r4, r3, [sp]
240503ee:	e9cd 7902 	strd	r7, r9, [sp, #8]
240503f2:	4623      	mov	r3, r4
240503f4:	8832      	ldrh	r2, [r6, #0]
240503f6:	8829      	ldrh	r1, [r5, #0]
240503f8:	f000 fe46 	bl	24051088 <init_sprite>
240503fc:	6829      	ldr	r1, [r5, #0]
240503fe:	2331      	movs	r3, #49	@ 0x31
24050400:	4885      	ldr	r0, [pc, #532]	@ (24050618 <game_init+0x30c>)
24050402:	4421      	add	r1, r4
24050404:	e9cd 4300 	strd	r4, r3, [sp]
24050408:	e9cd 7902 	strd	r7, r9, [sp, #8]
2405040c:	4623      	mov	r3, r4
2405040e:	8832      	ldrh	r2, [r6, #0]
24050410:	b289      	uxth	r1, r1
24050412:	f000 fe39 	bl	24051088 <init_sprite>
24050416:	6832      	ldr	r2, [r6, #0]
24050418:	2351      	movs	r3, #81	@ 0x51
2405041a:	4880      	ldr	r0, [pc, #512]	@ (2405061c <game_init+0x310>)
2405041c:	4422      	add	r2, r4
2405041e:	e9cd 4300 	strd	r4, r3, [sp]
24050422:	e9cd 7902 	strd	r7, r9, [sp, #8]
24050426:	4623      	mov	r3, r4
24050428:	b292      	uxth	r2, r2
2405042a:	8829      	ldrh	r1, [r5, #0]
2405042c:	f000 fe2c 	bl	24051088 <init_sprite>
24050430:	6832      	ldr	r2, [r6, #0]
24050432:	6829      	ldr	r1, [r5, #0]
24050434:	2371      	movs	r3, #113	@ 0x71
24050436:	4422      	add	r2, r4
24050438:	4879      	ldr	r0, [pc, #484]	@ (24050620 <game_init+0x314>)
2405043a:	4421      	add	r1, r4
2405043c:	b292      	uxth	r2, r2
2405043e:	b289      	uxth	r1, r1
24050440:	e9cd 4300 	strd	r4, r3, [sp]
24050444:	e9cd 7902 	strd	r7, r9, [sp, #8]
24050448:	4623      	mov	r3, r4
2405044a:	4c76      	ldr	r4, [pc, #472]	@ (24050624 <game_init+0x318>)
2405044c:	f000 fe1c 	bl	24051088 <init_sprite>
24050450:	486e      	ldr	r0, [pc, #440]	@ (2405060c <game_init+0x300>)
24050452:	f001 f8ed 	bl	24051630 <sprites_init_list>
24050456:	496e      	ldr	r1, [pc, #440]	@ (24050610 <game_init+0x304>)
24050458:	6020      	str	r0, [r4, #0]
2405045a:	f001 f911 	bl	24051680 <sprites_add_to_list>
2405045e:	496d      	ldr	r1, [pc, #436]	@ (24050614 <game_init+0x308>)
24050460:	6020      	str	r0, [r4, #0]
24050462:	f001 f90d 	bl	24051680 <sprites_add_to_list>
24050466:	496c      	ldr	r1, [pc, #432]	@ (24050618 <game_init+0x30c>)
24050468:	6020      	str	r0, [r4, #0]
2405046a:	f001 f909 	bl	24051680 <sprites_add_to_list>
2405046e:	f8df 91c8 	ldr.w	r9, [pc, #456]	@ 24050638 <game_init+0x32c>
24050472:	496a      	ldr	r1, [pc, #424]	@ (2405061c <game_init+0x310>)
24050474:	6020      	str	r0, [r4, #0]
24050476:	f001 f903 	bl	24051680 <sprites_add_to_list>
2405047a:	4969      	ldr	r1, [pc, #420]	@ (24050620 <game_init+0x314>)
2405047c:	6020      	str	r0, [r4, #0]
2405047e:	f001 f8ff 	bl	24051680 <sprites_add_to_list>
24050482:	6020      	str	r0, [r4, #0]
24050484:	4b53      	ldr	r3, [pc, #332]	@ (240505d4 <game_init+0x2c8>)
24050486:	681b      	ldr	r3, [r3, #0]
24050488:	b9b3      	cbnz	r3, 240504b8 <game_init+0x1ac>
2405048a:	f8df 81b0 	ldr.w	r8, [pc, #432]	@ 2405063c <game_init+0x330>
2405048e:	4f5f      	ldr	r7, [pc, #380]	@ (2405060c <game_init+0x300>)
24050490:	f8da 3000 	ldr.w	r3, [sl]
24050494:	2b00      	cmp	r3, #0
24050496:	f040 80d3 	bne.w	24050640 <game_init+0x334>
2405049a:	b005      	add	sp, #20
2405049c:	e8bd 8ff0 	ldmia.w	sp!, {r4, r5, r6, r7, r8, r9, sl, fp, pc}
240504a0:	4b4e      	ldr	r3, [pc, #312]	@ (240505dc <game_init+0x2d0>)
240504a2:	22dc      	movs	r2, #220	@ 0xdc
240504a4:	601a      	str	r2, [r3, #0]
240504a6:	2219      	movs	r2, #25
240504a8:	4b4d      	ldr	r3, [pc, #308]	@ (240505e0 <game_init+0x2d4>)
240504aa:	e74a      	b.n	24050342 <game_init+0x36>
240504ac:	4b4b      	ldr	r3, [pc, #300]	@ (240505dc <game_init+0x2d0>)
240504ae:	22c8      	movs	r2, #200	@ 0xc8
240504b0:	601a      	str	r2, [r3, #0]
240504b2:	2223      	movs	r2, #35	@ 0x23
240504b4:	4b4a      	ldr	r3, [pc, #296]	@ (240505e0 <game_init+0x2d4>)
240504b6:	e744      	b.n	24050342 <game_init+0x36>
240504b8:	f002 f884 	bl	240525c4 <lcd_get_active_buffer>
240504bc:	4607      	mov	r7, r0
240504be:	f7ff fe17 	bl	240500f0 <draw_background>
240504c2:	6821      	ldr	r1, [r4, #0]
240504c4:	4638      	mov	r0, r7
240504c6:	f001 f8c4 	bl	24051652 <render_sprites>
240504ca:	f001 fb15 	bl	24051af8 <buttons_get>
240504ce:	4607      	mov	r7, r0
240504d0:	05b8      	lsls	r0, r7, #22
240504d2:	d501      	bpl.n	240504d8 <game_init+0x1cc>
240504d4:	f004 fec6 	bl	24055264 <HAL_NVIC_SystemReset>
240504d8:	0639      	lsls	r1, r7, #24
240504da:	d503      	bpl.n	240504e4 <game_init+0x1d8>
240504dc:	f002 f88e 	bl	240525fc <lcd_sync>
240504e0:	f000 fa3a 	bl	24050958 <in_game_menu_init>
240504e4:	07ba      	lsls	r2, r7, #30
240504e6:	bf44      	itt	mi
240504e8:	23ff      	movmi	r3, #255	@ 0xff
240504ea:	f888 3000 	strbmi.w	r3, [r8]
240504ee:	073b      	lsls	r3, r7, #28
240504f0:	bf44      	itt	mi
240504f2:	2301      	movmi	r3, #1
240504f4:	f888 3000 	strbmi.w	r3, [r8]
240504f8:	f8d9 3000 	ldr.w	r3, [r9]
240504fc:	3301      	adds	r3, #1
240504fe:	f8c9 3000 	str.w	r3, [r9]
24050502:	4b38      	ldr	r3, [pc, #224]	@ (240505e4 <game_init+0x2d8>)
24050504:	681b      	ldr	r3, [r3, #0]
24050506:	2b09      	cmp	r3, #9
24050508:	dd04      	ble.n	24050514 <game_init+0x208>
2405050a:	f002 f877 	bl	240525fc <lcd_sync>
2405050e:	2001      	movs	r0, #1
24050510:	f000 f926 	bl	24050760 <game_over_init>
24050514:	4b34      	ldr	r3, [pc, #208]	@ (240505e8 <game_init+0x2dc>)
24050516:	681b      	ldr	r3, [r3, #0]
24050518:	2b09      	cmp	r3, #9
2405051a:	dd04      	ble.n	24050526 <game_init+0x21a>
2405051c:	f002 f86e 	bl	240525fc <lcd_sync>
24050520:	2002      	movs	r0, #2
24050522:	f000 f91d 	bl	24050760 <game_over_init>
24050526:	f998 2000 	ldrsb.w	r2, [r8]
2405052a:	f8bb 3002 	ldrh.w	r3, [fp, #2]
2405052e:	eb03 0342 	add.w	r3, r3, r2, lsl #1
24050532:	b29b      	uxth	r3, r3
24050534:	2b16      	cmp	r3, #22
24050536:	bf38      	it	cc
24050538:	2316      	movcc	r3, #22
2405053a:	2bc6      	cmp	r3, #198	@ 0xc6
2405053c:	bf28      	it	cs
2405053e:	23c6      	movcs	r3, #198	@ 0xc6
24050540:	f8ab 3002 	strh.w	r3, [fp, #2]
24050544:	2300      	movs	r3, #0
24050546:	f888 3000 	strb.w	r3, [r8]
2405054a:	4b28      	ldr	r3, [pc, #160]	@ (240505ec <game_init+0x2e0>)
2405054c:	681b      	ldr	r3, [r3, #0]
2405054e:	2b00      	cmp	r3, #0
24050550:	4b2f      	ldr	r3, [pc, #188]	@ (24050610 <game_init+0x304>)
24050552:	db04      	blt.n	2405055e <game_init+0x252>
24050554:	4a21      	ldr	r2, [pc, #132]	@ (240505dc <game_init+0x2d0>)
24050556:	6829      	ldr	r1, [r5, #0]
24050558:	6812      	ldr	r2, [r2, #0]
2405055a:	4291      	cmp	r1, r2
2405055c:	da13      	bge.n	24050586 <game_init+0x27a>
2405055e:	885a      	ldrh	r2, [r3, #2]
24050560:	2a6b      	cmp	r2, #107	@ 0x6b
24050562:	d80a      	bhi.n	2405057a <game_init+0x26e>
24050564:	4930      	ldr	r1, [pc, #192]	@ (24050628 <game_init+0x31c>)
24050566:	6809      	ldr	r1, [r1, #0]
24050568:	440a      	add	r2, r1
2405056a:	805a      	strh	r2, [r3, #2]
2405056c:	f7ff fe5e 	bl	2405022c <update_ball>
24050570:	f002 f818 	bl	240525a4 <lcd_swap>
24050574:	f002 f852 	bl	2405261c <lcd_wait_for_vblank>
24050578:	e784      	b.n	24050484 <game_init+0x178>
2405057a:	2a70      	cmp	r2, #112	@ 0x70
2405057c:	d9f6      	bls.n	2405056c <game_init+0x260>
2405057e:	492a      	ldr	r1, [pc, #168]	@ (24050628 <game_init+0x31c>)
24050580:	6809      	ldr	r1, [r1, #0]
24050582:	1a52      	subs	r2, r2, r1
24050584:	e7f1      	b.n	2405056a <game_init+0x25e>
24050586:	4a16      	ldr	r2, [pc, #88]	@ (240505e0 <game_init+0x2d4>)
24050588:	6830      	ldr	r0, [r6, #0]
2405058a:	6811      	ldr	r1, [r2, #0]
2405058c:	4a19      	ldr	r2, [pc, #100]	@ (240505f4 <game_init+0x2e8>)
2405058e:	f100 0c08 	add.w	ip, r0, #8
24050592:	6812      	ldr	r2, [r2, #0]
24050594:	2a00      	cmp	r2, #0
24050596:	885a      	ldrh	r2, [r3, #2]
24050598:	bfc8      	it	gt
2405059a:	f1c1 0128 	rsbgt	r1, r1, #40	@ 0x28
2405059e:	1857      	adds	r7, r2, r1
240505a0:	45bc      	cmp	ip, r7
240505a2:	da07      	bge.n	240505b4 <game_init+0x2a8>
240505a4:	4f20      	ldr	r7, [pc, #128]	@ (24050628 <game_init+0x31c>)
240505a6:	683f      	ldr	r7, [r7, #0]
240505a8:	1bd2      	subs	r2, r2, r7
240505aa:	b292      	uxth	r2, r2
240505ac:	2a15      	cmp	r2, #21
240505ae:	bf98      	it	ls
240505b0:	2216      	movls	r2, #22
240505b2:	805a      	strh	r2, [r3, #2]
240505b4:	885a      	ldrh	r2, [r3, #2]
240505b6:	3007      	adds	r0, #7
240505b8:	4411      	add	r1, r2
240505ba:	4288      	cmp	r0, r1
240505bc:	dbd6      	blt.n	2405056c <game_init+0x260>
240505be:	491a      	ldr	r1, [pc, #104]	@ (24050628 <game_init+0x31c>)
240505c0:	6809      	ldr	r1, [r1, #0]
240505c2:	440a      	add	r2, r1
240505c4:	b292      	uxth	r2, r2
240505c6:	2ac6      	cmp	r2, #198	@ 0xc6
240505c8:	bf88      	it	hi
240505ca:	22c6      	movhi	r2, #198	@ 0xc6
240505cc:	e7cd      	b.n	2405056a <game_init+0x25e>
240505ce:	bf00      	nop
240505d0:	20000210 	.word	0x20000210
240505d4:	20000134 	.word	0x20000134
240505d8:	20000230 	.word	0x20000230
240505dc:	20000140 	.word	0x20000140
240505e0:	2000013c 	.word	0x2000013c
240505e4:	200001c4 	.word	0x200001c4
240505e8:	200001c0 	.word	0x200001c0
240505ec:	2000014c 	.word	0x2000014c
240505f0:	20000024 	.word	0x20000024
240505f4:	20000148 	.word	0x20000148
240505f8:	20000050 	.word	0x20000050
240505fc:	20000020 	.word	0x20000020
24050600:	2000004c 	.word	0x2000004c
24050604:	200000a6 	.word	0x200000a6
24050608:	200000a4 	.word	0x200000a4
2405060c:	200001a4 	.word	0x200001a4
24050610:	20000194 	.word	0x20000194
24050614:	20000184 	.word	0x20000184
24050618:	20000174 	.word	0x20000174
2405061c:	20000164 	.word	0x20000164
24050620:	20000154 	.word	0x20000154
24050624:	20000150 	.word	0x20000150
24050628:	20000028 	.word	0x20000028
2405062c:	20000130 	.word	0x20000130
24050630:	20000144 	.word	0x20000144
24050634:	2000002c 	.word	0x2000002c
24050638:	20000138 	.word	0x20000138
2405063c:	20000018 	.word	0x20000018
24050640:	f001 ffc0 	bl	240525c4 <lcd_get_active_buffer>
24050644:	4681      	mov	r9, r0
24050646:	f7ff fd53 	bl	240500f0 <draw_background>
2405064a:	4640      	mov	r0, r8
2405064c:	f000 face 	bl	24050bec <LCD_SetFont>
24050650:	f04f 0b01 	mov.w	fp, #1
24050654:	2003      	movs	r0, #3
24050656:	f000 facf 	bl	24050bf8 <LCD_SetFontScale>
2405065a:	f44f 4004 	mov.w	r0, #33792	@ 0x8400
2405065e:	f000 fab9 	bl	24050bd4 <LCD_SetTextColor>
24050662:	4b3b      	ldr	r3, [pc, #236]	@ (24050750 <game_init+0x444>)
24050664:	2264      	movs	r2, #100	@ 0x64
24050666:	2106      	movs	r1, #6
24050668:	4648      	mov	r0, r9
2405066a:	f8cd b000 	str.w	fp, [sp]
2405066e:	f000 fc55 	bl	24050f1c <LCD_DisplayStringAt>
24050672:	4658      	mov	r0, fp
24050674:	f000 fac0 	bl	24050bf8 <LCD_SetFontScale>
24050678:	4648      	mov	r0, r9
2405067a:	6821      	ldr	r1, [r4, #0]
2405067c:	f000 ffe9 	bl	24051652 <render_sprites>
24050680:	f001 fa3a 	bl	24051af8 <buttons_get>
24050684:	f410 7f00 	tst.w	r0, #512	@ 0x200
24050688:	4681      	mov	r9, r0
2405068a:	d001      	beq.n	24050690 <game_init+0x384>
2405068c:	f004 fdea 	bl	24055264 <HAL_NVIC_SystemReset>
24050690:	f439 7300 	bics.w	r3, r9, #512	@ 0x200
24050694:	d004      	beq.n	240506a0 <game_init+0x394>
24050696:	f001 ffb1 	bl	240525fc <lcd_sync>
2405069a:	2300      	movs	r3, #0
2405069c:	f8ca 3000 	str.w	r3, [sl]
240506a0:	4a2c      	ldr	r2, [pc, #176]	@ (24050754 <game_init+0x448>)
240506a2:	6813      	ldr	r3, [r2, #0]
240506a4:	3301      	adds	r3, #1
240506a6:	6013      	str	r3, [r2, #0]
240506a8:	4b2b      	ldr	r3, [pc, #172]	@ (24050758 <game_init+0x44c>)
240506aa:	4a2c      	ldr	r2, [pc, #176]	@ (2405075c <game_init+0x450>)
240506ac:	6819      	ldr	r1, [r3, #0]
240506ae:	887b      	ldrh	r3, [r7, #2]
240506b0:	2900      	cmp	r1, #0
240506b2:	dc02      	bgt.n	240506ba <game_init+0x3ae>
240506b4:	6828      	ldr	r0, [r5, #0]
240506b6:	2864      	cmp	r0, #100	@ 0x64
240506b8:	dd23      	ble.n	24050702 <game_init+0x3f6>
240506ba:	2b6b      	cmp	r3, #107	@ 0x6b
240506bc:	d81d      	bhi.n	240506fa <game_init+0x3ee>
240506be:	3303      	adds	r3, #3
240506c0:	807b      	strh	r3, [r7, #2]
240506c2:	2900      	cmp	r1, #0
240506c4:	8853      	ldrh	r3, [r2, #2]
240506c6:	db32      	blt.n	2405072e <game_init+0x422>
240506c8:	6829      	ldr	r1, [r5, #0]
240506ca:	29db      	cmp	r1, #219	@ 0xdb
240506cc:	dd2f      	ble.n	2405072e <game_init+0x422>
240506ce:	6831      	ldr	r1, [r6, #0]
240506d0:	f103 000b 	add.w	r0, r3, #11
240506d4:	4288      	cmp	r0, r1
240506d6:	db05      	blt.n	240506e4 <game_init+0x3d8>
240506d8:	3b03      	subs	r3, #3
240506da:	b29b      	uxth	r3, r3
240506dc:	2b15      	cmp	r3, #21
240506de:	bf98      	it	ls
240506e0:	2316      	movls	r3, #22
240506e2:	8053      	strh	r3, [r2, #2]
240506e4:	8853      	ldrh	r3, [r2, #2]
240506e6:	f103 000c 	add.w	r0, r3, #12
240506ea:	4281      	cmp	r1, r0
240506ec:	dd28      	ble.n	24050740 <game_init+0x434>
240506ee:	3303      	adds	r3, #3
240506f0:	b29b      	uxth	r3, r3
240506f2:	2bc6      	cmp	r3, #198	@ 0xc6
240506f4:	bf88      	it	hi
240506f6:	23c6      	movhi	r3, #198	@ 0xc6
240506f8:	e021      	b.n	2405073e <game_init+0x432>
240506fa:	2b70      	cmp	r3, #112	@ 0x70
240506fc:	d9e1      	bls.n	240506c2 <game_init+0x3b6>
240506fe:	3b03      	subs	r3, #3
24050700:	e7de      	b.n	240506c0 <game_init+0x3b4>
24050702:	6831      	ldr	r1, [r6, #0]
24050704:	f103 000b 	add.w	r0, r3, #11
24050708:	4288      	cmp	r0, r1
2405070a:	db05      	blt.n	24050718 <game_init+0x40c>
2405070c:	3b03      	subs	r3, #3
2405070e:	b29b      	uxth	r3, r3
24050710:	2b15      	cmp	r3, #21
24050712:	bf98      	it	ls
24050714:	2316      	movls	r3, #22
24050716:	807b      	strh	r3, [r7, #2]
24050718:	887b      	ldrh	r3, [r7, #2]
2405071a:	f103 000c 	add.w	r0, r3, #12
2405071e:	4281      	cmp	r1, r0
24050720:	dd05      	ble.n	2405072e <game_init+0x422>
24050722:	3303      	adds	r3, #3
24050724:	b29b      	uxth	r3, r3
24050726:	2bc6      	cmp	r3, #198	@ 0xc6
24050728:	bf88      	it	hi
2405072a:	23c6      	movhi	r3, #198	@ 0xc6
2405072c:	807b      	strh	r3, [r7, #2]
2405072e:	8853      	ldrh	r3, [r2, #2]
24050730:	2b6b      	cmp	r3, #107	@ 0x6b
24050732:	d903      	bls.n	2405073c <game_init+0x430>
24050734:	2b70      	cmp	r3, #112	@ 0x70
24050736:	d903      	bls.n	24050740 <game_init+0x434>
24050738:	3b03      	subs	r3, #3
2405073a:	e000      	b.n	2405073e <game_init+0x432>
2405073c:	3303      	adds	r3, #3
2405073e:	8053      	strh	r3, [r2, #2]
24050740:	f7ff fd74 	bl	2405022c <update_ball>
24050744:	f001 ff2e 	bl	240525a4 <lcd_swap>
24050748:	f001 ff68 	bl	2405261c <lcd_wait_for_vblank>
2405074c:	e6a0      	b.n	24050490 <game_init+0x184>
2405074e:	bf00      	nop
24050750:	2405befb 	.word	0x2405befb
24050754:	20000138 	.word	0x20000138
24050758:	2000014c 	.word	0x2000014c
2405075c:	20000194 	.word	0x20000194

24050760 <game_over_init>:
24050760:	e92d 4ff0 	stmdb	sp!, {r4, r5, r6, r7, r8, r9, sl, fp, lr}
24050764:	2300      	movs	r3, #0
24050766:	4d71      	ldr	r5, [pc, #452]	@ (2405092c <game_over_init+0x1cc>)
24050768:	f8df b1e0 	ldr.w	fp, [pc, #480]	@ 2405094c <game_over_init+0x1ec>
2405076c:	2401      	movs	r4, #1
2405076e:	702b      	strb	r3, [r5, #0]
24050770:	230f      	movs	r3, #15
24050772:	f8df 81dc 	ldr.w	r8, [pc, #476]	@ 24050950 <game_over_init+0x1f0>
24050776:	b085      	sub	sp, #20
24050778:	4f6d      	ldr	r7, [pc, #436]	@ (24050930 <game_over_init+0x1d0>)
2405077a:	f8cb 0000 	str.w	r0, [fp]
2405077e:	f64f 70ff 	movw	r0, #65535	@ 0xffff
24050782:	603b      	str	r3, [r7, #0]
24050784:	f8df 91cc 	ldr.w	r9, [pc, #460]	@ 24050954 <game_over_init+0x1f4>
24050788:	f8c8 4000 	str.w	r4, [r8]
2405078c:	f000 fa22 	bl	24050bd4 <LCD_SetTextColor>
24050790:	4868      	ldr	r0, [pc, #416]	@ (24050934 <game_over_init+0x1d4>)
24050792:	f000 fa2b 	bl	24050bec <LCD_SetFont>
24050796:	4620      	mov	r0, r4
24050798:	f000 fa2e 	bl	24050bf8 <LCD_SetFontScale>
2405079c:	f1a9 030a 	sub.w	r3, r9, #10
240507a0:	9303      	str	r3, [sp, #12]
240507a2:	f8d8 1000 	ldr.w	r1, [r8]
240507a6:	b969      	cbnz	r1, 240507c4 <game_over_init+0x64>
240507a8:	782b      	ldrb	r3, [r5, #0]
240507aa:	4a63      	ldr	r2, [pc, #396]	@ (24050938 <game_over_init+0x1d8>)
240507ac:	f013 0301 	ands.w	r3, r3, #1
240507b0:	bf03      	ittte	eq
240507b2:	6013      	streq	r3, [r2, #0]
240507b4:	2201      	moveq	r2, #1
240507b6:	4b61      	ldreq	r3, [pc, #388]	@ (2405093c <game_over_init+0x1dc>)
240507b8:	6011      	strne	r1, [r2, #0]
240507ba:	bf08      	it	eq
240507bc:	601a      	streq	r2, [r3, #0]
240507be:	b005      	add	sp, #20
240507c0:	e8bd 8ff0 	ldmia.w	sp!, {r4, r5, r6, r7, r8, r9, sl, fp, pc}
240507c4:	f64f 76ff 	movw	r6, #65535	@ 0xffff
240507c8:	f001 fefc 	bl	240525c4 <lcd_get_active_buffer>
240507cc:	4604      	mov	r4, r0
240507ce:	f248 4010 	movw	r0, #33808	@ 0x8410
240507d2:	f000 fa05 	bl	24050be0 <LCD_SetBackColor>
240507d6:	2303      	movs	r3, #3
240507d8:	4620      	mov	r0, r4
240507da:	2246      	movs	r2, #70	@ 0x46
240507dc:	2150      	movs	r1, #80	@ 0x50
240507de:	9600      	str	r6, [sp, #0]
240507e0:	f000 fbea 	bl	24050fb8 <LCD_FillCircle>
240507e4:	4620      	mov	r0, r4
240507e6:	2303      	movs	r3, #3
240507e8:	2246      	movs	r2, #70	@ 0x46
240507ea:	21ef      	movs	r1, #239	@ 0xef
240507ec:	9600      	str	r6, [sp, #0]
240507ee:	f000 fbe3 	bl	24050fb8 <LCD_FillCircle>
240507f2:	f04f 0a64 	mov.w	sl, #100	@ 0x64
240507f6:	4620      	mov	r0, r4
240507f8:	2303      	movs	r3, #3
240507fa:	22a9      	movs	r2, #169	@ 0xa9
240507fc:	2150      	movs	r1, #80	@ 0x50
240507fe:	9600      	str	r6, [sp, #0]
24050800:	f000 fbda 	bl	24050fb8 <LCD_FillCircle>
24050804:	4620      	mov	r0, r4
24050806:	2303      	movs	r3, #3
24050808:	22a9      	movs	r2, #169	@ 0xa9
2405080a:	21ef      	movs	r1, #239	@ 0xef
2405080c:	9600      	str	r6, [sp, #0]
2405080e:	f000 fbd3 	bl	24050fb8 <LCD_FillCircle>
24050812:	4620      	mov	r0, r4
24050814:	2303      	movs	r3, #3
24050816:	2246      	movs	r2, #70	@ 0x46
24050818:	214d      	movs	r1, #77	@ 0x4d
2405081a:	9601      	str	r6, [sp, #4]
2405081c:	f8cd a000 	str.w	sl, [sp]
24050820:	f000 fb0b 	bl	24050e3a <LCD_FillRect>
24050824:	4620      	mov	r0, r4
24050826:	2303      	movs	r3, #3
24050828:	2246      	movs	r2, #70	@ 0x46
2405082a:	21f0      	movs	r1, #240	@ 0xf0
2405082c:	e9cd a600 	strd	sl, r6, [sp]
24050830:	f000 fb03 	bl	24050e3a <LCD_FillRect>
24050834:	2303      	movs	r3, #3
24050836:	4620      	mov	r0, r4
24050838:	2243      	movs	r2, #67	@ 0x43
2405083a:	2150      	movs	r1, #80	@ 0x50
2405083c:	9601      	str	r6, [sp, #4]
2405083e:	9300      	str	r3, [sp, #0]
24050840:	23a0      	movs	r3, #160	@ 0xa0
24050842:	f000 fafa 	bl	24050e3a <LCD_FillRect>
24050846:	2303      	movs	r3, #3
24050848:	4620      	mov	r0, r4
2405084a:	22aa      	movs	r2, #170	@ 0xaa
2405084c:	2150      	movs	r1, #80	@ 0x50
2405084e:	9601      	str	r6, [sp, #4]
24050850:	9300      	str	r3, [sp, #0]
24050852:	23a0      	movs	r3, #160	@ 0xa0
24050854:	f000 faf1 	bl	24050e3a <LCD_FillRect>
24050858:	f248 4310 	movw	r3, #33808	@ 0x8410
2405085c:	2246      	movs	r2, #70	@ 0x46
2405085e:	2150      	movs	r1, #80	@ 0x50
24050860:	4620      	mov	r0, r4
24050862:	2601      	movs	r6, #1
24050864:	e9cd a300 	strd	sl, r3, [sp]
24050868:	23a0      	movs	r3, #160	@ 0xa0
2405086a:	f000 fae6 	bl	24050e3a <LCD_FillRect>
2405086e:	f44f 4000 	mov.w	r0, #32768	@ 0x8000
24050872:	f000 f9af 	bl	24050bd4 <LCD_SetTextColor>
24050876:	f8db 3000 	ldr.w	r3, [fp]
2405087a:	4620      	mov	r0, r4
2405087c:	2250      	movs	r2, #80	@ 0x50
2405087e:	2b01      	cmp	r3, #1
24050880:	f04f 0100 	mov.w	r1, #0
24050884:	bf13      	iteet	ne
24050886:	2301      	movne	r3, #1
24050888:	9300      	streq	r3, [sp, #0]
2405088a:	9b03      	ldreq	r3, [sp, #12]
2405088c:	9300      	strne	r3, [sp, #0]
2405088e:	bf18      	it	ne
24050890:	464b      	movne	r3, r9
24050892:	f000 fb43 	bl	24050f1c <LCD_DisplayStringAt>
24050896:	782b      	ldrb	r3, [r5, #0]
24050898:	07da      	lsls	r2, r3, #31
2405089a:	bf54      	ite	pl
2405089c:	2010      	movpl	r0, #16
2405089e:	f64f 70ff 	movwmi	r0, #65535	@ 0xffff
240508a2:	f000 f997 	bl	24050bd4 <LCD_SetTextColor>
240508a6:	4620      	mov	r0, r4
240508a8:	226e      	movs	r2, #110	@ 0x6e
240508aa:	2100      	movs	r1, #0
240508ac:	4b24      	ldr	r3, [pc, #144]	@ (24050940 <game_over_init+0x1e0>)
240508ae:	9600      	str	r6, [sp, #0]
240508b0:	f000 fb34 	bl	24050f1c <LCD_DisplayStringAt>
240508b4:	782b      	ldrb	r3, [r5, #0]
240508b6:	07db      	lsls	r3, r3, #31
240508b8:	bf4c      	ite	mi
240508ba:	2010      	movmi	r0, #16
240508bc:	f64f 70ff 	movwpl	r0, #65535	@ 0xffff
240508c0:	f000 f988 	bl	24050bd4 <LCD_SetTextColor>
240508c4:	4b1f      	ldr	r3, [pc, #124]	@ (24050944 <game_over_init+0x1e4>)
240508c6:	228c      	movs	r2, #140	@ 0x8c
240508c8:	2100      	movs	r1, #0
240508ca:	4620      	mov	r0, r4
240508cc:	9600      	str	r6, [sp, #0]
240508ce:	f000 fb25 	bl	24050f1c <LCD_DisplayStringAt>
240508d2:	2000      	movs	r0, #0
240508d4:	f000 f984 	bl	24050be0 <LCD_SetBackColor>
240508d8:	f001 f90e 	bl	24051af8 <buttons_get>
240508dc:	4604      	mov	r4, r0
240508de:	05a0      	lsls	r0, r4, #22
240508e0:	d501      	bpl.n	240508e6 <game_over_init+0x186>
240508e2:	f004 fcbf 	bl	24055264 <HAL_NVIC_SystemReset>
240508e6:	683b      	ldr	r3, [r7, #0]
240508e8:	2b00      	cmp	r3, #0
240508ea:	dc1b      	bgt.n	24050924 <game_over_init+0x1c4>
240508ec:	07a1      	lsls	r1, r4, #30
240508ee:	d504      	bpl.n	240508fa <game_over_init+0x19a>
240508f0:	782b      	ldrb	r3, [r5, #0]
240508f2:	3b01      	subs	r3, #1
240508f4:	702b      	strb	r3, [r5, #0]
240508f6:	230f      	movs	r3, #15
240508f8:	603b      	str	r3, [r7, #0]
240508fa:	0722      	lsls	r2, r4, #28
240508fc:	d504      	bpl.n	24050908 <game_over_init+0x1a8>
240508fe:	782b      	ldrb	r3, [r5, #0]
24050900:	3301      	adds	r3, #1
24050902:	702b      	strb	r3, [r5, #0]
24050904:	230f      	movs	r3, #15
24050906:	603b      	str	r3, [r7, #0]
24050908:	06e3      	lsls	r3, r4, #27
2405090a:	d502      	bpl.n	24050912 <game_over_init+0x1b2>
2405090c:	2300      	movs	r3, #0
2405090e:	f8c8 3000 	str.w	r3, [r8]
24050912:	4a0d      	ldr	r2, [pc, #52]	@ (24050948 <game_over_init+0x1e8>)
24050914:	6813      	ldr	r3, [r2, #0]
24050916:	3301      	adds	r3, #1
24050918:	6013      	str	r3, [r2, #0]
2405091a:	f001 fe43 	bl	240525a4 <lcd_swap>
2405091e:	f001 fe7d 	bl	2405261c <lcd_wait_for_vblank>
24050922:	e73e      	b.n	240507a2 <game_over_init+0x42>
24050924:	3b01      	subs	r3, #1
24050926:	603b      	str	r3, [r7, #0]
24050928:	e7f3      	b.n	24050912 <game_over_init+0x1b2>
2405092a:	bf00      	nop
2405092c:	200001cc 	.word	0x200001cc
24050930:	200001d0 	.word	0x200001d0
24050934:	20000018 	.word	0x20000018
24050938:	20000134 	.word	0x20000134
2405093c:	20000210 	.word	0x20000210
24050940:	2405bf16 	.word	0x2405bf16
24050944:	2405bf1f 	.word	0x2405bf1f
24050948:	200001d4 	.word	0x200001d4
2405094c:	200001c8 	.word	0x200001c8
24050950:	20000070 	.word	0x20000070
24050954:	2405bf0b 	.word	0x2405bf0b

24050958 <in_game_menu_init>:
24050958:	e92d 4ff7 	stmdb	sp!, {r0, r1, r2, r4, r5, r6, r7, r8, r9, sl, fp, lr}
2405095c:	2300      	movs	r3, #0
2405095e:	4d83      	ldr	r5, [pc, #524]	@ (24050b6c <in_game_menu_init+0x214>)
24050960:	2401      	movs	r4, #1
24050962:	f8df 9224 	ldr.w	r9, [pc, #548]	@ 24050b88 <in_game_menu_init+0x230>
24050966:	702b      	strb	r3, [r5, #0]
24050968:	230f      	movs	r3, #15
2405096a:	f8df 8220 	ldr.w	r8, [pc, #544]	@ 24050b8c <in_game_menu_init+0x234>
2405096e:	f64f 70ff 	movw	r0, #65535	@ 0xffff
24050972:	f8c9 4000 	str.w	r4, [r9]
24050976:	f8c8 3000 	str.w	r3, [r8]
2405097a:	f000 f92b 	bl	24050bd4 <LCD_SetTextColor>
2405097e:	f8df a210 	ldr.w	sl, [pc, #528]	@ 24050b90 <in_game_menu_init+0x238>
24050982:	487b      	ldr	r0, [pc, #492]	@ (24050b70 <in_game_menu_init+0x218>)
24050984:	f000 f932 	bl	24050bec <LCD_SetFont>
24050988:	4620      	mov	r0, r4
2405098a:	f000 f935 	bl	24050bf8 <LCD_SetFontScale>
2405098e:	f8d9 1000 	ldr.w	r1, [r9]
24050992:	b991      	cbnz	r1, 240509ba <in_game_menu_init+0x62>
24050994:	f995 3000 	ldrsb.w	r3, [r5]
24050998:	2203      	movs	r2, #3
2405099a:	fb93 f2f2 	sdiv	r2, r3, r2
2405099e:	eb02 0242 	add.w	r2, r2, r2, lsl #1
240509a2:	1a9b      	subs	r3, r3, r2
240509a4:	b25b      	sxtb	r3, r3
240509a6:	2b01      	cmp	r3, #1
240509a8:	f040 80db 	bne.w	24050b62 <in_game_menu_init+0x20a>
240509ac:	4a71      	ldr	r2, [pc, #452]	@ (24050b74 <in_game_menu_init+0x21c>)
240509ae:	6011      	str	r1, [r2, #0]
240509b0:	4a71      	ldr	r2, [pc, #452]	@ (24050b78 <in_game_menu_init+0x220>)
240509b2:	6013      	str	r3, [r2, #0]
240509b4:	b003      	add	sp, #12
240509b6:	e8bd 8ff0 	ldmia.w	sp!, {r4, r5, r6, r7, r8, r9, sl, fp, pc}
240509ba:	f64f 76ff 	movw	r6, #65535	@ 0xffff
240509be:	f001 fe01 	bl	240525c4 <lcd_get_active_buffer>
240509c2:	4604      	mov	r4, r0
240509c4:	f248 4010 	movw	r0, #33808	@ 0x8410
240509c8:	f000 f90a 	bl	24050be0 <LCD_SetBackColor>
240509cc:	2303      	movs	r3, #3
240509ce:	2246      	movs	r2, #70	@ 0x46
240509d0:	2150      	movs	r1, #80	@ 0x50
240509d2:	4620      	mov	r0, r4
240509d4:	9600      	str	r6, [sp, #0]
240509d6:	f000 faef 	bl	24050fb8 <LCD_FillCircle>
240509da:	2303      	movs	r3, #3
240509dc:	2246      	movs	r2, #70	@ 0x46
240509de:	21ef      	movs	r1, #239	@ 0xef
240509e0:	4620      	mov	r0, r4
240509e2:	9600      	str	r6, [sp, #0]
240509e4:	f000 fae8 	bl	24050fb8 <LCD_FillCircle>
240509e8:	f04f 0b64 	mov.w	fp, #100	@ 0x64
240509ec:	2303      	movs	r3, #3
240509ee:	22a9      	movs	r2, #169	@ 0xa9
240509f0:	2150      	movs	r1, #80	@ 0x50
240509f2:	4620      	mov	r0, r4
240509f4:	9600      	str	r6, [sp, #0]
240509f6:	2703      	movs	r7, #3
240509f8:	f000 fade 	bl	24050fb8 <LCD_FillCircle>
240509fc:	2303      	movs	r3, #3
240509fe:	22a9      	movs	r2, #169	@ 0xa9
24050a00:	21ef      	movs	r1, #239	@ 0xef
24050a02:	4620      	mov	r0, r4
24050a04:	9600      	str	r6, [sp, #0]
24050a06:	f000 fad7 	bl	24050fb8 <LCD_FillCircle>
24050a0a:	2303      	movs	r3, #3
24050a0c:	2246      	movs	r2, #70	@ 0x46
24050a0e:	214d      	movs	r1, #77	@ 0x4d
24050a10:	4620      	mov	r0, r4
24050a12:	9601      	str	r6, [sp, #4]
24050a14:	f8cd b000 	str.w	fp, [sp]
24050a18:	f000 fa0f 	bl	24050e3a <LCD_FillRect>
24050a1c:	2303      	movs	r3, #3
24050a1e:	2246      	movs	r2, #70	@ 0x46
24050a20:	21f0      	movs	r1, #240	@ 0xf0
24050a22:	4620      	mov	r0, r4
24050a24:	e9cd b600 	strd	fp, r6, [sp]
24050a28:	f000 fa07 	bl	24050e3a <LCD_FillRect>
24050a2c:	23a0      	movs	r3, #160	@ 0xa0
24050a2e:	2243      	movs	r2, #67	@ 0x43
24050a30:	2150      	movs	r1, #80	@ 0x50
24050a32:	4620      	mov	r0, r4
24050a34:	9700      	str	r7, [sp, #0]
24050a36:	9601      	str	r6, [sp, #4]
24050a38:	f000 f9ff 	bl	24050e3a <LCD_FillRect>
24050a3c:	23a0      	movs	r3, #160	@ 0xa0
24050a3e:	22aa      	movs	r2, #170	@ 0xaa
24050a40:	2150      	movs	r1, #80	@ 0x50
24050a42:	4620      	mov	r0, r4
24050a44:	e9cd 7600 	strd	r7, r6, [sp]
24050a48:	f000 f9f7 	bl	24050e3a <LCD_FillRect>
24050a4c:	f248 4310 	movw	r3, #33808	@ 0x8410
24050a50:	2246      	movs	r2, #70	@ 0x46
24050a52:	2150      	movs	r1, #80	@ 0x50
24050a54:	4620      	mov	r0, r4
24050a56:	e9cd b300 	strd	fp, r3, [sp]
24050a5a:	23a0      	movs	r3, #160	@ 0xa0
24050a5c:	f000 f9ed 	bl	24050e3a <LCD_FillRect>
24050a60:	f995 3000 	ldrsb.w	r3, [r5]
24050a64:	fb93 f7f7 	sdiv	r7, r3, r7
24050a68:	eb07 0747 	add.w	r7, r7, r7, lsl #1
24050a6c:	1bdb      	subs	r3, r3, r7
24050a6e:	b25b      	sxtb	r3, r3
24050a70:	2b00      	cmp	r3, #0
24050a72:	d170      	bne.n	24050b56 <in_game_menu_init+0x1fe>
24050a74:	2010      	movs	r0, #16
24050a76:	2601      	movs	r6, #1
24050a78:	f000 f8ac 	bl	24050bd4 <LCD_SetTextColor>
24050a7c:	4620      	mov	r0, r4
24050a7e:	2100      	movs	r1, #0
24050a80:	4653      	mov	r3, sl
24050a82:	2250      	movs	r2, #80	@ 0x50
24050a84:	9600      	str	r6, [sp, #0]
24050a86:	f000 fa49 	bl	24050f1c <LCD_DisplayStringAt>
24050a8a:	f995 3000 	ldrsb.w	r3, [r5]
24050a8e:	2203      	movs	r2, #3
24050a90:	fb93 f2f2 	sdiv	r2, r3, r2
24050a94:	eb02 0242 	add.w	r2, r2, r2, lsl #1
24050a98:	1a9b      	subs	r3, r3, r2
24050a9a:	b25b      	sxtb	r3, r3
24050a9c:	42b3      	cmp	r3, r6
24050a9e:	bf0c      	ite	eq
24050aa0:	2010      	moveq	r0, #16
24050aa2:	f64f 70ff 	movwne	r0, #65535	@ 0xffff
24050aa6:	f000 f895 	bl	24050bd4 <LCD_SetTextColor>
24050aaa:	4620      	mov	r0, r4
24050aac:	2100      	movs	r1, #0
24050aae:	4b33      	ldr	r3, [pc, #204]	@ (24050b7c <in_game_menu_init+0x224>)
24050ab0:	226e      	movs	r2, #110	@ 0x6e
24050ab2:	9600      	str	r6, [sp, #0]
24050ab4:	f000 fa32 	bl	24050f1c <LCD_DisplayStringAt>
24050ab8:	f995 3000 	ldrsb.w	r3, [r5]
24050abc:	2203      	movs	r2, #3
24050abe:	fb93 f2f2 	sdiv	r2, r3, r2
24050ac2:	eb02 0242 	add.w	r2, r2, r2, lsl #1
24050ac6:	1a9b      	subs	r3, r3, r2
24050ac8:	b25b      	sxtb	r3, r3
24050aca:	2b02      	cmp	r3, #2
24050acc:	bf0c      	ite	eq
24050ace:	2010      	moveq	r0, #16
24050ad0:	f64f 70ff 	movwne	r0, #65535	@ 0xffff
24050ad4:	f000 f87e 	bl	24050bd4 <LCD_SetTextColor>
24050ad8:	2301      	movs	r3, #1
24050ada:	228c      	movs	r2, #140	@ 0x8c
24050adc:	2100      	movs	r1, #0
24050ade:	4620      	mov	r0, r4
24050ae0:	9300      	str	r3, [sp, #0]
24050ae2:	4b27      	ldr	r3, [pc, #156]	@ (24050b80 <in_game_menu_init+0x228>)
24050ae4:	f000 fa1a 	bl	24050f1c <LCD_DisplayStringAt>
24050ae8:	2000      	movs	r0, #0
24050aea:	f000 f879 	bl	24050be0 <LCD_SetBackColor>
24050aee:	f001 f803 	bl	24051af8 <buttons_get>
24050af2:	4604      	mov	r4, r0
24050af4:	05a0      	lsls	r0, r4, #22
24050af6:	d501      	bpl.n	24050afc <in_game_menu_init+0x1a4>
24050af8:	f004 fbb4 	bl	24055264 <HAL_NVIC_SystemReset>
24050afc:	f8d8 3000 	ldr.w	r3, [r8]
24050b00:	2b00      	cmp	r3, #0
24050b02:	dc2a      	bgt.n	24050b5a <in_game_menu_init+0x202>
24050b04:	07a1      	lsls	r1, r4, #30
24050b06:	d50a      	bpl.n	24050b1e <in_game_menu_init+0x1c6>
24050b08:	f995 3000 	ldrsb.w	r3, [r5]
24050b0c:	b90b      	cbnz	r3, 24050b12 <in_game_menu_init+0x1ba>
24050b0e:	2303      	movs	r3, #3
24050b10:	702b      	strb	r3, [r5, #0]
24050b12:	782b      	ldrb	r3, [r5, #0]
24050b14:	3b01      	subs	r3, #1
24050b16:	702b      	strb	r3, [r5, #0]
24050b18:	230f      	movs	r3, #15
24050b1a:	f8c8 3000 	str.w	r3, [r8]
24050b1e:	0722      	lsls	r2, r4, #28
24050b20:	d50b      	bpl.n	24050b3a <in_game_menu_init+0x1e2>
24050b22:	f995 3000 	ldrsb.w	r3, [r5]
24050b26:	2b02      	cmp	r3, #2
24050b28:	bf04      	itt	eq
24050b2a:	23ff      	moveq	r3, #255	@ 0xff
24050b2c:	702b      	strbeq	r3, [r5, #0]
24050b2e:	782b      	ldrb	r3, [r5, #0]
24050b30:	3301      	adds	r3, #1
24050b32:	702b      	strb	r3, [r5, #0]
24050b34:	230f      	movs	r3, #15
24050b36:	f8c8 3000 	str.w	r3, [r8]
24050b3a:	06e3      	lsls	r3, r4, #27
24050b3c:	d502      	bpl.n	24050b44 <in_game_menu_init+0x1ec>
24050b3e:	2300      	movs	r3, #0
24050b40:	f8c9 3000 	str.w	r3, [r9]
24050b44:	4a0f      	ldr	r2, [pc, #60]	@ (24050b84 <in_game_menu_init+0x22c>)
24050b46:	6813      	ldr	r3, [r2, #0]
24050b48:	3301      	adds	r3, #1
24050b4a:	6013      	str	r3, [r2, #0]
24050b4c:	f001 fd2a 	bl	240525a4 <lcd_swap>
24050b50:	f001 fd64 	bl	2405261c <lcd_wait_for_vblank>
24050b54:	e71b      	b.n	2405098e <in_game_menu_init+0x36>
24050b56:	4630      	mov	r0, r6
24050b58:	e78d      	b.n	24050a76 <in_game_menu_init+0x11e>
24050b5a:	3b01      	subs	r3, #1
24050b5c:	f8c8 3000 	str.w	r3, [r8]
24050b60:	e7f0      	b.n	24050b44 <in_game_menu_init+0x1ec>
24050b62:	2b02      	cmp	r3, #2
24050b64:	bf04      	itt	eq
24050b66:	4b03      	ldreq	r3, [pc, #12]	@ (24050b74 <in_game_menu_init+0x21c>)
24050b68:	6019      	streq	r1, [r3, #0]
24050b6a:	e723      	b.n	240509b4 <in_game_menu_init+0x5c>
24050b6c:	200001d8 	.word	0x200001d8
24050b70:	20000018 	.word	0x20000018
24050b74:	20000134 	.word	0x20000134
24050b78:	20000210 	.word	0x20000210
24050b7c:	2405bf2d 	.word	0x2405bf2d
24050b80:	2405bf36 	.word	0x2405bf36
24050b84:	200001e0 	.word	0x200001e0
24050b88:	20000074 	.word	0x20000074
24050b8c:	200001dc 	.word	0x200001dc
24050b90:	2405bf25 	.word	0x2405bf25

24050b94 <FillBuffer>:
24050b94:	b530      	push	{r4, r5, lr}
24050b96:	4c0b      	ldr	r4, [pc, #44]	@ (24050bc4 <FillBuffer+0x30>)
24050b98:	f44f 3540 	mov.w	r5, #196608	@ 0x30000
24050b9c:	ea42 4201 	orr.w	r2, r2, r1, lsl #16
24050ba0:	6025      	str	r5, [r4, #0]
24050ba2:	f8bd 500c 	ldrh.w	r5, [sp, #12]
24050ba6:	63a5      	str	r5, [r4, #56]	@ 0x38
24050ba8:	63e0      	str	r0, [r4, #60]	@ 0x3c
24050baa:	6423      	str	r3, [r4, #64]	@ 0x40
24050bac:	2302      	movs	r3, #2
24050bae:	6363      	str	r3, [r4, #52]	@ 0x34
24050bb0:	6462      	str	r2, [r4, #68]	@ 0x44
24050bb2:	6823      	ldr	r3, [r4, #0]
24050bb4:	f043 0301 	orr.w	r3, r3, #1
24050bb8:	6023      	str	r3, [r4, #0]
24050bba:	6823      	ldr	r3, [r4, #0]
24050bbc:	07db      	lsls	r3, r3, #31
24050bbe:	d4fc      	bmi.n	24050bba <FillBuffer+0x26>
24050bc0:	bd30      	pop	{r4, r5, pc}
24050bc2:	bf00      	nop
24050bc4:	52001000 	.word	0x52001000

24050bc8 <LCD_GetXSize>:
24050bc8:	f44f 70a0 	mov.w	r0, #320	@ 0x140
24050bcc:	4770      	bx	lr

24050bce <LCD_GetYSize>:
24050bce:	20f0      	movs	r0, #240	@ 0xf0
24050bd0:	4770      	bx	lr
	...

24050bd4 <LCD_SetTextColor>:
24050bd4:	4b01      	ldr	r3, [pc, #4]	@ (24050bdc <LCD_SetTextColor+0x8>)
24050bd6:	8018      	strh	r0, [r3, #0]
24050bd8:	4770      	bx	lr
24050bda:	bf00      	nop
24050bdc:	2000007a 	.word	0x2000007a

24050be0 <LCD_SetBackColor>:
24050be0:	4b01      	ldr	r3, [pc, #4]	@ (24050be8 <LCD_SetBackColor+0x8>)
24050be2:	8018      	strh	r0, [r3, #0]
24050be4:	4770      	bx	lr
24050be6:	bf00      	nop
24050be8:	200001e4 	.word	0x200001e4

24050bec <LCD_SetFont>:
24050bec:	4b01      	ldr	r3, [pc, #4]	@ (24050bf4 <LCD_SetFont+0x8>)
24050bee:	6018      	str	r0, [r3, #0]
24050bf0:	4770      	bx	lr
24050bf2:	bf00      	nop
24050bf4:	2000007c 	.word	0x2000007c

24050bf8 <LCD_SetFontScale>:
24050bf8:	4b01      	ldr	r3, [pc, #4]	@ (24050c00 <LCD_SetFontScale+0x8>)
24050bfa:	7018      	strb	r0, [r3, #0]
24050bfc:	4770      	bx	lr
24050bfe:	bf00      	nop
24050c00:	20000078 	.word	0x20000078

24050c04 <LCD_DrawPixel>:
24050c04:	b510      	push	{r4, lr}
24050c06:	f44f 74a0 	mov.w	r4, #320	@ 0x140
24050c0a:	fb04 1102 	mla	r1, r4, r2, r1
24050c0e:	f5b1 3f96 	cmp.w	r1, #76800	@ 0x12c00
24050c12:	bfd8      	it	le
24050c14:	f820 3011 	strhle.w	r3, [r0, r1, lsl #1]
24050c18:	bd10      	pop	{r4, pc}

24050c1a <LCD_Clear>:
24050c1a:	b507      	push	{r0, r1, r2, lr}
24050c1c:	2300      	movs	r3, #0
24050c1e:	9100      	str	r1, [sp, #0]
24050c20:	22f0      	movs	r2, #240	@ 0xf0
24050c22:	f44f 71a0 	mov.w	r1, #320	@ 0x140
24050c26:	f7ff ffb5 	bl	24050b94 <FillBuffer>
24050c2a:	b003      	add	sp, #12
24050c2c:	f85d fb04 	ldr.w	pc, [sp], #4

24050c30 <LCD_DrawHLine>:
24050c30:	b430      	push	{r4, r5}
24050c32:	460c      	mov	r4, r1
24050c34:	f44f 75a0 	mov.w	r5, #320	@ 0x140
24050c38:	4619      	mov	r1, r3
24050c3a:	f8bd 3008 	ldrh.w	r3, [sp, #8]
24050c3e:	fb05 4402 	mla	r4, r5, r2, r4
24050c42:	2201      	movs	r2, #1
24050c44:	9302      	str	r3, [sp, #8]
24050c46:	2300      	movs	r3, #0
24050c48:	eb00 0044 	add.w	r0, r0, r4, lsl #1
24050c4c:	bc30      	pop	{r4, r5}
24050c4e:	f7ff bfa1 	b.w	24050b94 <FillBuffer>

24050c52 <LCD_DrawVLine>:
24050c52:	b430      	push	{r4, r5}
24050c54:	4614      	mov	r4, r2
24050c56:	f44f 75a0 	mov.w	r5, #320	@ 0x140
24050c5a:	461a      	mov	r2, r3
24050c5c:	f8bd 3008 	ldrh.w	r3, [sp, #8]
24050c60:	fb05 1404 	mla	r4, r5, r4, r1
24050c64:	2101      	movs	r1, #1
24050c66:	9302      	str	r3, [sp, #8]
24050c68:	f240 133f 	movw	r3, #319	@ 0x13f
24050c6c:	eb00 0044 	add.w	r0, r0, r4, lsl #1
24050c70:	bc30      	pop	{r4, r5}
24050c72:	f7ff bf8f 	b.w	24050b94 <FillBuffer>

24050c76 <LCD_DrawLine>:
24050c76:	e92d 4ff0 	stmdb	sp!, {r4, r5, r6, r7, r8, r9, sl, fp, lr}
24050c7a:	461f      	mov	r7, r3
24050c7c:	b085      	sub	sp, #20
24050c7e:	fa0f f981 	sxth.w	r9, r1
24050c82:	1a7c      	subs	r4, r7, r1
24050c84:	f8bd 8038 	ldrh.w	r8, [sp, #56]	@ 0x38
24050c88:	f8bd 303c 	ldrh.w	r3, [sp, #60]	@ 0x3c
24050c8c:	fa0f fa82 	sxth.w	sl, r2
24050c90:	eba8 0602 	sub.w	r6, r8, r2
24050c94:	2c00      	cmp	r4, #0
24050c96:	bfb8      	it	lt
24050c98:	4264      	neglt	r4, r4
24050c9a:	2e00      	cmp	r6, #0
24050c9c:	bfb8      	it	lt
24050c9e:	4276      	neglt	r6, r6
24050ca0:	b224      	sxth	r4, r4
24050ca2:	428f      	cmp	r7, r1
24050ca4:	bf34      	ite	cc
24050ca6:	f04f 37ff 	movcc.w	r7, #4294967295
24050caa:	2701      	movcs	r7, #1
24050cac:	4590      	cmp	r8, r2
24050cae:	bf34      	ite	cc
24050cb0:	f04f 38ff 	movcc.w	r8, #4294967295
24050cb4:	f04f 0801 	movcs.w	r8, #1
24050cb8:	b236      	sxth	r6, r6
24050cba:	42b4      	cmp	r4, r6
24050cbc:	db0e      	blt.n	24050cdc <LCD_DrawLine+0x66>
24050cbe:	eb04 75d4 	add.w	r5, r4, r4, lsr #31
24050cc2:	9701      	str	r7, [sp, #4]
24050cc4:	2700      	movs	r7, #0
24050cc6:	106d      	asrs	r5, r5, #1
24050cc8:	9702      	str	r7, [sp, #8]
24050cca:	f04f 0b00 	mov.w	fp, #0
24050cce:	fa0f f28b 	sxth.w	r2, fp
24050cd2:	4294      	cmp	r4, r2
24050cd4:	da10      	bge.n	24050cf8 <LCD_DrawLine+0x82>
24050cd6:	b005      	add	sp, #20
24050cd8:	e8bd 8ff0 	ldmia.w	sp!, {r4, r5, r6, r7, r8, r9, sl, fp, pc}
24050cdc:	eb06 75d6 	add.w	r5, r6, r6, lsr #31
24050ce0:	4622      	mov	r2, r4
24050ce2:	f8cd 8008 	str.w	r8, [sp, #8]
24050ce6:	f04f 0800 	mov.w	r8, #0
24050cea:	4634      	mov	r4, r6
24050cec:	f345 054f 	sbfx	r5, r5, #1, #16
24050cf0:	4616      	mov	r6, r2
24050cf2:	f8cd 8004 	str.w	r8, [sp, #4]
24050cf6:	e7e8      	b.n	24050cca <LCD_DrawLine+0x54>
24050cf8:	fa1f f189 	uxth.w	r1, r9
24050cfc:	4435      	add	r5, r6
24050cfe:	fa1f f28a 	uxth.w	r2, sl
24050d02:	9103      	str	r1, [sp, #12]
24050d04:	f7ff ff7e 	bl	24050c04 <LCD_DrawPixel>
24050d08:	fa1f fc85 	uxth.w	ip, r5
24050d0c:	b22d      	sxth	r5, r5
24050d0e:	42ac      	cmp	r4, r5
24050d10:	dc09      	bgt.n	24050d26 <LCD_DrawLine+0xb0>
24050d12:	9903      	ldr	r1, [sp, #12]
24050d14:	ebac 0504 	sub.w	r5, ip, r4
24050d18:	4442      	add	r2, r8
24050d1a:	4439      	add	r1, r7
24050d1c:	b22d      	sxth	r5, r5
24050d1e:	fa0f fa82 	sxth.w	sl, r2
24050d22:	fa0f f981 	sxth.w	r9, r1
24050d26:	9a01      	ldr	r2, [sp, #4]
24050d28:	f10b 0b01 	add.w	fp, fp, #1
24050d2c:	4491      	add	r9, r2
24050d2e:	9a02      	ldr	r2, [sp, #8]
24050d30:	4492      	add	sl, r2
24050d32:	fa0f f989 	sxth.w	r9, r9
24050d36:	fa0f fa8a 	sxth.w	sl, sl
24050d3a:	e7c8      	b.n	24050cce <LCD_DrawLine+0x58>

24050d3c <LCD_DrawRect>:
24050d3c:	e92d 43f7 	stmdb	sp!, {r0, r1, r2, r4, r5, r6, r7, r8, r9, lr}
24050d40:	f8bd 702c 	ldrh.w	r7, [sp, #44]	@ 0x2c
24050d44:	4616      	mov	r6, r2
24050d46:	f8bd 9028 	ldrh.w	r9, [sp, #40]	@ 0x28
24050d4a:	4605      	mov	r5, r0
24050d4c:	9700      	str	r7, [sp, #0]
24050d4e:	460c      	mov	r4, r1
24050d50:	4698      	mov	r8, r3
24050d52:	f7ff ff6d 	bl	24050c30 <LCD_DrawHLine>
24050d56:	eb06 0209 	add.w	r2, r6, r9
24050d5a:	4621      	mov	r1, r4
24050d5c:	4643      	mov	r3, r8
24050d5e:	4628      	mov	r0, r5
24050d60:	b292      	uxth	r2, r2
24050d62:	9700      	str	r7, [sp, #0]
24050d64:	f7ff ff64 	bl	24050c30 <LCD_DrawHLine>
24050d68:	464b      	mov	r3, r9
24050d6a:	4632      	mov	r2, r6
24050d6c:	4621      	mov	r1, r4
24050d6e:	4628      	mov	r0, r5
24050d70:	9700      	str	r7, [sp, #0]
24050d72:	f7ff ff6e 	bl	24050c52 <LCD_DrawVLine>
24050d76:	eb04 0108 	add.w	r1, r4, r8
24050d7a:	464b      	mov	r3, r9
24050d7c:	4632      	mov	r2, r6
24050d7e:	b289      	uxth	r1, r1
24050d80:	4628      	mov	r0, r5
24050d82:	970a      	str	r7, [sp, #40]	@ 0x28
24050d84:	b003      	add	sp, #12
24050d86:	e8bd 43f0 	ldmia.w	sp!, {r4, r5, r6, r7, r8, r9, lr}
24050d8a:	f7ff bf62 	b.w	24050c52 <LCD_DrawVLine>

24050d8e <LCD_DrawCircle>:
24050d8e:	e92d 4ff0 	stmdb	sp!, {r4, r5, r6, r7, r8, r9, sl, fp, lr}
24050d92:	461d      	mov	r5, r3
24050d94:	b085      	sub	sp, #20
24050d96:	4688      	mov	r8, r1
24050d98:	4691      	mov	r9, r2
24050d9a:	006c      	lsls	r4, r5, #1
24050d9c:	f8bd 3038 	ldrh.w	r3, [sp, #56]	@ 0x38
24050da0:	2600      	movs	r6, #0
24050da2:	f1c4 0403 	rsb	r4, r4, #3
24050da6:	fa18 f286 	uxtah	r2, r8, r6
24050daa:	fa1f fa85 	uxth.w	sl, r5
24050dae:	b2b7      	uxth	r7, r6
24050db0:	b292      	uxth	r2, r2
24050db2:	eba8 0b0a 	sub.w	fp, r8, sl
24050db6:	9201      	str	r2, [sp, #4]
24050db8:	eba9 020a 	sub.w	r2, r9, sl
24050dbc:	9901      	ldr	r1, [sp, #4]
24050dbe:	fa1f fb8b 	uxth.w	fp, fp
24050dc2:	b292      	uxth	r2, r2
24050dc4:	f7ff ff1e 	bl	24050c04 <LCD_DrawPixel>
24050dc8:	eba8 0107 	sub.w	r1, r8, r7
24050dcc:	b289      	uxth	r1, r1
24050dce:	9102      	str	r1, [sp, #8]
24050dd0:	f7ff ff18 	bl	24050c04 <LCD_DrawPixel>
24050dd4:	eb0a 0208 	add.w	r2, sl, r8
24050dd8:	b292      	uxth	r2, r2
24050dda:	9203      	str	r2, [sp, #12]
24050ddc:	eba9 0207 	sub.w	r2, r9, r7
24050de0:	9903      	ldr	r1, [sp, #12]
24050de2:	b292      	uxth	r2, r2
24050de4:	f7ff ff0e 	bl	24050c04 <LCD_DrawPixel>
24050de8:	4659      	mov	r1, fp
24050dea:	f7ff ff0b 	bl	24050c04 <LCD_DrawPixel>
24050dee:	eb0a 0209 	add.w	r2, sl, r9
24050df2:	9901      	ldr	r1, [sp, #4]
24050df4:	b292      	uxth	r2, r2
24050df6:	f7ff ff05 	bl	24050c04 <LCD_DrawPixel>
24050dfa:	9902      	ldr	r1, [sp, #8]
24050dfc:	f7ff ff02 	bl	24050c04 <LCD_DrawPixel>
24050e00:	eb07 0209 	add.w	r2, r7, r9
24050e04:	9903      	ldr	r1, [sp, #12]
24050e06:	b292      	uxth	r2, r2
24050e08:	f7ff fefc 	bl	24050c04 <LCD_DrawPixel>
24050e0c:	4659      	mov	r1, fp
24050e0e:	f7ff fef9 	bl	24050c04 <LCD_DrawPixel>
24050e12:	2c00      	cmp	r4, #0
24050e14:	bfb1      	iteee	lt
24050e16:	3406      	addlt	r4, #6
24050e18:	1b72      	subge	r2, r6, r5
24050e1a:	340a      	addge	r4, #10
24050e1c:	f105 35ff 	addge.w	r5, r5, #4294967295
24050e20:	bfb8      	it	lt
24050e22:	eb04 0486 	addlt.w	r4, r4, r6, lsl #2
24050e26:	f106 0601 	add.w	r6, r6, #1
24050e2a:	bfa8      	it	ge
24050e2c:	eb04 0482 	addge.w	r4, r4, r2, lsl #2
24050e30:	42b5      	cmp	r5, r6
24050e32:	d2b8      	bcs.n	24050da6 <LCD_DrawCircle+0x18>
24050e34:	b005      	add	sp, #20
24050e36:	e8bd 8ff0 	ldmia.w	sp!, {r4, r5, r6, r7, r8, r9, sl, fp, pc}

24050e3a <LCD_FillRect>:
24050e3a:	b470      	push	{r4, r5, r6}
24050e3c:	4615      	mov	r5, r2
24050e3e:	f44f 76a0 	mov.w	r6, #320	@ 0x140
24050e42:	460c      	mov	r4, r1
24050e44:	4619      	mov	r1, r3
24050e46:	f8bd 3010 	ldrh.w	r3, [sp, #16]
24050e4a:	fb06 4405 	mla	r4, r6, r5, r4
24050e4e:	f8bd 200c 	ldrh.w	r2, [sp, #12]
24050e52:	9303      	str	r3, [sp, #12]
24050e54:	1a73      	subs	r3, r6, r1
24050e56:	eb00 0044 	add.w	r0, r0, r4, lsl #1
24050e5a:	bc70      	pop	{r4, r5, r6}
24050e5c:	f7ff be9a 	b.w	24050b94 <FillBuffer>

24050e60 <LCD_DisplayChar>:
24050e60:	e92d 4ff0 	stmdb	sp!, {r4, r5, r6, r7, r8, r9, sl, fp, lr}
24050e64:	4616      	mov	r6, r2
24050e66:	4a29      	ldr	r2, [pc, #164]	@ (24050f0c <LCD_DisplayChar+0xac>)
24050e68:	b089      	sub	sp, #36	@ 0x24
24050e6a:	3b20      	subs	r3, #32
24050e6c:	6812      	ldr	r2, [r2, #0]
24050e6e:	f04f 0a00 	mov.w	sl, #0
24050e72:	f8b2 b004 	ldrh.w	fp, [r2, #4]
24050e76:	6815      	ldr	r5, [r2, #0]
24050e78:	f10b 0707 	add.w	r7, fp, #7
24050e7c:	e9cd 0105 	strd	r0, r1, [sp, #20]
24050e80:	88d1      	ldrh	r1, [r2, #6]
24050e82:	10ff      	asrs	r7, r7, #3
24050e84:	9103      	str	r1, [sp, #12]
24050e86:	4922      	ldr	r1, [pc, #136]	@ (24050f10 <LCD_DisplayChar+0xb0>)
24050e88:	f891 8000 	ldrb.w	r8, [r1]
24050e8c:	ebcb 01c7 	rsb	r1, fp, r7, lsl #3
24050e90:	b2c9      	uxtb	r1, r1
24050e92:	9104      	str	r1, [sp, #16]
24050e94:	9903      	ldr	r1, [sp, #12]
24050e96:	434b      	muls	r3, r1
24050e98:	fb07 5503 	mla	r5, r7, r3, r5
24050e9c:	9b03      	ldr	r3, [sp, #12]
24050e9e:	459a      	cmp	sl, r3
24050ea0:	d302      	bcc.n	24050ea8 <LCD_DisplayChar+0x48>
24050ea2:	b009      	add	sp, #36	@ 0x24
24050ea4:	e8bd 8ff0 	ldmia.w	sp!, {r4, r5, r6, r7, r8, r9, sl, fp, pc}
24050ea8:	2f01      	cmp	r7, #1
24050eaa:	782c      	ldrb	r4, [r5, #0]
24050eac:	d004      	beq.n	24050eb8 <LCD_DisplayChar+0x58>
24050eae:	2f02      	cmp	r7, #2
24050eb0:	d10f      	bne.n	24050ed2 <LCD_DisplayChar+0x72>
24050eb2:	882c      	ldrh	r4, [r5, #0]
24050eb4:	ba64      	rev16	r4, r4
24050eb6:	b2a4      	uxth	r4, r4
24050eb8:	9b04      	ldr	r3, [sp, #16]
24050eba:	9906      	ldr	r1, [sp, #24]
24050ebc:	eb0b 0903 	add.w	r9, fp, r3
24050ec0:	9b04      	ldr	r3, [sp, #16]
24050ec2:	4599      	cmp	r9, r3
24050ec4:	d10c      	bne.n	24050ee0 <LCD_DisplayChar+0x80>
24050ec6:	4446      	add	r6, r8
24050ec8:	f10a 0a01 	add.w	sl, sl, #1
24050ecc:	443d      	add	r5, r7
24050ece:	b2b6      	uxth	r6, r6
24050ed0:	e7e4      	b.n	24050e9c <LCD_DisplayChar+0x3c>
24050ed2:	786b      	ldrb	r3, [r5, #1]
24050ed4:	0424      	lsls	r4, r4, #16
24050ed6:	ea44 2403 	orr.w	r4, r4, r3, lsl #8
24050eda:	78ab      	ldrb	r3, [r5, #2]
24050edc:	431c      	orrs	r4, r3
24050ede:	e7eb      	b.n	24050eb8 <LCD_DisplayChar+0x58>
24050ee0:	f109 39ff 	add.w	r9, r9, #4294967295
24050ee4:	2301      	movs	r3, #1
24050ee6:	4632      	mov	r2, r6
24050ee8:	9805      	ldr	r0, [sp, #20]
24050eea:	fa03 f309 	lsl.w	r3, r3, r9
24050eee:	4223      	tst	r3, r4
24050ef0:	bf14      	ite	ne
24050ef2:	4b08      	ldrne	r3, [pc, #32]	@ (24050f14 <LCD_DisplayChar+0xb4>)
24050ef4:	4b08      	ldreq	r3, [pc, #32]	@ (24050f18 <LCD_DisplayChar+0xb8>)
24050ef6:	881b      	ldrh	r3, [r3, #0]
24050ef8:	9107      	str	r1, [sp, #28]
24050efa:	e9cd 8300 	strd	r8, r3, [sp]
24050efe:	4643      	mov	r3, r8
24050f00:	f7ff ff9b 	bl	24050e3a <LCD_FillRect>
24050f04:	9907      	ldr	r1, [sp, #28]
24050f06:	4441      	add	r1, r8
24050f08:	b289      	uxth	r1, r1
24050f0a:	e7d9      	b.n	24050ec0 <LCD_DisplayChar+0x60>
24050f0c:	2000007c 	.word	0x2000007c
24050f10:	20000078 	.word	0x20000078
24050f14:	2000007a 	.word	0x2000007a
24050f18:	200001e4 	.word	0x200001e4

24050f1c <LCD_DisplayStringAt>:
24050f1c:	e92d 43f8 	stmdb	sp!, {r3, r4, r5, r6, r7, r8, r9, lr}
24050f20:	461e      	mov	r6, r3
24050f22:	4b23      	ldr	r3, [pc, #140]	@ (24050fb0 <LCD_DisplayStringAt+0x94>)
24050f24:	4607      	mov	r7, r0
24050f26:	460c      	mov	r4, r1
24050f28:	681b      	ldr	r3, [r3, #0]
24050f2a:	4630      	mov	r0, r6
24050f2c:	4690      	mov	r8, r2
24050f2e:	f89d 9020 	ldrb.w	r9, [sp, #32]
24050f32:	889d      	ldrh	r5, [r3, #4]
24050f34:	4b1f      	ldr	r3, [pc, #124]	@ (24050fb4 <LCD_DisplayStringAt+0x98>)
24050f36:	781b      	ldrb	r3, [r3, #0]
24050f38:	435d      	muls	r5, r3
24050f3a:	f7ff f881 	bl	24050040 <strlen>
24050f3e:	f44f 71a0 	mov.w	r1, #320	@ 0x140
24050f42:	f1b9 0f01 	cmp.w	r9, #1
24050f46:	fbb1 f1f5 	udiv	r1, r1, r5
24050f4a:	fb05 f301 	mul.w	r3, r5, r1
24050f4e:	f5c3 73a0 	rsb	r3, r3, #320	@ 0x140
24050f52:	d018      	beq.n	24050f86 <LCD_DisplayStringAt+0x6a>
24050f54:	f1b9 0f02 	cmp.w	r9, #2
24050f58:	d01c      	beq.n	24050f94 <LCD_DisplayStringAt+0x78>
24050f5a:	f04f 0900 	mov.w	r9, #0
24050f5e:	fa1f f289 	uxth.w	r2, r9
24050f62:	f816 3009 	ldrb.w	r3, [r6, r9]
24050f66:	f109 0901 	add.w	r9, r9, #1
24050f6a:	436a      	muls	r2, r5
24050f6c:	f5c2 72a0 	rsb	r2, r2, #320	@ 0x140
24050f70:	b292      	uxth	r2, r2
24050f72:	42aa      	cmp	r2, r5
24050f74:	bf34      	ite	cc
24050f76:	2200      	movcc	r2, #0
24050f78:	2201      	movcs	r2, #1
24050f7a:	2b00      	cmp	r3, #0
24050f7c:	bf08      	it	eq
24050f7e:	2200      	moveq	r2, #0
24050f80:	b972      	cbnz	r2, 24050fa0 <LCD_DisplayStringAt+0x84>
24050f82:	e8bd 83f8 	ldmia.w	sp!, {r3, r4, r5, r6, r7, r8, r9, pc}
24050f86:	1a09      	subs	r1, r1, r0
24050f88:	fb05 3301 	mla	r3, r5, r1, r3
24050f8c:	eb04 0353 	add.w	r3, r4, r3, lsr #1
24050f90:	b29c      	uxth	r4, r3
24050f92:	e7e2      	b.n	24050f5a <LCD_DisplayStringAt+0x3e>
24050f94:	4423      	add	r3, r4
24050f96:	1a09      	subs	r1, r1, r0
24050f98:	fb11 3105 	smlabb	r1, r1, r5, r3
24050f9c:	b28c      	uxth	r4, r1
24050f9e:	e7dc      	b.n	24050f5a <LCD_DisplayStringAt+0x3e>
24050fa0:	4621      	mov	r1, r4
24050fa2:	442c      	add	r4, r5
24050fa4:	4642      	mov	r2, r8
24050fa6:	4638      	mov	r0, r7
24050fa8:	b2a4      	uxth	r4, r4
24050faa:	f7ff ff59 	bl	24050e60 <LCD_DisplayChar>
24050fae:	e7d6      	b.n	24050f5e <LCD_DisplayStringAt+0x42>
24050fb0:	2000007c 	.word	0x2000007c
24050fb4:	20000078 	.word	0x20000078

24050fb8 <LCD_FillCircle>:
24050fb8:	e92d 4ff0 	stmdb	sp!, {r4, r5, r6, r7, r8, r9, sl, fp, lr}
24050fbc:	005c      	lsls	r4, r3, #1
24050fbe:	b087      	sub	sp, #28
24050fc0:	4606      	mov	r6, r0
24050fc2:	4617      	mov	r7, r2
24050fc4:	469a      	mov	sl, r3
24050fc6:	f8bd b040 	ldrh.w	fp, [sp, #64]	@ 0x40
24050fca:	f1c4 0403 	rsb	r4, r4, #3
24050fce:	4698      	mov	r8, r3
24050fd0:	2500      	movs	r5, #0
24050fd2:	9103      	str	r1, [sp, #12]
24050fd4:	f1b8 0f00 	cmp.w	r8, #0
24050fd8:	d01c      	beq.n	24051014 <LCD_FillCircle+0x5c>
24050fda:	9a03      	ldr	r2, [sp, #12]
24050fdc:	fa1f f388 	uxth.w	r3, r8
24050fe0:	fa1f f985 	uxth.w	r9, r5
24050fe4:	4630      	mov	r0, r6
24050fe6:	1ad1      	subs	r1, r2, r3
24050fe8:	005b      	lsls	r3, r3, #1
24050fea:	fa17 f285 	uxtah	r2, r7, r5
24050fee:	f8cd b000 	str.w	fp, [sp]
24050ff2:	b289      	uxth	r1, r1
24050ff4:	b29b      	uxth	r3, r3
24050ff6:	b292      	uxth	r2, r2
24050ff8:	9104      	str	r1, [sp, #16]
24050ffa:	9305      	str	r3, [sp, #20]
24050ffc:	f7ff fe18 	bl	24050c30 <LCD_DrawHLine>
24051000:	eba7 0209 	sub.w	r2, r7, r9
24051004:	9b05      	ldr	r3, [sp, #20]
24051006:	9904      	ldr	r1, [sp, #16]
24051008:	4630      	mov	r0, r6
2405100a:	b292      	uxth	r2, r2
2405100c:	f8cd b000 	str.w	fp, [sp]
24051010:	f7ff fe0e 	bl	24050c30 <LCD_DrawHLine>
24051014:	b1dd      	cbz	r5, 2405104e <LCD_FillCircle+0x96>
24051016:	9a03      	ldr	r2, [sp, #12]
24051018:	b2ab      	uxth	r3, r5
2405101a:	fa1f f988 	uxth.w	r9, r8
2405101e:	4630      	mov	r0, r6
24051020:	1ad1      	subs	r1, r2, r3
24051022:	005b      	lsls	r3, r3, #1
24051024:	eba7 0209 	sub.w	r2, r7, r9
24051028:	f8cd b000 	str.w	fp, [sp]
2405102c:	b289      	uxth	r1, r1
2405102e:	b29b      	uxth	r3, r3
24051030:	b292      	uxth	r2, r2
24051032:	9104      	str	r1, [sp, #16]
24051034:	9305      	str	r3, [sp, #20]
24051036:	f7ff fdfb 	bl	24050c30 <LCD_DrawHLine>
2405103a:	eb09 0207 	add.w	r2, r9, r7
2405103e:	9b05      	ldr	r3, [sp, #20]
24051040:	9904      	ldr	r1, [sp, #16]
24051042:	4630      	mov	r0, r6
24051044:	b292      	uxth	r2, r2
24051046:	f8cd b000 	str.w	fp, [sp]
2405104a:	f7ff fdf1 	bl	24050c30 <LCD_DrawHLine>
2405104e:	2c00      	cmp	r4, #0
24051050:	bfb1      	iteee	lt
24051052:	3406      	addlt	r4, #6
24051054:	eba5 0308 	subge.w	r3, r5, r8
24051058:	340a      	addge	r4, #10
2405105a:	f108 38ff 	addge.w	r8, r8, #4294967295
2405105e:	bfb8      	it	lt
24051060:	eb04 0485 	addlt.w	r4, r4, r5, lsl #2
24051064:	f105 0501 	add.w	r5, r5, #1
24051068:	bfa8      	it	ge
2405106a:	eb04 0483 	addge.w	r4, r4, r3, lsl #2
2405106e:	45a8      	cmp	r8, r5
24051070:	d2b0      	bcs.n	24050fd4 <LCD_FillCircle+0x1c>
24051072:	4653      	mov	r3, sl
24051074:	463a      	mov	r2, r7
24051076:	9903      	ldr	r1, [sp, #12]
24051078:	4630      	mov	r0, r6
2405107a:	f8cd b040 	str.w	fp, [sp, #64]	@ 0x40
2405107e:	b007      	add	sp, #28
24051080:	e8bd 4ff0 	ldmia.w	sp!, {r4, r5, r6, r7, r8, r9, sl, fp, lr}
24051084:	f7ff be83 	b.w	24050d8e <LCD_DrawCircle>

24051088 <init_sprite>:
24051088:	7103      	strb	r3, [r0, #4]
2405108a:	f89d 3000 	ldrb.w	r3, [sp]
2405108e:	8001      	strh	r1, [r0, #0]
24051090:	7143      	strb	r3, [r0, #5]
24051092:	f89d 3004 	ldrb.w	r3, [sp, #4]
24051096:	8042      	strh	r2, [r0, #2]
24051098:	7183      	strb	r3, [r0, #6]
2405109a:	9b02      	ldr	r3, [sp, #8]
2405109c:	6083      	str	r3, [r0, #8]
2405109e:	9b03      	ldr	r3, [sp, #12]
240510a0:	60c3      	str	r3, [r0, #12]
240510a2:	4770      	bx	lr

240510a4 <set_sprite_flip_x>:
240510a4:	7983      	ldrb	r3, [r0, #6]
240510a6:	b919      	cbnz	r1, 240510b0 <set_sprite_flip_x+0xc>
240510a8:	f003 03df 	and.w	r3, r3, #223	@ 0xdf
240510ac:	7183      	strb	r3, [r0, #6]
240510ae:	4770      	bx	lr
240510b0:	f043 0320 	orr.w	r3, r3, #32
240510b4:	e7fa      	b.n	240510ac <set_sprite_flip_x+0x8>

240510b6 <render_sprite>:
240510b6:	b084      	sub	sp, #16
240510b8:	e92d 4ff0 	stmdb	sp!, {r4, r5, r6, r7, r8, r9, sl, fp, lr}
240510bc:	b08b      	sub	sp, #44	@ 0x2c
240510be:	9005      	str	r0, [sp, #20]
240510c0:	a815      	add	r0, sp, #84	@ 0x54
240510c2:	e880 000e 	stmia.w	r0, {r1, r2, r3}
240510c6:	f89d 205a 	ldrb.w	r2, [sp, #90]	@ 0x5a
240510ca:	06d1      	lsls	r1, r2, #27
240510cc:	f140 82ab 	bpl.w	24051626 <render_sprite+0x570>
240510d0:	f012 040f 	ands.w	r4, r2, #15
240510d4:	f000 82a7 	beq.w	24051626 <render_sprite+0x570>
240510d8:	f8bd 3056 	ldrh.w	r3, [sp, #86]	@ 0x56
240510dc:	f8bd 6054 	ldrh.w	r6, [sp, #84]	@ 0x54
240510e0:	9303      	str	r3, [sp, #12]
240510e2:	f89d 3058 	ldrb.w	r3, [sp, #88]	@ 0x58
240510e6:	9300      	str	r3, [sp, #0]
240510e8:	f89d 3059 	ldrb.w	r3, [sp, #89]	@ 0x59
240510ec:	9302      	str	r3, [sp, #8]
240510ee:	9b17      	ldr	r3, [sp, #92]	@ 0x5c
240510f0:	9301      	str	r3, [sp, #4]
240510f2:	9b18      	ldr	r3, [sp, #96]	@ 0x60
240510f4:	9304      	str	r3, [sp, #16]
240510f6:	f002 0360 	and.w	r3, r2, #96	@ 0x60
240510fa:	0612      	lsls	r2, r2, #24
240510fc:	f140 814a 	bpl.w	24051394 <render_sprite+0x2de>
24051100:	2b60      	cmp	r3, #96	@ 0x60
24051102:	d156      	bne.n	240511b2 <render_sprite+0xfc>
24051104:	9b00      	ldr	r3, [sp, #0]
24051106:	9a03      	ldr	r2, [sp, #12]
24051108:	1e5d      	subs	r5, r3, #1
2405110a:	9b02      	ldr	r3, [sp, #8]
2405110c:	3b01      	subs	r3, #1
2405110e:	fb05 6504 	mla	r5, r5, r4, r6
24051112:	2600      	movs	r6, #0
24051114:	fb03 2304 	mla	r3, r3, r4, r2
24051118:	b2ad      	uxth	r5, r5
2405111a:	b29b      	uxth	r3, r3
2405111c:	9306      	str	r3, [sp, #24]
2405111e:	9b00      	ldr	r3, [sp, #0]
24051120:	429e      	cmp	r6, r3
24051122:	f280 8280 	bge.w	24051626 <render_sprite+0x570>
24051126:	f006 0301 	and.w	r3, r6, #1
2405112a:	f04f 0800 	mov.w	r8, #0
2405112e:	9f06      	ldr	r7, [sp, #24]
24051130:	9307      	str	r3, [sp, #28]
24051132:	46c3      	mov	fp, r8
24051134:	9b04      	ldr	r3, [sp, #16]
24051136:	eb03 0366 	add.w	r3, r3, r6, asr #1
2405113a:	9303      	str	r3, [sp, #12]
2405113c:	e015      	b.n	2405116a <render_sprite+0xb4>
2405113e:	9a07      	ldr	r2, [sp, #28]
24051140:	ea4f 0368 	mov.w	r3, r8, asr #1
24051144:	b9c2      	cbnz	r2, 24051178 <render_sprite+0xc2>
24051146:	9a03      	ldr	r2, [sp, #12]
24051148:	5cd3      	ldrb	r3, [r2, r3]
2405114a:	091b      	lsrs	r3, r3, #4
2405114c:	005b      	lsls	r3, r3, #1
2405114e:	9a01      	ldr	r2, [sp, #4]
24051150:	f04f 0900 	mov.w	r9, #0
24051154:	5ad3      	ldrh	r3, [r2, r3]
24051156:	9a01      	ldr	r2, [sp, #4]
24051158:	8812      	ldrh	r2, [r2, #0]
2405115a:	429a      	cmp	r2, r3
2405115c:	d111      	bne.n	24051182 <render_sprite+0xcc>
2405115e:	1b3f      	subs	r7, r7, r4
24051160:	9b00      	ldr	r3, [sp, #0]
24051162:	f10b 0b01 	add.w	fp, fp, #1
24051166:	b2bf      	uxth	r7, r7
24051168:	4498      	add	r8, r3
2405116a:	9b02      	ldr	r3, [sp, #8]
2405116c:	459b      	cmp	fp, r3
2405116e:	dbe6      	blt.n	2405113e <render_sprite+0x88>
24051170:	1b2d      	subs	r5, r5, r4
24051172:	3601      	adds	r6, #1
24051174:	b2ad      	uxth	r5, r5
24051176:	e7d2      	b.n	2405111e <render_sprite+0x68>
24051178:	9a03      	ldr	r2, [sp, #12]
2405117a:	5cd3      	ldrb	r3, [r2, r3]
2405117c:	f003 030f 	and.w	r3, r3, #15
24051180:	e7e4      	b.n	2405114c <render_sprite+0x96>
24051182:	eb05 0209 	add.w	r2, r5, r9
24051186:	f04f 0a00 	mov.w	sl, #0
2405118a:	b292      	uxth	r2, r2
2405118c:	eb07 010a 	add.w	r1, r7, sl
24051190:	f10a 0a01 	add.w	sl, sl, #1
24051194:	9805      	ldr	r0, [sp, #20]
24051196:	b289      	uxth	r1, r1
24051198:	e9cd 2308 	strd	r2, r3, [sp, #32]
2405119c:	f7ff fd32 	bl	24050c04 <LCD_DrawPixel>
240511a0:	45a2      	cmp	sl, r4
240511a2:	e9dd 2308 	ldrd	r2, r3, [sp, #32]
240511a6:	dbf1      	blt.n	2405118c <render_sprite+0xd6>
240511a8:	f109 0901 	add.w	r9, r9, #1
240511ac:	45a1      	cmp	r9, r4
240511ae:	dbd2      	blt.n	24051156 <render_sprite+0xa0>
240511b0:	e7d5      	b.n	2405115e <render_sprite+0xa8>
240511b2:	2b40      	cmp	r3, #64	@ 0x40
240511b4:	d151      	bne.n	2405125a <render_sprite+0x1a4>
240511b6:	9b02      	ldr	r3, [sp, #8]
240511b8:	2500      	movs	r5, #0
240511ba:	9a03      	ldr	r2, [sp, #12]
240511bc:	3b01      	subs	r3, #1
240511be:	fb03 2304 	mla	r3, r3, r4, r2
240511c2:	b29b      	uxth	r3, r3
240511c4:	9306      	str	r3, [sp, #24]
240511c6:	9b00      	ldr	r3, [sp, #0]
240511c8:	429d      	cmp	r5, r3
240511ca:	f280 822c 	bge.w	24051626 <render_sprite+0x570>
240511ce:	f005 0301 	and.w	r3, r5, #1
240511d2:	f04f 0800 	mov.w	r8, #0
240511d6:	9f06      	ldr	r7, [sp, #24]
240511d8:	9307      	str	r3, [sp, #28]
240511da:	46c3      	mov	fp, r8
240511dc:	9b04      	ldr	r3, [sp, #16]
240511de:	eb03 0365 	add.w	r3, r3, r5, asr #1
240511e2:	9303      	str	r3, [sp, #12]
240511e4:	e015      	b.n	24051212 <render_sprite+0x15c>
240511e6:	9a07      	ldr	r2, [sp, #28]
240511e8:	ea4f 0368 	mov.w	r3, r8, asr #1
240511ec:	b9c2      	cbnz	r2, 24051220 <render_sprite+0x16a>
240511ee:	9a03      	ldr	r2, [sp, #12]
240511f0:	5cd3      	ldrb	r3, [r2, r3]
240511f2:	091b      	lsrs	r3, r3, #4
240511f4:	005b      	lsls	r3, r3, #1
240511f6:	9a01      	ldr	r2, [sp, #4]
240511f8:	f04f 0900 	mov.w	r9, #0
240511fc:	5ad3      	ldrh	r3, [r2, r3]
240511fe:	9a01      	ldr	r2, [sp, #4]
24051200:	8812      	ldrh	r2, [r2, #0]
24051202:	429a      	cmp	r2, r3
24051204:	d111      	bne.n	2405122a <render_sprite+0x174>
24051206:	1b3f      	subs	r7, r7, r4
24051208:	9b00      	ldr	r3, [sp, #0]
2405120a:	f10b 0b01 	add.w	fp, fp, #1
2405120e:	b2bf      	uxth	r7, r7
24051210:	4498      	add	r8, r3
24051212:	9b02      	ldr	r3, [sp, #8]
24051214:	459b      	cmp	fp, r3
24051216:	dbe6      	blt.n	240511e6 <render_sprite+0x130>
24051218:	4426      	add	r6, r4
2405121a:	3501      	adds	r5, #1
2405121c:	b2b6      	uxth	r6, r6
2405121e:	e7d2      	b.n	240511c6 <render_sprite+0x110>
24051220:	9a03      	ldr	r2, [sp, #12]
24051222:	5cd3      	ldrb	r3, [r2, r3]
24051224:	f003 030f 	and.w	r3, r3, #15
24051228:	e7e4      	b.n	240511f4 <render_sprite+0x13e>
2405122a:	eb06 0209 	add.w	r2, r6, r9
2405122e:	f04f 0a00 	mov.w	sl, #0
24051232:	b292      	uxth	r2, r2
24051234:	eb07 010a 	add.w	r1, r7, sl
24051238:	f10a 0a01 	add.w	sl, sl, #1
2405123c:	9805      	ldr	r0, [sp, #20]
2405123e:	b289      	uxth	r1, r1
24051240:	e9cd 2308 	strd	r2, r3, [sp, #32]
24051244:	f7ff fcde 	bl	24050c04 <LCD_DrawPixel>
24051248:	45a2      	cmp	sl, r4
2405124a:	e9dd 2308 	ldrd	r2, r3, [sp, #32]
2405124e:	dbf1      	blt.n	24051234 <render_sprite+0x17e>
24051250:	f109 0901 	add.w	r9, r9, #1
24051254:	45a1      	cmp	r9, r4
24051256:	dbd2      	blt.n	240511fe <render_sprite+0x148>
24051258:	e7d5      	b.n	24051206 <render_sprite+0x150>
2405125a:	2b20      	cmp	r3, #32
2405125c:	d010      	beq.n	24051280 <render_sprite+0x1ca>
2405125e:	2500      	movs	r5, #0
24051260:	9b00      	ldr	r3, [sp, #0]
24051262:	429d      	cmp	r5, r3
24051264:	f280 81df 	bge.w	24051626 <render_sprite+0x570>
24051268:	f005 0301 	and.w	r3, r5, #1
2405126c:	f04f 0800 	mov.w	r8, #0
24051270:	9f03      	ldr	r7, [sp, #12]
24051272:	9307      	str	r3, [sp, #28]
24051274:	46c3      	mov	fp, r8
24051276:	9b04      	ldr	r3, [sp, #16]
24051278:	eb03 0365 	add.w	r3, r3, r5, asr #1
2405127c:	9306      	str	r3, [sp, #24]
2405127e:	e065      	b.n	2405134c <render_sprite+0x296>
24051280:	9b00      	ldr	r3, [sp, #0]
24051282:	1e5d      	subs	r5, r3, #1
24051284:	fb05 6504 	mla	r5, r5, r4, r6
24051288:	2600      	movs	r6, #0
2405128a:	b2ad      	uxth	r5, r5
2405128c:	9b00      	ldr	r3, [sp, #0]
2405128e:	429e      	cmp	r6, r3
24051290:	f280 81c9 	bge.w	24051626 <render_sprite+0x570>
24051294:	f006 0301 	and.w	r3, r6, #1
24051298:	f04f 0800 	mov.w	r8, #0
2405129c:	9f03      	ldr	r7, [sp, #12]
2405129e:	9307      	str	r3, [sp, #28]
240512a0:	46c3      	mov	fp, r8
240512a2:	9b04      	ldr	r3, [sp, #16]
240512a4:	eb03 0366 	add.w	r3, r3, r6, asr #1
240512a8:	9306      	str	r3, [sp, #24]
240512aa:	e015      	b.n	240512d8 <render_sprite+0x222>
240512ac:	9a07      	ldr	r2, [sp, #28]
240512ae:	ea4f 0368 	mov.w	r3, r8, asr #1
240512b2:	b9c2      	cbnz	r2, 240512e6 <render_sprite+0x230>
240512b4:	9a06      	ldr	r2, [sp, #24]
240512b6:	5cd3      	ldrb	r3, [r2, r3]
240512b8:	091b      	lsrs	r3, r3, #4
240512ba:	005b      	lsls	r3, r3, #1
240512bc:	9a01      	ldr	r2, [sp, #4]
240512be:	f04f 0900 	mov.w	r9, #0
240512c2:	5ad3      	ldrh	r3, [r2, r3]
240512c4:	9a01      	ldr	r2, [sp, #4]
240512c6:	8812      	ldrh	r2, [r2, #0]
240512c8:	429a      	cmp	r2, r3
240512ca:	d111      	bne.n	240512f0 <render_sprite+0x23a>
240512cc:	4427      	add	r7, r4
240512ce:	9b00      	ldr	r3, [sp, #0]
240512d0:	f10b 0b01 	add.w	fp, fp, #1
240512d4:	b2bf      	uxth	r7, r7
240512d6:	4498      	add	r8, r3
240512d8:	9b02      	ldr	r3, [sp, #8]
240512da:	459b      	cmp	fp, r3
240512dc:	dbe6      	blt.n	240512ac <render_sprite+0x1f6>
240512de:	1b2d      	subs	r5, r5, r4
240512e0:	3601      	adds	r6, #1
240512e2:	b2ad      	uxth	r5, r5
240512e4:	e7d2      	b.n	2405128c <render_sprite+0x1d6>
240512e6:	9a06      	ldr	r2, [sp, #24]
240512e8:	5cd3      	ldrb	r3, [r2, r3]
240512ea:	f003 030f 	and.w	r3, r3, #15
240512ee:	e7e4      	b.n	240512ba <render_sprite+0x204>
240512f0:	eb05 0209 	add.w	r2, r5, r9
240512f4:	f04f 0a00 	mov.w	sl, #0
240512f8:	b292      	uxth	r2, r2
240512fa:	eb07 010a 	add.w	r1, r7, sl
240512fe:	f10a 0a01 	add.w	sl, sl, #1
24051302:	9805      	ldr	r0, [sp, #20]
24051304:	b289      	uxth	r1, r1
24051306:	e9cd 2308 	strd	r2, r3, [sp, #32]
2405130a:	f7ff fc7b 	bl	24050c04 <LCD_DrawPixel>
2405130e:	45a2      	cmp	sl, r4
24051310:	e9dd 2308 	ldrd	r2, r3, [sp, #32]
24051314:	dbf1      	blt.n	240512fa <render_sprite+0x244>
24051316:	f109 0901 	add.w	r9, r9, #1
2405131a:	45a1      	cmp	r9, r4
2405131c:	dbd2      	blt.n	240512c4 <render_sprite+0x20e>
2405131e:	e7d5      	b.n	240512cc <render_sprite+0x216>
24051320:	9a07      	ldr	r2, [sp, #28]
24051322:	ea4f 0368 	mov.w	r3, r8, asr #1
24051326:	b9c2      	cbnz	r2, 2405135a <render_sprite+0x2a4>
24051328:	9a06      	ldr	r2, [sp, #24]
2405132a:	5cd3      	ldrb	r3, [r2, r3]
2405132c:	091b      	lsrs	r3, r3, #4
2405132e:	005b      	lsls	r3, r3, #1
24051330:	9a01      	ldr	r2, [sp, #4]
24051332:	f04f 0900 	mov.w	r9, #0
24051336:	5ad3      	ldrh	r3, [r2, r3]
24051338:	9a01      	ldr	r2, [sp, #4]
2405133a:	8812      	ldrh	r2, [r2, #0]
2405133c:	429a      	cmp	r2, r3
2405133e:	d111      	bne.n	24051364 <render_sprite+0x2ae>
24051340:	4427      	add	r7, r4
24051342:	9b00      	ldr	r3, [sp, #0]
24051344:	f10b 0b01 	add.w	fp, fp, #1
24051348:	b2bf      	uxth	r7, r7
2405134a:	4498      	add	r8, r3
2405134c:	9b02      	ldr	r3, [sp, #8]
2405134e:	459b      	cmp	fp, r3
24051350:	dbe6      	blt.n	24051320 <render_sprite+0x26a>
24051352:	4426      	add	r6, r4
24051354:	3501      	adds	r5, #1
24051356:	b2b6      	uxth	r6, r6
24051358:	e782      	b.n	24051260 <render_sprite+0x1aa>
2405135a:	9a06      	ldr	r2, [sp, #24]
2405135c:	5cd3      	ldrb	r3, [r2, r3]
2405135e:	f003 030f 	and.w	r3, r3, #15
24051362:	e7e4      	b.n	2405132e <render_sprite+0x278>
24051364:	eb06 0209 	add.w	r2, r6, r9
24051368:	f04f 0a00 	mov.w	sl, #0
2405136c:	b292      	uxth	r2, r2
2405136e:	eb07 010a 	add.w	r1, r7, sl
24051372:	f10a 0a01 	add.w	sl, sl, #1
24051376:	9805      	ldr	r0, [sp, #20]
24051378:	b289      	uxth	r1, r1
2405137a:	e9cd 2308 	strd	r2, r3, [sp, #32]
2405137e:	f7ff fc41 	bl	24050c04 <LCD_DrawPixel>
24051382:	45a2      	cmp	sl, r4
24051384:	e9dd 2308 	ldrd	r2, r3, [sp, #32]
24051388:	dbf1      	blt.n	2405136e <render_sprite+0x2b8>
2405138a:	f109 0901 	add.w	r9, r9, #1
2405138e:	45a1      	cmp	r9, r4
24051390:	dbd2      	blt.n	24051338 <render_sprite+0x282>
24051392:	e7d5      	b.n	24051340 <render_sprite+0x28a>
24051394:	2b60      	cmp	r3, #96	@ 0x60
24051396:	d156      	bne.n	24051446 <render_sprite+0x390>
24051398:	9b00      	ldr	r3, [sp, #0]
2405139a:	9a03      	ldr	r2, [sp, #12]
2405139c:	1e5d      	subs	r5, r3, #1
2405139e:	9b02      	ldr	r3, [sp, #8]
240513a0:	3b01      	subs	r3, #1
240513a2:	fb05 6504 	mla	r5, r5, r4, r6
240513a6:	2600      	movs	r6, #0
240513a8:	fb03 2304 	mla	r3, r3, r4, r2
240513ac:	b2ad      	uxth	r5, r5
240513ae:	b29b      	uxth	r3, r3
240513b0:	9306      	str	r3, [sp, #24]
240513b2:	9b00      	ldr	r3, [sp, #0]
240513b4:	429e      	cmp	r6, r3
240513b6:	f280 8136 	bge.w	24051626 <render_sprite+0x570>
240513ba:	f006 0301 	and.w	r3, r6, #1
240513be:	f04f 0800 	mov.w	r8, #0
240513c2:	9f06      	ldr	r7, [sp, #24]
240513c4:	9307      	str	r3, [sp, #28]
240513c6:	46c3      	mov	fp, r8
240513c8:	9b04      	ldr	r3, [sp, #16]
240513ca:	eb03 0366 	add.w	r3, r3, r6, asr #1
240513ce:	9303      	str	r3, [sp, #12]
240513d0:	e015      	b.n	240513fe <render_sprite+0x348>
240513d2:	9a07      	ldr	r2, [sp, #28]
240513d4:	ea4f 0368 	mov.w	r3, r8, asr #1
240513d8:	b9c2      	cbnz	r2, 2405140c <render_sprite+0x356>
240513da:	9a03      	ldr	r2, [sp, #12]
240513dc:	5cd3      	ldrb	r3, [r2, r3]
240513de:	091b      	lsrs	r3, r3, #4
240513e0:	005b      	lsls	r3, r3, #1
240513e2:	9a01      	ldr	r2, [sp, #4]
240513e4:	f04f 0900 	mov.w	r9, #0
240513e8:	5ad3      	ldrh	r3, [r2, r3]
240513ea:	9a01      	ldr	r2, [sp, #4]
240513ec:	8812      	ldrh	r2, [r2, #0]
240513ee:	429a      	cmp	r2, r3
240513f0:	d111      	bne.n	24051416 <render_sprite+0x360>
240513f2:	1b3f      	subs	r7, r7, r4
240513f4:	9b00      	ldr	r3, [sp, #0]
240513f6:	f10b 0b01 	add.w	fp, fp, #1
240513fa:	b2bf      	uxth	r7, r7
240513fc:	4498      	add	r8, r3
240513fe:	9b02      	ldr	r3, [sp, #8]
24051400:	459b      	cmp	fp, r3
24051402:	dbe6      	blt.n	240513d2 <render_sprite+0x31c>
24051404:	1b2d      	subs	r5, r5, r4
24051406:	3601      	adds	r6, #1
24051408:	b2ad      	uxth	r5, r5
2405140a:	e7d2      	b.n	240513b2 <render_sprite+0x2fc>
2405140c:	9a03      	ldr	r2, [sp, #12]
2405140e:	5cd3      	ldrb	r3, [r2, r3]
24051410:	f003 030f 	and.w	r3, r3, #15
24051414:	e7e4      	b.n	240513e0 <render_sprite+0x32a>
24051416:	eb05 0109 	add.w	r1, r5, r9
2405141a:	f04f 0a00 	mov.w	sl, #0
2405141e:	b289      	uxth	r1, r1
24051420:	eb07 020a 	add.w	r2, r7, sl
24051424:	f10a 0a01 	add.w	sl, sl, #1
24051428:	9805      	ldr	r0, [sp, #20]
2405142a:	b292      	uxth	r2, r2
2405142c:	9309      	str	r3, [sp, #36]	@ 0x24
2405142e:	9108      	str	r1, [sp, #32]
24051430:	f7ff fbe8 	bl	24050c04 <LCD_DrawPixel>
24051434:	45a2      	cmp	sl, r4
24051436:	e9dd 1308 	ldrd	r1, r3, [sp, #32]
2405143a:	dbf1      	blt.n	24051420 <render_sprite+0x36a>
2405143c:	f109 0901 	add.w	r9, r9, #1
24051440:	45a1      	cmp	r9, r4
24051442:	dbd2      	blt.n	240513ea <render_sprite+0x334>
24051444:	e7d5      	b.n	240513f2 <render_sprite+0x33c>
24051446:	2b40      	cmp	r3, #64	@ 0x40
24051448:	d151      	bne.n	240514ee <render_sprite+0x438>
2405144a:	9b02      	ldr	r3, [sp, #8]
2405144c:	2500      	movs	r5, #0
2405144e:	9a03      	ldr	r2, [sp, #12]
24051450:	3b01      	subs	r3, #1
24051452:	fb03 2304 	mla	r3, r3, r4, r2
24051456:	b29b      	uxth	r3, r3
24051458:	9306      	str	r3, [sp, #24]
2405145a:	9b00      	ldr	r3, [sp, #0]
2405145c:	429d      	cmp	r5, r3
2405145e:	f280 80e2 	bge.w	24051626 <render_sprite+0x570>
24051462:	f005 0301 	and.w	r3, r5, #1
24051466:	f04f 0800 	mov.w	r8, #0
2405146a:	9f06      	ldr	r7, [sp, #24]
2405146c:	9307      	str	r3, [sp, #28]
2405146e:	46c3      	mov	fp, r8
24051470:	9b04      	ldr	r3, [sp, #16]
24051472:	eb03 0365 	add.w	r3, r3, r5, asr #1
24051476:	9303      	str	r3, [sp, #12]
24051478:	e015      	b.n	240514a6 <render_sprite+0x3f0>
2405147a:	9a07      	ldr	r2, [sp, #28]
2405147c:	ea4f 0368 	mov.w	r3, r8, asr #1
24051480:	b9c2      	cbnz	r2, 240514b4 <render_sprite+0x3fe>
24051482:	9a03      	ldr	r2, [sp, #12]
24051484:	5cd3      	ldrb	r3, [r2, r3]
24051486:	091b      	lsrs	r3, r3, #4
24051488:	005b      	lsls	r3, r3, #1
2405148a:	9a01      	ldr	r2, [sp, #4]
2405148c:	f04f 0900 	mov.w	r9, #0
24051490:	5ad3      	ldrh	r3, [r2, r3]
24051492:	9a01      	ldr	r2, [sp, #4]
24051494:	8812      	ldrh	r2, [r2, #0]
24051496:	429a      	cmp	r2, r3
24051498:	d111      	bne.n	240514be <render_sprite+0x408>
2405149a:	1b3f      	subs	r7, r7, r4
2405149c:	9b00      	ldr	r3, [sp, #0]
2405149e:	f10b 0b01 	add.w	fp, fp, #1
240514a2:	b2bf      	uxth	r7, r7
240514a4:	4498      	add	r8, r3
240514a6:	9b02      	ldr	r3, [sp, #8]
240514a8:	459b      	cmp	fp, r3
240514aa:	dbe6      	blt.n	2405147a <render_sprite+0x3c4>
240514ac:	4426      	add	r6, r4
240514ae:	3501      	adds	r5, #1
240514b0:	b2b6      	uxth	r6, r6
240514b2:	e7d2      	b.n	2405145a <render_sprite+0x3a4>
240514b4:	9a03      	ldr	r2, [sp, #12]
240514b6:	5cd3      	ldrb	r3, [r2, r3]
240514b8:	f003 030f 	and.w	r3, r3, #15
240514bc:	e7e4      	b.n	24051488 <render_sprite+0x3d2>
240514be:	eb06 0109 	add.w	r1, r6, r9
240514c2:	f04f 0a00 	mov.w	sl, #0
240514c6:	b289      	uxth	r1, r1
240514c8:	eb07 020a 	add.w	r2, r7, sl
240514cc:	f10a 0a01 	add.w	sl, sl, #1
240514d0:	9805      	ldr	r0, [sp, #20]
240514d2:	b292      	uxth	r2, r2
240514d4:	9309      	str	r3, [sp, #36]	@ 0x24
240514d6:	9108      	str	r1, [sp, #32]
240514d8:	f7ff fb94 	bl	24050c04 <LCD_DrawPixel>
240514dc:	45a2      	cmp	sl, r4
240514de:	e9dd 1308 	ldrd	r1, r3, [sp, #32]
240514e2:	dbf1      	blt.n	240514c8 <render_sprite+0x412>
240514e4:	f109 0901 	add.w	r9, r9, #1
240514e8:	45a1      	cmp	r9, r4
240514ea:	dbd2      	blt.n	24051492 <render_sprite+0x3dc>
240514ec:	e7d5      	b.n	2405149a <render_sprite+0x3e4>
240514ee:	2b20      	cmp	r3, #32
240514f0:	d010      	beq.n	24051514 <render_sprite+0x45e>
240514f2:	2500      	movs	r5, #0
240514f4:	9b00      	ldr	r3, [sp, #0]
240514f6:	429d      	cmp	r5, r3
240514f8:	f280 8095 	bge.w	24051626 <render_sprite+0x570>
240514fc:	f005 0301 	and.w	r3, r5, #1
24051500:	f04f 0800 	mov.w	r8, #0
24051504:	9f03      	ldr	r7, [sp, #12]
24051506:	9307      	str	r3, [sp, #28]
24051508:	46c3      	mov	fp, r8
2405150a:	9b04      	ldr	r3, [sp, #16]
2405150c:	eb03 0365 	add.w	r3, r3, r5, asr #1
24051510:	9306      	str	r3, [sp, #24]
24051512:	e064      	b.n	240515de <render_sprite+0x528>
24051514:	9b00      	ldr	r3, [sp, #0]
24051516:	1e5d      	subs	r5, r3, #1
24051518:	fb05 6504 	mla	r5, r5, r4, r6
2405151c:	2600      	movs	r6, #0
2405151e:	b2ad      	uxth	r5, r5
24051520:	9b00      	ldr	r3, [sp, #0]
24051522:	429e      	cmp	r6, r3
24051524:	da7f      	bge.n	24051626 <render_sprite+0x570>
24051526:	f006 0301 	and.w	r3, r6, #1
2405152a:	f04f 0800 	mov.w	r8, #0
2405152e:	9f03      	ldr	r7, [sp, #12]
24051530:	9307      	str	r3, [sp, #28]
24051532:	46c3      	mov	fp, r8
24051534:	9b04      	ldr	r3, [sp, #16]
24051536:	eb03 0366 	add.w	r3, r3, r6, asr #1
2405153a:	9306      	str	r3, [sp, #24]
2405153c:	e015      	b.n	2405156a <render_sprite+0x4b4>
2405153e:	9a07      	ldr	r2, [sp, #28]
24051540:	ea4f 0368 	mov.w	r3, r8, asr #1
24051544:	b9c2      	cbnz	r2, 24051578 <render_sprite+0x4c2>
24051546:	9a06      	ldr	r2, [sp, #24]
24051548:	5cd3      	ldrb	r3, [r2, r3]
2405154a:	091b      	lsrs	r3, r3, #4
2405154c:	005b      	lsls	r3, r3, #1
2405154e:	9a01      	ldr	r2, [sp, #4]
24051550:	f04f 0900 	mov.w	r9, #0
24051554:	5ad3      	ldrh	r3, [r2, r3]
24051556:	9a01      	ldr	r2, [sp, #4]
24051558:	8812      	ldrh	r2, [r2, #0]
2405155a:	429a      	cmp	r2, r3
2405155c:	d111      	bne.n	24051582 <render_sprite+0x4cc>
2405155e:	4427      	add	r7, r4
24051560:	9b00      	ldr	r3, [sp, #0]
24051562:	f10b 0b01 	add.w	fp, fp, #1
24051566:	b2bf      	uxth	r7, r7
24051568:	4498      	add	r8, r3
2405156a:	9b02      	ldr	r3, [sp, #8]
2405156c:	459b      	cmp	fp, r3
2405156e:	dbe6      	blt.n	2405153e <render_sprite+0x488>
24051570:	1b2d      	subs	r5, r5, r4
24051572:	3601      	adds	r6, #1
24051574:	b2ad      	uxth	r5, r5
24051576:	e7d3      	b.n	24051520 <render_sprite+0x46a>
24051578:	9a06      	ldr	r2, [sp, #24]
2405157a:	5cd3      	ldrb	r3, [r2, r3]
2405157c:	f003 030f 	and.w	r3, r3, #15
24051580:	e7e4      	b.n	2405154c <render_sprite+0x496>
24051582:	eb05 0109 	add.w	r1, r5, r9
24051586:	f04f 0a00 	mov.w	sl, #0
2405158a:	b289      	uxth	r1, r1
2405158c:	eb07 020a 	add.w	r2, r7, sl
24051590:	f10a 0a01 	add.w	sl, sl, #1
24051594:	9805      	ldr	r0, [sp, #20]
24051596:	b292      	uxth	r2, r2
24051598:	9309      	str	r3, [sp, #36]	@ 0x24
2405159a:	9108      	str	r1, [sp, #32]
2405159c:	f7ff fb32 	bl	24050c04 <LCD_DrawPixel>
240515a0:	4554      	cmp	r4, sl
240515a2:	e9dd 1308 	ldrd	r1, r3, [sp, #32]
240515a6:	dcf1      	bgt.n	2405158c <render_sprite+0x4d6>
240515a8:	f109 0901 	add.w	r9, r9, #1
240515ac:	454c      	cmp	r4, r9
240515ae:	dcd2      	bgt.n	24051556 <render_sprite+0x4a0>
240515b0:	e7d5      	b.n	2405155e <render_sprite+0x4a8>
240515b2:	9a07      	ldr	r2, [sp, #28]
240515b4:	ea4f 0368 	mov.w	r3, r8, asr #1
240515b8:	b9c2      	cbnz	r2, 240515ec <render_sprite+0x536>
240515ba:	9a06      	ldr	r2, [sp, #24]
240515bc:	5cd3      	ldrb	r3, [r2, r3]
240515be:	091b      	lsrs	r3, r3, #4
240515c0:	005b      	lsls	r3, r3, #1
240515c2:	9a01      	ldr	r2, [sp, #4]
240515c4:	f04f 0900 	mov.w	r9, #0
240515c8:	5ad3      	ldrh	r3, [r2, r3]
240515ca:	9a01      	ldr	r2, [sp, #4]
240515cc:	8812      	ldrh	r2, [r2, #0]
240515ce:	429a      	cmp	r2, r3
240515d0:	d111      	bne.n	240515f6 <render_sprite+0x540>
240515d2:	4427      	add	r7, r4
240515d4:	9b00      	ldr	r3, [sp, #0]
240515d6:	f10b 0b01 	add.w	fp, fp, #1
240515da:	b2bf      	uxth	r7, r7
240515dc:	4498      	add	r8, r3
240515de:	9b02      	ldr	r3, [sp, #8]
240515e0:	459b      	cmp	fp, r3
240515e2:	dbe6      	blt.n	240515b2 <render_sprite+0x4fc>
240515e4:	4426      	add	r6, r4
240515e6:	3501      	adds	r5, #1
240515e8:	b2b6      	uxth	r6, r6
240515ea:	e783      	b.n	240514f4 <render_sprite+0x43e>
240515ec:	9a06      	ldr	r2, [sp, #24]
240515ee:	5cd3      	ldrb	r3, [r2, r3]
240515f0:	f003 030f 	and.w	r3, r3, #15
240515f4:	e7e4      	b.n	240515c0 <render_sprite+0x50a>
240515f6:	eb06 0109 	add.w	r1, r6, r9
240515fa:	f04f 0a00 	mov.w	sl, #0
240515fe:	b289      	uxth	r1, r1
24051600:	eb07 020a 	add.w	r2, r7, sl
24051604:	f10a 0a01 	add.w	sl, sl, #1
24051608:	9805      	ldr	r0, [sp, #20]
2405160a:	b292      	uxth	r2, r2
2405160c:	9309      	str	r3, [sp, #36]	@ 0x24
2405160e:	9108      	str	r1, [sp, #32]
24051610:	f7ff faf8 	bl	24050c04 <LCD_DrawPixel>
24051614:	45a2      	cmp	sl, r4
24051616:	e9dd 1308 	ldrd	r1, r3, [sp, #32]
2405161a:	dbf1      	blt.n	24051600 <render_sprite+0x54a>
2405161c:	f109 0901 	add.w	r9, r9, #1
24051620:	45a1      	cmp	r9, r4
24051622:	dbd2      	blt.n	240515ca <render_sprite+0x514>
24051624:	e7d5      	b.n	240515d2 <render_sprite+0x51c>
24051626:	b00b      	add	sp, #44	@ 0x2c
24051628:	e8bd 4ff0 	ldmia.w	sp!, {r4, r5, r6, r7, r8, r9, sl, fp, lr}
2405162c:	b004      	add	sp, #16
2405162e:	4770      	bx	lr

24051630 <sprites_init_list>:
24051630:	b510      	push	{r4, lr}
24051632:	4604      	mov	r4, r0
24051634:	2008      	movs	r0, #8
24051636:	f009 fa15 	bl	2405aa64 <malloc>
2405163a:	2200      	movs	r2, #0
2405163c:	6004      	str	r4, [r0, #0]
2405163e:	6042      	str	r2, [r0, #4]
24051640:	bd10      	pop	{r4, pc}

24051642 <get_sprite_list_length>:
24051642:	4603      	mov	r3, r0
24051644:	2000      	movs	r0, #0
24051646:	f853 2020 	ldr.w	r2, [r3, r0, lsl #2]
2405164a:	b902      	cbnz	r2, 2405164e <get_sprite_list_length+0xc>
2405164c:	4770      	bx	lr
2405164e:	3001      	adds	r0, #1
24051650:	e7f9      	b.n	24051646 <get_sprite_list_length+0x4>

24051652 <render_sprites>:
24051652:	b5f7      	push	{r0, r1, r2, r4, r5, r6, r7, lr}
24051654:	4607      	mov	r7, r0
24051656:	4608      	mov	r0, r1
24051658:	f7ff fff3 	bl	24051642 <get_sprite_list_length>
2405165c:	2600      	movs	r6, #0
2405165e:	4605      	mov	r5, r0
24051660:	eb01 0480 	add.w	r4, r1, r0, lsl #2
24051664:	42ae      	cmp	r6, r5
24051666:	db01      	blt.n	2405166c <render_sprites+0x1a>
24051668:	b003      	add	sp, #12
2405166a:	bdf0      	pop	{r4, r5, r6, r7, pc}
2405166c:	f854 3d04 	ldr.w	r3, [r4, #-4]!
24051670:	4638      	mov	r0, r7
24051672:	3601      	adds	r6, #1
24051674:	68da      	ldr	r2, [r3, #12]
24051676:	9200      	str	r2, [sp, #0]
24051678:	cb0e      	ldmia	r3, {r1, r2, r3}
2405167a:	f7ff fd1c 	bl	240510b6 <render_sprite>
2405167e:	e7f1      	b.n	24051664 <render_sprites+0x12>

24051680 <sprites_add_to_list>:
24051680:	b5f8      	push	{r3, r4, r5, r6, r7, lr}
24051682:	4606      	mov	r6, r0
24051684:	f7ff ffdd 	bl	24051642 <get_sprite_list_length>
24051688:	4604      	mov	r4, r0
2405168a:	3002      	adds	r0, #2
2405168c:	460f      	mov	r7, r1
2405168e:	0080      	lsls	r0, r0, #2
24051690:	f009 f9e8 	bl	2405aa64 <malloc>
24051694:	4605      	mov	r5, r0
24051696:	b908      	cbnz	r0, 2405169c <sprites_add_to_list+0x1c>
24051698:	f002 f926 	bl	240538e8 <Error_Handler>
2405169c:	ea24 74e4 	bic.w	r4, r4, r4, asr #31
240516a0:	4631      	mov	r1, r6
240516a2:	4628      	mov	r0, r5
240516a4:	00a2      	lsls	r2, r4, #2
240516a6:	f009 fe16 	bl	2405b2d6 <memcpy>
240516aa:	f845 7024 	str.w	r7, [r5, r4, lsl #2]
240516ae:	2300      	movs	r3, #0
240516b0:	3401      	adds	r4, #1
240516b2:	4630      	mov	r0, r6
240516b4:	f845 3024 	str.w	r3, [r5, r4, lsl #2]
240516b8:	f009 f9dc 	bl	2405aa74 <free>
240516bc:	4628      	mov	r0, r5
240516be:	bdf8      	pop	{r3, r4, r5, r6, r7, pc}

240516c0 <gw_audio_init>:
240516c0:	e92d 43f8 	stmdb	sp!, {r3, r4, r5, r6, r7, r8, r9, lr}
240516c4:	4b37      	ldr	r3, [pc, #220]	@ (240517a4 <gw_audio_init+0xe4>)
240516c6:	f44f 5596 	mov.w	r5, #4800	@ 0x12c0
240516ca:	2428      	movs	r4, #40	@ 0x28
240516cc:	4e36      	ldr	r6, [pc, #216]	@ (240517a8 <gw_audio_init+0xe8>)
240516ce:	4618      	mov	r0, r3
240516d0:	462a      	mov	r2, r5
240516d2:	2100      	movs	r1, #0
240516d4:	f8df 80dc 	ldr.w	r8, [pc, #220]	@ 240517b4 <gw_audio_init+0xf4>
240516d8:	f009 fd72 	bl	2405b1c0 <memset>
240516dc:	f44f 6216 	mov.w	r2, #2400	@ 0x960
240516e0:	4601      	mov	r1, r0
240516e2:	4832      	ldr	r0, [pc, #200]	@ (240517ac <gw_audio_init+0xec>)
240516e4:	f008 fb98 	bl	24059e18 <HAL_SAI_Transmit_DMA>
240516e8:	4622      	mov	r2, r4
240516ea:	2100      	movs	r1, #0
240516ec:	4630      	mov	r0, r6
240516ee:	f009 fd67 	bl	2405b1c0 <memset>
240516f2:	4622      	mov	r2, r4
240516f4:	2101      	movs	r1, #1
240516f6:	f106 0050 	add.w	r0, r6, #80	@ 0x50
240516fa:	f009 fd61 	bl	2405b1c0 <memset>
240516fe:	4622      	mov	r2, r4
24051700:	1930      	adds	r0, r6, r4
24051702:	2100      	movs	r1, #0
24051704:	f009 fd5c 	bl	2405b1c0 <memset>
24051708:	4622      	mov	r2, r4
2405170a:	2100      	movs	r1, #0
2405170c:	4640      	mov	r0, r8
2405170e:	f009 fd57 	bl	2405b1c0 <memset>
24051712:	4f27      	ldr	r7, [pc, #156]	@ (240517b0 <gw_audio_init+0xf0>)
24051714:	4622      	mov	r2, r4
24051716:	2101      	movs	r1, #1
24051718:	f108 0050 	add.w	r0, r8, #80	@ 0x50
2405171c:	f8df 9098 	ldr.w	r9, [pc, #152]	@ 240517b8 <gw_audio_init+0xf8>
24051720:	f009 fd4e 	bl	2405b1c0 <memset>
24051724:	4622      	mov	r2, r4
24051726:	eb08 0004 	add.w	r0, r8, r4
2405172a:	2100      	movs	r1, #0
2405172c:	f009 fd48 	bl	2405b1c0 <memset>
24051730:	4622      	mov	r2, r4
24051732:	2100      	movs	r1, #0
24051734:	4638      	mov	r0, r7
24051736:	f009 fd43 	bl	2405b1c0 <memset>
2405173a:	4622      	mov	r2, r4
2405173c:	2101      	movs	r1, #1
2405173e:	f107 0050 	add.w	r0, r7, #80	@ 0x50
24051742:	f009 fd3d 	bl	2405b1c0 <memset>
24051746:	4622      	mov	r2, r4
24051748:	1938      	adds	r0, r7, r4
2405174a:	2100      	movs	r1, #0
2405174c:	f009 fd38 	bl	2405b1c0 <memset>
24051750:	2250      	movs	r2, #80	@ 0x50
24051752:	2100      	movs	r1, #0
24051754:	4648      	mov	r0, r9
24051756:	f009 fd33 	bl	2405b1c0 <memset>
2405175a:	2400      	movs	r4, #0
2405175c:	f506 5380 	add.w	r3, r6, #4096	@ 0x1000
24051760:	2201      	movs	r2, #1
24051762:	4621      	mov	r1, r4
24051764:	f106 0078 	add.w	r0, r6, #120	@ 0x78
24051768:	f8c3 4338 	str.w	r4, [r3, #824]	@ 0x338
2405176c:	f509 5380 	add.w	r3, r9, #4096	@ 0x1000
24051770:	f8c3 2310 	str.w	r2, [r3, #784]	@ 0x310
24051774:	462a      	mov	r2, r5
24051776:	f009 fd23 	bl	2405b1c0 <memset>
2405177a:	462a      	mov	r2, r5
2405177c:	4621      	mov	r1, r4
2405177e:	f108 0078 	add.w	r0, r8, #120	@ 0x78
24051782:	f009 fd1d 	bl	2405b1c0 <memset>
24051786:	462a      	mov	r2, r5
24051788:	4621      	mov	r1, r4
2405178a:	f107 0078 	add.w	r0, r7, #120	@ 0x78
2405178e:	f009 fd17 	bl	2405b1c0 <memset>
24051792:	462a      	mov	r2, r5
24051794:	4621      	mov	r1, r4
24051796:	f109 0050 	add.w	r0, r9, #80	@ 0x50
2405179a:	e8bd 43f8 	ldmia.w	sp!, {r3, r4, r5, r6, r7, r8, r9, lr}
2405179e:	f009 bd0f 	b.w	2405b1c0 <memset>
240517a2:	bf00      	nop
240517a4:	30004ce0 	.word	0x30004ce0
240517a8:	300039a0 	.word	0x300039a0
240517ac:	20000380 	.word	0x20000380
240517b0:	30001320 	.word	0x30001320
240517b4:	30002660 	.word	0x30002660
240517b8:	30000000 	.word	0x30000000

240517bc <play_generator>:
240517bc:	e92d 41f0 	stmdb	sp!, {r4, r5, r6, r7, r8, lr}
240517c0:	460c      	mov	r4, r1
240517c2:	7801      	ldrb	r1, [r0, #0]
240517c4:	b949      	cbnz	r1, 240517da <play_generator+0x1e>
240517c6:	343c      	adds	r4, #60	@ 0x3c
240517c8:	ea22 72e2 	bic.w	r2, r2, r2, asr #31
240517cc:	eb00 0044 	add.w	r0, r0, r4, lsl #1
240517d0:	0052      	lsls	r2, r2, #1
240517d2:	e8bd 41f0 	ldmia.w	sp!, {r4, r5, r6, r7, r8, lr}
240517d6:	f009 bcf3 	b.w	2405b1c0 <memset>
240517da:	f890 5050 	ldrb.w	r5, [r0, #80]	@ 0x50
240517de:	004b      	lsls	r3, r1, #1
240517e0:	b12d      	cbz	r5, 240517ee <play_generator+0x32>
240517e2:	2d02      	cmp	r5, #2
240517e4:	d11f      	bne.n	24051826 <play_generator+0x6a>
240517e6:	440b      	add	r3, r1
240517e8:	460f      	mov	r7, r1
240517ea:	b299      	uxth	r1, r3
240517ec:	e001      	b.n	240517f2 <play_generator+0x36>
240517ee:	440b      	add	r3, r1
240517f0:	b29f      	uxth	r7, r3
240517f2:	f500 5680 	add.w	r6, r0, #4096	@ 0x1000
240517f6:	f890 c028 	ldrb.w	ip, [r0, #40]	@ 0x28
240517fa:	4422      	add	r2, r4
240517fc:	f8b6 5338 	ldrh.w	r5, [r6, #824]	@ 0x338
24051800:	f1cc 0e00 	rsb	lr, ip, #0
24051804:	f8b6 333a 	ldrh.w	r3, [r6, #826]	@ 0x33a
24051808:	428d      	cmp	r5, r1
2405180a:	bf28      	it	cs
2405180c:	460d      	movcs	r5, r1
2405180e:	42bb      	cmp	r3, r7
24051810:	bf28      	it	cs
24051812:	463b      	movcs	r3, r7
24051814:	b29b      	uxth	r3, r3
24051816:	42a2      	cmp	r2, r4
24051818:	dc08      	bgt.n	2405182c <play_generator+0x70>
2405181a:	f8a6 5338 	strh.w	r5, [r6, #824]	@ 0x338
2405181e:	f8a6 333a 	strh.w	r3, [r6, #826]	@ 0x33a
24051822:	e8bd 81f0 	ldmia.w	sp!, {r4, r5, r6, r7, r8, pc}
24051826:	b299      	uxth	r1, r3
24051828:	460f      	mov	r7, r1
2405182a:	e7e2      	b.n	240517f2 <play_generator+0x36>
2405182c:	b13d      	cbz	r5, 2405183e <play_generator+0x82>
2405182e:	3d01      	subs	r5, #1
24051830:	f104 083c 	add.w	r8, r4, #60	@ 0x3c
24051834:	b2ad      	uxth	r5, r5
24051836:	f820 c018 	strh.w	ip, [r0, r8, lsl #1]
2405183a:	3401      	adds	r4, #1
2405183c:	e7eb      	b.n	24051816 <play_generator+0x5a>
2405183e:	b133      	cbz	r3, 2405184e <play_generator+0x92>
24051840:	f104 083c 	add.w	r8, r4, #60	@ 0x3c
24051844:	3b01      	subs	r3, #1
24051846:	f820 e018 	strh.w	lr, [r0, r8, lsl #1]
2405184a:	b29b      	uxth	r3, r3
2405184c:	e7f5      	b.n	2405183a <play_generator+0x7e>
2405184e:	3c01      	subs	r4, #1
24051850:	463b      	mov	r3, r7
24051852:	460d      	mov	r5, r1
24051854:	e7f1      	b.n	2405183a <play_generator+0x7e>

24051856 <move_generator>:
24051856:	4601      	mov	r1, r0
24051858:	2227      	movs	r2, #39	@ 0x27
2405185a:	b538      	push	{r3, r4, r5, lr}
2405185c:	4604      	mov	r4, r0
2405185e:	f811 5b01 	ldrb.w	r5, [r1], #1
24051862:	f009 fc93 	bl	2405b18c <memmove>
24051866:	2227      	movs	r2, #39	@ 0x27
24051868:	f884 5027 	strb.w	r5, [r4, #39]	@ 0x27
2405186c:	f104 0129 	add.w	r1, r4, #41	@ 0x29
24051870:	f894 5028 	ldrb.w	r5, [r4, #40]	@ 0x28
24051874:	f104 0028 	add.w	r0, r4, #40	@ 0x28
24051878:	f009 fc88 	bl	2405b18c <memmove>
2405187c:	2227      	movs	r2, #39	@ 0x27
2405187e:	f884 504f 	strb.w	r5, [r4, #79]	@ 0x4f
24051882:	f104 0151 	add.w	r1, r4, #81	@ 0x51
24051886:	f894 5050 	ldrb.w	r5, [r4, #80]	@ 0x50
2405188a:	f104 0050 	add.w	r0, r4, #80	@ 0x50
2405188e:	f009 fc7d 	bl	2405b18c <memmove>
24051892:	f884 5077 	strb.w	r5, [r4, #119]	@ 0x77
24051896:	bd38      	pop	{r3, r4, r5, pc}

24051898 <play_noise>:
24051898:	e92d 43f0 	stmdb	sp!, {r4, r5, r6, r7, r8, r9, lr}
2405189c:	7804      	ldrb	r4, [r0, #0]
2405189e:	460b      	mov	r3, r1
240518a0:	00a1      	lsls	r1, r4, #2
240518a2:	b94c      	cbnz	r4, 240518b8 <play_noise+0x20>
240518a4:	ea22 72e2 	bic.w	r2, r2, r2, asr #31
240518a8:	3328      	adds	r3, #40	@ 0x28
240518aa:	0052      	lsls	r2, r2, #1
240518ac:	eb00 0043 	add.w	r0, r0, r3, lsl #1
240518b0:	e8bd 43f0 	ldmia.w	sp!, {r4, r5, r6, r7, r8, r9, lr}
240518b4:	f009 bc84 	b.w	2405b1c0 <memset>
240518b8:	f500 5780 	add.w	r7, r0, #4096	@ 0x1000
240518bc:	f890 6028 	ldrb.w	r6, [r0, #40]	@ 0x28
240518c0:	f04f 0c00 	mov.w	ip, #0
240518c4:	441a      	add	r2, r3
240518c6:	f8b7 4312 	ldrh.w	r4, [r7, #786]	@ 0x312
240518ca:	46b6      	mov	lr, r6
240518cc:	4276      	negs	r6, r6
240518ce:	f8b7 5310 	ldrh.w	r5, [r7, #784]	@ 0x310
240518d2:	428c      	cmp	r4, r1
240518d4:	b236      	sxth	r6, r6
240518d6:	bf28      	it	cs
240518d8:	460c      	movcs	r4, r1
240518da:	429a      	cmp	r2, r3
240518dc:	dc05      	bgt.n	240518ea <play_noise+0x52>
240518de:	f8a7 5310 	strh.w	r5, [r7, #784]	@ 0x310
240518e2:	f8a7 4312 	strh.w	r4, [r7, #786]	@ 0x312
240518e6:	e8bd 83f0 	ldmia.w	sp!, {r4, r5, r6, r7, r8, r9, pc}
240518ea:	b16c      	cbz	r4, 24051908 <play_noise+0x70>
240518ec:	f1bc 0f00 	cmp.w	ip, #0
240518f0:	f104 34ff 	add.w	r4, r4, #4294967295
240518f4:	f103 0828 	add.w	r8, r3, #40	@ 0x28
240518f8:	bf0c      	ite	eq
240518fa:	46f1      	moveq	r9, lr
240518fc:	46b1      	movne	r9, r6
240518fe:	b2a4      	uxth	r4, r4
24051900:	f820 9018 	strh.w	r9, [r0, r8, lsl #1]
24051904:	3301      	adds	r3, #1
24051906:	e7e8      	b.n	240518da <play_noise+0x42>
24051908:	ea85 0455 	eor.w	r4, r5, r5, lsr #1
2405190c:	3b01      	subs	r3, #1
2405190e:	f004 0401 	and.w	r4, r4, #1
24051912:	03a4      	lsls	r4, r4, #14
24051914:	ea44 0555 	orr.w	r5, r4, r5, lsr #1
24051918:	460c      	mov	r4, r1
2405191a:	ea6f 0c05 	mvn.w	ip, r5
2405191e:	f00c 0c01 	and.w	ip, ip, #1
24051922:	e7ef      	b.n	24051904 <play_noise+0x6c>

24051924 <HAL_SAI_TxCpltCallback>:
24051924:	4a1b      	ldr	r2, [pc, #108]	@ (24051994 <HAL_SAI_TxCpltCallback+0x70>)
24051926:	481c      	ldr	r0, [pc, #112]	@ (24051998 <HAL_SAI_TxCpltCallback+0x74>)
24051928:	b5f8      	push	{r3, r4, r5, r6, r7, lr}
2405192a:	6813      	ldr	r3, [r2, #0]
2405192c:	f241 3438 	movw	r4, #4920	@ 0x1338
24051930:	4f1a      	ldr	r7, [pc, #104]	@ (2405199c <HAL_SAI_TxCpltCallback+0x78>)
24051932:	3301      	adds	r3, #1
24051934:	4e1a      	ldr	r6, [pc, #104]	@ (240519a0 <HAL_SAI_TxCpltCallback+0x7c>)
24051936:	6013      	str	r3, [r2, #0]
24051938:	f44f 6296 	mov.w	r2, #1200	@ 0x4b0
2405193c:	4611      	mov	r1, r2
2405193e:	f7ff ff3d 	bl	240517bc <play_generator>
24051942:	f44f 6296 	mov.w	r2, #1200	@ 0x4b0
24051946:	4815      	ldr	r0, [pc, #84]	@ (2405199c <HAL_SAI_TxCpltCallback+0x78>)
24051948:	4611      	mov	r1, r2
2405194a:	f7ff ff37 	bl	240517bc <play_generator>
2405194e:	f44f 6296 	mov.w	r2, #1200	@ 0x4b0
24051952:	4813      	ldr	r0, [pc, #76]	@ (240519a0 <HAL_SAI_TxCpltCallback+0x7c>)
24051954:	4611      	mov	r1, r2
24051956:	f7ff ff31 	bl	240517bc <play_generator>
2405195a:	f44f 6296 	mov.w	r2, #1200	@ 0x4b0
2405195e:	4811      	ldr	r0, [pc, #68]	@ (240519a4 <HAL_SAI_TxCpltCallback+0x80>)
24051960:	4611      	mov	r1, r2
24051962:	f7ff ff99 	bl	24051898 <play_noise>
24051966:	4810      	ldr	r0, [pc, #64]	@ (240519a8 <HAL_SAI_TxCpltCallback+0x84>)
24051968:	4910      	ldr	r1, [pc, #64]	@ (240519ac <HAL_SAI_TxCpltCallback+0x88>)
2405196a:	f640 12d8 	movw	r2, #2520	@ 0x9d8
2405196e:	f8df c028 	ldr.w	ip, [pc, #40]	@ 24051998 <HAL_SAI_TxCpltCallback+0x74>
24051972:	5ebd      	ldrsh	r5, [r7, r2]
24051974:	f93c 3002 	ldrsh.w	r3, [ip, r2]
24051978:	442b      	add	r3, r5
2405197a:	5eb5      	ldrsh	r5, [r6, r2]
2405197c:	3202      	adds	r2, #2
2405197e:	442b      	add	r3, r5
24051980:	f930 5f02 	ldrsh.w	r5, [r0, #2]!
24051984:	42a2      	cmp	r2, r4
24051986:	442b      	add	r3, r5
24051988:	ea4f 0343 	mov.w	r3, r3, lsl #1
2405198c:	f821 3f02 	strh.w	r3, [r1, #2]!
24051990:	d1ef      	bne.n	24051972 <HAL_SAI_TxCpltCallback+0x4e>
24051992:	bdf8      	pop	{r3, r4, r5, r6, r7, pc}
24051994:	200001e8 	.word	0x200001e8
24051998:	300039a0 	.word	0x300039a0
2405199c:	30002660 	.word	0x30002660
240519a0:	30001320 	.word	0x30001320
240519a4:	30000000 	.word	0x30000000
240519a8:	300009ae 	.word	0x300009ae
240519ac:	3000563e 	.word	0x3000563e

240519b0 <move_noise>:
240519b0:	4601      	mov	r1, r0
240519b2:	2227      	movs	r2, #39	@ 0x27
240519b4:	b538      	push	{r3, r4, r5, lr}
240519b6:	4604      	mov	r4, r0
240519b8:	f811 5b01 	ldrb.w	r5, [r1], #1
240519bc:	f009 fbe6 	bl	2405b18c <memmove>
240519c0:	2227      	movs	r2, #39	@ 0x27
240519c2:	f884 5027 	strb.w	r5, [r4, #39]	@ 0x27
240519c6:	f104 0129 	add.w	r1, r4, #41	@ 0x29
240519ca:	f894 5028 	ldrb.w	r5, [r4, #40]	@ 0x28
240519ce:	f104 0028 	add.w	r0, r4, #40	@ 0x28
240519d2:	f009 fbdb 	bl	2405b18c <memmove>
240519d6:	f884 504f 	strb.w	r5, [r4, #79]	@ 0x4f
240519da:	bd38      	pop	{r3, r4, r5, pc}

240519dc <HAL_SAI_TxHalfCpltCallback>:
240519dc:	b5f8      	push	{r3, r4, r5, r6, r7, lr}
240519de:	481f      	ldr	r0, [pc, #124]	@ (24051a5c <HAL_SAI_TxHalfCpltCallback+0x80>)
240519e0:	f640 14d8 	movw	r4, #2520	@ 0x9d8
240519e4:	f7ff ff37 	bl	24051856 <move_generator>
240519e8:	f44f 6296 	mov.w	r2, #1200	@ 0x4b0
240519ec:	2100      	movs	r1, #0
240519ee:	481b      	ldr	r0, [pc, #108]	@ (24051a5c <HAL_SAI_TxHalfCpltCallback+0x80>)
240519f0:	f7ff fee4 	bl	240517bc <play_generator>
240519f4:	481a      	ldr	r0, [pc, #104]	@ (24051a60 <HAL_SAI_TxHalfCpltCallback+0x84>)
240519f6:	f7ff ff2e 	bl	24051856 <move_generator>
240519fa:	f44f 6296 	mov.w	r2, #1200	@ 0x4b0
240519fe:	2100      	movs	r1, #0
24051a00:	4817      	ldr	r0, [pc, #92]	@ (24051a60 <HAL_SAI_TxHalfCpltCallback+0x84>)
24051a02:	f7ff fedb 	bl	240517bc <play_generator>
24051a06:	4817      	ldr	r0, [pc, #92]	@ (24051a64 <HAL_SAI_TxHalfCpltCallback+0x88>)
24051a08:	f7ff ff25 	bl	24051856 <move_generator>
24051a0c:	f44f 6296 	mov.w	r2, #1200	@ 0x4b0
24051a10:	2100      	movs	r1, #0
24051a12:	4814      	ldr	r0, [pc, #80]	@ (24051a64 <HAL_SAI_TxHalfCpltCallback+0x88>)
24051a14:	f7ff fed2 	bl	240517bc <play_generator>
24051a18:	4813      	ldr	r0, [pc, #76]	@ (24051a68 <HAL_SAI_TxHalfCpltCallback+0x8c>)
24051a1a:	f7ff ffc9 	bl	240519b0 <move_noise>
24051a1e:	f44f 6296 	mov.w	r2, #1200	@ 0x4b0
24051a22:	2100      	movs	r1, #0
24051a24:	4810      	ldr	r0, [pc, #64]	@ (24051a68 <HAL_SAI_TxHalfCpltCallback+0x8c>)
24051a26:	f7ff ff37 	bl	24051898 <play_noise>
24051a2a:	4f0d      	ldr	r7, [pc, #52]	@ (24051a60 <HAL_SAI_TxHalfCpltCallback+0x84>)
24051a2c:	480f      	ldr	r0, [pc, #60]	@ (24051a6c <HAL_SAI_TxHalfCpltCallback+0x90>)
24051a2e:	2278      	movs	r2, #120	@ 0x78
24051a30:	490f      	ldr	r1, [pc, #60]	@ (24051a70 <HAL_SAI_TxHalfCpltCallback+0x94>)
24051a32:	f8df c028 	ldr.w	ip, [pc, #40]	@ 24051a5c <HAL_SAI_TxHalfCpltCallback+0x80>
24051a36:	4e0b      	ldr	r6, [pc, #44]	@ (24051a64 <HAL_SAI_TxHalfCpltCallback+0x88>)
24051a38:	5ebd      	ldrsh	r5, [r7, r2]
24051a3a:	f93c 3002 	ldrsh.w	r3, [ip, r2]
24051a3e:	442b      	add	r3, r5
24051a40:	5eb5      	ldrsh	r5, [r6, r2]
24051a42:	3202      	adds	r2, #2
24051a44:	442b      	add	r3, r5
24051a46:	f930 5f02 	ldrsh.w	r5, [r0, #2]!
24051a4a:	42a2      	cmp	r2, r4
24051a4c:	442b      	add	r3, r5
24051a4e:	ea4f 0383 	mov.w	r3, r3, lsl #2
24051a52:	f821 3b02 	strh.w	r3, [r1], #2
24051a56:	d1ef      	bne.n	24051a38 <HAL_SAI_TxHalfCpltCallback+0x5c>
24051a58:	bdf8      	pop	{r3, r4, r5, r6, r7, pc}
24051a5a:	bf00      	nop
24051a5c:	300039a0 	.word	0x300039a0
24051a60:	30002660 	.word	0x30002660
24051a64:	30001320 	.word	0x30001320
24051a68:	30000000 	.word	0x30000000
24051a6c:	3000004e 	.word	0x3000004e
24051a70:	30004ce0 	.word	0x30004ce0

24051a74 <HAL_ADC_ConvCpltCallback>:
24051a74:	b510      	push	{r4, lr}
24051a76:	4604      	mov	r4, r0
24051a78:	f002 fce4 	bl	24054444 <HAL_ADC_GetValue>
24051a7c:	4b03      	ldr	r3, [pc, #12]	@ (24051a8c <HAL_ADC_ConvCpltCallback+0x18>)
24051a7e:	8018      	strh	r0, [r3, #0]
24051a80:	4620      	mov	r0, r4
24051a82:	e8bd 4010 	ldmia.w	sp!, {r4, lr}
24051a86:	f003 b9ac 	b.w	24054de2 <HAL_ADC_Stop_IT>
24051a8a:	bf00      	nop
24051a8c:	200001ec 	.word	0x200001ec

24051a90 <bq24072_handle_power_good>:
24051a90:	b508      	push	{r3, lr}
24051a92:	2104      	movs	r1, #4
24051a94:	4804      	ldr	r0, [pc, #16]	@ (24051aa8 <bq24072_handle_power_good+0x18>)
24051a96:	f004 ffcd 	bl	24056a34 <HAL_GPIO_ReadPin>
24051a9a:	3801      	subs	r0, #1
24051a9c:	4b03      	ldr	r3, [pc, #12]	@ (24051aac <bq24072_handle_power_good+0x1c>)
24051a9e:	bf18      	it	ne
24051aa0:	2001      	movne	r0, #1
24051aa2:	70d8      	strb	r0, [r3, #3]
24051aa4:	bd08      	pop	{r3, pc}
24051aa6:	bf00      	nop
24051aa8:	58020000 	.word	0x58020000
24051aac:	200001ec 	.word	0x200001ec

24051ab0 <bq24072_handle_charging>:
24051ab0:	b508      	push	{r3, lr}
24051ab2:	2180      	movs	r1, #128	@ 0x80
24051ab4:	4804      	ldr	r0, [pc, #16]	@ (24051ac8 <bq24072_handle_charging+0x18>)
24051ab6:	f004 ffbd 	bl	24056a34 <HAL_GPIO_ReadPin>
24051aba:	3801      	subs	r0, #1
24051abc:	4b03      	ldr	r3, [pc, #12]	@ (24051acc <bq24072_handle_charging+0x1c>)
24051abe:	bf18      	it	ne
24051ac0:	2001      	movne	r0, #1
24051ac2:	7098      	strb	r0, [r3, #2]
24051ac4:	bd08      	pop	{r3, pc}
24051ac6:	bf00      	nop
24051ac8:	58021000 	.word	0x58021000
24051acc:	200001ec 	.word	0x200001ec

24051ad0 <bq24072_poll>:
24051ad0:	4801      	ldr	r0, [pc, #4]	@ (24051ad8 <bq24072_poll+0x8>)
24051ad2:	f003 b8a9 	b.w	24054c28 <HAL_ADC_Start_IT>
24051ad6:	bf00      	nop
24051ad8:	200005d4 	.word	0x200005d4

24051adc <bq24072_init>:
24051adc:	b508      	push	{r3, lr}
24051ade:	f7ff ffd7 	bl	24051a90 <bq24072_handle_power_good>
24051ae2:	f7ff ffe5 	bl	24051ab0 <bq24072_handle_charging>
24051ae6:	f7ff fff3 	bl	24051ad0 <bq24072_poll>
24051aea:	4802      	ldr	r0, [pc, #8]	@ (24051af4 <bq24072_init+0x18>)
24051aec:	f008 fd0a 	bl	2405a504 <HAL_TIM_Base_Start_IT>
24051af0:	2000      	movs	r0, #0
24051af2:	bd08      	pop	{r3, pc}
24051af4:	20000234 	.word	0x20000234

24051af8 <buttons_get>:
24051af8:	e92d 4ff7 	stmdb	sp!, {r0, r1, r2, r4, r5, r6, r7, r8, r9, sl, fp, lr}
24051afc:	4d38      	ldr	r5, [pc, #224]	@ (24051be0 <buttons_get+0xe8>)
24051afe:	f44f 6100 	mov.w	r1, #2048	@ 0x800
24051b02:	4628      	mov	r0, r5
24051b04:	f004 ff96 	bl	24056a34 <HAL_GPIO_ReadPin>
24051b08:	f44f 4100 	mov.w	r1, #32768	@ 0x8000
24051b0c:	4683      	mov	fp, r0
24051b0e:	4628      	mov	r0, r5
24051b10:	f004 ff90 	bl	24056a34 <HAL_GPIO_ReadPin>
24051b14:	2101      	movs	r1, #1
24051b16:	4604      	mov	r4, r0
24051b18:	4628      	mov	r0, r5
24051b1a:	f004 ff8b 	bl	24056a34 <HAL_GPIO_ReadPin>
24051b1e:	f44f 4180 	mov.w	r1, #16384	@ 0x4000
24051b22:	9001      	str	r0, [sp, #4]
24051b24:	4628      	mov	r0, r5
24051b26:	f004 ff85 	bl	24056a34 <HAL_GPIO_ReadPin>
24051b2a:	f44f 7100 	mov.w	r1, #512	@ 0x200
24051b2e:	4682      	mov	sl, r0
24051b30:	4628      	mov	r0, r5
24051b32:	f004 ff7f 	bl	24056a34 <HAL_GPIO_ReadPin>
24051b36:	4681      	mov	r9, r0
24051b38:	4628      	mov	r0, r5
24051b3a:	f5a5 6580 	sub.w	r5, r5, #1024	@ 0x400
24051b3e:	2120      	movs	r1, #32
24051b40:	faba fa8a 	clz	sl, sl
24051b44:	f004 ff76 	bl	24056a34 <HAL_GPIO_ReadPin>
24051b48:	2120      	movs	r1, #32
24051b4a:	4680      	mov	r8, r0
24051b4c:	4628      	mov	r0, r5
24051b4e:	f004 ff71 	bl	24056a34 <HAL_GPIO_ReadPin>
24051b52:	2102      	movs	r1, #2
24051b54:	4607      	mov	r7, r0
24051b56:	4628      	mov	r0, r5
24051b58:	f004 ff6c 	bl	24056a34 <HAL_GPIO_ReadPin>
24051b5c:	f44f 5100 	mov.w	r1, #8192	@ 0x2000
24051b60:	4606      	mov	r6, r0
24051b62:	4628      	mov	r0, r5
24051b64:	f004 ff66 	bl	24056a34 <HAL_GPIO_ReadPin>
24051b68:	2101      	movs	r1, #1
24051b6a:	4605      	mov	r5, r0
24051b6c:	481d      	ldr	r0, [pc, #116]	@ (24051be4 <buttons_get+0xec>)
24051b6e:	f004 ff61 	bl	24056a34 <HAL_GPIO_ReadPin>
24051b72:	9a01      	ldr	r2, [sp, #4]
24051b74:	fab4 f384 	clz	r3, r4
24051b78:	ea4f 1a5a 	mov.w	sl, sl, lsr #5
24051b7c:	fab2 f282 	clz	r2, r2
24051b80:	fab9 f989 	clz	r9, r9
24051b84:	095b      	lsrs	r3, r3, #5
24051b86:	fab8 f888 	clz	r8, r8
24051b8a:	0952      	lsrs	r2, r2, #5
24051b8c:	fab7 f787 	clz	r7, r7
24051b90:	009b      	lsls	r3, r3, #2
24051b92:	fab6 f686 	clz	r6, r6
24051b96:	ea4f 1959 	mov.w	r9, r9, lsr #5
24051b9a:	fab5 f585 	clz	r5, r5
24051b9e:	ea43 0342 	orr.w	r3, r3, r2, lsl #1
24051ba2:	fab0 f080 	clz	r0, r0
24051ba6:	ea4f 1858 	mov.w	r8, r8, lsr #5
24051baa:	f1bb 0f00 	cmp.w	fp, #0
24051bae:	bf08      	it	eq
24051bb0:	f043 0301 	orreq.w	r3, r3, #1
24051bb4:	097f      	lsrs	r7, r7, #5
24051bb6:	0976      	lsrs	r6, r6, #5
24051bb8:	ea43 03ca 	orr.w	r3, r3, sl, lsl #3
24051bbc:	096d      	lsrs	r5, r5, #5
24051bbe:	ea43 1309 	orr.w	r3, r3, r9, lsl #4
24051bc2:	0940      	lsrs	r0, r0, #5
24051bc4:	ea43 1348 	orr.w	r3, r3, r8, lsl #5
24051bc8:	ea43 1387 	orr.w	r3, r3, r7, lsl #6
24051bcc:	ea43 13c6 	orr.w	r3, r3, r6, lsl #7
24051bd0:	ea43 2305 	orr.w	r3, r3, r5, lsl #8
24051bd4:	ea43 2040 	orr.w	r0, r3, r0, lsl #9
24051bd8:	b003      	add	sp, #12
24051bda:	e8bd 8ff0 	ldmia.w	sp!, {r4, r5, r6, r7, r8, r9, sl, fp, pc}
24051bde:	bf00      	nop
24051be0:	58020c00 	.word	0x58020c00
24051be4:	58020000 	.word	0x58020000

24051be8 <set_ospi_cmd.constprop.0>:
24051be8:	b5f8      	push	{r3, r4, r5, r6, r7, lr}
24051bea:	460d      	mov	r5, r1
24051bec:	4617      	mov	r7, r2
24051bee:	2100      	movs	r1, #0
24051bf0:	2250      	movs	r2, #80	@ 0x50
24051bf2:	4604      	mov	r4, r0
24051bf4:	461e      	mov	r6, r3
24051bf6:	f009 fae3 	bl	2405b1c0 <memset>
24051bfa:	782b      	ldrb	r3, [r5, #0]
24051bfc:	4a10      	ldr	r2, [pc, #64]	@ (24051c40 <set_ospi_cmd.constprop.0+0x58>)
24051bfe:	60a3      	str	r3, [r4, #8]
24051c00:	786b      	ldrb	r3, [r5, #1]
24051c02:	f003 0303 	and.w	r3, r3, #3
24051c06:	f852 3023 	ldr.w	r3, [r2, r3, lsl #2]
24051c0a:	4a0e      	ldr	r2, [pc, #56]	@ (24051c44 <set_ospi_cmd.constprop.0+0x5c>)
24051c0c:	60e3      	str	r3, [r4, #12]
24051c0e:	78ab      	ldrb	r3, [r5, #2]
24051c10:	61a7      	str	r7, [r4, #24]
24051c12:	6463      	str	r3, [r4, #68]	@ 0x44
24051c14:	786b      	ldrb	r3, [r5, #1]
24051c16:	f3c3 1301 	ubfx	r3, r3, #4, #2
24051c1a:	f852 3023 	ldr.w	r3, [r2, r3, lsl #2]
24051c1e:	4a0a      	ldr	r2, [pc, #40]	@ (24051c48 <set_ospi_cmd.constprop.0+0x60>)
24051c20:	6223      	str	r3, [r4, #32]
24051c22:	786b      	ldrb	r3, [r5, #1]
24051c24:	63e6      	str	r6, [r4, #60]	@ 0x3c
24051c26:	f3c3 0381 	ubfx	r3, r3, #2, #2
24051c2a:	f852 3023 	ldr.w	r3, [r2, r3, lsl #2]
24051c2e:	4a07      	ldr	r2, [pc, #28]	@ (24051c4c <set_ospi_cmd.constprop.0+0x64>)
24051c30:	61e3      	str	r3, [r4, #28]
24051c32:	786b      	ldrb	r3, [r5, #1]
24051c34:	099b      	lsrs	r3, r3, #6
24051c36:	f852 3023 	ldr.w	r3, [r2, r3, lsl #2]
24051c3a:	63a3      	str	r3, [r4, #56]	@ 0x38
24051c3c:	bdf8      	pop	{r3, r4, r5, r6, r7, pc}
24051c3e:	bf00      	nop
24051c40:	240601b0 	.word	0x240601b0
24051c44:	24060194 	.word	0x24060194
24051c48:	240601a4 	.word	0x240601a4
24051c4c:	24060188 	.word	0x24060188

24051c50 <OSPI_ReadBytes>:
24051c50:	b530      	push	{r4, r5, lr}
24051c52:	4c12      	ldr	r4, [pc, #72]	@ (24051c9c <OSPI_ReadBytes+0x4c>)
24051c54:	4615      	mov	r5, r2
24051c56:	b095      	sub	sp, #84	@ 0x54
24051c58:	7c22      	ldrb	r2, [r4, #16]
24051c5a:	b132      	cbz	r2, 24051c6a <OSPI_ReadBytes+0x1a>
24051c5c:	4b10      	ldr	r3, [pc, #64]	@ (24051ca0 <OSPI_ReadBytes+0x50>)
24051c5e:	f240 11a3 	movw	r1, #419	@ 0x1a3
24051c62:	4a10      	ldr	r2, [pc, #64]	@ (24051ca4 <OSPI_ReadBytes+0x54>)
24051c64:	4810      	ldr	r0, [pc, #64]	@ (24051ca8 <OSPI_ReadBytes+0x58>)
24051c66:	f008 fedf 	bl	2405aa28 <__assert_func>
24051c6a:	460a      	mov	r2, r1
24051c6c:	4601      	mov	r1, r0
24051c6e:	4668      	mov	r0, sp
24051c70:	f7ff ffba 	bl	24051be8 <set_ospi_cmd.constprop.0>
24051c74:	f241 3288 	movw	r2, #5000	@ 0x1388
24051c78:	4669      	mov	r1, sp
24051c7a:	6820      	ldr	r0, [r4, #0]
24051c7c:	f005 fa38 	bl	240570f0 <HAL_OSPI_Command>
24051c80:	b108      	cbz	r0, 24051c86 <OSPI_ReadBytes+0x36>
24051c82:	f001 fe31 	bl	240538e8 <Error_Handler>
24051c86:	f241 3288 	movw	r2, #5000	@ 0x1388
24051c8a:	4629      	mov	r1, r5
24051c8c:	6820      	ldr	r0, [r4, #0]
24051c8e:	f005 fac2 	bl	24057216 <HAL_OSPI_Receive>
24051c92:	b108      	cbz	r0, 24051c98 <OSPI_ReadBytes+0x48>
24051c94:	f001 fe28 	bl	240538e8 <Error_Handler>
24051c98:	b015      	add	sp, #84	@ 0x54
24051c9a:	bd30      	pop	{r4, r5, pc}
24051c9c:	20000080 	.word	0x20000080
24051ca0:	2405fabc 	.word	0x2405fabc
24051ca4:	2405fd7b 	.word	0x2405fd7b
24051ca8:	2405fade 	.word	0x2405fade

24051cac <wait_for_status>:
24051cac:	e92d 41f3 	stmdb	sp!, {r0, r1, r4, r5, r6, r7, r8, lr}
24051cb0:	4606      	mov	r6, r0
24051cb2:	460d      	mov	r5, r1
24051cb4:	4614      	mov	r4, r2
24051cb6:	f8df 8054 	ldr.w	r8, [pc, #84]	@ 24051d0c <wait_for_status+0x60>
24051cba:	f002 fb21 	bl	24054300 <HAL_GetTick>
24051cbe:	4607      	mov	r7, r0
24051cc0:	f8d8 3008 	ldr.w	r3, [r8, #8]
24051cc4:	f10d 0207 	add.w	r2, sp, #7
24051cc8:	2100      	movs	r1, #0
24051cca:	6818      	ldr	r0, [r3, #0]
24051ccc:	2301      	movs	r3, #1
24051cce:	3003      	adds	r0, #3
24051cd0:	f7ff ffbe 	bl	24051c50 <OSPI_ReadBytes>
24051cd4:	b15c      	cbz	r4, 24051cee <wait_for_status+0x42>
24051cd6:	f002 fb13 	bl	24054300 <HAL_GetTick>
24051cda:	193b      	adds	r3, r7, r4
24051cdc:	4298      	cmp	r0, r3
24051cde:	d906      	bls.n	24051cee <wait_for_status+0x42>
24051ce0:	4b07      	ldr	r3, [pc, #28]	@ (24051d00 <wait_for_status+0x54>)
24051ce2:	f240 11e5 	movw	r1, #485	@ 0x1e5
24051ce6:	4a07      	ldr	r2, [pc, #28]	@ (24051d04 <wait_for_status+0x58>)
24051ce8:	4807      	ldr	r0, [pc, #28]	@ (24051d08 <wait_for_status+0x5c>)
24051cea:	f008 fe9d 	bl	2405aa28 <__assert_func>
24051cee:	f89d 3007 	ldrb.w	r3, [sp, #7]
24051cf2:	4033      	ands	r3, r6
24051cf4:	42ab      	cmp	r3, r5
24051cf6:	d1e3      	bne.n	24051cc0 <wait_for_status+0x14>
24051cf8:	b002      	add	sp, #8
24051cfa:	e8bd 81f0 	ldmia.w	sp!, {r4, r5, r6, r7, r8, pc}
24051cfe:	bf00      	nop
24051d00:	2405fb01 	.word	0x2405fb01
24051d04:	2405fd8a 	.word	0x2405fd8a
24051d08:	2405fade 	.word	0x2405fade
24051d0c:	20000080 	.word	0x20000080

24051d10 <OSPI_WriteBytes>:
24051d10:	b570      	push	{r4, r5, r6, lr}
24051d12:	4c13      	ldr	r4, [pc, #76]	@ (24051d60 <OSPI_WriteBytes+0x50>)
24051d14:	4615      	mov	r5, r2
24051d16:	b094      	sub	sp, #80	@ 0x50
24051d18:	461e      	mov	r6, r3
24051d1a:	7c22      	ldrb	r2, [r4, #16]
24051d1c:	b132      	cbz	r2, 24051d2c <OSPI_WriteBytes+0x1c>
24051d1e:	4b11      	ldr	r3, [pc, #68]	@ (24051d64 <OSPI_WriteBytes+0x54>)
24051d20:	f240 11c1 	movw	r1, #449	@ 0x1c1
24051d24:	4a10      	ldr	r2, [pc, #64]	@ (24051d68 <OSPI_WriteBytes+0x58>)
24051d26:	4811      	ldr	r0, [pc, #68]	@ (24051d6c <OSPI_WriteBytes+0x5c>)
24051d28:	f008 fe7e 	bl	2405aa28 <__assert_func>
24051d2c:	460a      	mov	r2, r1
24051d2e:	4601      	mov	r1, r0
24051d30:	4668      	mov	r0, sp
24051d32:	f7ff ff59 	bl	24051be8 <set_ospi_cmd.constprop.0>
24051d36:	f241 3288 	movw	r2, #5000	@ 0x1388
24051d3a:	4669      	mov	r1, sp
24051d3c:	6820      	ldr	r0, [r4, #0]
24051d3e:	f005 f9d7 	bl	240570f0 <HAL_OSPI_Command>
24051d42:	b108      	cbz	r0, 24051d48 <OSPI_WriteBytes+0x38>
24051d44:	f001 fdd0 	bl	240538e8 <Error_Handler>
24051d48:	b146      	cbz	r6, 24051d5c <OSPI_WriteBytes+0x4c>
24051d4a:	f241 3288 	movw	r2, #5000	@ 0x1388
24051d4e:	4629      	mov	r1, r5
24051d50:	6820      	ldr	r0, [r4, #0]
24051d52:	f005 fa1c 	bl	2405718e <HAL_OSPI_Transmit>
24051d56:	b108      	cbz	r0, 24051d5c <OSPI_WriteBytes+0x4c>
24051d58:	f001 fdc6 	bl	240538e8 <Error_Handler>
24051d5c:	b014      	add	sp, #80	@ 0x50
24051d5e:	bd70      	pop	{r4, r5, r6, pc}
24051d60:	20000080 	.word	0x20000080
24051d64:	2405fabc 	.word	0x2405fabc
24051d68:	2405fd9a 	.word	0x2405fd9a
24051d6c:	2405fade 	.word	0x2405fade

24051d70 <OSPI_EnableMemoryMappedMode>:
24051d70:	b510      	push	{r4, lr}
24051d72:	4c1b      	ldr	r4, [pc, #108]	@ (24051de0 <OSPI_EnableMemoryMappedMode+0x70>)
24051d74:	b096      	sub	sp, #88	@ 0x58
24051d76:	68a3      	ldr	r3, [r4, #8]
24051d78:	6819      	ldr	r1, [r3, #0]
24051d7a:	7c23      	ldrb	r3, [r4, #16]
24051d7c:	312a      	adds	r1, #42	@ 0x2a
24051d7e:	b133      	cbz	r3, 24051d8e <OSPI_EnableMemoryMappedMode+0x1e>
24051d80:	4b18      	ldr	r3, [pc, #96]	@ (24051de4 <OSPI_EnableMemoryMappedMode+0x74>)
24051d82:	f240 11f1 	movw	r1, #497	@ 0x1f1
24051d86:	4a18      	ldr	r2, [pc, #96]	@ (24051de8 <OSPI_EnableMemoryMappedMode+0x78>)
24051d88:	4818      	ldr	r0, [pc, #96]	@ (24051dec <OSPI_EnableMemoryMappedMode+0x7c>)
24051d8a:	f008 fe4d 	bl	2405aa28 <__assert_func>
24051d8e:	461a      	mov	r2, r3
24051d90:	a802      	add	r0, sp, #8
24051d92:	f7ff ff29 	bl	24051be8 <set_ospi_cmd.constprop.0>
24051d96:	2301      	movs	r3, #1
24051d98:	f241 3288 	movw	r2, #5000	@ 0x1388
24051d9c:	a902      	add	r1, sp, #8
24051d9e:	6820      	ldr	r0, [r4, #0]
24051da0:	9302      	str	r3, [sp, #8]
24051da2:	f005 f9a5 	bl	240570f0 <HAL_OSPI_Command>
24051da6:	b108      	cbz	r0, 24051dac <OSPI_EnableMemoryMappedMode+0x3c>
24051da8:	f001 fd9e 	bl	240538e8 <Error_Handler>
24051dac:	2302      	movs	r3, #2
24051dae:	f241 3288 	movw	r2, #5000	@ 0x1388
24051db2:	a902      	add	r1, sp, #8
24051db4:	6820      	ldr	r0, [r4, #0]
24051db6:	9302      	str	r3, [sp, #8]
24051db8:	f005 f99a 	bl	240570f0 <HAL_OSPI_Command>
24051dbc:	b108      	cbz	r0, 24051dc2 <OSPI_EnableMemoryMappedMode+0x52>
24051dbe:	f001 fd93 	bl	240538e8 <Error_Handler>
24051dc2:	2300      	movs	r3, #0
24051dc4:	4669      	mov	r1, sp
24051dc6:	6820      	ldr	r0, [r4, #0]
24051dc8:	e9cd 3300 	strd	r3, r3, [sp]
24051dcc:	f005 fa79 	bl	240572c2 <HAL_OSPI_MemoryMapped>
24051dd0:	b108      	cbz	r0, 24051dd6 <OSPI_EnableMemoryMappedMode+0x66>
24051dd2:	f001 fd89 	bl	240538e8 <Error_Handler>
24051dd6:	2301      	movs	r3, #1
24051dd8:	7423      	strb	r3, [r4, #16]
24051dda:	b016      	add	sp, #88	@ 0x58
24051ddc:	bd10      	pop	{r4, pc}
24051dde:	bf00      	nop
24051de0:	20000080 	.word	0x20000080
24051de4:	2405fabc 	.word	0x2405fabc
24051de8:	2405fd5f 	.word	0x2405fd5f
24051dec:	2405fade 	.word	0x2405fade

24051df0 <OSPI_NOR_WriteEnable>:
24051df0:	b508      	push	{r3, lr}
24051df2:	4b08      	ldr	r3, [pc, #32]	@ (24051e14 <OSPI_NOR_WriteEnable+0x24>)
24051df4:	689b      	ldr	r3, [r3, #8]
24051df6:	6818      	ldr	r0, [r3, #0]
24051df8:	2300      	movs	r3, #0
24051dfa:	300c      	adds	r0, #12
24051dfc:	461a      	mov	r2, r3
24051dfe:	4619      	mov	r1, r3
24051e00:	f7ff ff86 	bl	24051d10 <OSPI_WriteBytes>
24051e04:	2102      	movs	r1, #2
24051e06:	f44f 727a 	mov.w	r2, #1000	@ 0x3e8
24051e0a:	4608      	mov	r0, r1
24051e0c:	e8bd 4008 	ldmia.w	sp!, {r3, lr}
24051e10:	f7ff bf4c 	b.w	24051cac <wait_for_status>
24051e14:	20000080 	.word	0x20000080

24051e18 <init_mx_issi>:
24051e18:	b537      	push	{r0, r1, r2, r4, r5, lr}
24051e1a:	4d1d      	ldr	r5, [pc, #116]	@ (24051e90 <init_mx_issi+0x78>)
24051e1c:	481d      	ldr	r0, [pc, #116]	@ (24051e94 <init_mx_issi+0x7c>)
24051e1e:	f009 f8b5 	bl	2405af8c <puts>
24051e22:	68ab      	ldr	r3, [r5, #8]
24051e24:	f10d 0206 	add.w	r2, sp, #6
24051e28:	2100      	movs	r1, #0
24051e2a:	6818      	ldr	r0, [r3, #0]
24051e2c:	2301      	movs	r3, #1
24051e2e:	3003      	adds	r0, #3
24051e30:	f7ff ff0e 	bl	24051c50 <OSPI_ReadBytes>
24051e34:	68ab      	ldr	r3, [r5, #8]
24051e36:	7d1b      	ldrb	r3, [r3, #20]
24051e38:	b343      	cbz	r3, 24051e8c <init_mx_issi+0x74>
24051e3a:	f89d 4006 	ldrb.w	r4, [sp, #6]
24051e3e:	f014 0440 	ands.w	r4, r4, #64	@ 0x40
24051e42:	d123      	bne.n	24051e8c <init_mx_issi+0x74>
24051e44:	2340      	movs	r3, #64	@ 0x40
24051e46:	4814      	ldr	r0, [pc, #80]	@ (24051e98 <init_mx_issi+0x80>)
24051e48:	f88d 3007 	strb.w	r3, [sp, #7]
24051e4c:	f009 f89e 	bl	2405af8c <puts>
24051e50:	f7ff ffce 	bl	24051df0 <OSPI_NOR_WriteEnable>
24051e54:	68a8      	ldr	r0, [r5, #8]
24051e56:	2301      	movs	r3, #1
24051e58:	f10d 0207 	add.w	r2, sp, #7
24051e5c:	4621      	mov	r1, r4
24051e5e:	6800      	ldr	r0, [r0, #0]
24051e60:	f7ff ff56 	bl	24051d10 <OSPI_WriteBytes>
24051e64:	f44f 727a 	mov.w	r2, #1000	@ 0x3e8
24051e68:	4621      	mov	r1, r4
24051e6a:	2001      	movs	r0, #1
24051e6c:	f7ff ff1e 	bl	24051cac <wait_for_status>
24051e70:	68ab      	ldr	r3, [r5, #8]
24051e72:	4621      	mov	r1, r4
24051e74:	f10d 0206 	add.w	r2, sp, #6
24051e78:	6818      	ldr	r0, [r3, #0]
24051e7a:	2301      	movs	r3, #1
24051e7c:	3003      	adds	r0, #3
24051e7e:	f7ff fee7 	bl	24051c50 <OSPI_ReadBytes>
24051e82:	f89d 1006 	ldrb.w	r1, [sp, #6]
24051e86:	4805      	ldr	r0, [pc, #20]	@ (24051e9c <init_mx_issi+0x84>)
24051e88:	f009 f818 	bl	2405aebc <iprintf>
24051e8c:	b003      	add	sp, #12
24051e8e:	bd30      	pop	{r4, r5, pc}
24051e90:	20000080 	.word	0x20000080
24051e94:	2405fdaa 	.word	0x2405fdaa
24051e98:	2405fb19 	.word	0x2405fb19
24051e9c:	2405fb29 	.word	0x2405fb29

24051ea0 <init_spansion>:
24051ea0:	b530      	push	{r4, r5, lr}
24051ea2:	4c40      	ldr	r4, [pc, #256]	@ (24051fa4 <init_spansion+0x104>)
24051ea4:	b089      	sub	sp, #36	@ 0x24
24051ea6:	2100      	movs	r1, #0
24051ea8:	68a3      	ldr	r3, [r4, #8]
24051eaa:	f10d 0216 	add.w	r2, sp, #22
24051eae:	6818      	ldr	r0, [r3, #0]
24051eb0:	2301      	movs	r3, #1
24051eb2:	3003      	adds	r0, #3
24051eb4:	f7ff fecc 	bl	24051c50 <OSPI_ReadBytes>
24051eb8:	68a3      	ldr	r3, [r4, #8]
24051eba:	f10d 0217 	add.w	r2, sp, #23
24051ebe:	493a      	ldr	r1, [pc, #232]	@ (24051fa8 <init_spansion+0x108>)
24051ec0:	6818      	ldr	r0, [r3, #0]
24051ec2:	2301      	movs	r3, #1
24051ec4:	3009      	adds	r0, #9
24051ec6:	f7ff fec3 	bl	24051c50 <OSPI_ReadBytes>
24051eca:	68a3      	ldr	r3, [r4, #8]
24051ecc:	aa06      	add	r2, sp, #24
24051ece:	2100      	movs	r1, #0
24051ed0:	6818      	ldr	r0, [r3, #0]
24051ed2:	2301      	movs	r3, #1
24051ed4:	3006      	adds	r0, #6
24051ed6:	f7ff febb 	bl	24051c50 <OSPI_ReadBytes>
24051eda:	68a3      	ldr	r3, [r4, #8]
24051edc:	f10d 0219 	add.w	r2, sp, #25
24051ee0:	2103      	movs	r1, #3
24051ee2:	6818      	ldr	r0, [r3, #0]
24051ee4:	2301      	movs	r3, #1
24051ee6:	3009      	adds	r0, #9
24051ee8:	f7ff feb2 	bl	24051c50 <OSPI_ReadBytes>
24051eec:	68a3      	ldr	r3, [r4, #8]
24051eee:	f10d 021a 	add.w	r2, sp, #26
24051ef2:	2104      	movs	r1, #4
24051ef4:	6818      	ldr	r0, [r3, #0]
24051ef6:	2301      	movs	r3, #1
24051ef8:	3009      	adds	r0, #9
24051efa:	f7ff fea9 	bl	24051c50 <OSPI_ReadBytes>
24051efe:	68a3      	ldr	r3, [r4, #8]
24051f00:	f10d 021b 	add.w	r2, sp, #27
24051f04:	2105      	movs	r1, #5
24051f06:	6818      	ldr	r0, [r3, #0]
24051f08:	2301      	movs	r3, #1
24051f0a:	3009      	adds	r0, #9
24051f0c:	f7ff fea0 	bl	24051c50 <OSPI_ReadBytes>
24051f10:	f89d 301b 	ldrb.w	r3, [sp, #27]
24051f14:	f89d 2017 	ldrb.w	r2, [sp, #23]
24051f18:	9302      	str	r3, [sp, #8]
24051f1a:	f89d 301a 	ldrb.w	r3, [sp, #26]
24051f1e:	f89d 1016 	ldrb.w	r1, [sp, #22]
24051f22:	9301      	str	r3, [sp, #4]
24051f24:	f89d 3019 	ldrb.w	r3, [sp, #25]
24051f28:	4820      	ldr	r0, [pc, #128]	@ (24051fac <init_spansion+0x10c>)
24051f2a:	9300      	str	r3, [sp, #0]
24051f2c:	f89d 3018 	ldrb.w	r3, [sp, #24]
24051f30:	f008 ffc4 	bl	2405aebc <iprintf>
24051f34:	68a3      	ldr	r3, [r4, #8]
24051f36:	7d1b      	ldrb	r3, [r3, #20]
24051f38:	b393      	cbz	r3, 24051fa0 <init_spansion+0x100>
24051f3a:	f89d 5018 	ldrb.w	r5, [sp, #24]
24051f3e:	f015 0502 	ands.w	r5, r5, #2
24051f42:	d12d      	bne.n	24051fa0 <init_spansion+0x100>
24051f44:	f44f 7300 	mov.w	r3, #512	@ 0x200
24051f48:	4819      	ldr	r0, [pc, #100]	@ (24051fb0 <init_spansion+0x110>)
24051f4a:	f8ad 301c 	strh.w	r3, [sp, #28]
24051f4e:	f009 f81d 	bl	2405af8c <puts>
24051f52:	f7ff ff4d 	bl	24051df0 <OSPI_NOR_WriteEnable>
24051f56:	68a0      	ldr	r0, [r4, #8]
24051f58:	2302      	movs	r3, #2
24051f5a:	aa07      	add	r2, sp, #28
24051f5c:	4629      	mov	r1, r5
24051f5e:	6800      	ldr	r0, [r0, #0]
24051f60:	f7ff fed6 	bl	24051d10 <OSPI_WriteBytes>
24051f64:	f44f 727a 	mov.w	r2, #1000	@ 0x3e8
24051f68:	4629      	mov	r1, r5
24051f6a:	2001      	movs	r0, #1
24051f6c:	f7ff fe9e 	bl	24051cac <wait_for_status>
24051f70:	68a3      	ldr	r3, [r4, #8]
24051f72:	f10d 0216 	add.w	r2, sp, #22
24051f76:	4629      	mov	r1, r5
24051f78:	6818      	ldr	r0, [r3, #0]
24051f7a:	2301      	movs	r3, #1
24051f7c:	3003      	adds	r0, #3
24051f7e:	f7ff fe67 	bl	24051c50 <OSPI_ReadBytes>
24051f82:	68a3      	ldr	r3, [r4, #8]
24051f84:	aa06      	add	r2, sp, #24
24051f86:	4629      	mov	r1, r5
24051f88:	6818      	ldr	r0, [r3, #0]
24051f8a:	2301      	movs	r3, #1
24051f8c:	3006      	adds	r0, #6
24051f8e:	f7ff fe5f 	bl	24051c50 <OSPI_ReadBytes>
24051f92:	f89d 2018 	ldrb.w	r2, [sp, #24]
24051f96:	f89d 1016 	ldrb.w	r1, [sp, #22]
24051f9a:	4806      	ldr	r0, [pc, #24]	@ (24051fb4 <init_spansion+0x114>)
24051f9c:	f008 ff8e 	bl	2405aebc <iprintf>
24051fa0:	b009      	add	sp, #36	@ 0x24
24051fa2:	bd30      	pop	{r4, r5, pc}
24051fa4:	20000080 	.word	0x20000080
24051fa8:	00800001 	.word	0x00800001
24051fac:	2405fb43 	.word	0x2405fb43
24051fb0:	2405fb70 	.word	0x2405fb70
24051fb4:	2405fb86 	.word	0x2405fb86

24051fb8 <init_winbond>:
24051fb8:	4b6b      	ldr	r3, [pc, #428]	@ (24052168 <init_winbond+0x1b0>)
24051fba:	b570      	push	{r4, r5, r6, lr}
24051fbc:	789a      	ldrb	r2, [r3, #2]
24051fbe:	b086      	sub	sp, #24
24051fc0:	8819      	ldrh	r1, [r3, #0]
24051fc2:	f88d 200a 	strb.w	r2, [sp, #10]
24051fc6:	795a      	ldrb	r2, [r3, #5]
24051fc8:	f8ad 1008 	strh.w	r1, [sp, #8]
24051fcc:	f88d 200e 	strb.w	r2, [sp, #14]
24051fd0:	f8b3 1003 	ldrh.w	r1, [r3, #3]
24051fd4:	7a1a      	ldrb	r2, [r3, #8]
24051fd6:	f8ad 100c 	strh.w	r1, [sp, #12]
24051fda:	f88d 2012 	strb.w	r2, [sp, #18]
24051fde:	88d9      	ldrh	r1, [r3, #6]
24051fe0:	f8b3 2009 	ldrh.w	r2, [r3, #9]
24051fe4:	4c61      	ldr	r4, [pc, #388]	@ (2405216c <init_winbond+0x1b4>)
24051fe6:	7adb      	ldrb	r3, [r3, #11]
24051fe8:	f8ad 1010 	strh.w	r1, [sp, #16]
24051fec:	2100      	movs	r1, #0
24051fee:	f88d 3016 	strb.w	r3, [sp, #22]
24051ff2:	68a3      	ldr	r3, [r4, #8]
24051ff4:	f8ad 2014 	strh.w	r2, [sp, #20]
24051ff8:	f10d 0205 	add.w	r2, sp, #5
24051ffc:	6818      	ldr	r0, [r3, #0]
24051ffe:	7d1d      	ldrb	r5, [r3, #20]
24052000:	2301      	movs	r3, #1
24052002:	3003      	adds	r0, #3
24052004:	f7ff fe24 	bl	24051c50 <OSPI_ReadBytes>
24052008:	2301      	movs	r3, #1
2405200a:	f10d 0206 	add.w	r2, sp, #6
2405200e:	2100      	movs	r1, #0
24052010:	a802      	add	r0, sp, #8
24052012:	f7ff fe1d 	bl	24051c50 <OSPI_ReadBytes>
24052016:	2301      	movs	r3, #1
24052018:	f10d 0207 	add.w	r2, sp, #7
2405201c:	2100      	movs	r1, #0
2405201e:	a803      	add	r0, sp, #12
24052020:	f7ff fe16 	bl	24051c50 <OSPI_ReadBytes>
24052024:	f89d 3007 	ldrb.w	r3, [sp, #7]
24052028:	f89d 2006 	ldrb.w	r2, [sp, #6]
2405202c:	f89d 1005 	ldrb.w	r1, [sp, #5]
24052030:	484f      	ldr	r0, [pc, #316]	@ (24052170 <init_winbond+0x1b8>)
24052032:	f008 ff43 	bl	2405aebc <iprintf>
24052036:	f89d 3005 	ldrb.w	r3, [sp, #5]
2405203a:	2b03      	cmp	r3, #3
2405203c:	d925      	bls.n	2405208a <init_winbond+0xd2>
2405203e:	2600      	movs	r6, #0
24052040:	484c      	ldr	r0, [pc, #304]	@ (24052174 <init_winbond+0x1bc>)
24052042:	f008 ffa3 	bl	2405af8c <puts>
24052046:	f88d 6005 	strb.w	r6, [sp, #5]
2405204a:	f7ff fed1 	bl	24051df0 <OSPI_NOR_WriteEnable>
2405204e:	68a0      	ldr	r0, [r4, #8]
24052050:	2301      	movs	r3, #1
24052052:	f10d 0205 	add.w	r2, sp, #5
24052056:	4631      	mov	r1, r6
24052058:	6800      	ldr	r0, [r0, #0]
2405205a:	f7ff fe59 	bl	24051d10 <OSPI_WriteBytes>
2405205e:	f44f 727a 	mov.w	r2, #1000	@ 0x3e8
24052062:	4631      	mov	r1, r6
24052064:	2001      	movs	r0, #1
24052066:	f7ff fe21 	bl	24051cac <wait_for_status>
2405206a:	68a3      	ldr	r3, [r4, #8]
2405206c:	4631      	mov	r1, r6
2405206e:	f10d 0205 	add.w	r2, sp, #5
24052072:	6818      	ldr	r0, [r3, #0]
24052074:	2301      	movs	r3, #1
24052076:	3003      	adds	r0, #3
24052078:	f7ff fdea 	bl	24051c50 <OSPI_ReadBytes>
2405207c:	f89d 1005 	ldrb.w	r1, [sp, #5]
24052080:	2903      	cmp	r1, #3
24052082:	d902      	bls.n	2405208a <init_winbond+0xd2>
24052084:	483c      	ldr	r0, [pc, #240]	@ (24052178 <init_winbond+0x1c0>)
24052086:	f008 ff19 	bl	2405aebc <iprintf>
2405208a:	f89d 3006 	ldrb.w	r3, [sp, #6]
2405208e:	f013 0f41 	tst.w	r3, #65	@ 0x41
24052092:	d102      	bne.n	2405209a <init_winbond+0xe2>
24052094:	b37d      	cbz	r5, 240520f6 <init_winbond+0x13e>
24052096:	0799      	lsls	r1, r3, #30
24052098:	d42d      	bmi.n	240520f6 <init_winbond+0x13e>
2405209a:	4838      	ldr	r0, [pc, #224]	@ (2405217c <init_winbond+0x1c4>)
2405209c:	f008 ff76 	bl	2405af8c <puts>
240520a0:	2300      	movs	r3, #0
240520a2:	f88d 3006 	strb.w	r3, [sp, #6]
240520a6:	b12d      	cbz	r5, 240520b4 <init_winbond+0xfc>
240520a8:	4835      	ldr	r0, [pc, #212]	@ (24052180 <init_winbond+0x1c8>)
240520aa:	f008 ff6f 	bl	2405af8c <puts>
240520ae:	2302      	movs	r3, #2
240520b0:	f88d 3006 	strb.w	r3, [sp, #6]
240520b4:	f7ff fe9c 	bl	24051df0 <OSPI_NOR_WriteEnable>
240520b8:	2301      	movs	r3, #1
240520ba:	f10d 0206 	add.w	r2, sp, #6
240520be:	2100      	movs	r1, #0
240520c0:	a804      	add	r0, sp, #16
240520c2:	f7ff fe25 	bl	24051d10 <OSPI_WriteBytes>
240520c6:	f44f 727a 	mov.w	r2, #1000	@ 0x3e8
240520ca:	2100      	movs	r1, #0
240520cc:	2001      	movs	r0, #1
240520ce:	f7ff fded 	bl	24051cac <wait_for_status>
240520d2:	2100      	movs	r1, #0
240520d4:	2301      	movs	r3, #1
240520d6:	f10d 0206 	add.w	r2, sp, #6
240520da:	a802      	add	r0, sp, #8
240520dc:	f7ff fdb8 	bl	24051c50 <OSPI_ReadBytes>
240520e0:	f89d 1006 	ldrb.w	r1, [sp, #6]
240520e4:	f011 0f41 	tst.w	r1, #65	@ 0x41
240520e8:	d102      	bne.n	240520f0 <init_winbond+0x138>
240520ea:	b125      	cbz	r5, 240520f6 <init_winbond+0x13e>
240520ec:	078a      	lsls	r2, r1, #30
240520ee:	d402      	bmi.n	240520f6 <init_winbond+0x13e>
240520f0:	4824      	ldr	r0, [pc, #144]	@ (24052184 <init_winbond+0x1cc>)
240520f2:	f008 fee3 	bl	2405aebc <iprintf>
240520f6:	f89d 3007 	ldrb.w	r3, [sp, #7]
240520fa:	f003 0364 	and.w	r3, r3, #100	@ 0x64
240520fe:	2b40      	cmp	r3, #64	@ 0x40
24052100:	d024      	beq.n	2405214c <init_winbond+0x194>
24052102:	4821      	ldr	r0, [pc, #132]	@ (24052188 <init_winbond+0x1d0>)
24052104:	f008 feda 	bl	2405aebc <iprintf>
24052108:	2340      	movs	r3, #64	@ 0x40
2405210a:	f88d 3007 	strb.w	r3, [sp, #7]
2405210e:	f7ff fe6f 	bl	24051df0 <OSPI_NOR_WriteEnable>
24052112:	2301      	movs	r3, #1
24052114:	f10d 0207 	add.w	r2, sp, #7
24052118:	2100      	movs	r1, #0
2405211a:	a805      	add	r0, sp, #20
2405211c:	f7ff fdf8 	bl	24051d10 <OSPI_WriteBytes>
24052120:	f44f 727a 	mov.w	r2, #1000	@ 0x3e8
24052124:	2100      	movs	r1, #0
24052126:	2001      	movs	r0, #1
24052128:	f7ff fdc0 	bl	24051cac <wait_for_status>
2405212c:	2301      	movs	r3, #1
2405212e:	2100      	movs	r1, #0
24052130:	f10d 0207 	add.w	r2, sp, #7
24052134:	a803      	add	r0, sp, #12
24052136:	f7ff fd8b 	bl	24051c50 <OSPI_ReadBytes>
2405213a:	f89d 1007 	ldrb.w	r1, [sp, #7]
2405213e:	f001 0364 	and.w	r3, r1, #100	@ 0x64
24052142:	2b40      	cmp	r3, #64	@ 0x40
24052144:	d002      	beq.n	2405214c <init_winbond+0x194>
24052146:	4811      	ldr	r0, [pc, #68]	@ (2405218c <init_winbond+0x1d4>)
24052148:	f008 feb8 	bl	2405aebc <iprintf>
2405214c:	b155      	cbz	r5, 24052164 <init_winbond+0x1ac>
2405214e:	f89d 3006 	ldrb.w	r3, [sp, #6]
24052152:	079b      	lsls	r3, r3, #30
24052154:	d406      	bmi.n	24052164 <init_winbond+0x1ac>
24052156:	480e      	ldr	r0, [pc, #56]	@ (24052190 <init_winbond+0x1d8>)
24052158:	f008 ff18 	bl	2405af8c <puts>
2405215c:	4b0d      	ldr	r3, [pc, #52]	@ (24052194 <init_winbond+0x1dc>)
2405215e:	60a3      	str	r3, [r4, #8]
24052160:	4b0d      	ldr	r3, [pc, #52]	@ (24052198 <init_winbond+0x1e0>)
24052162:	60e3      	str	r3, [r4, #12]
24052164:	b006      	add	sp, #24
24052166:	bd70      	pop	{r4, r5, r6, pc}
24052168:	2405bf3c 	.word	0x2405bf3c
2405216c:	20000080 	.word	0x20000080
24052170:	2405fba7 	.word	0x2405fba7
24052174:	2405fbce 	.word	0x2405fbce
24052178:	2405fbe8 	.word	0x2405fbe8
2405217c:	2405fc02 	.word	0x2405fc02
24052180:	2405fc1c 	.word	0x2405fc1c
24052184:	2405fc33 	.word	0x2405fc33
24052188:	2405fc4d 	.word	0x2405fc4d
2405218c:	2405fc85 	.word	0x2405fc85
24052190:	2405fc9f 	.word	0x2405fc9f
24052194:	24060004 	.word	0x24060004
24052198:	2405fcd3 	.word	0x2405fcd3

2405219c <OSPI_Init>:
2405219c:	b573      	push	{r0, r1, r4, r5, r6, lr}
2405219e:	4c31      	ldr	r4, [pc, #196]	@ (24052264 <OSPI_Init+0xc8>)
240521a0:	68a3      	ldr	r3, [r4, #8]
240521a2:	6020      	str	r0, [r4, #0]
240521a4:	6818      	ldr	r0, [r3, #0]
240521a6:	2300      	movs	r3, #0
240521a8:	3012      	adds	r0, #18
240521aa:	461a      	mov	r2, r3
240521ac:	4619      	mov	r1, r3
240521ae:	f7ff fdaf 	bl	24051d10 <OSPI_WriteBytes>
240521b2:	2002      	movs	r0, #2
240521b4:	f002 f8aa 	bl	2405430c <HAL_Delay>
240521b8:	68a3      	ldr	r3, [r4, #8]
240521ba:	6818      	ldr	r0, [r3, #0]
240521bc:	2300      	movs	r3, #0
240521be:	3015      	adds	r0, #21
240521c0:	461a      	mov	r2, r3
240521c2:	4619      	mov	r1, r3
240521c4:	f7ff fda4 	bl	24051d10 <OSPI_WriteBytes>
240521c8:	2014      	movs	r0, #20
240521ca:	f002 f89f 	bl	2405430c <HAL_Delay>
240521ce:	68a3      	ldr	r3, [r4, #8]
240521d0:	1d22      	adds	r2, r4, #4
240521d2:	2100      	movs	r1, #0
240521d4:	6818      	ldr	r0, [r3, #0]
240521d6:	2303      	movs	r3, #3
240521d8:	300f      	adds	r0, #15
240521da:	f7ff fd39 	bl	24051c50 <OSPI_ReadBytes>
240521de:	79a3      	ldrb	r3, [r4, #6]
240521e0:	7962      	ldrb	r2, [r4, #5]
240521e2:	7921      	ldrb	r1, [r4, #4]
240521e4:	4820      	ldr	r0, [pc, #128]	@ (24052268 <OSPI_Init+0xcc>)
240521e6:	f008 fe69 	bl	2405aebc <iprintf>
240521ea:	6863      	ldr	r3, [r4, #4]
240521ec:	f06f 427f 	mvn.w	r2, #4278190080	@ 0xff000000
240521f0:	f023 437f 	bic.w	r3, r3, #4278190080	@ 0xff000000
240521f4:	4293      	cmp	r3, r2
240521f6:	d000      	beq.n	240521fa <OSPI_Init+0x5e>
240521f8:	b933      	cbnz	r3, 24052208 <OSPI_Init+0x6c>
240521fa:	4b1c      	ldr	r3, [pc, #112]	@ (2405226c <OSPI_Init+0xd0>)
240521fc:	f240 3149 	movw	r1, #841	@ 0x349
24052200:	4a1b      	ldr	r2, [pc, #108]	@ (24052270 <OSPI_Init+0xd4>)
24052202:	481c      	ldr	r0, [pc, #112]	@ (24052274 <OSPI_Init+0xd8>)
24052204:	f008 fc10 	bl	2405aa28 <__assert_func>
24052208:	68a3      	ldr	r3, [r4, #8]
2405220a:	f10d 0207 	add.w	r2, sp, #7
2405220e:	2100      	movs	r1, #0
24052210:	260c      	movs	r6, #12
24052212:	6818      	ldr	r0, [r3, #0]
24052214:	2301      	movs	r3, #1
24052216:	3003      	adds	r0, #3
24052218:	f7ff fd1a 	bl	24051c50 <OSPI_ReadBytes>
2405221c:	f89d 1007 	ldrb.w	r1, [sp, #7]
24052220:	4815      	ldr	r0, [pc, #84]	@ (24052278 <OSPI_Init+0xdc>)
24052222:	f008 fe4b 	bl	2405aebc <iprintf>
24052226:	6865      	ldr	r5, [r4, #4]
24052228:	2300      	movs	r3, #0
2405222a:	4914      	ldr	r1, [pc, #80]	@ (2405227c <OSPI_Init+0xe0>)
2405222c:	fb06 f203 	mul.w	r2, r6, r3
24052230:	1850      	adds	r0, r2, r1
24052232:	588a      	ldr	r2, [r1, r2]
24052234:	406a      	eors	r2, r5
24052236:	f032 427f 	bics.w	r2, r2, #4278190080	@ 0xff000000
2405223a:	d10e      	bne.n	2405225a <OSPI_Init+0xbe>
2405223c:	6883      	ldr	r3, [r0, #8]
2405223e:	6841      	ldr	r1, [r0, #4]
24052240:	480f      	ldr	r0, [pc, #60]	@ (24052280 <OSPI_Init+0xe4>)
24052242:	60a3      	str	r3, [r4, #8]
24052244:	60e1      	str	r1, [r4, #12]
24052246:	f008 fe39 	bl	2405aebc <iprintf>
2405224a:	68a3      	ldr	r3, [r4, #8]
2405224c:	699b      	ldr	r3, [r3, #24]
2405224e:	b103      	cbz	r3, 24052252 <OSPI_Init+0xb6>
24052250:	4798      	blx	r3
24052252:	f7ff fd8d 	bl	24051d70 <OSPI_EnableMemoryMappedMode>
24052256:	b002      	add	sp, #8
24052258:	bd70      	pop	{r4, r5, r6, pc}
2405225a:	3301      	adds	r3, #1
2405225c:	2b11      	cmp	r3, #17
2405225e:	d1e5      	bne.n	2405222c <OSPI_Init+0x90>
24052260:	e7f3      	b.n	2405224a <OSPI_Init+0xae>
24052262:	bf00      	nop
24052264:	20000080 	.word	0x20000080
24052268:	2405fcdf 	.word	0x2405fcdf
2405226c:	2405fcf9 	.word	0x2405fcf9
24052270:	2405fd55 	.word	0x2405fd55
24052274:	2405fade 	.word	0x2405fade
24052278:	2405fb35 	.word	0x2405fb35
2405227c:	2405fe74 	.word	0x2405fe74
24052280:	2405fd43 	.word	0x2405fd43

24052284 <lcd_backlight_set>:
24052284:	b570      	push	{r4, r5, r6, lr}
24052286:	4d11      	ldr	r5, [pc, #68]	@ (240522cc <lcd_backlight_set+0x48>)
24052288:	4604      	mov	r4, r0
2405228a:	4603      	mov	r3, r0
2405228c:	4e10      	ldr	r6, [pc, #64]	@ (240522d0 <lcd_backlight_set+0x4c>)
2405228e:	2208      	movs	r2, #8
24052290:	2100      	movs	r1, #0
24052292:	4628      	mov	r0, r5
24052294:	f003 f84a 	bl	2405532c <HAL_DAC_SetValue>
24052298:	4623      	mov	r3, r4
2405229a:	2208      	movs	r2, #8
2405229c:	2110      	movs	r1, #16
2405229e:	4628      	mov	r0, r5
240522a0:	f003 f844 	bl	2405532c <HAL_DAC_SetValue>
240522a4:	4623      	mov	r3, r4
240522a6:	2208      	movs	r2, #8
240522a8:	2100      	movs	r1, #0
240522aa:	4630      	mov	r0, r6
240522ac:	f003 f83e 	bl	2405532c <HAL_DAC_SetValue>
240522b0:	2100      	movs	r1, #0
240522b2:	4628      	mov	r0, r5
240522b4:	f003 f80f 	bl	240552d6 <HAL_DAC_Start>
240522b8:	2110      	movs	r1, #16
240522ba:	4628      	mov	r0, r5
240522bc:	f003 f80b 	bl	240552d6 <HAL_DAC_Start>
240522c0:	4630      	mov	r0, r6
240522c2:	2100      	movs	r1, #0
240522c4:	e8bd 4070 	ldmia.w	sp!, {r4, r5, r6, lr}
240522c8:	f003 b805 	b.w	240552d6 <HAL_DAC_Start>
240522cc:	200005c0 	.word	0x200005c0
240522d0:	200005ac 	.word	0x200005ac

240522d4 <lcd_init>:
240522d4:	b5f8      	push	{r3, r4, r5, r6, r7, lr}
240522d6:	4e9e      	ldr	r6, [pc, #632]	@ (24052550 <lcd_init+0x27c>)
240522d8:	4605      	mov	r5, r0
240522da:	460f      	mov	r7, r1
240522dc:	2200      	movs	r2, #0
240522de:	2102      	movs	r1, #2
240522e0:	4630      	mov	r0, r6
240522e2:	4c9c      	ldr	r4, [pc, #624]	@ (24052554 <lcd_init+0x280>)
240522e4:	f004 fbac 	bl	24056a40 <HAL_GPIO_WritePin>
240522e8:	2001      	movs	r0, #1
240522ea:	f002 f80f 	bl	2405430c <HAL_Delay>
240522ee:	4630      	mov	r0, r6
240522f0:	2201      	movs	r2, #1
240522f2:	2110      	movs	r1, #16
240522f4:	f004 fba4 	bl	24056a40 <HAL_GPIO_WritePin>
240522f8:	2201      	movs	r2, #1
240522fa:	f44f 5180 	mov.w	r1, #4096	@ 0x1000
240522fe:	4620      	mov	r0, r4
24052300:	f004 fb9e 	bl	24056a40 <HAL_GPIO_WritePin>
24052304:	2007      	movs	r0, #7
24052306:	f002 f801 	bl	2405430c <HAL_Delay>
2405230a:	2201      	movs	r2, #1
2405230c:	f44f 7180 	mov.w	r1, #256	@ 0x100
24052310:	4630      	mov	r0, r6
24052312:	f004 fb95 	bl	24056a40 <HAL_GPIO_WritePin>
24052316:	2002      	movs	r0, #2
24052318:	f001 fff8 	bl	2405430c <HAL_Delay>
2405231c:	2200      	movs	r2, #0
2405231e:	f44f 7180 	mov.w	r1, #256	@ 0x100
24052322:	4630      	mov	r0, r6
24052324:	f004 fb8c 	bl	24056a40 <HAL_GPIO_WritePin>
24052328:	2002      	movs	r0, #2
2405232a:	f001 ffef 	bl	2405430c <HAL_Delay>
2405232e:	2201      	movs	r2, #1
24052330:	f44f 7180 	mov.w	r1, #256	@ 0x100
24052334:	4630      	mov	r0, r6
24052336:	f004 fb83 	bl	24056a40 <HAL_GPIO_WritePin>
2405233a:	200a      	movs	r0, #10
2405233c:	f001 ffe6 	bl	2405430c <HAL_Delay>
24052340:	2200      	movs	r2, #0
24052342:	f44f 5180 	mov.w	r1, #4096	@ 0x1000
24052346:	4620      	mov	r0, r4
24052348:	f004 fb7a 	bl	24056a40 <HAL_GPIO_WritePin>
2405234c:	202d      	movs	r0, #45	@ 0x2d
2405234e:	f001 ffdd 	bl	2405430c <HAL_Delay>
24052352:	2364      	movs	r3, #100	@ 0x64
24052354:	2202      	movs	r2, #2
24052356:	4980      	ldr	r1, [pc, #512]	@ (24052558 <lcd_init+0x284>)
24052358:	4628      	mov	r0, r5
2405235a:	4e80      	ldr	r6, [pc, #512]	@ (2405255c <lcd_init+0x288>)
2405235c:	f007 ffb8 	bl	2405a2d0 <HAL_SPI_Transmit>
24052360:	2002      	movs	r0, #2
24052362:	f001 ffd3 	bl	2405430c <HAL_Delay>
24052366:	4620      	mov	r0, r4
24052368:	2201      	movs	r2, #1
2405236a:	f44f 5180 	mov.w	r1, #4096	@ 0x1000
2405236e:	f004 fb67 	bl	24056a40 <HAL_GPIO_WritePin>
24052372:	2200      	movs	r2, #0
24052374:	f44f 5180 	mov.w	r1, #4096	@ 0x1000
24052378:	4620      	mov	r0, r4
2405237a:	f004 fb61 	bl	24056a40 <HAL_GPIO_WritePin>
2405237e:	2002      	movs	r0, #2
24052380:	f001 ffc4 	bl	2405430c <HAL_Delay>
24052384:	2364      	movs	r3, #100	@ 0x64
24052386:	2202      	movs	r2, #2
24052388:	4975      	ldr	r1, [pc, #468]	@ (24052560 <lcd_init+0x28c>)
2405238a:	4628      	mov	r0, r5
2405238c:	f007 ffa0 	bl	2405a2d0 <HAL_SPI_Transmit>
24052390:	2002      	movs	r0, #2
24052392:	f001 ffbb 	bl	2405430c <HAL_Delay>
24052396:	4620      	mov	r0, r4
24052398:	2201      	movs	r2, #1
2405239a:	f44f 5180 	mov.w	r1, #4096	@ 0x1000
2405239e:	f004 fb4f 	bl	24056a40 <HAL_GPIO_WritePin>
240523a2:	2200      	movs	r2, #0
240523a4:	f44f 5180 	mov.w	r1, #4096	@ 0x1000
240523a8:	4620      	mov	r0, r4
240523aa:	f004 fb49 	bl	24056a40 <HAL_GPIO_WritePin>
240523ae:	2002      	movs	r0, #2
240523b0:	f001 ffac 	bl	2405430c <HAL_Delay>
240523b4:	2364      	movs	r3, #100	@ 0x64
240523b6:	2202      	movs	r2, #2
240523b8:	496a      	ldr	r1, [pc, #424]	@ (24052564 <lcd_init+0x290>)
240523ba:	4628      	mov	r0, r5
240523bc:	f007 ff88 	bl	2405a2d0 <HAL_SPI_Transmit>
240523c0:	2002      	movs	r0, #2
240523c2:	f001 ffa3 	bl	2405430c <HAL_Delay>
240523c6:	4620      	mov	r0, r4
240523c8:	2201      	movs	r2, #1
240523ca:	f44f 5180 	mov.w	r1, #4096	@ 0x1000
240523ce:	f004 fb37 	bl	24056a40 <HAL_GPIO_WritePin>
240523d2:	2200      	movs	r2, #0
240523d4:	f44f 5180 	mov.w	r1, #4096	@ 0x1000
240523d8:	4620      	mov	r0, r4
240523da:	f004 fb31 	bl	24056a40 <HAL_GPIO_WritePin>
240523de:	2002      	movs	r0, #2
240523e0:	f001 ff94 	bl	2405430c <HAL_Delay>
240523e4:	2364      	movs	r3, #100	@ 0x64
240523e6:	4631      	mov	r1, r6
240523e8:	2202      	movs	r2, #2
240523ea:	4628      	mov	r0, r5
240523ec:	f007 ff70 	bl	2405a2d0 <HAL_SPI_Transmit>
240523f0:	2002      	movs	r0, #2
240523f2:	f001 ff8b 	bl	2405430c <HAL_Delay>
240523f6:	4620      	mov	r0, r4
240523f8:	2201      	movs	r2, #1
240523fa:	f44f 5180 	mov.w	r1, #4096	@ 0x1000
240523fe:	f004 fb1f 	bl	24056a40 <HAL_GPIO_WritePin>
24052402:	2200      	movs	r2, #0
24052404:	f44f 5180 	mov.w	r1, #4096	@ 0x1000
24052408:	4620      	mov	r0, r4
2405240a:	f004 fb19 	bl	24056a40 <HAL_GPIO_WritePin>
2405240e:	2002      	movs	r0, #2
24052410:	f001 ff7c 	bl	2405430c <HAL_Delay>
24052414:	2364      	movs	r3, #100	@ 0x64
24052416:	1cf1      	adds	r1, r6, #3
24052418:	2202      	movs	r2, #2
2405241a:	4628      	mov	r0, r5
2405241c:	f007 ff58 	bl	2405a2d0 <HAL_SPI_Transmit>
24052420:	2002      	movs	r0, #2
24052422:	f001 ff73 	bl	2405430c <HAL_Delay>
24052426:	4620      	mov	r0, r4
24052428:	2201      	movs	r2, #1
2405242a:	f44f 5180 	mov.w	r1, #4096	@ 0x1000
2405242e:	f004 fb07 	bl	24056a40 <HAL_GPIO_WritePin>
24052432:	2200      	movs	r2, #0
24052434:	f44f 5180 	mov.w	r1, #4096	@ 0x1000
24052438:	4620      	mov	r0, r4
2405243a:	f004 fb01 	bl	24056a40 <HAL_GPIO_WritePin>
2405243e:	2002      	movs	r0, #2
24052440:	f001 ff64 	bl	2405430c <HAL_Delay>
24052444:	2364      	movs	r3, #100	@ 0x64
24052446:	1db1      	adds	r1, r6, #6
24052448:	2202      	movs	r2, #2
2405244a:	4628      	mov	r0, r5
2405244c:	f007 ff40 	bl	2405a2d0 <HAL_SPI_Transmit>
24052450:	2002      	movs	r0, #2
24052452:	f001 ff5b 	bl	2405430c <HAL_Delay>
24052456:	4620      	mov	r0, r4
24052458:	2201      	movs	r2, #1
2405245a:	f44f 5180 	mov.w	r1, #4096	@ 0x1000
2405245e:	f004 faef 	bl	24056a40 <HAL_GPIO_WritePin>
24052462:	2200      	movs	r2, #0
24052464:	f44f 5180 	mov.w	r1, #4096	@ 0x1000
24052468:	4620      	mov	r0, r4
2405246a:	f004 fae9 	bl	24056a40 <HAL_GPIO_WritePin>
2405246e:	2002      	movs	r0, #2
24052470:	f001 ff4c 	bl	2405430c <HAL_Delay>
24052474:	2364      	movs	r3, #100	@ 0x64
24052476:	f106 0109 	add.w	r1, r6, #9
2405247a:	2202      	movs	r2, #2
2405247c:	4628      	mov	r0, r5
2405247e:	f007 ff27 	bl	2405a2d0 <HAL_SPI_Transmit>
24052482:	2002      	movs	r0, #2
24052484:	f001 ff42 	bl	2405430c <HAL_Delay>
24052488:	4620      	mov	r0, r4
2405248a:	2201      	movs	r2, #1
2405248c:	f44f 5180 	mov.w	r1, #4096	@ 0x1000
24052490:	f004 fad6 	bl	24056a40 <HAL_GPIO_WritePin>
24052494:	2200      	movs	r2, #0
24052496:	f44f 5180 	mov.w	r1, #4096	@ 0x1000
2405249a:	4620      	mov	r0, r4
2405249c:	f004 fad0 	bl	24056a40 <HAL_GPIO_WritePin>
240524a0:	2002      	movs	r0, #2
240524a2:	f001 ff33 	bl	2405430c <HAL_Delay>
240524a6:	2364      	movs	r3, #100	@ 0x64
240524a8:	2202      	movs	r2, #2
240524aa:	492f      	ldr	r1, [pc, #188]	@ (24052568 <lcd_init+0x294>)
240524ac:	4628      	mov	r0, r5
240524ae:	f007 ff0f 	bl	2405a2d0 <HAL_SPI_Transmit>
240524b2:	2002      	movs	r0, #2
240524b4:	f001 ff2a 	bl	2405430c <HAL_Delay>
240524b8:	4620      	mov	r0, r4
240524ba:	2201      	movs	r2, #1
240524bc:	f44f 5180 	mov.w	r1, #4096	@ 0x1000
240524c0:	f004 fabe 	bl	24056a40 <HAL_GPIO_WritePin>
240524c4:	2200      	movs	r2, #0
240524c6:	f44f 5180 	mov.w	r1, #4096	@ 0x1000
240524ca:	4620      	mov	r0, r4
240524cc:	f004 fab8 	bl	24056a40 <HAL_GPIO_WritePin>
240524d0:	2002      	movs	r0, #2
240524d2:	f001 ff1b 	bl	2405430c <HAL_Delay>
240524d6:	2364      	movs	r3, #100	@ 0x64
240524d8:	f106 010c 	add.w	r1, r6, #12
240524dc:	2202      	movs	r2, #2
240524de:	4628      	mov	r0, r5
240524e0:	f007 fef6 	bl	2405a2d0 <HAL_SPI_Transmit>
240524e4:	2002      	movs	r0, #2
240524e6:	f001 ff11 	bl	2405430c <HAL_Delay>
240524ea:	4620      	mov	r0, r4
240524ec:	2201      	movs	r2, #1
240524ee:	f44f 5180 	mov.w	r1, #4096	@ 0x1000
240524f2:	f004 faa5 	bl	24056a40 <HAL_GPIO_WritePin>
240524f6:	2200      	movs	r2, #0
240524f8:	f44f 5180 	mov.w	r1, #4096	@ 0x1000
240524fc:	4620      	mov	r0, r4
240524fe:	f004 fa9f 	bl	24056a40 <HAL_GPIO_WritePin>
24052502:	2002      	movs	r0, #2
24052504:	f001 ff02 	bl	2405430c <HAL_Delay>
24052508:	2364      	movs	r3, #100	@ 0x64
2405250a:	2202      	movs	r2, #2
2405250c:	4917      	ldr	r1, [pc, #92]	@ (2405256c <lcd_init+0x298>)
2405250e:	4628      	mov	r0, r5
24052510:	4d17      	ldr	r5, [pc, #92]	@ (24052570 <lcd_init+0x29c>)
24052512:	f007 fedd 	bl	2405a2d0 <HAL_SPI_Transmit>
24052516:	2002      	movs	r0, #2
24052518:	f001 fef8 	bl	2405430c <HAL_Delay>
2405251c:	4620      	mov	r0, r4
2405251e:	2201      	movs	r2, #1
24052520:	f44f 3416 	mov.w	r4, #153600	@ 0x25800
24052524:	f44f 5180 	mov.w	r1, #4096	@ 0x1000
24052528:	f004 fa8a 	bl	24056a40 <HAL_GPIO_WritePin>
2405252c:	4629      	mov	r1, r5
2405252e:	2200      	movs	r2, #0
24052530:	4638      	mov	r0, r7
24052532:	f004 fc15 	bl	24056d60 <HAL_LTDC_SetAddress>
24052536:	4622      	mov	r2, r4
24052538:	2100      	movs	r1, #0
2405253a:	6828      	ldr	r0, [r5, #0]
2405253c:	f008 fe40 	bl	2405b1c0 <memset>
24052540:	4b0c      	ldr	r3, [pc, #48]	@ (24052574 <lcd_init+0x2a0>)
24052542:	4622      	mov	r2, r4
24052544:	2100      	movs	r1, #0
24052546:	6818      	ldr	r0, [r3, #0]
24052548:	e8bd 40f8 	ldmia.w	sp!, {r3, r4, r5, r6, r7, lr}
2405254c:	f008 be38 	b.w	2405b1c0 <memset>
24052550:	58020c00 	.word	0x58020c00
24052554:	58020400 	.word	0x58020400
24052558:	240601bc 	.word	0x240601bc
2405255c:	2405bf48 	.word	0x2405bf48
24052560:	240601bf 	.word	0x240601bf
24052564:	240601c2 	.word	0x240601c2
24052568:	240601c5 	.word	0x240601c5
2405256c:	240601c8 	.word	0x240601c8
24052570:	20000098 	.word	0x20000098
24052574:	20000094 	.word	0x20000094

24052578 <HAL_LTDC_ReloadEventCallback>:
24052578:	4a06      	ldr	r2, [pc, #24]	@ (24052594 <HAL_LTDC_ReloadEventCallback+0x1c>)
2405257a:	6813      	ldr	r3, [r2, #0]
2405257c:	3301      	adds	r3, #1
2405257e:	6013      	str	r3, [r2, #0]
24052580:	4b05      	ldr	r3, [pc, #20]	@ (24052598 <HAL_LTDC_ReloadEventCallback+0x20>)
24052582:	681a      	ldr	r2, [r3, #0]
24052584:	b91a      	cbnz	r2, 2405258e <HAL_LTDC_ReloadEventCallback+0x16>
24052586:	4b05      	ldr	r3, [pc, #20]	@ (2405259c <HAL_LTDC_ReloadEventCallback+0x24>)
24052588:	6819      	ldr	r1, [r3, #0]
2405258a:	f004 bbe9 	b.w	24056d60 <HAL_LTDC_SetAddress>
2405258e:	2200      	movs	r2, #0
24052590:	4b03      	ldr	r3, [pc, #12]	@ (240525a0 <HAL_LTDC_ReloadEventCallback+0x28>)
24052592:	e7f9      	b.n	24052588 <HAL_LTDC_ReloadEventCallback+0x10>
24052594:	200001f8 	.word	0x200001f8
24052598:	200001fc 	.word	0x200001fc
2405259c:	20000094 	.word	0x20000094
240525a0:	20000098 	.word	0x20000098

240525a4 <lcd_swap>:
240525a4:	b508      	push	{r3, lr}
240525a6:	2102      	movs	r1, #2
240525a8:	4804      	ldr	r0, [pc, #16]	@ (240525bc <lcd_swap+0x18>)
240525aa:	f004 fbf9 	bl	24056da0 <HAL_LTDC_Reload>
240525ae:	4a04      	ldr	r2, [pc, #16]	@ (240525c0 <lcd_swap+0x1c>)
240525b0:	6813      	ldr	r3, [r2, #0]
240525b2:	fab3 f383 	clz	r3, r3
240525b6:	095b      	lsrs	r3, r3, #5
240525b8:	6013      	str	r3, [r2, #0]
240525ba:	bd08      	pop	{r3, pc}
240525bc:	2000049c 	.word	0x2000049c
240525c0:	200001fc 	.word	0x200001fc

240525c4 <lcd_get_active_buffer>:
240525c4:	4b03      	ldr	r3, [pc, #12]	@ (240525d4 <lcd_get_active_buffer+0x10>)
240525c6:	681b      	ldr	r3, [r3, #0]
240525c8:	b113      	cbz	r3, 240525d0 <lcd_get_active_buffer+0xc>
240525ca:	4b03      	ldr	r3, [pc, #12]	@ (240525d8 <lcd_get_active_buffer+0x14>)
240525cc:	6818      	ldr	r0, [r3, #0]
240525ce:	4770      	bx	lr
240525d0:	4b02      	ldr	r3, [pc, #8]	@ (240525dc <lcd_get_active_buffer+0x18>)
240525d2:	e7fb      	b.n	240525cc <lcd_get_active_buffer+0x8>
240525d4:	200001fc 	.word	0x200001fc
240525d8:	20000094 	.word	0x20000094
240525dc:	20000098 	.word	0x20000098

240525e0 <lcd_get_inactive_buffer>:
240525e0:	4b03      	ldr	r3, [pc, #12]	@ (240525f0 <lcd_get_inactive_buffer+0x10>)
240525e2:	681b      	ldr	r3, [r3, #0]
240525e4:	b113      	cbz	r3, 240525ec <lcd_get_inactive_buffer+0xc>
240525e6:	4b03      	ldr	r3, [pc, #12]	@ (240525f4 <lcd_get_inactive_buffer+0x14>)
240525e8:	6818      	ldr	r0, [r3, #0]
240525ea:	4770      	bx	lr
240525ec:	4b02      	ldr	r3, [pc, #8]	@ (240525f8 <lcd_get_inactive_buffer+0x18>)
240525ee:	e7fb      	b.n	240525e8 <lcd_get_inactive_buffer+0x8>
240525f0:	200001fc 	.word	0x200001fc
240525f4:	20000098 	.word	0x20000098
240525f8:	20000094 	.word	0x20000094

240525fc <lcd_sync>:
240525fc:	b508      	push	{r3, lr}
240525fe:	f7ff ffe1 	bl	240525c4 <lcd_get_active_buffer>
24052602:	4601      	mov	r1, r0
24052604:	f7ff ffec 	bl	240525e0 <lcd_get_inactive_buffer>
24052608:	4281      	cmp	r1, r0
2405260a:	d005      	beq.n	24052618 <lcd_sync+0x1c>
2405260c:	f44f 3216 	mov.w	r2, #153600	@ 0x25800
24052610:	e8bd 4008 	ldmia.w	sp!, {r3, lr}
24052614:	f008 be5f 	b.w	2405b2d6 <memcpy>
24052618:	bd08      	pop	{r3, pc}
	...

2405261c <lcd_wait_for_vblank>:
2405261c:	4b03      	ldr	r3, [pc, #12]	@ (2405262c <lcd_wait_for_vblank+0x10>)
2405261e:	681a      	ldr	r2, [r3, #0]
24052620:	6819      	ldr	r1, [r3, #0]
24052622:	4291      	cmp	r1, r2
24052624:	d000      	beq.n	24052628 <lcd_wait_for_vblank+0xc>
24052626:	4770      	bx	lr
24052628:	bf00      	nop
2405262a:	e7f9      	b.n	24052620 <lcd_wait_for_vblank+0x4>
2405262c:	200001f8 	.word	0x200001f8

24052630 <secret_function>:
24052630:	e92d 4ff0 	stmdb	sp!, {r4, r5, r6, r7, r8, r9, sl, fp, lr}
24052634:	f5ad 7d29 	sub.w	sp, sp, #676	@ 0x2a4
24052638:	4b98      	ldr	r3, [pc, #608]	@ (2405289c <secret_function+0x26c>)
2405263a:	ad1c      	add	r5, sp, #112	@ 0x70
2405263c:	f103 0620 	add.w	r6, r3, #32
24052640:	462c      	mov	r4, r5
24052642:	6818      	ldr	r0, [r3, #0]
24052644:	3308      	adds	r3, #8
24052646:	f853 1c04 	ldr.w	r1, [r3, #-4]
2405264a:	4622      	mov	r2, r4
2405264c:	42b3      	cmp	r3, r6
2405264e:	c203      	stmia	r2!, {r0, r1}
24052650:	4614      	mov	r4, r2
24052652:	d1f6      	bne.n	24052642 <secret_function+0x12>
24052654:	ac34      	add	r4, sp, #208	@ 0xd0
24052656:	4b92      	ldr	r3, [pc, #584]	@ (240528a0 <secret_function+0x270>)
24052658:	4626      	mov	r6, r4
2405265a:	f103 0740 	add.w	r7, r3, #64	@ 0x40
2405265e:	6818      	ldr	r0, [r3, #0]
24052660:	3308      	adds	r3, #8
24052662:	f853 1c04 	ldr.w	r1, [r3, #-4]
24052666:	4632      	mov	r2, r6
24052668:	42bb      	cmp	r3, r7
2405266a:	c203      	stmia	r2!, {r0, r1}
2405266c:	4616      	mov	r6, r2
2405266e:	d1f6      	bne.n	2405265e <secret_function+0x2e>
24052670:	4b8c      	ldr	r3, [pc, #560]	@ (240528a4 <secret_function+0x274>)
24052672:	ae24      	add	r6, sp, #144	@ 0x90
24052674:	f103 0720 	add.w	r7, r3, #32
24052678:	6818      	ldr	r0, [r3, #0]
2405267a:	3308      	adds	r3, #8
2405267c:	f853 1c04 	ldr.w	r1, [r3, #-4]
24052680:	4632      	mov	r2, r6
24052682:	42bb      	cmp	r3, r7
24052684:	c203      	stmia	r2!, {r0, r1}
24052686:	4616      	mov	r6, r2
24052688:	d1f6      	bne.n	24052678 <secret_function+0x48>
2405268a:	4b87      	ldr	r3, [pc, #540]	@ (240528a8 <secret_function+0x278>)
2405268c:	ae2c      	add	r6, sp, #176	@ 0xb0
2405268e:	f103 0720 	add.w	r7, r3, #32
24052692:	6818      	ldr	r0, [r3, #0]
24052694:	3308      	adds	r3, #8
24052696:	f853 1c04 	ldr.w	r1, [r3, #-4]
2405269a:	4632      	mov	r2, r6
2405269c:	42bb      	cmp	r3, r7
2405269e:	c203      	stmia	r2!, {r0, r1}
240526a0:	4616      	mov	r6, r2
240526a2:	d1f6      	bne.n	24052692 <secret_function+0x62>
240526a4:	4b81      	ldr	r3, [pc, #516]	@ (240528ac <secret_function+0x27c>)
240526a6:	ae14      	add	r6, sp, #80	@ 0x50
240526a8:	f103 0710 	add.w	r7, r3, #16
240526ac:	6818      	ldr	r0, [r3, #0]
240526ae:	3308      	adds	r3, #8
240526b0:	f853 1c04 	ldr.w	r1, [r3, #-4]
240526b4:	4632      	mov	r2, r6
240526b6:	42bb      	cmp	r3, r7
240526b8:	c203      	stmia	r2!, {r0, r1}
240526ba:	4616      	mov	r6, r2
240526bc:	d1f6      	bne.n	240526ac <secret_function+0x7c>
240526be:	4b7c      	ldr	r3, [pc, #496]	@ (240528b0 <secret_function+0x280>)
240526c0:	ae18      	add	r6, sp, #96	@ 0x60
240526c2:	f103 0710 	add.w	r7, r3, #16
240526c6:	6818      	ldr	r0, [r3, #0]
240526c8:	3308      	adds	r3, #8
240526ca:	f853 1c04 	ldr.w	r1, [r3, #-4]
240526ce:	4632      	mov	r2, r6
240526d0:	42bb      	cmp	r3, r7
240526d2:	c203      	stmia	r2!, {r0, r1}
240526d4:	4616      	mov	r6, r2
240526d6:	d1f6      	bne.n	240526c6 <secret_function+0x96>
240526d8:	f50d 79ec 	add.w	r9, sp, #472	@ 0x1d8
240526dc:	ae44      	add	r6, sp, #272	@ 0x110
240526de:	f04f 0800 	mov.w	r8, #0
240526e2:	f44f 77a0 	mov.w	r7, #320	@ 0x140
240526e6:	f04f 0af0 	mov.w	sl, #240	@ 0xf0
240526ea:	f008 faa7 	bl	2405ac3c <rand>
240526ee:	f108 0801 	add.w	r8, r8, #1
240526f2:	fb90 f3f7 	sdiv	r3, r0, r7
240526f6:	fb03 0017 	mls	r0, r3, r7, r0
240526fa:	f826 0b02 	strh.w	r0, [r6], #2
240526fe:	f008 fa9d 	bl	2405ac3c <rand>
24052702:	f1b8 0f64 	cmp.w	r8, #100	@ 0x64
24052706:	fb90 f3fa 	sdiv	r3, r0, sl
2405270a:	fb03 001a 	mls	r0, r3, sl, r0
2405270e:	f829 0b02 	strh.w	r0, [r9], #2
24052712:	d1ea      	bne.n	240526ea <secret_function+0xba>
24052714:	4e67      	ldr	r6, [pc, #412]	@ (240528b4 <secret_function+0x284>)
24052716:	2311      	movs	r3, #17
24052718:	9503      	str	r5, [sp, #12]
2405271a:	2508      	movs	r5, #8
2405271c:	22e0      	movs	r2, #224	@ 0xe0
2405271e:	f44f 7198 	mov.w	r1, #304	@ 0x130
24052722:	a80c      	add	r0, sp, #48	@ 0x30
24052724:	9602      	str	r6, [sp, #8]
24052726:	2700      	movs	r7, #0
24052728:	e9cd 5300 	strd	r5, r3, [sp]
2405272c:	462b      	mov	r3, r5
2405272e:	f7fe fcab 	bl	24051088 <init_sprite>
24052732:	2310      	movs	r3, #16
24052734:	2212      	movs	r2, #18
24052736:	f44f 7190 	mov.w	r1, #288	@ 0x120
2405273a:	a810      	add	r0, sp, #64	@ 0x40
2405273c:	e9cd 3200 	strd	r3, r2, [sp]
24052740:	e9cd 6402 	strd	r6, r4, [sp, #8]
24052744:	462b      	mov	r3, r5
24052746:	2200      	movs	r2, #0
24052748:	f7fe fc9e 	bl	24051088 <init_sprite>
2405274c:	2301      	movs	r3, #1
2405274e:	261e      	movs	r6, #30
24052750:	9708      	str	r7, [sp, #32]
24052752:	930b      	str	r3, [sp, #44]	@ 0x2c
24052754:	23e0      	movs	r3, #224	@ 0xe0
24052756:	e9cd 7306 	strd	r7, r3, [sp, #24]
2405275a:	f44f 7398 	mov.w	r3, #304	@ 0x130
2405275e:	9305      	str	r3, [sp, #20]
24052760:	f7ff ff30 	bl	240525c4 <lcd_get_active_buffer>
24052764:	9b0b      	ldr	r3, [sp, #44]	@ 0x2c
24052766:	4605      	mov	r5, r0
24052768:	2b00      	cmp	r3, #0
2405276a:	f000 80a5 	beq.w	240528b8 <secret_function+0x288>
2405276e:	ac0c      	add	r4, sp, #48	@ 0x30
24052770:	f8bd 8090 	ldrh.w	r8, [sp, #144]	@ 0x90
24052774:	f8bd 90b0 	ldrh.w	r9, [sp, #176]	@ 0xb0
24052778:	68e3      	ldr	r3, [r4, #12]
2405277a:	f8a4 8000 	strh.w	r8, [r4]
2405277e:	f8a4 9002 	strh.w	r9, [r4, #2]
24052782:	9300      	str	r3, [sp, #0]
24052784:	e894 000e 	ldmia.w	r4, {r1, r2, r3}
24052788:	f7fe fc95 	bl	240510b6 <render_sprite>
2405278c:	f108 0308 	add.w	r3, r8, #8
24052790:	4628      	mov	r0, r5
24052792:	8023      	strh	r3, [r4, #0]
24052794:	68e3      	ldr	r3, [r4, #12]
24052796:	9300      	str	r3, [sp, #0]
24052798:	e894 000e 	ldmia.w	r4, {r1, r2, r3}
2405279c:	f7fe fc8b 	bl	240510b6 <render_sprite>
240527a0:	f109 0308 	add.w	r3, r9, #8
240527a4:	4628      	mov	r0, r5
240527a6:	8063      	strh	r3, [r4, #2]
240527a8:	68e3      	ldr	r3, [r4, #12]
240527aa:	9300      	str	r3, [sp, #0]
240527ac:	e894 000e 	ldmia.w	r4, {r1, r2, r3}
240527b0:	f7fe fc81 	bl	240510b6 <render_sprite>
240527b4:	68e3      	ldr	r3, [r4, #12]
240527b6:	f8a4 8000 	strh.w	r8, [r4]
240527ba:	4628      	mov	r0, r5
240527bc:	9300      	str	r3, [sp, #0]
240527be:	e894 000e 	ldmia.w	r4, {r1, r2, r3}
240527c2:	f7fe fc78 	bl	240510b6 <render_sprite>
240527c6:	f1b8 0f70 	cmp.w	r8, #112	@ 0x70
240527ca:	d125      	bne.n	24052818 <secret_function+0x1e8>
240527cc:	f1b9 0f70 	cmp.w	r9, #112	@ 0x70
240527d0:	d122      	bne.n	24052818 <secret_function+0x1e8>
240527d2:	2300      	movs	r3, #0
240527d4:	261e      	movs	r6, #30
240527d6:	2705      	movs	r7, #5
240527d8:	f8ad 3090 	strh.w	r3, [sp, #144]	@ 0x90
240527dc:	f8ad 30b0 	strh.w	r3, [sp, #176]	@ 0xb0
240527e0:	930b      	str	r3, [sp, #44]	@ 0x2c
240527e2:	f7ff ff0b 	bl	240525fc <lcd_sync>
240527e6:	f7ff f987 	bl	24051af8 <buttons_get>
240527ea:	0583      	lsls	r3, r0, #22
240527ec:	4604      	mov	r4, r0
240527ee:	d501      	bpl.n	240527f4 <secret_function+0x1c4>
240527f0:	f002 fd38 	bl	24055264 <HAL_NVIC_SystemReset>
240527f4:	2e00      	cmp	r6, #0
240527f6:	f040 80f5 	bne.w	240529e4 <secret_function+0x3b4>
240527fa:	f434 7300 	bics.w	r3, r4, #512	@ 0x200
240527fe:	bf0c      	ite	eq
24052800:	2401      	moveq	r4, #1
24052802:	2400      	movne	r4, #0
24052804:	f7ff fece 	bl	240525a4 <lcd_swap>
24052808:	f7ff ff08 	bl	2405261c <lcd_wait_for_vblank>
2405280c:	2c00      	cmp	r4, #0
2405280e:	d1a7      	bne.n	24052760 <secret_function+0x130>
24052810:	f50d 7d29 	add.w	sp, sp, #676	@ 0x2a4
24052814:	e8bd 8ff0 	ldmia.w	sp!, {r4, r5, r6, r7, r8, r9, sl, fp, pc}
24052818:	2f03      	cmp	r7, #3
2405281a:	d8e2      	bhi.n	240527e2 <secret_function+0x1b2>
2405281c:	e8df f007 	tbb	[pc, r7]
24052820:	2f201102 	.word	0x2f201102
24052824:	f1a8 0810 	sub.w	r8, r8, #16
24052828:	9b06      	ldr	r3, [sp, #24]
2405282a:	fa1f f888 	uxth.w	r8, r8
2405282e:	4598      	cmp	r8, r3
24052830:	f8ad 8090 	strh.w	r8, [sp, #144]	@ 0x90
24052834:	d1d5      	bne.n	240527e2 <secret_function+0x1b2>
24052836:	9b07      	ldr	r3, [sp, #28]
24052838:	2701      	movs	r7, #1
2405283a:	3b10      	subs	r3, #16
2405283c:	b29b      	uxth	r3, r3
2405283e:	9307      	str	r3, [sp, #28]
24052840:	e7cf      	b.n	240527e2 <secret_function+0x1b2>
24052842:	f1a9 0910 	sub.w	r9, r9, #16
24052846:	9b08      	ldr	r3, [sp, #32]
24052848:	fa1f f989 	uxth.w	r9, r9
2405284c:	4599      	cmp	r9, r3
2405284e:	f8ad 90b0 	strh.w	r9, [sp, #176]	@ 0xb0
24052852:	d1c6      	bne.n	240527e2 <secret_function+0x1b2>
24052854:	9b06      	ldr	r3, [sp, #24]
24052856:	2702      	movs	r7, #2
24052858:	3310      	adds	r3, #16
2405285a:	b29b      	uxth	r3, r3
2405285c:	9306      	str	r3, [sp, #24]
2405285e:	e7c0      	b.n	240527e2 <secret_function+0x1b2>
24052860:	f108 0810 	add.w	r8, r8, #16
24052864:	9b05      	ldr	r3, [sp, #20]
24052866:	fa1f f888 	uxth.w	r8, r8
2405286a:	4598      	cmp	r8, r3
2405286c:	f8ad 8090 	strh.w	r8, [sp, #144]	@ 0x90
24052870:	d1b7      	bne.n	240527e2 <secret_function+0x1b2>
24052872:	9b08      	ldr	r3, [sp, #32]
24052874:	2703      	movs	r7, #3
24052876:	3310      	adds	r3, #16
24052878:	b29b      	uxth	r3, r3
2405287a:	9308      	str	r3, [sp, #32]
2405287c:	e7b1      	b.n	240527e2 <secret_function+0x1b2>
2405287e:	f109 0910 	add.w	r9, r9, #16
24052882:	9b07      	ldr	r3, [sp, #28]
24052884:	fa1f f989 	uxth.w	r9, r9
24052888:	4599      	cmp	r9, r3
2405288a:	f8ad 90b0 	strh.w	r9, [sp, #176]	@ 0xb0
2405288e:	d1a8      	bne.n	240527e2 <secret_function+0x1b2>
24052890:	9b05      	ldr	r3, [sp, #20]
24052892:	2700      	movs	r7, #0
24052894:	3b10      	subs	r3, #16
24052896:	b29b      	uxth	r3, r3
24052898:	9305      	str	r3, [sp, #20]
2405289a:	e7a2      	b.n	240527e2 <secret_function+0x1b2>
2405289c:	240601cb 	.word	0x240601cb
240528a0:	2405bf58 	.word	0x2405bf58
240528a4:	2405bf98 	.word	0x2405bf98
240528a8:	2405bfb8 	.word	0x2405bfb8
240528ac:	240601ec 	.word	0x240601ec
240528b0:	240601fd 	.word	0x240601fd
240528b4:	20000050 	.word	0x20000050
240528b8:	2e00      	cmp	r6, #0
240528ba:	d194      	bne.n	240527e6 <secret_function+0x1b6>
240528bc:	f50d 79ec 	add.w	r9, sp, #472	@ 0x1d8
240528c0:	f50d 7888 	add.w	r8, sp, #272	@ 0x110
240528c4:	4634      	mov	r4, r6
240528c6:	4631      	mov	r1, r6
240528c8:	f7fe f9a7 	bl	24050c1a <LCD_Clear>
240528cc:	3401      	adds	r4, #1
240528ce:	f64f 73ff 	movw	r3, #65535	@ 0xffff
240528d2:	f839 2b02 	ldrh.w	r2, [r9], #2
240528d6:	4628      	mov	r0, r5
240528d8:	f838 1b02 	ldrh.w	r1, [r8], #2
240528dc:	f7fe f992 	bl	24050c04 <LCD_DrawPixel>
240528e0:	2c64      	cmp	r4, #100	@ 0x64
240528e2:	d1f3      	bne.n	240528cc <secret_function+0x29c>
240528e4:	2000      	movs	r0, #0
240528e6:	f10d 0b50 	add.w	fp, sp, #80	@ 0x50
240528ea:	f7fe f979 	bl	24050be0 <LCD_SetBackColor>
240528ee:	f64f 5080 	movw	r0, #64896	@ 0xfd80
240528f2:	f7fe f96f 	bl	24050bd4 <LCD_SetTextColor>
240528f6:	483d      	ldr	r0, [pc, #244]	@ (240529ec <secret_function+0x3bc>)
240528f8:	f7fe f978 	bl	24050bec <LCD_SetFont>
240528fc:	2301      	movs	r3, #1
240528fe:	2260      	movs	r2, #96	@ 0x60
24052900:	2100      	movs	r1, #0
24052902:	4628      	mov	r0, r5
24052904:	9300      	str	r3, [sp, #0]
24052906:	4b3a      	ldr	r3, [pc, #232]	@ (240529f0 <secret_function+0x3c0>)
24052908:	f10d 0a60 	add.w	sl, sp, #96	@ 0x60
2405290c:	f7fe fb06 	bl	24050f1c <LCD_DisplayStringAt>
24052910:	2301      	movs	r3, #1
24052912:	2278      	movs	r2, #120	@ 0x78
24052914:	2100      	movs	r1, #0
24052916:	9300      	str	r3, [sp, #0]
24052918:	4628      	mov	r0, r5
2405291a:	4b36      	ldr	r3, [pc, #216]	@ (240529f4 <secret_function+0x3c4>)
2405291c:	ac10      	add	r4, sp, #64	@ 0x40
2405291e:	f7fe fafd 	bl	24050f1c <LCD_DisplayStringAt>
24052922:	ab24      	add	r3, sp, #144	@ 0x90
24052924:	9304      	str	r3, [sp, #16]
24052926:	ab2c      	add	r3, sp, #176	@ 0xb0
24052928:	9309      	str	r3, [sp, #36]	@ 0x24
2405292a:	2310      	movs	r3, #16
2405292c:	930a      	str	r3, [sp, #40]	@ 0x28
2405292e:	2100      	movs	r1, #0
24052930:	4620      	mov	r0, r4
24052932:	f7fe fbb7 	bl	240510a4 <set_sprite_flip_x>
24052936:	9b04      	ldr	r3, [sp, #16]
24052938:	4628      	mov	r0, r5
2405293a:	f833 8b02 	ldrh.w	r8, [r3], #2
2405293e:	9304      	str	r3, [sp, #16]
24052940:	9b09      	ldr	r3, [sp, #36]	@ 0x24
24052942:	f8a4 8000 	strh.w	r8, [r4]
24052946:	f833 9b02 	ldrh.w	r9, [r3], #2
2405294a:	9309      	str	r3, [sp, #36]	@ 0x24
2405294c:	68e3      	ldr	r3, [r4, #12]
2405294e:	f8a4 9002 	strh.w	r9, [r4, #2]
24052952:	9300      	str	r3, [sp, #0]
24052954:	e894 000e 	ldmia.w	r4, {r1, r2, r3}
24052958:	f7fe fbad 	bl	240510b6 <render_sprite>
2405295c:	f108 0310 	add.w	r3, r8, #16
24052960:	2101      	movs	r1, #1
24052962:	4620      	mov	r0, r4
24052964:	8023      	strh	r3, [r4, #0]
24052966:	f7fe fb9d 	bl	240510a4 <set_sprite_flip_x>
2405296a:	68e3      	ldr	r3, [r4, #12]
2405296c:	4628      	mov	r0, r5
2405296e:	9300      	str	r3, [sp, #0]
24052970:	e894 000e 	ldmia.w	r4, {r1, r2, r3}
24052974:	f7fe fb9f 	bl	240510b6 <render_sprite>
24052978:	2303      	movs	r3, #3
2405297a:	f1b9 0f00 	cmp.w	r9, #0
2405297e:	d125      	bne.n	240529cc <secret_function+0x39c>
24052980:	f04f 0201 	mov.w	r2, #1
24052984:	f88a 2000 	strb.w	r2, [sl]
24052988:	f1b8 0f00 	cmp.w	r8, #0
2405298c:	d124      	bne.n	240529d8 <secret_function+0x3a8>
2405298e:	f04f 0201 	mov.w	r2, #1
24052992:	f88b 2000 	strb.w	r2, [fp]
24052996:	f99b 2000 	ldrsb.w	r2, [fp]
2405299a:	3b01      	subs	r3, #1
2405299c:	4442      	add	r2, r8
2405299e:	fa1f f882 	uxth.w	r8, r2
240529a2:	f99a 2000 	ldrsb.w	r2, [sl]
240529a6:	444a      	add	r2, r9
240529a8:	fa1f f982 	uxth.w	r9, r2
240529ac:	d1e5      	bne.n	2405297a <secret_function+0x34a>
240529ae:	9b04      	ldr	r3, [sp, #16]
240529b0:	f10b 0b01 	add.w	fp, fp, #1
240529b4:	f10a 0a01 	add.w	sl, sl, #1
240529b8:	f823 8c02 	strh.w	r8, [r3, #-2]
240529bc:	9b09      	ldr	r3, [sp, #36]	@ 0x24
240529be:	f823 9c02 	strh.w	r9, [r3, #-2]
240529c2:	9b0a      	ldr	r3, [sp, #40]	@ 0x28
240529c4:	3b01      	subs	r3, #1
240529c6:	930a      	str	r3, [sp, #40]	@ 0x28
240529c8:	d1b1      	bne.n	2405292e <secret_function+0x2fe>
240529ca:	e70c      	b.n	240527e6 <secret_function+0x1b6>
240529cc:	f1b9 0fd0 	cmp.w	r9, #208	@ 0xd0
240529d0:	d1da      	bne.n	24052988 <secret_function+0x358>
240529d2:	f04f 32ff 	mov.w	r2, #4294967295
240529d6:	e7d5      	b.n	24052984 <secret_function+0x354>
240529d8:	f5b8 7f90 	cmp.w	r8, #288	@ 0x120
240529dc:	d1db      	bne.n	24052996 <secret_function+0x366>
240529de:	f04f 32ff 	mov.w	r2, #4294967295
240529e2:	e7d6      	b.n	24052992 <secret_function+0x362>
240529e4:	3e01      	subs	r6, #1
240529e6:	2401      	movs	r4, #1
240529e8:	b2f6      	uxtb	r6, r6
240529ea:	e70b      	b.n	24052804 <secret_function+0x1d4>
240529ec:	20000018 	.word	0x20000018
240529f0:	2405bfd8 	.word	0x2405bfd8
240529f4:	2405bfe7 	.word	0x2405bfe7

240529f8 <about_menu_init>:
240529f8:	e92d 43f7 	stmdb	sp!, {r0, r1, r2, r4, r5, r6, r7, r8, r9, lr}
240529fc:	2401      	movs	r4, #1
240529fe:	4e70      	ldr	r6, [pc, #448]	@ (24052bc0 <about_menu_init+0x1c8>)
24052a00:	f64f 70ff 	movw	r0, #65535	@ 0xffff
24052a04:	f8df 81c0 	ldr.w	r8, [pc, #448]	@ 24052bc8 <about_menu_init+0x1d0>
24052a08:	6034      	str	r4, [r6, #0]
24052a0a:	f7fe f8e3 	bl	24050bd4 <LCD_SetTextColor>
24052a0e:	4f6d      	ldr	r7, [pc, #436]	@ (24052bc4 <about_menu_init+0x1cc>)
24052a10:	486d      	ldr	r0, [pc, #436]	@ (24052bc8 <about_menu_init+0x1d0>)
24052a12:	f7fe f8eb 	bl	24050bec <LCD_SetFont>
24052a16:	4620      	mov	r0, r4
24052a18:	f7fe f8ee 	bl	24050bf8 <LCD_SetFontScale>
24052a1c:	6833      	ldr	r3, [r6, #0]
24052a1e:	b913      	cbnz	r3, 24052a26 <about_menu_init+0x2e>
24052a20:	b003      	add	sp, #12
24052a22:	e8bd 83f0 	ldmia.w	sp!, {r4, r5, r6, r7, r8, r9, pc}
24052a26:	f7ff fdcd 	bl	240525c4 <lcd_get_active_buffer>
24052a2a:	2100      	movs	r1, #0
24052a2c:	4604      	mov	r4, r0
24052a2e:	f7fe f8f4 	bl	24050c1a <LCD_Clear>
24052a32:	2003      	movs	r0, #3
24052a34:	f64f 75ff 	movw	r5, #65535	@ 0xffff
24052a38:	f7fe f8de 	bl	24050bf8 <LCD_SetFontScale>
24052a3c:	f64f 70ff 	movw	r0, #65535	@ 0xffff
24052a40:	f7fe f8c8 	bl	24050bd4 <LCD_SetTextColor>
24052a44:	4640      	mov	r0, r8
24052a46:	f7fe f8d1 	bl	24050bec <LCD_SetFont>
24052a4a:	f44f 6080 	mov.w	r0, #1024	@ 0x400
24052a4e:	f7fe f8c1 	bl	24050bd4 <LCD_SetTextColor>
24052a52:	2350      	movs	r3, #80	@ 0x50
24052a54:	2214      	movs	r2, #20
24052a56:	2128      	movs	r1, #40	@ 0x28
24052a58:	4620      	mov	r0, r4
24052a5a:	f04f 0940 	mov.w	r9, #64	@ 0x40
24052a5e:	f7fe f9ff 	bl	24050e60 <LCD_DisplayChar>
24052a62:	f64f 5080 	movw	r0, #64896	@ 0xfd80
24052a66:	f7fe f8b5 	bl	24050bd4 <LCD_SetTextColor>
24052a6a:	236f      	movs	r3, #111	@ 0x6f
24052a6c:	2214      	movs	r2, #20
24052a6e:	2150      	movs	r1, #80	@ 0x50
24052a70:	4620      	mov	r0, r4
24052a72:	f7fe f9f5 	bl	24050e60 <LCD_DisplayChar>
24052a76:	2010      	movs	r0, #16
24052a78:	f7fe f8ac 	bl	24050bd4 <LCD_SetTextColor>
24052a7c:	236e      	movs	r3, #110	@ 0x6e
24052a7e:	2214      	movs	r2, #20
24052a80:	2178      	movs	r1, #120	@ 0x78
24052a82:	4620      	mov	r0, r4
24052a84:	f7fe f9ec 	bl	24050e60 <LCD_DisplayChar>
24052a88:	f44f 4078 	mov.w	r0, #63488	@ 0xf800
24052a8c:	f7fe f8a2 	bl	24050bd4 <LCD_SetTextColor>
24052a90:	2367      	movs	r3, #103	@ 0x67
24052a92:	2214      	movs	r2, #20
24052a94:	21a0      	movs	r1, #160	@ 0xa0
24052a96:	4620      	mov	r0, r4
24052a98:	f7fe f9e2 	bl	24050e60 <LCD_DisplayChar>
24052a9c:	2001      	movs	r0, #1
24052a9e:	f7fe f8ab 	bl	24050bf8 <LCD_SetFontScale>
24052aa2:	2308      	movs	r3, #8
24052aa4:	4620      	mov	r0, r4
24052aa6:	2240      	movs	r2, #64	@ 0x40
24052aa8:	21dc      	movs	r1, #220	@ 0xdc
24052aaa:	e9cd 3500 	strd	r3, r5, [sp]
24052aae:	2332      	movs	r3, #50	@ 0x32
24052ab0:	f7fe f9c3 	bl	24050e3a <LCD_FillRect>
24052ab4:	4620      	mov	r0, r4
24052ab6:	230a      	movs	r3, #10
24052ab8:	2228      	movs	r2, #40	@ 0x28
24052aba:	f44f 7187 	mov.w	r1, #270	@ 0x10e
24052abe:	9500      	str	r5, [sp, #0]
24052ac0:	f7fe fa7a 	bl	24050fb8 <LCD_FillCircle>
24052ac4:	4620      	mov	r0, r4
24052ac6:	23f5      	movs	r3, #245	@ 0xf5
24052ac8:	2228      	movs	r2, #40	@ 0x28
24052aca:	21dd      	movs	r1, #221	@ 0xdd
24052acc:	f8cd 9000 	str.w	r9, [sp]
24052ad0:	9501      	str	r5, [sp, #4]
24052ad2:	f7fe f8d0 	bl	24050c76 <LCD_DrawLine>
24052ad6:	23f5      	movs	r3, #245	@ 0xf5
24052ad8:	2228      	movs	r2, #40	@ 0x28
24052ada:	f240 110d 	movw	r1, #269	@ 0x10d
24052ade:	4620      	mov	r0, r4
24052ae0:	e9cd 9500 	strd	r9, r5, [sp]
24052ae4:	f7fe f8c7 	bl	24050c76 <LCD_DrawLine>
24052ae8:	f04f 0901 	mov.w	r9, #1
24052aec:	4628      	mov	r0, r5
24052aee:	f7fe f871 	bl	24050bd4 <LCD_SetTextColor>
24052af2:	4836      	ldr	r0, [pc, #216]	@ (24052bcc <about_menu_init+0x1d4>)
24052af4:	f7fe f87a 	bl	24050bec <LCD_SetFont>
24052af8:	4b35      	ldr	r3, [pc, #212]	@ (24052bd0 <about_menu_init+0x1d8>)
24052afa:	226e      	movs	r2, #110	@ 0x6e
24052afc:	2100      	movs	r1, #0
24052afe:	4620      	mov	r0, r4
24052b00:	f8cd 9000 	str.w	r9, [sp]
24052b04:	f7fe fa0a 	bl	24050f1c <LCD_DisplayStringAt>
24052b08:	4640      	mov	r0, r8
24052b0a:	f7fe f86f 	bl	24050bec <LCD_SetFont>
24052b0e:	f44f 4004 	mov.w	r0, #33792	@ 0x8400
24052b12:	f7fe f85f 	bl	24050bd4 <LCD_SetTextColor>
24052b16:	4b2f      	ldr	r3, [pc, #188]	@ (24052bd4 <about_menu_init+0x1dc>)
24052b18:	228c      	movs	r2, #140	@ 0x8c
24052b1a:	2100      	movs	r1, #0
24052b1c:	4620      	mov	r0, r4
24052b1e:	f8cd 9000 	str.w	r9, [sp]
24052b22:	f7fe f9fb 	bl	24050f1c <LCD_DisplayStringAt>
24052b26:	4628      	mov	r0, r5
24052b28:	f7fe f854 	bl	24050bd4 <LCD_SetTextColor>
24052b2c:	482a      	ldr	r0, [pc, #168]	@ (24052bd8 <about_menu_init+0x1e0>)
24052b2e:	f7fe f85d 	bl	24050bec <LCD_SetFont>
24052b32:	4620      	mov	r0, r4
24052b34:	4b29      	ldr	r3, [pc, #164]	@ (24052bdc <about_menu_init+0x1e4>)
24052b36:	22af      	movs	r2, #175	@ 0xaf
24052b38:	2100      	movs	r1, #0
24052b3a:	f8cd 9000 	str.w	r9, [sp]
24052b3e:	f7fe f9ed 	bl	24050f1c <LCD_DisplayStringAt>
24052b42:	4620      	mov	r0, r4
24052b44:	4b26      	ldr	r3, [pc, #152]	@ (24052be0 <about_menu_init+0x1e8>)
24052b46:	22c8      	movs	r2, #200	@ 0xc8
24052b48:	2100      	movs	r1, #0
24052b4a:	f8cd 9000 	str.w	r9, [sp]
24052b4e:	f7fe f9e5 	bl	24050f1c <LCD_DisplayStringAt>
24052b52:	4620      	mov	r0, r4
24052b54:	4b23      	ldr	r3, [pc, #140]	@ (24052be4 <about_menu_init+0x1ec>)
24052b56:	22d4      	movs	r2, #212	@ 0xd4
24052b58:	2100      	movs	r1, #0
24052b5a:	f8cd 9000 	str.w	r9, [sp]
24052b5e:	f7fe f9dd 	bl	24050f1c <LCD_DisplayStringAt>
24052b62:	f7fe ffc9 	bl	24051af8 <buttons_get>
24052b66:	4604      	mov	r4, r0
24052b68:	05a0      	lsls	r0, r4, #22
24052b6a:	d501      	bpl.n	24052b70 <about_menu_init+0x178>
24052b6c:	f002 fb7a 	bl	24055264 <HAL_NVIC_SystemReset>
24052b70:	683b      	ldr	r3, [r7, #0]
24052b72:	2b00      	cmp	r3, #0
24052b74:	dc20      	bgt.n	24052bb8 <about_menu_init+0x1c0>
24052b76:	06a1      	lsls	r1, r4, #26
24052b78:	d501      	bpl.n	24052b7e <about_menu_init+0x186>
24052b7a:	2300      	movs	r3, #0
24052b7c:	6033      	str	r3, [r6, #0]
24052b7e:	07a2      	lsls	r2, r4, #30
24052b80:	bf42      	ittt	mi
24052b82:	4b19      	ldrmi	r3, [pc, #100]	@ (24052be8 <about_menu_init+0x1f0>)
24052b84:	2201      	movmi	r2, #1
24052b86:	601a      	strmi	r2, [r3, #0]
24052b88:	0723      	lsls	r3, r4, #28
24052b8a:	d506      	bpl.n	24052b9a <about_menu_init+0x1a2>
24052b8c:	4b16      	ldr	r3, [pc, #88]	@ (24052be8 <about_menu_init+0x1f0>)
24052b8e:	681b      	ldr	r3, [r3, #0]
24052b90:	b11b      	cbz	r3, 24052b9a <about_menu_init+0x1a2>
24052b92:	f7ff fd4d 	bl	24052630 <secret_function>
24052b96:	230f      	movs	r3, #15
24052b98:	603b      	str	r3, [r7, #0]
24052b9a:	f034 0302 	bics.w	r3, r4, #2
24052b9e:	bf1e      	ittt	ne
24052ba0:	4b11      	ldrne	r3, [pc, #68]	@ (24052be8 <about_menu_init+0x1f0>)
24052ba2:	2200      	movne	r2, #0
24052ba4:	601a      	strne	r2, [r3, #0]
24052ba6:	4a11      	ldr	r2, [pc, #68]	@ (24052bec <about_menu_init+0x1f4>)
24052ba8:	6813      	ldr	r3, [r2, #0]
24052baa:	3301      	adds	r3, #1
24052bac:	6013      	str	r3, [r2, #0]
24052bae:	f7ff fcf9 	bl	240525a4 <lcd_swap>
24052bb2:	f7ff fd33 	bl	2405261c <lcd_wait_for_vblank>
24052bb6:	e731      	b.n	24052a1c <about_menu_init+0x24>
24052bb8:	3b01      	subs	r3, #1
24052bba:	603b      	str	r3, [r7, #0]
24052bbc:	e7df      	b.n	24052b7e <about_menu_init+0x186>
24052bbe:	bf00      	nop
24052bc0:	2000009c 	.word	0x2000009c
24052bc4:	20000200 	.word	0x20000200
24052bc8:	20000018 	.word	0x20000018
24052bcc:	20000010 	.word	0x20000010
24052bd0:	2405bff1 	.word	0x2405bff1
24052bd4:	2405c000 	.word	0x2405c000
24052bd8:	20000000 	.word	0x20000000
24052bdc:	2405c00b 	.word	0x2405c00b
24052be0:	2405c025 	.word	0x2405c025
24052be4:	2405c044 	.word	0x2405c044
24052be8:	20000208 	.word	0x20000208
24052bec:	20000204 	.word	0x20000204

24052bf0 <main_menu_init>:
24052bf0:	4ba5      	ldr	r3, [pc, #660]	@ (24052e88 <main_menu_init+0x298>)
24052bf2:	681b      	ldr	r3, [r3, #0]
24052bf4:	e92d 4ff7 	stmdb	sp!, {r0, r1, r2, r4, r5, r6, r7, r8, r9, sl, fp, lr}
24052bf8:	b123      	cbz	r3, 24052c04 <main_menu_init+0x14>
24052bfa:	b003      	add	sp, #12
24052bfc:	e8bd 4ff0 	ldmia.w	sp!, {r4, r5, r6, r7, r8, r9, sl, fp, lr}
24052c00:	f7fd bb84 	b.w	2405030c <game_init>
24052c04:	2214      	movs	r2, #20
24052c06:	2401      	movs	r4, #1
24052c08:	f8df 92a4 	ldr.w	r9, [pc, #676]	@ 24052eb0 <main_menu_init+0x2c0>
24052c0c:	f64f 70ff 	movw	r0, #65535	@ 0xffff
24052c10:	f8df a2a0 	ldr.w	sl, [pc, #672]	@ 24052eb4 <main_menu_init+0x2c4>
24052c14:	4f9d      	ldr	r7, [pc, #628]	@ (24052e8c <main_menu_init+0x29c>)
24052c16:	4e9e      	ldr	r6, [pc, #632]	@ (24052e90 <main_menu_init+0x2a0>)
24052c18:	f8c9 3000 	str.w	r3, [r9]
24052c1c:	603a      	str	r2, [r7, #0]
24052c1e:	7033      	strb	r3, [r6, #0]
24052c20:	f8ca 4000 	str.w	r4, [sl]
24052c24:	f7fd ffd6 	bl	24050bd4 <LCD_SetTextColor>
24052c28:	4d9a      	ldr	r5, [pc, #616]	@ (24052e94 <main_menu_init+0x2a4>)
24052c2a:	489b      	ldr	r0, [pc, #620]	@ (24052e98 <main_menu_init+0x2a8>)
24052c2c:	f8df b288 	ldr.w	fp, [pc, #648]	@ 24052eb8 <main_menu_init+0x2c8>
24052c30:	f7fd ffdc 	bl	24050bec <LCD_SetFont>
24052c34:	4620      	mov	r0, r4
24052c36:	f7fd ffdf 	bl	24050bf8 <LCD_SetFontScale>
24052c3a:	f8da 3000 	ldr.w	r3, [sl]
24052c3e:	b97b      	cbnz	r3, 24052c60 <main_menu_init+0x70>
24052c40:	782b      	ldrb	r3, [r5, #0]
24052c42:	f003 0303 	and.w	r3, r3, #3
24052c46:	2b02      	cmp	r3, #2
24052c48:	f000 8113 	beq.w	24052e72 <main_menu_init+0x282>
24052c4c:	2b03      	cmp	r3, #3
24052c4e:	f000 8115 	beq.w	24052e7c <main_menu_init+0x28c>
24052c52:	2b01      	cmp	r3, #1
24052c54:	d1d1      	bne.n	24052bfa <main_menu_init+0xa>
24052c56:	b003      	add	sp, #12
24052c58:	e8bd 4ff0 	ldmia.w	sp!, {r4, r5, r6, r7, r8, r9, sl, fp, lr}
24052c5c:	f000 b986 	b.w	24052f6c <settings_menu_init>
24052c60:	f7ff fcb0 	bl	240525c4 <lcd_get_active_buffer>
24052c64:	2100      	movs	r1, #0
24052c66:	4604      	mov	r4, r0
24052c68:	f7fd ffd7 	bl	24050c1a <LCD_Clear>
24052c6c:	f8db 3000 	ldr.w	r3, [fp]
24052c70:	220a      	movs	r2, #10
24052c72:	fb93 f1f2 	sdiv	r1, r3, r2
24052c76:	fb02 3311 	mls	r3, r2, r1, r3
24052c7a:	b913      	cbnz	r3, 24052c82 <main_menu_init+0x92>
24052c7c:	7833      	ldrb	r3, [r6, #0]
24052c7e:	3b01      	subs	r3, #1
24052c80:	7033      	strb	r3, [r6, #0]
24052c82:	2003      	movs	r0, #3
24052c84:	f8df 8234 	ldr.w	r8, [pc, #564]	@ 24052ebc <main_menu_init+0x2cc>
24052c88:	f7fd ffb6 	bl	24050bf8 <LCD_SetFontScale>
24052c8c:	4882      	ldr	r0, [pc, #520]	@ (24052e98 <main_menu_init+0x2a8>)
24052c8e:	f7fd ffad 	bl	24050bec <LCD_SetFont>
24052c92:	7833      	ldrb	r3, [r6, #0]
24052c94:	f003 0303 	and.w	r3, r3, #3
24052c98:	f838 0013 	ldrh.w	r0, [r8, r3, lsl #1]
24052c9c:	f7fd ff9a 	bl	24050bd4 <LCD_SetTextColor>
24052ca0:	2214      	movs	r2, #20
24052ca2:	2128      	movs	r1, #40	@ 0x28
24052ca4:	4620      	mov	r0, r4
24052ca6:	2350      	movs	r3, #80	@ 0x50
24052ca8:	f7fe f8da 	bl	24050e60 <LCD_DisplayChar>
24052cac:	7833      	ldrb	r3, [r6, #0]
24052cae:	3301      	adds	r3, #1
24052cb0:	f003 0303 	and.w	r3, r3, #3
24052cb4:	f838 0013 	ldrh.w	r0, [r8, r3, lsl #1]
24052cb8:	f7fd ff8c 	bl	24050bd4 <LCD_SetTextColor>
24052cbc:	2214      	movs	r2, #20
24052cbe:	2150      	movs	r1, #80	@ 0x50
24052cc0:	4620      	mov	r0, r4
24052cc2:	236f      	movs	r3, #111	@ 0x6f
24052cc4:	f7fe f8cc 	bl	24050e60 <LCD_DisplayChar>
24052cc8:	7833      	ldrb	r3, [r6, #0]
24052cca:	3302      	adds	r3, #2
24052ccc:	f003 0303 	and.w	r3, r3, #3
24052cd0:	f838 0013 	ldrh.w	r0, [r8, r3, lsl #1]
24052cd4:	f7fd ff7e 	bl	24050bd4 <LCD_SetTextColor>
24052cd8:	2214      	movs	r2, #20
24052cda:	2178      	movs	r1, #120	@ 0x78
24052cdc:	4620      	mov	r0, r4
24052cde:	236e      	movs	r3, #110	@ 0x6e
24052ce0:	f7fe f8be 	bl	24050e60 <LCD_DisplayChar>
24052ce4:	7833      	ldrb	r3, [r6, #0]
24052ce6:	3303      	adds	r3, #3
24052ce8:	f003 0303 	and.w	r3, r3, #3
24052cec:	f838 0013 	ldrh.w	r0, [r8, r3, lsl #1]
24052cf0:	f64f 78ff 	movw	r8, #65535	@ 0xffff
24052cf4:	f7fd ff6e 	bl	24050bd4 <LCD_SetTextColor>
24052cf8:	2367      	movs	r3, #103	@ 0x67
24052cfa:	2214      	movs	r2, #20
24052cfc:	21a0      	movs	r1, #160	@ 0xa0
24052cfe:	4620      	mov	r0, r4
24052d00:	f7fe f8ae 	bl	24050e60 <LCD_DisplayChar>
24052d04:	2001      	movs	r0, #1
24052d06:	f7fd ff77 	bl	24050bf8 <LCD_SetFontScale>
24052d0a:	2308      	movs	r3, #8
24052d0c:	4620      	mov	r0, r4
24052d0e:	2240      	movs	r2, #64	@ 0x40
24052d10:	21dc      	movs	r1, #220	@ 0xdc
24052d12:	e9cd 3800 	strd	r3, r8, [sp]
24052d16:	2332      	movs	r3, #50	@ 0x32
24052d18:	f7fe f88f 	bl	24050e3a <LCD_FillRect>
24052d1c:	4620      	mov	r0, r4
24052d1e:	230a      	movs	r3, #10
24052d20:	2228      	movs	r2, #40	@ 0x28
24052d22:	f44f 7187 	mov.w	r1, #270	@ 0x10e
24052d26:	f8cd 8000 	str.w	r8, [sp]
24052d2a:	f7fe f945 	bl	24050fb8 <LCD_FillCircle>
24052d2e:	2340      	movs	r3, #64	@ 0x40
24052d30:	4620      	mov	r0, r4
24052d32:	2228      	movs	r2, #40	@ 0x28
24052d34:	21dd      	movs	r1, #221	@ 0xdd
24052d36:	f8cd 8004 	str.w	r8, [sp, #4]
24052d3a:	9300      	str	r3, [sp, #0]
24052d3c:	23f5      	movs	r3, #245	@ 0xf5
24052d3e:	f7fd ff9a 	bl	24050c76 <LCD_DrawLine>
24052d42:	2340      	movs	r3, #64	@ 0x40
24052d44:	4620      	mov	r0, r4
24052d46:	2228      	movs	r2, #40	@ 0x28
24052d48:	f240 110d 	movw	r1, #269	@ 0x10d
24052d4c:	f8cd 8004 	str.w	r8, [sp, #4]
24052d50:	9300      	str	r3, [sp, #0]
24052d52:	23f5      	movs	r3, #245	@ 0xf5
24052d54:	f7fd ff8f 	bl	24050c76 <LCD_DrawLine>
24052d58:	782b      	ldrb	r3, [r5, #0]
24052d5a:	079b      	lsls	r3, r3, #30
24052d5c:	bf18      	it	ne
24052d5e:	4640      	movne	r0, r8
24052d60:	f04f 0801 	mov.w	r8, #1
24052d64:	bf08      	it	eq
24052d66:	f44f 4004 	moveq.w	r0, #33792	@ 0x8400
24052d6a:	f7fd ff33 	bl	24050bd4 <LCD_SetTextColor>
24052d6e:	4620      	mov	r0, r4
24052d70:	226e      	movs	r2, #110	@ 0x6e
24052d72:	2100      	movs	r1, #0
24052d74:	4b49      	ldr	r3, [pc, #292]	@ (24052e9c <main_menu_init+0x2ac>)
24052d76:	f8cd 8000 	str.w	r8, [sp]
24052d7a:	f7fe f8cf 	bl	24050f1c <LCD_DisplayStringAt>
24052d7e:	782b      	ldrb	r3, [r5, #0]
24052d80:	f003 0303 	and.w	r3, r3, #3
24052d84:	4543      	cmp	r3, r8
24052d86:	bf0c      	ite	eq
24052d88:	f44f 4004 	moveq.w	r0, #33792	@ 0x8400
24052d8c:	f64f 70ff 	movwne	r0, #65535	@ 0xffff
24052d90:	f7fd ff20 	bl	24050bd4 <LCD_SetTextColor>
24052d94:	4620      	mov	r0, r4
24052d96:	228c      	movs	r2, #140	@ 0x8c
24052d98:	2100      	movs	r1, #0
24052d9a:	4b41      	ldr	r3, [pc, #260]	@ (24052ea0 <main_menu_init+0x2b0>)
24052d9c:	f8cd 8000 	str.w	r8, [sp]
24052da0:	f04f 0801 	mov.w	r8, #1
24052da4:	f7fe f8ba 	bl	24050f1c <LCD_DisplayStringAt>
24052da8:	782b      	ldrb	r3, [r5, #0]
24052daa:	f003 0303 	and.w	r3, r3, #3
24052dae:	2b02      	cmp	r3, #2
24052db0:	bf0c      	ite	eq
24052db2:	f44f 4004 	moveq.w	r0, #33792	@ 0x8400
24052db6:	f64f 70ff 	movwne	r0, #65535	@ 0xffff
24052dba:	f7fd ff0b 	bl	24050bd4 <LCD_SetTextColor>
24052dbe:	4620      	mov	r0, r4
24052dc0:	22aa      	movs	r2, #170	@ 0xaa
24052dc2:	2100      	movs	r1, #0
24052dc4:	4b37      	ldr	r3, [pc, #220]	@ (24052ea4 <main_menu_init+0x2b4>)
24052dc6:	f8cd 8000 	str.w	r8, [sp]
24052dca:	f7fe f8a7 	bl	24050f1c <LCD_DisplayStringAt>
24052dce:	782b      	ldrb	r3, [r5, #0]
24052dd0:	f003 0303 	and.w	r3, r3, #3
24052dd4:	2b03      	cmp	r3, #3
24052dd6:	bf0c      	ite	eq
24052dd8:	f44f 4004 	moveq.w	r0, #33792	@ 0x8400
24052ddc:	f64f 70ff 	movwne	r0, #65535	@ 0xffff
24052de0:	f7fd fef8 	bl	24050bd4 <LCD_SetTextColor>
24052de4:	4620      	mov	r0, r4
24052de6:	4b30      	ldr	r3, [pc, #192]	@ (24052ea8 <main_menu_init+0x2b8>)
24052de8:	22c8      	movs	r2, #200	@ 0xc8
24052dea:	2100      	movs	r1, #0
24052dec:	f8cd 8000 	str.w	r8, [sp]
24052df0:	f7fe f894 	bl	24050f1c <LCD_DisplayStringAt>
24052df4:	f7fe fe80 	bl	24051af8 <buttons_get>
24052df8:	4604      	mov	r4, r0
24052dfa:	05a0      	lsls	r0, r4, #22
24052dfc:	d501      	bpl.n	24052e02 <main_menu_init+0x212>
24052dfe:	f002 fa31 	bl	24055264 <HAL_NVIC_SystemReset>
24052e02:	f434 7300 	bics.w	r3, r4, #512	@ 0x200
24052e06:	bf1c      	itt	ne
24052e08:	2300      	movne	r3, #0
24052e0a:	f8c9 3000 	strne.w	r3, [r9]
24052e0e:	683b      	ldr	r3, [r7, #0]
24052e10:	2b00      	cmp	r3, #0
24052e12:	dc2b      	bgt.n	24052e6c <main_menu_init+0x27c>
24052e14:	07a1      	lsls	r1, r4, #30
24052e16:	d504      	bpl.n	24052e22 <main_menu_init+0x232>
24052e18:	782b      	ldrb	r3, [r5, #0]
24052e1a:	3b01      	subs	r3, #1
24052e1c:	702b      	strb	r3, [r5, #0]
24052e1e:	230a      	movs	r3, #10
24052e20:	603b      	str	r3, [r7, #0]
24052e22:	0722      	lsls	r2, r4, #28
24052e24:	d504      	bpl.n	24052e30 <main_menu_init+0x240>
24052e26:	782b      	ldrb	r3, [r5, #0]
24052e28:	3301      	adds	r3, #1
24052e2a:	702b      	strb	r3, [r5, #0]
24052e2c:	230a      	movs	r3, #10
24052e2e:	603b      	str	r3, [r7, #0]
24052e30:	06e3      	lsls	r3, r4, #27
24052e32:	d502      	bpl.n	24052e3a <main_menu_init+0x24a>
24052e34:	2300      	movs	r3, #0
24052e36:	f8ca 3000 	str.w	r3, [sl]
24052e3a:	f8db 3000 	ldr.w	r3, [fp]
24052e3e:	3301      	adds	r3, #1
24052e40:	f8cb 3000 	str.w	r3, [fp]
24052e44:	f8d9 3000 	ldr.w	r3, [r9]
24052e48:	3301      	adds	r3, #1
24052e4a:	f5b3 7f7a 	cmp.w	r3, #1000	@ 0x3e8
24052e4e:	f8c9 3000 	str.w	r3, [r9]
24052e52:	dd06      	ble.n	24052e62 <main_menu_init+0x272>
24052e54:	4b15      	ldr	r3, [pc, #84]	@ (24052eac <main_menu_init+0x2bc>)
24052e56:	2201      	movs	r2, #1
24052e58:	601a      	str	r2, [r3, #0]
24052e5a:	f7fd fa57 	bl	2405030c <game_init>
24052e5e:	2314      	movs	r3, #20
24052e60:	603b      	str	r3, [r7, #0]
24052e62:	f7ff fb9f 	bl	240525a4 <lcd_swap>
24052e66:	f7ff fbd9 	bl	2405261c <lcd_wait_for_vblank>
24052e6a:	e6e6      	b.n	24052c3a <main_menu_init+0x4a>
24052e6c:	3b01      	subs	r3, #1
24052e6e:	603b      	str	r3, [r7, #0]
24052e70:	e7e3      	b.n	24052e3a <main_menu_init+0x24a>
24052e72:	b003      	add	sp, #12
24052e74:	e8bd 4ff0 	ldmia.w	sp!, {r4, r5, r6, r7, r8, r9, sl, fp, lr}
24052e78:	f7ff bdbe 	b.w	240529f8 <about_menu_init>
24052e7c:	b003      	add	sp, #12
24052e7e:	e8bd 4ff0 	ldmia.w	sp!, {r4, r5, r6, r7, r8, r9, sl, fp, lr}
24052e82:	f002 b9ef 	b.w	24055264 <HAL_NVIC_SystemReset>
24052e86:	bf00      	nop
24052e88:	20000210 	.word	0x20000210
24052e8c:	2000021c 	.word	0x2000021c
24052e90:	20000224 	.word	0x20000224
24052e94:	20000218 	.word	0x20000218
24052e98:	20000018 	.word	0x20000018
24052e9c:	2405c059 	.word	0x2405c059
24052ea0:	2405c060 	.word	0x2405c060
24052ea4:	2405c06a 	.word	0x2405c06a
24052ea8:	2405c071 	.word	0x2405c071
24052eac:	20000130 	.word	0x20000130
24052eb0:	20000214 	.word	0x20000214
24052eb4:	2000020c 	.word	0x2000020c
24052eb8:	20000220 	.word	0x20000220
24052ebc:	2406020e 	.word	0x2406020e

24052ec0 <change_settings>:
24052ec0:	4b22      	ldr	r3, [pc, #136]	@ (24052f4c <change_settings+0x8c>)
24052ec2:	781b      	ldrb	r3, [r3, #0]
24052ec4:	f003 0303 	and.w	r3, r3, #3
24052ec8:	2b02      	cmp	r3, #2
24052eca:	d02a      	beq.n	24052f22 <change_settings+0x62>
24052ecc:	2b03      	cmp	r3, #3
24052ece:	d038      	beq.n	24052f42 <change_settings+0x82>
24052ed0:	2b01      	cmp	r3, #1
24052ed2:	d015      	beq.n	24052f00 <change_settings+0x40>
24052ed4:	4b1e      	ldr	r3, [pc, #120]	@ (24052f50 <change_settings+0x90>)
24052ed6:	781a      	ldrb	r2, [r3, #0]
24052ed8:	2a01      	cmp	r2, #1
24052eda:	d00a      	beq.n	24052ef2 <change_settings+0x32>
24052edc:	2a02      	cmp	r2, #2
24052ede:	d00c      	beq.n	24052efa <change_settings+0x3a>
24052ee0:	2a00      	cmp	r2, #0
24052ee2:	d131      	bne.n	24052f48 <change_settings+0x88>
24052ee4:	2801      	cmp	r0, #1
24052ee6:	d102      	bne.n	24052eee <change_settings+0x2e>
24052ee8:	2201      	movs	r2, #1
24052eea:	701a      	strb	r2, [r3, #0]
24052eec:	4770      	bx	lr
24052eee:	2202      	movs	r2, #2
24052ef0:	e7fb      	b.n	24052eea <change_settings+0x2a>
24052ef2:	2801      	cmp	r0, #1
24052ef4:	d0fb      	beq.n	24052eee <change_settings+0x2e>
24052ef6:	2200      	movs	r2, #0
24052ef8:	e7f7      	b.n	24052eea <change_settings+0x2a>
24052efa:	2801      	cmp	r0, #1
24052efc:	d0fb      	beq.n	24052ef6 <change_settings+0x36>
24052efe:	e7f3      	b.n	24052ee8 <change_settings+0x28>
24052f00:	4a14      	ldr	r2, [pc, #80]	@ (24052f54 <change_settings+0x94>)
24052f02:	2801      	cmp	r0, #1
24052f04:	7813      	ldrb	r3, [r2, #0]
24052f06:	bf0c      	ite	eq
24052f08:	3301      	addeq	r3, #1
24052f0a:	f103 33ff 	addne.w	r3, r3, #4294967295
24052f0e:	b2db      	uxtb	r3, r3
24052f10:	f003 030f 	and.w	r3, r3, #15
24052f14:	7013      	strb	r3, [r2, #0]
24052f16:	4a10      	ldr	r2, [pc, #64]	@ (24052f58 <change_settings+0x98>)
24052f18:	f832 2013 	ldrh.w	r2, [r2, r3, lsl #1]
24052f1c:	4b0f      	ldr	r3, [pc, #60]	@ (24052f5c <change_settings+0x9c>)
24052f1e:	801a      	strh	r2, [r3, #0]
24052f20:	4770      	bx	lr
24052f22:	4a0f      	ldr	r2, [pc, #60]	@ (24052f60 <change_settings+0xa0>)
24052f24:	2801      	cmp	r0, #1
24052f26:	7813      	ldrb	r3, [r2, #0]
24052f28:	bf0c      	ite	eq
24052f2a:	3301      	addeq	r3, #1
24052f2c:	f103 33ff 	addne.w	r3, r3, #4294967295
24052f30:	b2db      	uxtb	r3, r3
24052f32:	f003 030f 	and.w	r3, r3, #15
24052f36:	7013      	strb	r3, [r2, #0]
24052f38:	4a07      	ldr	r2, [pc, #28]	@ (24052f58 <change_settings+0x98>)
24052f3a:	f832 2013 	ldrh.w	r2, [r2, r3, lsl #1]
24052f3e:	4b09      	ldr	r3, [pc, #36]	@ (24052f64 <change_settings+0xa4>)
24052f40:	e7ed      	b.n	24052f1e <change_settings+0x5e>
24052f42:	4b09      	ldr	r3, [pc, #36]	@ (24052f68 <change_settings+0xa8>)
24052f44:	2200      	movs	r2, #0
24052f46:	601a      	str	r2, [r3, #0]
24052f48:	4770      	bx	lr
24052f4a:	bf00      	nop
24052f4c:	20000227 	.word	0x20000227
24052f50:	20000230 	.word	0x20000230
24052f54:	20000226 	.word	0x20000226
24052f58:	24060216 	.word	0x24060216
24052f5c:	200000a6 	.word	0x200000a6
24052f60:	20000225 	.word	0x20000225
24052f64:	200000a4 	.word	0x200000a4
24052f68:	200000a0 	.word	0x200000a0

24052f6c <settings_menu_init>:
24052f6c:	e92d 4ff7 	stmdb	sp!, {r0, r1, r2, r4, r5, r6, r7, r8, r9, sl, fp, lr}
24052f70:	230a      	movs	r3, #10
24052f72:	4e86      	ldr	r6, [pc, #536]	@ (2405318c <settings_menu_init+0x220>)
24052f74:	2401      	movs	r4, #1
24052f76:	4d86      	ldr	r5, [pc, #536]	@ (24053190 <settings_menu_init+0x224>)
24052f78:	6033      	str	r3, [r6, #0]
24052f7a:	2300      	movs	r3, #0
24052f7c:	4f85      	ldr	r7, [pc, #532]	@ (24053194 <settings_menu_init+0x228>)
24052f7e:	f64f 70ff 	movw	r0, #65535	@ 0xffff
24052f82:	f8df 8234 	ldr.w	r8, [pc, #564]	@ 240531b8 <settings_menu_init+0x24c>
24052f86:	702b      	strb	r3, [r5, #0]
24052f88:	603c      	str	r4, [r7, #0]
24052f8a:	f108 0a14 	add.w	sl, r8, #20
24052f8e:	f7fd fe21 	bl	24050bd4 <LCD_SetTextColor>
24052f92:	f8df 9228 	ldr.w	r9, [pc, #552]	@ 240531bc <settings_menu_init+0x250>
24052f96:	4880      	ldr	r0, [pc, #512]	@ (24053198 <settings_menu_init+0x22c>)
24052f98:	f7fd fe28 	bl	24050bec <LCD_SetFont>
24052f9c:	4620      	mov	r0, r4
24052f9e:	f7fd fe2b 	bl	24050bf8 <LCD_SetFontScale>
24052fa2:	683b      	ldr	r3, [r7, #0]
24052fa4:	b913      	cbnz	r3, 24052fac <settings_menu_init+0x40>
24052fa6:	b003      	add	sp, #12
24052fa8:	e8bd 8ff0 	ldmia.w	sp!, {r4, r5, r6, r7, r8, r9, sl, fp, pc}
24052fac:	f7ff fb0a 	bl	240525c4 <lcd_get_active_buffer>
24052fb0:	2100      	movs	r1, #0
24052fb2:	4604      	mov	r4, r0
24052fb4:	f7fd fe31 	bl	24050c1a <LCD_Clear>
24052fb8:	f64f 70ff 	movw	r0, #65535	@ 0xffff
24052fbc:	f7fd fe0a 	bl	24050bd4 <LCD_SetTextColor>
24052fc0:	2002      	movs	r0, #2
24052fc2:	f7fd fe19 	bl	24050bf8 <LCD_SetFontScale>
24052fc6:	2353      	movs	r3, #83	@ 0x53
24052fc8:	2214      	movs	r2, #20
24052fca:	2128      	movs	r1, #40	@ 0x28
24052fcc:	4620      	mov	r0, r4
24052fce:	f7fd ff47 	bl	24050e60 <LCD_DisplayChar>
24052fd2:	2365      	movs	r3, #101	@ 0x65
24052fd4:	2214      	movs	r2, #20
24052fd6:	2146      	movs	r1, #70	@ 0x46
24052fd8:	4620      	mov	r0, r4
24052fda:	f7fd ff41 	bl	24050e60 <LCD_DisplayChar>
24052fde:	2374      	movs	r3, #116	@ 0x74
24052fe0:	2214      	movs	r2, #20
24052fe2:	2164      	movs	r1, #100	@ 0x64
24052fe4:	4620      	mov	r0, r4
24052fe6:	f7fd ff3b 	bl	24050e60 <LCD_DisplayChar>
24052fea:	2374      	movs	r3, #116	@ 0x74
24052fec:	2214      	movs	r2, #20
24052fee:	2182      	movs	r1, #130	@ 0x82
24052ff0:	4620      	mov	r0, r4
24052ff2:	f7fd ff35 	bl	24050e60 <LCD_DisplayChar>
24052ff6:	2369      	movs	r3, #105	@ 0x69
24052ff8:	2214      	movs	r2, #20
24052ffa:	21a0      	movs	r1, #160	@ 0xa0
24052ffc:	4620      	mov	r0, r4
24052ffe:	f7fd ff2f 	bl	24050e60 <LCD_DisplayChar>
24053002:	236e      	movs	r3, #110	@ 0x6e
24053004:	2214      	movs	r2, #20
24053006:	21be      	movs	r1, #190	@ 0xbe
24053008:	4620      	mov	r0, r4
2405300a:	f7fd ff29 	bl	24050e60 <LCD_DisplayChar>
2405300e:	2367      	movs	r3, #103	@ 0x67
24053010:	2214      	movs	r2, #20
24053012:	21dc      	movs	r1, #220	@ 0xdc
24053014:	4620      	mov	r0, r4
24053016:	f7fd ff23 	bl	24050e60 <LCD_DisplayChar>
2405301a:	21fa      	movs	r1, #250	@ 0xfa
2405301c:	2373      	movs	r3, #115	@ 0x73
2405301e:	2214      	movs	r2, #20
24053020:	4620      	mov	r0, r4
24053022:	f7fd ff1d 	bl	24050e60 <LCD_DisplayChar>
24053026:	2001      	movs	r0, #1
24053028:	f7fd fde6 	bl	24050bf8 <LCD_SetFontScale>
2405302c:	782b      	ldrb	r3, [r5, #0]
2405302e:	0798      	lsls	r0, r3, #30
24053030:	bf0c      	ite	eq
24053032:	f44f 4004 	moveq.w	r0, #33792	@ 0x8400
24053036:	f64f 70ff 	movwne	r0, #65535	@ 0xffff
2405303a:	f7fd fdcb 	bl	24050bd4 <LCD_SetTextColor>
2405303e:	f899 1000 	ldrb.w	r1, [r9]
24053042:	2901      	cmp	r1, #1
24053044:	f000 8097 	beq.w	24053176 <settings_menu_init+0x20a>
24053048:	2902      	cmp	r1, #2
2405304a:	f04f 0301 	mov.w	r3, #1
2405304e:	f000 8097 	beq.w	24053180 <settings_menu_init+0x214>
24053052:	b929      	cbnz	r1, 24053060 <settings_menu_init+0xf4>
24053054:	9300      	str	r3, [sp, #0]
24053056:	226e      	movs	r2, #110	@ 0x6e
24053058:	4b50      	ldr	r3, [pc, #320]	@ (2405319c <settings_menu_init+0x230>)
2405305a:	4620      	mov	r0, r4
2405305c:	f7fd ff5e 	bl	24050f1c <LCD_DisplayStringAt>
24053060:	782b      	ldrb	r3, [r5, #0]
24053062:	f04f 0b01 	mov.w	fp, #1
24053066:	f003 0303 	and.w	r3, r3, #3
2405306a:	2b01      	cmp	r3, #1
2405306c:	bf0c      	ite	eq
2405306e:	f44f 4004 	moveq.w	r0, #33792	@ 0x8400
24053072:	f64f 70ff 	movwne	r0, #65535	@ 0xffff
24053076:	f7fd fdad 	bl	24050bd4 <LCD_SetTextColor>
2405307a:	4620      	mov	r0, r4
2405307c:	4b48      	ldr	r3, [pc, #288]	@ (240531a0 <settings_menu_init+0x234>)
2405307e:	228c      	movs	r2, #140	@ 0x8c
24053080:	2100      	movs	r1, #0
24053082:	f8cd b000 	str.w	fp, [sp]
24053086:	f7fd ff49 	bl	24050f1c <LCD_DisplayStringAt>
2405308a:	4b46      	ldr	r3, [pc, #280]	@ (240531a4 <settings_menu_init+0x238>)
2405308c:	4620      	mov	r0, r4
2405308e:	2296      	movs	r2, #150	@ 0x96
24053090:	881b      	ldrh	r3, [r3, #0]
24053092:	21fa      	movs	r1, #250	@ 0xfa
24053094:	9301      	str	r3, [sp, #4]
24053096:	2308      	movs	r3, #8
24053098:	9300      	str	r3, [sp, #0]
2405309a:	2332      	movs	r3, #50	@ 0x32
2405309c:	f7fd fecd 	bl	24050e3a <LCD_FillRect>
240530a0:	782b      	ldrb	r3, [r5, #0]
240530a2:	f003 0303 	and.w	r3, r3, #3
240530a6:	2b02      	cmp	r3, #2
240530a8:	bf0c      	ite	eq
240530aa:	f44f 4004 	moveq.w	r0, #33792	@ 0x8400
240530ae:	f64f 70ff 	movwne	r0, #65535	@ 0xffff
240530b2:	f7fd fd8f 	bl	24050bd4 <LCD_SetTextColor>
240530b6:	4620      	mov	r0, r4
240530b8:	4b3b      	ldr	r3, [pc, #236]	@ (240531a8 <settings_menu_init+0x23c>)
240530ba:	22aa      	movs	r2, #170	@ 0xaa
240530bc:	2100      	movs	r1, #0
240530be:	f8cd b000 	str.w	fp, [sp]
240530c2:	f7fd ff2b 	bl	24050f1c <LCD_DisplayStringAt>
240530c6:	4b39      	ldr	r3, [pc, #228]	@ (240531ac <settings_menu_init+0x240>)
240530c8:	4620      	mov	r0, r4
240530ca:	22b4      	movs	r2, #180	@ 0xb4
240530cc:	881b      	ldrh	r3, [r3, #0]
240530ce:	f240 1113 	movw	r1, #275	@ 0x113
240530d2:	9300      	str	r3, [sp, #0]
240530d4:	230a      	movs	r3, #10
240530d6:	f7fd ff6f 	bl	24050fb8 <LCD_FillCircle>
240530da:	782b      	ldrb	r3, [r5, #0]
240530dc:	f003 0303 	and.w	r3, r3, #3
240530e0:	2b03      	cmp	r3, #3
240530e2:	bf0c      	ite	eq
240530e4:	f44f 4004 	moveq.w	r0, #33792	@ 0x8400
240530e8:	f64f 70ff 	movwne	r0, #65535	@ 0xffff
240530ec:	f7fd fd72 	bl	24050bd4 <LCD_SetTextColor>
240530f0:	2301      	movs	r3, #1
240530f2:	2100      	movs	r1, #0
240530f4:	4620      	mov	r0, r4
240530f6:	22c8      	movs	r2, #200	@ 0xc8
240530f8:	9300      	str	r3, [sp, #0]
240530fa:	4b2d      	ldr	r3, [pc, #180]	@ (240531b0 <settings_menu_init+0x244>)
240530fc:	f7fd ff0e 	bl	24050f1c <LCD_DisplayStringAt>
24053100:	f7fe fcfa 	bl	24051af8 <buttons_get>
24053104:	0581      	lsls	r1, r0, #22
24053106:	4604      	mov	r4, r0
24053108:	d501      	bpl.n	2405310e <settings_menu_init+0x1a2>
2405310a:	f002 f8ab 	bl	24055264 <HAL_NVIC_SystemReset>
2405310e:	6833      	ldr	r3, [r6, #0]
24053110:	2b00      	cmp	r3, #0
24053112:	dc38      	bgt.n	24053186 <settings_menu_init+0x21a>
24053114:	07a2      	lsls	r2, r4, #30
24053116:	d504      	bpl.n	24053122 <settings_menu_init+0x1b6>
24053118:	782b      	ldrb	r3, [r5, #0]
2405311a:	3b01      	subs	r3, #1
2405311c:	702b      	strb	r3, [r5, #0]
2405311e:	230a      	movs	r3, #10
24053120:	6033      	str	r3, [r6, #0]
24053122:	0723      	lsls	r3, r4, #28
24053124:	d504      	bpl.n	24053130 <settings_menu_init+0x1c4>
24053126:	782b      	ldrb	r3, [r5, #0]
24053128:	3301      	adds	r3, #1
2405312a:	702b      	strb	r3, [r5, #0]
2405312c:	230a      	movs	r3, #10
2405312e:	6033      	str	r3, [r6, #0]
24053130:	07e0      	lsls	r0, r4, #31
24053132:	d505      	bpl.n	24053140 <settings_menu_init+0x1d4>
24053134:	230a      	movs	r3, #10
24053136:	f04f 30ff 	mov.w	r0, #4294967295
2405313a:	6033      	str	r3, [r6, #0]
2405313c:	f7ff fec0 	bl	24052ec0 <change_settings>
24053140:	0761      	lsls	r1, r4, #29
24053142:	d504      	bpl.n	2405314e <settings_menu_init+0x1e2>
24053144:	230a      	movs	r3, #10
24053146:	2001      	movs	r0, #1
24053148:	6033      	str	r3, [r6, #0]
2405314a:	f7ff feb9 	bl	24052ec0 <change_settings>
2405314e:	06e2      	lsls	r2, r4, #27
24053150:	d504      	bpl.n	2405315c <settings_menu_init+0x1f0>
24053152:	230a      	movs	r3, #10
24053154:	2001      	movs	r0, #1
24053156:	6033      	str	r3, [r6, #0]
24053158:	f7ff feb2 	bl	24052ec0 <change_settings>
2405315c:	06a3      	lsls	r3, r4, #26
2405315e:	4a15      	ldr	r2, [pc, #84]	@ (240531b4 <settings_menu_init+0x248>)
24053160:	bf44      	itt	mi
24053162:	2300      	movmi	r3, #0
24053164:	603b      	strmi	r3, [r7, #0]
24053166:	6813      	ldr	r3, [r2, #0]
24053168:	3301      	adds	r3, #1
2405316a:	6013      	str	r3, [r2, #0]
2405316c:	f7ff fa1a 	bl	240525a4 <lcd_swap>
24053170:	f7ff fa54 	bl	2405261c <lcd_wait_for_vblank>
24053174:	e715      	b.n	24052fa2 <settings_menu_init+0x36>
24053176:	4643      	mov	r3, r8
24053178:	9100      	str	r1, [sp, #0]
2405317a:	226e      	movs	r2, #110	@ 0x6e
2405317c:	2100      	movs	r1, #0
2405317e:	e76c      	b.n	2405305a <settings_menu_init+0xee>
24053180:	9300      	str	r3, [sp, #0]
24053182:	4653      	mov	r3, sl
24053184:	e7f9      	b.n	2405317a <settings_menu_init+0x20e>
24053186:	3b01      	subs	r3, #1
24053188:	6033      	str	r3, [r6, #0]
2405318a:	e7e7      	b.n	2405315c <settings_menu_init+0x1f0>
2405318c:	20000228 	.word	0x20000228
24053190:	20000227 	.word	0x20000227
24053194:	200000a0 	.word	0x200000a0
24053198:	20000018 	.word	0x20000018
2405319c:	2405c077 	.word	0x2405c077
240531a0:	2405c0af 	.word	0x2405c0af
240531a4:	200000a6 	.word	0x200000a6
240531a8:	2405c0c1 	.word	0x2405c0c1
240531ac:	200000a4 	.word	0x200000a4
240531b0:	2405c0cf 	.word	0x2405c0cf
240531b4:	2000022c 	.word	0x2000022c
240531b8:	2405c089 	.word	0x2405c089
240531bc:	20000230 	.word	0x20000230

240531c0 <SystemClock_Config>:
240531c0:	b510      	push	{r4, lr}
240531c2:	b09c      	sub	sp, #112	@ 0x70
240531c4:	224c      	movs	r2, #76	@ 0x4c
240531c6:	2100      	movs	r1, #0
240531c8:	4c2b      	ldr	r4, [pc, #172]	@ (24053278 <SystemClock_Config+0xb8>)
240531ca:	a809      	add	r0, sp, #36	@ 0x24
240531cc:	f007 fff8 	bl	2405b1c0 <memset>
240531d0:	2220      	movs	r2, #32
240531d2:	2100      	movs	r1, #0
240531d4:	a801      	add	r0, sp, #4
240531d6:	f007 fff3 	bl	2405b1c0 <memset>
240531da:	f04f 33ff 	mov.w	r3, #4294967295
240531de:	2002      	movs	r0, #2
240531e0:	f8c4 30b0 	str.w	r3, [r4, #176]	@ 0xb0
240531e4:	f004 fbe6 	bl	240579b4 <HAL_PWREx_ConfigSupply>
240531e8:	2300      	movs	r3, #0
240531ea:	9300      	str	r3, [sp, #0]
240531ec:	4b23      	ldr	r3, [pc, #140]	@ (2405327c <SystemClock_Config+0xbc>)
240531ee:	699a      	ldr	r2, [r3, #24]
240531f0:	f442 4240 	orr.w	r2, r2, #49152	@ 0xc000
240531f4:	619a      	str	r2, [r3, #24]
240531f6:	699a      	ldr	r2, [r3, #24]
240531f8:	f402 4240 	and.w	r2, r2, #49152	@ 0xc000
240531fc:	9200      	str	r2, [sp, #0]
240531fe:	9a00      	ldr	r2, [sp, #0]
24053200:	699a      	ldr	r2, [r3, #24]
24053202:	0492      	lsls	r2, r2, #18
24053204:	d5fc      	bpl.n	24053200 <SystemClock_Config+0x40>
24053206:	f004 fbcd 	bl	240579a4 <HAL_PWR_EnableBkUpAccess>
2405320a:	6f23      	ldr	r3, [r4, #112]	@ 0x70
2405320c:	2200      	movs	r2, #0
2405320e:	2010      	movs	r0, #16
24053210:	f023 0318 	bic.w	r3, r3, #24
24053214:	218c      	movs	r1, #140	@ 0x8c
24053216:	6723      	str	r3, [r4, #112]	@ 0x70
24053218:	230e      	movs	r3, #14
2405321a:	2440      	movs	r4, #64	@ 0x40
2405321c:	921b      	str	r2, [sp, #108]	@ 0x6c
2405321e:	9309      	str	r3, [sp, #36]	@ 0x24
24053220:	2301      	movs	r3, #1
24053222:	e9cd 330b 	strd	r3, r3, [sp, #44]	@ 0x2c
24053226:	e9cd 430d 	strd	r4, r3, [sp, #52]	@ 0x34
2405322a:	2302      	movs	r3, #2
2405322c:	e9cd 3212 	strd	r3, r2, [sp, #72]	@ 0x48
24053230:	e9cd 3316 	strd	r3, r3, [sp, #88]	@ 0x58
24053234:	9318      	str	r3, [sp, #96]	@ 0x60
24053236:	2308      	movs	r3, #8
24053238:	e9cd 0114 	strd	r0, r1, [sp, #80]	@ 0x50
2405323c:	a809      	add	r0, sp, #36	@ 0x24
2405323e:	e9cd 3219 	strd	r3, r2, [sp, #100]	@ 0x64
24053242:	f004 fbdb 	bl	240579fc <HAL_RCC_OscConfig>
24053246:	b108      	cbz	r0, 2405324c <SystemClock_Config+0x8c>
24053248:	b672      	cpsid	i
2405324a:	e7fe      	b.n	2405324a <SystemClock_Config+0x8a>
2405324c:	2303      	movs	r3, #3
2405324e:	223f      	movs	r2, #63	@ 0x3f
24053250:	2106      	movs	r1, #6
24053252:	e9cd 2301 	strd	r2, r3, [sp, #4]
24053256:	f44f 6380 	mov.w	r3, #1024	@ 0x400
2405325a:	e9cd 0003 	strd	r0, r0, [sp, #12]
2405325e:	a801      	add	r0, sp, #4
24053260:	e9cd 4405 	strd	r4, r4, [sp, #20]
24053264:	e9cd 3407 	strd	r3, r4, [sp, #28]
24053268:	f004 ff12 	bl	24058090 <HAL_RCC_ClockConfig>
2405326c:	b108      	cbz	r0, 24053272 <SystemClock_Config+0xb2>
2405326e:	b672      	cpsid	i
24053270:	e7fe      	b.n	24053270 <SystemClock_Config+0xb0>
24053272:	b01c      	add	sp, #112	@ 0x70
24053274:	bd10      	pop	{r4, pc}
24053276:	bf00      	nop
24053278:	58024400 	.word	0x58024400
2405327c:	58024800 	.word	0x58024800

24053280 <PeriphCommonClock_Config>:
24053280:	b500      	push	{lr}
24053282:	b0b1      	sub	sp, #196	@ 0xc4
24053284:	22b8      	movs	r2, #184	@ 0xb8
24053286:	2100      	movs	r1, #0
24053288:	a802      	add	r0, sp, #8
2405328a:	f007 ff99 	bl	2405b1c0 <memset>
2405328e:	4a0f      	ldr	r2, [pc, #60]	@ (240532cc <PeriphCommonClock_Config+0x4c>)
24053290:	2300      	movs	r3, #0
24053292:	2118      	movs	r1, #24
24053294:	4668      	mov	r0, sp
24053296:	e9cd 2300 	strd	r2, r3, [sp]
2405329a:	2309      	movs	r3, #9
2405329c:	2204      	movs	r2, #4
2405329e:	e9cd 230a 	strd	r2, r3, [sp, #40]	@ 0x28
240532a2:	2302      	movs	r3, #2
240532a4:	e9cd 330c 	strd	r3, r3, [sp, #48]	@ 0x30
240532a8:	f44f 6340 	mov.w	r3, #3072	@ 0xc00
240532ac:	e9cd 130e 	strd	r1, r3, [sp, #56]	@ 0x38
240532b0:	f44f 3380 	mov.w	r3, #65536	@ 0x10000
240532b4:	932b      	str	r3, [sp, #172]	@ 0xac
240532b6:	f44f 4300 	mov.w	r3, #32768	@ 0x8000
240532ba:	932e      	str	r3, [sp, #184]	@ 0xb8
240532bc:	f005 f932 	bl	24058524 <HAL_RCCEx_PeriphCLKConfig>
240532c0:	b108      	cbz	r0, 240532c6 <PeriphCommonClock_Config+0x46>
240532c2:	b672      	cpsid	i
240532c4:	e7fe      	b.n	240532c4 <PeriphCommonClock_Config+0x44>
240532c6:	b031      	add	sp, #196	@ 0xc4
240532c8:	f85d fb04 	ldr.w	pc, [sp], #4
240532cc:	a0080000 	.word	0xa0080000

240532d0 <main>:
240532d0:	e92d 4ff0 	stmdb	sp!, {r4, r5, r6, r7, r8, r9, sl, fp, lr}
240532d4:	b099      	sub	sp, #100	@ 0x64
240532d6:	4dcb      	ldr	r5, [pc, #812]	@ (24053604 <main+0x334>)
240532d8:	f000 ffd8 	bl	2405428c <HAL_Init>
240532dc:	2400      	movs	r4, #0
240532de:	f7ff ff6f 	bl	240531c0 <SystemClock_Config>
240532e2:	2601      	movs	r6, #1
240532e4:	f7ff ffcc 	bl	24053280 <PeriphCommonClock_Config>
240532e8:	2214      	movs	r2, #20
240532ea:	2100      	movs	r1, #0
240532ec:	a80b      	add	r0, sp, #44	@ 0x2c
240532ee:	f007 ff67 	bl	2405b1c0 <memset>
240532f2:	f8d5 3140 	ldr.w	r3, [r5, #320]	@ 0x140
240532f6:	2201      	movs	r2, #1
240532f8:	2108      	movs	r1, #8
240532fa:	f043 0310 	orr.w	r3, r3, #16
240532fe:	48c2      	ldr	r0, [pc, #776]	@ (24053608 <main+0x338>)
24053300:	f44f 1744 	mov.w	r7, #3211264	@ 0x310000
24053304:	f04f 0804 	mov.w	r8, #4
24053308:	f8c5 3140 	str.w	r3, [r5, #320]	@ 0x140
2405330c:	f44f 5980 	mov.w	r9, #4096	@ 0x1000
24053310:	f8d5 3140 	ldr.w	r3, [r5, #320]	@ 0x140
24053314:	f04f 0a07 	mov.w	sl, #7
24053318:	f8df b314 	ldr.w	fp, [pc, #788]	@ 24053630 <main+0x360>
2405331c:	f003 0310 	and.w	r3, r3, #16
24053320:	9303      	str	r3, [sp, #12]
24053322:	9b03      	ldr	r3, [sp, #12]
24053324:	f8d5 3140 	ldr.w	r3, [r5, #320]	@ 0x140
24053328:	f043 0304 	orr.w	r3, r3, #4
2405332c:	f8c5 3140 	str.w	r3, [r5, #320]	@ 0x140
24053330:	f8d5 3140 	ldr.w	r3, [r5, #320]	@ 0x140
24053334:	f003 0304 	and.w	r3, r3, #4
24053338:	9304      	str	r3, [sp, #16]
2405333a:	9b04      	ldr	r3, [sp, #16]
2405333c:	f8d5 3140 	ldr.w	r3, [r5, #320]	@ 0x140
24053340:	f043 0301 	orr.w	r3, r3, #1
24053344:	f8c5 3140 	str.w	r3, [r5, #320]	@ 0x140
24053348:	f8d5 3140 	ldr.w	r3, [r5, #320]	@ 0x140
2405334c:	f003 0301 	and.w	r3, r3, #1
24053350:	9305      	str	r3, [sp, #20]
24053352:	9b05      	ldr	r3, [sp, #20]
24053354:	f8d5 3140 	ldr.w	r3, [r5, #320]	@ 0x140
24053358:	f043 0302 	orr.w	r3, r3, #2
2405335c:	f8c5 3140 	str.w	r3, [r5, #320]	@ 0x140
24053360:	f8d5 3140 	ldr.w	r3, [r5, #320]	@ 0x140
24053364:	f003 0302 	and.w	r3, r3, #2
24053368:	9306      	str	r3, [sp, #24]
2405336a:	9b06      	ldr	r3, [sp, #24]
2405336c:	f8d5 3140 	ldr.w	r3, [r5, #320]	@ 0x140
24053370:	f043 0308 	orr.w	r3, r3, #8
24053374:	f8c5 3140 	str.w	r3, [r5, #320]	@ 0x140
24053378:	f8d5 3140 	ldr.w	r3, [r5, #320]	@ 0x140
2405337c:	f003 0308 	and.w	r3, r3, #8
24053380:	9307      	str	r3, [sp, #28]
24053382:	9b07      	ldr	r3, [sp, #28]
24053384:	f003 fb5c 	bl	24056a40 <HAL_GPIO_WritePin>
24053388:	2200      	movs	r2, #0
2405338a:	f44f 7180 	mov.w	r1, #256	@ 0x100
2405338e:	489e      	ldr	r0, [pc, #632]	@ (24053608 <main+0x338>)
24053390:	f003 fb56 	bl	24056a40 <HAL_GPIO_WritePin>
24053394:	2201      	movs	r2, #1
24053396:	f44f 5180 	mov.w	r1, #4096	@ 0x1000
2405339a:	489c      	ldr	r0, [pc, #624]	@ (2405360c <main+0x33c>)
2405339c:	f003 fb50 	bl	24056a40 <HAL_GPIO_WritePin>
240533a0:	2201      	movs	r2, #1
240533a2:	f44f 7180 	mov.w	r1, #256	@ 0x100
240533a6:	489a      	ldr	r0, [pc, #616]	@ (24053610 <main+0x340>)
240533a8:	f003 fb4a 	bl	24056a40 <HAL_GPIO_WritePin>
240533ac:	2200      	movs	r2, #0
240533ae:	2112      	movs	r1, #18
240533b0:	4897      	ldr	r0, [pc, #604]	@ (24053610 <main+0x340>)
240533b2:	f003 fb45 	bl	24056a40 <HAL_GPIO_WritePin>
240533b6:	f44f 7384 	mov.w	r3, #264	@ 0x108
240533ba:	a90b      	add	r1, sp, #44	@ 0x2c
240533bc:	4892      	ldr	r0, [pc, #584]	@ (24053608 <main+0x338>)
240533be:	e9cd 360b 	strd	r3, r6, [sp, #44]	@ 0x2c
240533c2:	e9cd 440d 	strd	r4, r4, [sp, #52]	@ 0x34
240533c6:	f003 fa4d 	bl	24056864 <HAL_GPIO_Init>
240533ca:	f242 0322 	movw	r3, #8226	@ 0x2022
240533ce:	a90b      	add	r1, sp, #44	@ 0x2c
240533d0:	4890      	ldr	r0, [pc, #576]	@ (24053614 <main+0x344>)
240533d2:	960d      	str	r6, [sp, #52]	@ 0x34
240533d4:	e9cd 340b 	strd	r3, r4, [sp, #44]	@ 0x2c
240533d8:	f003 fa44 	bl	24056864 <HAL_GPIO_Init>
240533dc:	a90b      	add	r1, sp, #44	@ 0x2c
240533de:	488e      	ldr	r0, [pc, #568]	@ (24053618 <main+0x348>)
240533e0:	940d      	str	r4, [sp, #52]	@ 0x34
240533e2:	e9cd 640b 	strd	r6, r4, [sp, #44]	@ 0x2c
240533e6:	f003 fa3d 	bl	24056864 <HAL_GPIO_Init>
240533ea:	a90b      	add	r1, sp, #44	@ 0x2c
240533ec:	488a      	ldr	r0, [pc, #552]	@ (24053618 <main+0x348>)
240533ee:	940d      	str	r4, [sp, #52]	@ 0x34
240533f0:	e9cd 870b 	strd	r8, r7, [sp, #44]	@ 0x2c
240533f4:	f003 fa36 	bl	24056864 <HAL_GPIO_Init>
240533f8:	2380      	movs	r3, #128	@ 0x80
240533fa:	a90b      	add	r1, sp, #44	@ 0x2c
240533fc:	4882      	ldr	r0, [pc, #520]	@ (24053608 <main+0x338>)
240533fe:	940d      	str	r4, [sp, #52]	@ 0x34
24053400:	e9cd 370b 	strd	r3, r7, [sp, #44]	@ 0x2c
24053404:	f003 fa2e 	bl	24056864 <HAL_GPIO_Init>
24053408:	a90b      	add	r1, sp, #44	@ 0x2c
2405340a:	4880      	ldr	r0, [pc, #512]	@ (2405360c <main+0x33c>)
2405340c:	27ff      	movs	r7, #255	@ 0xff
2405340e:	e9cd 960b 	strd	r9, r6, [sp, #44]	@ 0x2c
24053412:	e9cd 440d 	strd	r4, r4, [sp, #52]	@ 0x34
24053416:	f003 fa25 	bl	24056864 <HAL_GPIO_Init>
2405341a:	f44f 7389 	mov.w	r3, #274	@ 0x112
2405341e:	a90b      	add	r1, sp, #44	@ 0x2c
24053420:	487b      	ldr	r0, [pc, #492]	@ (24053610 <main+0x340>)
24053422:	e9cd 360b 	strd	r3, r6, [sp, #44]	@ 0x2c
24053426:	e9cd 440d 	strd	r4, r4, [sp, #52]	@ 0x34
2405342a:	f003 fa1b 	bl	24056864 <HAL_GPIO_Init>
2405342e:	f64c 2321 	movw	r3, #51745	@ 0xca21
24053432:	a90b      	add	r1, sp, #44	@ 0x2c
24053434:	4876      	ldr	r0, [pc, #472]	@ (24053610 <main+0x340>)
24053436:	960d      	str	r6, [sp, #52]	@ 0x34
24053438:	e9cd 340b 	strd	r3, r4, [sp, #44]	@ 0x2c
2405343c:	f003 fa12 	bl	24056864 <HAL_GPIO_Init>
24053440:	4622      	mov	r2, r4
24053442:	4621      	mov	r1, r4
24053444:	2008      	movs	r0, #8
24053446:	f001 fecd 	bl	240551e4 <HAL_NVIC_SetPriority>
2405344a:	2008      	movs	r0, #8
2405344c:	f001 fefc 	bl	24055248 <HAL_NVIC_EnableIRQ>
24053450:	4622      	mov	r2, r4
24053452:	4621      	mov	r1, r4
24053454:	2017      	movs	r0, #23
24053456:	f001 fec5 	bl	240551e4 <HAL_NVIC_SetPriority>
2405345a:	2017      	movs	r0, #23
2405345c:	f001 fef4 	bl	24055248 <HAL_NVIC_EnableIRQ>
24053460:	f8d5 3138 	ldr.w	r3, [r5, #312]	@ 0x138
24053464:	4622      	mov	r2, r4
24053466:	4621      	mov	r1, r4
24053468:	4333      	orrs	r3, r6
2405346a:	200b      	movs	r0, #11
2405346c:	f8c5 3138 	str.w	r3, [r5, #312]	@ 0x138
24053470:	f8d5 3138 	ldr.w	r3, [r5, #312]	@ 0x138
24053474:	4033      	ands	r3, r6
24053476:	9302      	str	r3, [sp, #8]
24053478:	9b02      	ldr	r3, [sp, #8]
2405347a:	f001 feb3 	bl	240551e4 <HAL_NVIC_SetPriority>
2405347e:	200b      	movs	r0, #11
24053480:	f001 fee2 	bl	24055248 <HAL_NVIC_EnableIRQ>
24053484:	2234      	movs	r2, #52	@ 0x34
24053486:	4621      	mov	r1, r4
24053488:	a80b      	add	r0, sp, #44	@ 0x2c
2405348a:	f007 fe99 	bl	2405b1c0 <memset>
2405348e:	4b63      	ldr	r3, [pc, #396]	@ (2405361c <main+0x34c>)
24053490:	f04f 5e80 	mov.w	lr, #268435456	@ 0x10000000
24053494:	f44f 72be 	mov.w	r2, #380	@ 0x17c
24053498:	4658      	mov	r0, fp
2405349a:	f8cb 6018 	str.w	r6, [fp, #24]
2405349e:	f8ab 4034 	strh.w	r4, [fp, #52]	@ 0x34
240534a2:	f88b 4036 	strb.w	r4, [fp, #54]	@ 0x36
240534a6:	e9cb 3400 	strd	r3, r4, [fp]
240534aa:	2309      	movs	r3, #9
240534ac:	e9cb e304 	strd	lr, r3, [fp, #16]
240534b0:	233c      	movs	r3, #60	@ 0x3c
240534b2:	e9cb 3a07 	strd	r3, sl, [fp, #28]
240534b6:	23f7      	movs	r3, #247	@ 0xf7
240534b8:	e9cb 2309 	strd	r2, r3, [fp, #36]	@ 0x24
240534bc:	f44f 73c4 	mov.w	r3, #392	@ 0x188
240534c0:	e9cb 4402 	strd	r4, r4, [fp, #8]
240534c4:	e9cb 370b 	strd	r3, r7, [fp, #44]	@ 0x2c
240534c8:	f003 fb52 	bl	24056b70 <HAL_LTDC_Init>
240534cc:	4602      	mov	r2, r0
240534ce:	b108      	cbz	r0, 240534d4 <main+0x204>
240534d0:	b672      	cpsid	i
240534d2:	e7fe      	b.n	240534d2 <main+0x202>
240534d4:	f44f 71a0 	mov.w	r1, #320	@ 0x140
240534d8:	f44f 6c80 	mov.w	ip, #1024	@ 0x400
240534dc:	900b      	str	r0, [sp, #44]	@ 0x2c
240534de:	23f0      	movs	r3, #240	@ 0xf0
240534e0:	2402      	movs	r4, #2
240534e2:	f88d 205e 	strb.w	r2, [sp, #94]	@ 0x5e
240534e6:	9316      	str	r3, [sp, #88]	@ 0x58
240534e8:	e9cd 100c 	strd	r1, r0, [sp, #48]	@ 0x30
240534ec:	2005      	movs	r0, #5
240534ee:	e9cd c012 	strd	ip, r0, [sp, #72]	@ 0x48
240534f2:	f04f 5010 	mov.w	r0, #603979776	@ 0x24000000
240534f6:	e9cd 340e 	strd	r3, r4, [sp, #56]	@ 0x38
240534fa:	f44f 437f 	mov.w	r3, #65280	@ 0xff00
240534fe:	e9cd 0114 	strd	r0, r1, [sp, #80]	@ 0x50
24053502:	a90b      	add	r1, sp, #44	@ 0x2c
24053504:	4658      	mov	r0, fp
24053506:	f8ad 305c 	strh.w	r3, [sp, #92]	@ 0x5c
2405350a:	e9cd 7710 	strd	r7, r7, [sp, #64]	@ 0x40
2405350e:	f003 fbfa 	bl	24056d06 <HAL_LTDC_ConfigLayer>
24053512:	4603      	mov	r3, r0
24053514:	b108      	cbz	r0, 2405351a <main+0x24a>
24053516:	b672      	cpsid	i
24053518:	e7fe      	b.n	24053518 <main+0x248>
2405351a:	4841      	ldr	r0, [pc, #260]	@ (24053620 <main+0x350>)
2405351c:	f44f 0280 	mov.w	r2, #4194304	@ 0x400000
24053520:	f8df c110 	ldr.w	ip, [pc, #272]	@ 24053634 <main+0x364>
24053524:	f04f 6e80 	mov.w	lr, #67108864	@ 0x4000000
24053528:	e9c0 c200 	strd	ip, r2, [r0]
2405352c:	f44f 3200 	mov.w	r2, #131072	@ 0x20000
24053530:	e9c0 2a02 	strd	r2, sl, [r0, #8]
24053534:	f04f 5240 	mov.w	r2, #805306368	@ 0x30000000
24053538:	e9c0 3304 	strd	r3, r3, [r0, #16]
2405353c:	e9c0 e206 	strd	lr, r2, [r0, #24]
24053540:	e9c0 3308 	strd	r3, r3, [r0, #32]
24053544:	e9c0 330a 	strd	r3, r3, [r0, #40]	@ 0x28
24053548:	e9c0 330d 	strd	r3, r3, [r0, #52]	@ 0x34
2405354c:	e9c0 330f 	strd	r3, r3, [r0, #60]	@ 0x3c
24053550:	e9c0 3311 	strd	r3, r3, [r0, #68]	@ 0x44
24053554:	e9c0 3313 	strd	r3, r3, [r0, #76]	@ 0x4c
24053558:	e9c0 3315 	strd	r3, r3, [r0, #84]	@ 0x54
2405355c:	f006 fe14 	bl	2405a188 <HAL_SPI_Init>
24053560:	4601      	mov	r1, r0
24053562:	b108      	cbz	r0, 24053568 <main+0x298>
24053564:	b672      	cpsid	i
24053566:	e7fe      	b.n	24053566 <main+0x296>
24053568:	f04f 0b18 	mov.w	fp, #24
2405356c:	9001      	str	r0, [sp, #4]
2405356e:	a80b      	add	r0, sp, #44	@ 0x2c
24053570:	f8df a0c4 	ldr.w	sl, [pc, #196]	@ 24053638 <main+0x368>
24053574:	465a      	mov	r2, fp
24053576:	f007 fe23 	bl	2405b1c0 <memset>
2405357a:	4b2a      	ldr	r3, [pc, #168]	@ (24053624 <main+0x354>)
2405357c:	9901      	ldr	r1, [sp, #4]
2405357e:	4650      	mov	r0, sl
24053580:	e9ca 3800 	strd	r3, r8, [sl]
24053584:	f04f 7380 	mov.w	r3, #16777216	@ 0x1000000
24053588:	f8ca 1008 	str.w	r1, [sl, #8]
2405358c:	f8ca 103c 	str.w	r1, [sl, #60]	@ 0x3c
24053590:	e9ca 3b03 	strd	r3, fp, [sl, #12]
24053594:	2308      	movs	r3, #8
24053596:	e9ca 4105 	strd	r4, r1, [sl, #20]
2405359a:	e9ca 1107 	strd	r1, r1, [sl, #28]
2405359e:	e9ca 6109 	strd	r6, r1, [sl, #36]	@ 0x24
240535a2:	e9ca 110b 	strd	r1, r1, [sl, #44]	@ 0x2c
240535a6:	e9ca 310d 	strd	r3, r1, [sl, #52]	@ 0x34
240535aa:	f003 fd2d 	bl	24057008 <HAL_OSPI_Init>
240535ae:	b108      	cbz	r0, 240535b4 <main+0x2e4>
240535b0:	b672      	cpsid	i
240535b2:	e7fe      	b.n	240535b2 <main+0x2e2>
240535b4:	f04f 1301 	mov.w	r3, #65537	@ 0x10001
240535b8:	f241 3288 	movw	r2, #5000	@ 0x1388
240535bc:	a90b      	add	r1, sp, #44	@ 0x2c
240535be:	4650      	mov	r0, sl
240535c0:	960b      	str	r6, [sp, #44]	@ 0x2c
240535c2:	960d      	str	r6, [sp, #52]	@ 0x34
240535c4:	930e      	str	r3, [sp, #56]	@ 0x38
240535c6:	f003 ff7d 	bl	240574c4 <HAL_OSPIM_Config>
240535ca:	4602      	mov	r2, r0
240535cc:	b108      	cbz	r0, 240535d2 <main+0x302>
240535ce:	b672      	cpsid	i
240535d0:	e7fe      	b.n	240535d0 <main+0x300>
240535d2:	4815      	ldr	r0, [pc, #84]	@ (24053628 <main+0x358>)
240535d4:	4611      	mov	r1, r2
240535d6:	4b15      	ldr	r3, [pc, #84]	@ (2405362c <main+0x35c>)
240535d8:	6082      	str	r2, [r0, #8]
240535da:	f8c0 801c 	str.w	r8, [r0, #28]
240535de:	60c2      	str	r2, [r0, #12]
240535e0:	6342      	str	r2, [r0, #52]	@ 0x34
240535e2:	e9c0 3200 	strd	r3, r2, [r0]
240535e6:	f64b 3380 	movw	r3, #48000	@ 0xbb80
240535ea:	6203      	str	r3, [r0, #32]
240535ec:	4623      	mov	r3, r4
240535ee:	e9c0 2205 	strd	r2, r2, [r0, #20]
240535f2:	e9c0 920b 	strd	r9, r2, [r0, #44]	@ 0x2c
240535f6:	f006 fb0b 	bl	24059c10 <HAL_SAI_InitProtocol>
240535fa:	4606      	mov	r6, r0
240535fc:	b1f0      	cbz	r0, 2405363c <main+0x36c>
240535fe:	b672      	cpsid	i
24053600:	e7fe      	b.n	24053600 <main+0x330>
24053602:	bf00      	nop
24053604:	58024400 	.word	0x58024400
24053608:	58021000 	.word	0x58021000
2405360c:	58020400 	.word	0x58020400
24053610:	58020c00 	.word	0x58020c00
24053614:	58020800 	.word	0x58020800
24053618:	58020000 	.word	0x58020000
2405361c:	50001000 	.word	0x50001000
24053620:	20000280 	.word	0x20000280
24053624:	52005000 	.word	0x52005000
24053628:	20000380 	.word	0x20000380
2405362c:	40015804 	.word	0x40015804
24053630:	2000049c 	.word	0x2000049c
24053634:	40003800 	.word	0x40003800
24053638:	20000440 	.word	0x20000440
2405363c:	4601      	mov	r1, r0
2405363e:	2214      	movs	r2, #20
24053640:	a80b      	add	r0, sp, #44	@ 0x2c
24053642:	4c98      	ldr	r4, [pc, #608]	@ (240538a4 <main+0x5d4>)
24053644:	f007 fdbc 	bl	2405b1c0 <memset>
24053648:	4b97      	ldr	r3, [pc, #604]	@ (240538a8 <main+0x5d8>)
2405364a:	6126      	str	r6, [r4, #16]
2405364c:	61a6      	str	r6, [r4, #24]
2405364e:	6166      	str	r6, [r4, #20]
24053650:	9608      	str	r6, [sp, #32]
24053652:	e9c4 3600 	strd	r3, r6, [r4]
24053656:	237f      	movs	r3, #127	@ 0x7f
24053658:	e9c4 3702 	strd	r3, r7, [r4, #8]
2405365c:	f04f 4380 	mov.w	r3, #1073741824	@ 0x40000000
24053660:	61e3      	str	r3, [r4, #28]
24053662:	6f2b      	ldr	r3, [r5, #112]	@ 0x70
24053664:	041d      	lsls	r5, r3, #16
24053666:	d510      	bpl.n	2405368a <main+0x3ba>
24053668:	f004 f99c 	bl	240579a4 <HAL_PWR_EnableBkUpAccess>
2405366c:	2224      	movs	r2, #36	@ 0x24
2405366e:	2100      	movs	r1, #0
24053670:	4c8e      	ldr	r4, [pc, #568]	@ (240538ac <main+0x5dc>)
24053672:	a80b      	add	r0, sp, #44	@ 0x2c
24053674:	f007 fda4 	bl	2405b1c0 <memset>
24053678:	4b8d      	ldr	r3, [pc, #564]	@ (240538b0 <main+0x5e0>)
2405367a:	4620      	mov	r0, r4
2405367c:	6023      	str	r3, [r4, #0]
2405367e:	f001 fe17 	bl	240552b0 <HAL_DAC_Init>
24053682:	4602      	mov	r2, r0
24053684:	b300      	cbz	r0, 240536c8 <main+0x3f8>
24053686:	b672      	cpsid	i
24053688:	e7fe      	b.n	24053688 <main+0x3b8>
2405368a:	4620      	mov	r0, r4
2405368c:	f005 ffde 	bl	2405964c <HAL_RTC_Init>
24053690:	4602      	mov	r2, r0
24053692:	b108      	cbz	r0, 24053698 <main+0x3c8>
24053694:	b672      	cpsid	i
24053696:	e7fe      	b.n	24053696 <main+0x3c6>
24053698:	f8ad 002c 	strh.w	r0, [sp, #44]	@ 0x2c
2405369c:	a90b      	add	r1, sp, #44	@ 0x2c
2405369e:	f88d 002e 	strb.w	r0, [sp, #46]	@ 0x2e
240536a2:	e9cd 000e 	strd	r0, r0, [sp, #56]	@ 0x38
240536a6:	4620      	mov	r0, r4
240536a8:	f006 f829 	bl	240596fe <HAL_RTC_SetTime>
240536ac:	4602      	mov	r2, r0
240536ae:	b108      	cbz	r0, 240536b4 <main+0x3e4>
240536b0:	b672      	cpsid	i
240536b2:	e7fe      	b.n	240536b2 <main+0x3e2>
240536b4:	4b7f      	ldr	r3, [pc, #508]	@ (240538b4 <main+0x5e4>)
240536b6:	a908      	add	r1, sp, #32
240536b8:	4620      	mov	r0, r4
240536ba:	9308      	str	r3, [sp, #32]
240536bc:	f006 f881 	bl	240597c2 <HAL_RTC_SetDate>
240536c0:	2800      	cmp	r0, #0
240536c2:	d0d3      	beq.n	2405366c <main+0x39c>
240536c4:	b672      	cpsid	i
240536c6:	e7fe      	b.n	240536c6 <main+0x3f6>
240536c8:	2601      	movs	r6, #1
240536ca:	900d      	str	r0, [sp, #52]	@ 0x34
240536cc:	a90b      	add	r1, sp, #44	@ 0x2c
240536ce:	e9cd 000b 	strd	r0, r0, [sp, #44]	@ 0x2c
240536d2:	e9cd 600e 	strd	r6, r0, [sp, #56]	@ 0x38
240536d6:	4620      	mov	r0, r4
240536d8:	f001 fe3e 	bl	24055358 <HAL_DAC_ConfigChannel>
240536dc:	b108      	cbz	r0, 240536e2 <main+0x412>
240536de:	b672      	cpsid	i
240536e0:	e7fe      	b.n	240536e0 <main+0x410>
240536e2:	a90b      	add	r1, sp, #44	@ 0x2c
240536e4:	2210      	movs	r2, #16
240536e6:	4620      	mov	r0, r4
240536e8:	f001 fe36 	bl	24055358 <HAL_DAC_ConfigChannel>
240536ec:	4601      	mov	r1, r0
240536ee:	b108      	cbz	r0, 240536f4 <main+0x424>
240536f0:	b672      	cpsid	i
240536f2:	e7fe      	b.n	240536f2 <main+0x422>
240536f4:	2224      	movs	r2, #36	@ 0x24
240536f6:	4c70      	ldr	r4, [pc, #448]	@ (240538b8 <main+0x5e8>)
240536f8:	a80b      	add	r0, sp, #44	@ 0x2c
240536fa:	f007 fd61 	bl	2405b1c0 <memset>
240536fe:	4b6f      	ldr	r3, [pc, #444]	@ (240538bc <main+0x5ec>)
24053700:	4620      	mov	r0, r4
24053702:	6023      	str	r3, [r4, #0]
24053704:	f001 fdd4 	bl	240552b0 <HAL_DAC_Init>
24053708:	4602      	mov	r2, r0
2405370a:	b108      	cbz	r0, 24053710 <main+0x440>
2405370c:	b672      	cpsid	i
2405370e:	e7fe      	b.n	2405370e <main+0x43e>
24053710:	e9cd 000b 	strd	r0, r0, [sp, #44]	@ 0x2c
24053714:	e9cd 060d 	strd	r0, r6, [sp, #52]	@ 0x34
24053718:	900f      	str	r0, [sp, #60]	@ 0x3c
2405371a:	a90b      	add	r1, sp, #44	@ 0x2c
2405371c:	4620      	mov	r0, r4
2405371e:	f001 fe1b 	bl	24055358 <HAL_DAC_ConfigChannel>
24053722:	4604      	mov	r4, r0
24053724:	b108      	cbz	r0, 2405372a <main+0x45a>
24053726:	b672      	cpsid	i
24053728:	e7fe      	b.n	24053728 <main+0x458>
2405372a:	4d65      	ldr	r5, [pc, #404]	@ (240538c0 <main+0x5f0>)
2405372c:	4601      	mov	r1, r0
2405372e:	900a      	str	r0, [sp, #40]	@ 0x28
24053730:	221c      	movs	r2, #28
24053732:	2704      	movs	r7, #4
24053734:	e9cd 0008 	strd	r0, r0, [sp, #32]
24053738:	a80b      	add	r0, sp, #44	@ 0x2c
2405373a:	f007 fd41 	bl	2405b1c0 <memset>
2405373e:	4b61      	ldr	r3, [pc, #388]	@ (240538c4 <main+0x5f4>)
24053740:	4628      	mov	r0, r5
24053742:	612f      	str	r7, [r5, #16]
24053744:	82ac      	strh	r4, [r5, #20]
24053746:	61ae      	str	r6, [r5, #24]
24053748:	772c      	strb	r4, [r5, #28]
2405374a:	636c      	str	r4, [r5, #52]	@ 0x34
2405374c:	f885 4038 	strb.w	r4, [r5, #56]	@ 0x38
24053750:	e9c5 3400 	strd	r3, r4, [r5]
24053754:	e9c5 4402 	strd	r4, r4, [r5, #8]
24053758:	e9c5 4409 	strd	r4, r4, [r5, #36]	@ 0x24
2405375c:	e9c5 440b 	strd	r4, r4, [r5, #44]	@ 0x2c
24053760:	f001 fbda 	bl	24054f18 <HAL_ADC_Init>
24053764:	b108      	cbz	r0, 2405376a <main+0x49a>
24053766:	b672      	cpsid	i
24053768:	e7fe      	b.n	24053768 <main+0x498>
2405376a:	9008      	str	r0, [sp, #32]
2405376c:	a908      	add	r1, sp, #32
2405376e:	4628      	mov	r0, r5
24053770:	f001 fcc0 	bl	240550f4 <HAL_ADCEx_MultiModeConfigChannel>
24053774:	b108      	cbz	r0, 2405377a <main+0x4aa>
24053776:	b672      	cpsid	i
24053778:	e7fe      	b.n	24053778 <main+0x4a8>
2405377a:	4c53      	ldr	r4, [pc, #332]	@ (240538c8 <main+0x5f8>)
2405377c:	2306      	movs	r3, #6
2405377e:	900d      	str	r0, [sp, #52]	@ 0x34
24053780:	a90b      	add	r1, sp, #44	@ 0x2c
24053782:	9010      	str	r0, [sp, #64]	@ 0x40
24053784:	f88d 0045 	strb.w	r0, [sp, #69]	@ 0x45
24053788:	4628      	mov	r0, r5
2405378a:	e9cd 430b 	strd	r4, r3, [sp, #44]	@ 0x2c
2405378e:	f240 73ff 	movw	r3, #2047	@ 0x7ff
24053792:	e9cd 370e 	strd	r3, r7, [sp, #56]	@ 0x38
24053796:	f000 ff7d 	bl	24054694 <HAL_ADC_ConfigChannel>
2405379a:	4604      	mov	r4, r0
2405379c:	b108      	cbz	r0, 240537a2 <main+0x4d2>
2405379e:	b672      	cpsid	i
240537a0:	e7fe      	b.n	240537a0 <main+0x4d0>
240537a2:	4601      	mov	r1, r0
240537a4:	2210      	movs	r2, #16
240537a6:	a80b      	add	r0, sp, #44	@ 0x2c
240537a8:	4d48      	ldr	r5, [pc, #288]	@ (240538cc <main+0x5fc>)
240537aa:	f007 fd09 	bl	2405b1c0 <memset>
240537ae:	4848      	ldr	r0, [pc, #288]	@ (240538d0 <main+0x600>)
240537b0:	f243 63b0 	movw	r3, #14000	@ 0x36b0
240537b4:	940a      	str	r4, [sp, #40]	@ 0x28
240537b6:	60ac      	str	r4, [r5, #8]
240537b8:	e9c5 0300 	strd	r0, r3, [r5]
240537bc:	f24c 3350 	movw	r3, #50000	@ 0xc350
240537c0:	4628      	mov	r0, r5
240537c2:	e9cd 4408 	strd	r4, r4, [sp, #32]
240537c6:	e9c5 3403 	strd	r3, r4, [r5, #12]
240537ca:	e9c5 4405 	strd	r4, r4, [r5, #20]
240537ce:	f006 ffe9 	bl	2405a7a4 <HAL_TIM_Base_Init>
240537d2:	b108      	cbz	r0, 240537d8 <main+0x508>
240537d4:	b672      	cpsid	i
240537d6:	e7fe      	b.n	240537d6 <main+0x506>
240537d8:	f44f 5380 	mov.w	r3, #4096	@ 0x1000
240537dc:	a90b      	add	r1, sp, #44	@ 0x2c
240537de:	4628      	mov	r0, r5
240537e0:	930b      	str	r3, [sp, #44]	@ 0x2c
240537e2:	f007 f819 	bl	2405a818 <HAL_TIM_ConfigClockSource>
240537e6:	b108      	cbz	r0, 240537ec <main+0x51c>
240537e8:	b672      	cpsid	i
240537ea:	e7fe      	b.n	240537ea <main+0x51a>
240537ec:	2300      	movs	r3, #0
240537ee:	a908      	add	r1, sp, #32
240537f0:	4836      	ldr	r0, [pc, #216]	@ (240538cc <main+0x5fc>)
240537f2:	930a      	str	r3, [sp, #40]	@ 0x28
240537f4:	e9cd 3308 	strd	r3, r3, [sp, #32]
240537f8:	f007 f8c8 	bl	2405a98c <HAL_TIMEx_MasterConfigSynchronization>
240537fc:	4603      	mov	r3, r0
240537fe:	b108      	cbz	r0, 24053804 <main+0x534>
24053800:	b672      	cpsid	i
24053802:	e7fe      	b.n	24053802 <main+0x532>
24053804:	4833      	ldr	r0, [pc, #204]	@ (240538d4 <main+0x604>)
24053806:	f44f 3240 	mov.w	r2, #196608	@ 0x30000
2405380a:	4933      	ldr	r1, [pc, #204]	@ (240538d8 <main+0x608>)
2405380c:	e9c0 1200 	strd	r1, r2, [r0]
24053810:	2202      	movs	r2, #2
24053812:	e9c0 2302 	strd	r2, r3, [r0, #8]
24053816:	f002 ffe7 	bl	240567e8 <HAL_DMA2D_Init>
2405381a:	4604      	mov	r4, r0
2405381c:	b108      	cbz	r0, 24053822 <main+0x552>
2405381e:	b672      	cpsid	i
24053820:	e7fe      	b.n	24053820 <main+0x550>
24053822:	4602      	mov	r2, r0
24053824:	4601      	mov	r1, r0
24053826:	205c      	movs	r0, #92	@ 0x5c
24053828:	f001 fcdc 	bl	240551e4 <HAL_NVIC_SetPriority>
2405382c:	205c      	movs	r0, #92	@ 0x5c
2405382e:	f001 fd0b 	bl	24055248 <HAL_NVIC_EnableIRQ>
24053832:	492a      	ldr	r1, [pc, #168]	@ (240538dc <main+0x60c>)
24053834:	482a      	ldr	r0, [pc, #168]	@ (240538e0 <main+0x610>)
24053836:	f7fe fd4d 	bl	240522d4 <lcd_init>
2405383a:	20b2      	movs	r0, #178	@ 0xb2
2405383c:	f7fe fd22 	bl	24052284 <lcd_backlight_set>
24053840:	4828      	ldr	r0, [pc, #160]	@ (240538e4 <main+0x614>)
24053842:	f7fe fcab 	bl	2405219c <OSPI_Init>
24053846:	f04f 4310 	mov.w	r3, #2415919104	@ 0x90000000
2405384a:	681b      	ldr	r3, [r3, #0]
2405384c:	f1b3 3f88 	cmp.w	r3, #2290649224	@ 0x88888888
24053850:	d101      	bne.n	24053856 <main+0x586>
24053852:	b672      	cpsid	i
24053854:	e7fe      	b.n	24053854 <main+0x584>
24053856:	f7fe f941 	bl	24051adc <bq24072_init>
2405385a:	f7fd ff31 	bl	240516c0 <gw_audio_init>
2405385e:	2214      	movs	r2, #20
24053860:	4621      	mov	r1, r4
24053862:	a80b      	add	r0, sp, #44	@ 0x2c
24053864:	f007 fcac 	bl	2405b1c0 <memset>
24053868:	4622      	mov	r2, r4
2405386a:	a90b      	add	r1, sp, #44	@ 0x2c
2405386c:	480d      	ldr	r0, [pc, #52]	@ (240538a4 <main+0x5d4>)
2405386e:	9408      	str	r4, [sp, #32]
24053870:	f005 fffb 	bl	2405986a <HAL_RTC_GetTime>
24053874:	4622      	mov	r2, r4
24053876:	a908      	add	r1, sp, #32
24053878:	480a      	ldr	r0, [pc, #40]	@ (240538a4 <main+0x5d4>)
2405387a:	f006 f819 	bl	240598b0 <HAL_RTC_GetDate>
2405387e:	4810      	ldr	r0, [pc, #64]	@ (240538c0 <main+0x5f0>)
24053880:	f001 f962 	bl	24054b48 <HAL_ADC_Start>
24053884:	f04f 31ff 	mov.w	r1, #4294967295
24053888:	480d      	ldr	r0, [pc, #52]	@ (240538c0 <main+0x5f0>)
2405388a:	f000 fd69 	bl	24054360 <HAL_ADC_PollForConversion>
2405388e:	480c      	ldr	r0, [pc, #48]	@ (240538c0 <main+0x5f0>)
24053890:	f000 fdd8 	bl	24054444 <HAL_ADC_GetValue>
24053894:	9b0c      	ldr	r3, [sp, #48]	@ 0x30
24053896:	4058      	eors	r0, r3
24053898:	f007 f9a2 	bl	2405abe0 <srand>
2405389c:	f7ff f9a8 	bl	24052bf0 <main_menu_init>
240538a0:	e7fc      	b.n	2405389c <main+0x5cc>
240538a2:	bf00      	nop
240538a4:	20000418 	.word	0x20000418
240538a8:	58004000 	.word	0x58004000
240538ac:	200005c0 	.word	0x200005c0
240538b0:	40007400 	.word	0x40007400
240538b4:	00010101 	.word	0x00010101
240538b8:	200005ac 	.word	0x200005ac
240538bc:	58003400 	.word	0x58003400
240538c0:	200005d4 	.word	0x200005d4
240538c4:	40022000 	.word	0x40022000
240538c8:	10c00010 	.word	0x10c00010
240538cc:	20000234 	.word	0x20000234
240538d0:	40010000 	.word	0x40010000
240538d4:	20000544 	.word	0x20000544
240538d8:	52001000 	.word	0x52001000
240538dc:	2000049c 	.word	0x2000049c
240538e0:	20000280 	.word	0x20000280
240538e4:	20000440 	.word	0x20000440

240538e8 <Error_Handler>:
240538e8:	b672      	cpsid	i
240538ea:	e7fe      	b.n	240538ea <Error_Handler+0x2>

240538ec <HAL_MspInit>:
240538ec:	4b07      	ldr	r3, [pc, #28]	@ (2405390c <HAL_MspInit+0x20>)
240538ee:	b082      	sub	sp, #8
240538f0:	f8d3 2154 	ldr.w	r2, [r3, #340]	@ 0x154
240538f4:	f042 0202 	orr.w	r2, r2, #2
240538f8:	f8c3 2154 	str.w	r2, [r3, #340]	@ 0x154
240538fc:	f8d3 3154 	ldr.w	r3, [r3, #340]	@ 0x154
24053900:	f003 0302 	and.w	r3, r3, #2
24053904:	9301      	str	r3, [sp, #4]
24053906:	9b01      	ldr	r3, [sp, #4]
24053908:	b002      	add	sp, #8
2405390a:	4770      	bx	lr
2405390c:	58024400 	.word	0x58024400

24053910 <HAL_ADC_MspInit>:
24053910:	b510      	push	{r4, lr}
24053912:	b088      	sub	sp, #32
24053914:	4604      	mov	r4, r0
24053916:	2214      	movs	r2, #20
24053918:	2100      	movs	r1, #0
2405391a:	a803      	add	r0, sp, #12
2405391c:	f007 fc50 	bl	2405b1c0 <memset>
24053920:	6822      	ldr	r2, [r4, #0]
24053922:	4b17      	ldr	r3, [pc, #92]	@ (24053980 <HAL_ADC_MspInit+0x70>)
24053924:	429a      	cmp	r2, r3
24053926:	d128      	bne.n	2405397a <HAL_ADC_MspInit+0x6a>
24053928:	4b16      	ldr	r3, [pc, #88]	@ (24053984 <HAL_ADC_MspInit+0x74>)
2405392a:	a903      	add	r1, sp, #12
2405392c:	4816      	ldr	r0, [pc, #88]	@ (24053988 <HAL_ADC_MspInit+0x78>)
2405392e:	f8d3 2138 	ldr.w	r2, [r3, #312]	@ 0x138
24053932:	f042 0220 	orr.w	r2, r2, #32
24053936:	f8c3 2138 	str.w	r2, [r3, #312]	@ 0x138
2405393a:	f8d3 2138 	ldr.w	r2, [r3, #312]	@ 0x138
2405393e:	f002 0220 	and.w	r2, r2, #32
24053942:	9201      	str	r2, [sp, #4]
24053944:	9a01      	ldr	r2, [sp, #4]
24053946:	f8d3 2140 	ldr.w	r2, [r3, #320]	@ 0x140
2405394a:	f042 0204 	orr.w	r2, r2, #4
2405394e:	f8c3 2140 	str.w	r2, [r3, #320]	@ 0x140
24053952:	2210      	movs	r2, #16
24053954:	f8d3 3140 	ldr.w	r3, [r3, #320]	@ 0x140
24053958:	f003 0304 	and.w	r3, r3, #4
2405395c:	9302      	str	r3, [sp, #8]
2405395e:	9b02      	ldr	r3, [sp, #8]
24053960:	2303      	movs	r3, #3
24053962:	e9cd 2303 	strd	r2, r3, [sp, #12]
24053966:	f002 ff7d 	bl	24056864 <HAL_GPIO_Init>
2405396a:	2200      	movs	r2, #0
2405396c:	2012      	movs	r0, #18
2405396e:	4611      	mov	r1, r2
24053970:	f001 fc38 	bl	240551e4 <HAL_NVIC_SetPriority>
24053974:	2012      	movs	r0, #18
24053976:	f001 fc67 	bl	24055248 <HAL_NVIC_EnableIRQ>
2405397a:	b008      	add	sp, #32
2405397c:	bd10      	pop	{r4, pc}
2405397e:	bf00      	nop
24053980:	40022000 	.word	0x40022000
24053984:	58024400 	.word	0x58024400
24053988:	58020800 	.word	0x58020800

2405398c <HAL_DAC_MspInit>:
2405398c:	2214      	movs	r2, #20
2405398e:	2100      	movs	r1, #0
24053990:	b510      	push	{r4, lr}
24053992:	b08a      	sub	sp, #40	@ 0x28
24053994:	4604      	mov	r4, r0
24053996:	eb0d 0002 	add.w	r0, sp, r2
2405399a:	f007 fc11 	bl	2405b1c0 <memset>
2405399e:	6823      	ldr	r3, [r4, #0]
240539a0:	4a21      	ldr	r2, [pc, #132]	@ (24053a28 <HAL_DAC_MspInit+0x9c>)
240539a2:	4293      	cmp	r3, r2
240539a4:	d122      	bne.n	240539ec <HAL_DAC_MspInit+0x60>
240539a6:	4b21      	ldr	r3, [pc, #132]	@ (24053a2c <HAL_DAC_MspInit+0xa0>)
240539a8:	f8d3 2148 	ldr.w	r2, [r3, #328]	@ 0x148
240539ac:	f042 5200 	orr.w	r2, r2, #536870912	@ 0x20000000
240539b0:	f8c3 2148 	str.w	r2, [r3, #328]	@ 0x148
240539b4:	f8d3 2148 	ldr.w	r2, [r3, #328]	@ 0x148
240539b8:	f002 5200 	and.w	r2, r2, #536870912	@ 0x20000000
240539bc:	9201      	str	r2, [sp, #4]
240539be:	9a01      	ldr	r2, [sp, #4]
240539c0:	f8d3 2140 	ldr.w	r2, [r3, #320]	@ 0x140
240539c4:	f042 0201 	orr.w	r2, r2, #1
240539c8:	f8c3 2140 	str.w	r2, [r3, #320]	@ 0x140
240539cc:	f8d3 3140 	ldr.w	r3, [r3, #320]	@ 0x140
240539d0:	f003 0301 	and.w	r3, r3, #1
240539d4:	9302      	str	r3, [sp, #8]
240539d6:	9b02      	ldr	r3, [sp, #8]
240539d8:	2330      	movs	r3, #48	@ 0x30
240539da:	9305      	str	r3, [sp, #20]
240539dc:	2303      	movs	r3, #3
240539de:	a905      	add	r1, sp, #20
240539e0:	4813      	ldr	r0, [pc, #76]	@ (24053a30 <HAL_DAC_MspInit+0xa4>)
240539e2:	9306      	str	r3, [sp, #24]
240539e4:	f002 ff3e 	bl	24056864 <HAL_GPIO_Init>
240539e8:	b00a      	add	sp, #40	@ 0x28
240539ea:	bd10      	pop	{r4, pc}
240539ec:	4a11      	ldr	r2, [pc, #68]	@ (24053a34 <HAL_DAC_MspInit+0xa8>)
240539ee:	4293      	cmp	r3, r2
240539f0:	d1fa      	bne.n	240539e8 <HAL_DAC_MspInit+0x5c>
240539f2:	4b0e      	ldr	r3, [pc, #56]	@ (24053a2c <HAL_DAC_MspInit+0xa0>)
240539f4:	f8d3 2154 	ldr.w	r2, [r3, #340]	@ 0x154
240539f8:	f442 5200 	orr.w	r2, r2, #8192	@ 0x2000
240539fc:	f8c3 2154 	str.w	r2, [r3, #340]	@ 0x154
24053a00:	f8d3 2154 	ldr.w	r2, [r3, #340]	@ 0x154
24053a04:	f402 5200 	and.w	r2, r2, #8192	@ 0x2000
24053a08:	9203      	str	r2, [sp, #12]
24053a0a:	9a03      	ldr	r2, [sp, #12]
24053a0c:	f8d3 2140 	ldr.w	r2, [r3, #320]	@ 0x140
24053a10:	f042 0201 	orr.w	r2, r2, #1
24053a14:	f8c3 2140 	str.w	r2, [r3, #320]	@ 0x140
24053a18:	f8d3 3140 	ldr.w	r3, [r3, #320]	@ 0x140
24053a1c:	f003 0301 	and.w	r3, r3, #1
24053a20:	9304      	str	r3, [sp, #16]
24053a22:	9b04      	ldr	r3, [sp, #16]
24053a24:	2340      	movs	r3, #64	@ 0x40
24053a26:	e7d8      	b.n	240539da <HAL_DAC_MspInit+0x4e>
24053a28:	40007400 	.word	0x40007400
24053a2c:	58024400 	.word	0x58024400
24053a30:	58020000 	.word	0x58020000
24053a34:	58003400 	.word	0x58003400

24053a38 <HAL_DMA2D_MspInit>:
24053a38:	6802      	ldr	r2, [r0, #0]
24053a3a:	b082      	sub	sp, #8
24053a3c:	4b08      	ldr	r3, [pc, #32]	@ (24053a60 <HAL_DMA2D_MspInit+0x28>)
24053a3e:	429a      	cmp	r2, r3
24053a40:	d10c      	bne.n	24053a5c <HAL_DMA2D_MspInit+0x24>
24053a42:	4b08      	ldr	r3, [pc, #32]	@ (24053a64 <HAL_DMA2D_MspInit+0x2c>)
24053a44:	f8d3 2134 	ldr.w	r2, [r3, #308]	@ 0x134
24053a48:	f042 0210 	orr.w	r2, r2, #16
24053a4c:	f8c3 2134 	str.w	r2, [r3, #308]	@ 0x134
24053a50:	f8d3 3134 	ldr.w	r3, [r3, #308]	@ 0x134
24053a54:	f003 0310 	and.w	r3, r3, #16
24053a58:	9301      	str	r3, [sp, #4]
24053a5a:	9b01      	ldr	r3, [sp, #4]
24053a5c:	b002      	add	sp, #8
24053a5e:	4770      	bx	lr
24053a60:	52001000 	.word	0x52001000
24053a64:	58024400 	.word	0x58024400

24053a68 <HAL_LTDC_MspInit>:
24053a68:	e92d 41f0 	stmdb	sp!, {r4, r5, r6, r7, r8, lr}
24053a6c:	b08c      	sub	sp, #48	@ 0x30
24053a6e:	4604      	mov	r4, r0
24053a70:	2214      	movs	r2, #20
24053a72:	2100      	movs	r1, #0
24053a74:	a807      	add	r0, sp, #28
24053a76:	f007 fba3 	bl	2405b1c0 <memset>
24053a7a:	6822      	ldr	r2, [r4, #0]
24053a7c:	4b6a      	ldr	r3, [pc, #424]	@ (24053c28 <HAL_LTDC_MspInit+0x1c0>)
24053a7e:	429a      	cmp	r2, r3
24053a80:	f040 80ce 	bne.w	24053c20 <HAL_LTDC_MspInit+0x1b8>
24053a84:	4b69      	ldr	r3, [pc, #420]	@ (24053c2c <HAL_LTDC_MspInit+0x1c4>)
24053a86:	2502      	movs	r5, #2
24053a88:	f04f 0801 	mov.w	r8, #1
24053a8c:	270b      	movs	r7, #11
24053a8e:	f8d3 2144 	ldr.w	r2, [r3, #324]	@ 0x144
24053a92:	a907      	add	r1, sp, #28
24053a94:	4866      	ldr	r0, [pc, #408]	@ (24053c30 <HAL_LTDC_MspInit+0x1c8>)
24053a96:	2400      	movs	r4, #0
24053a98:	f042 0208 	orr.w	r2, r2, #8
24053a9c:	260e      	movs	r6, #14
24053a9e:	f8c3 2144 	str.w	r2, [r3, #324]	@ 0x144
24053aa2:	f8d3 2144 	ldr.w	r2, [r3, #324]	@ 0x144
24053aa6:	f002 0208 	and.w	r2, r2, #8
24053aaa:	9201      	str	r2, [sp, #4]
24053aac:	9a01      	ldr	r2, [sp, #4]
24053aae:	f8d3 2140 	ldr.w	r2, [r3, #320]	@ 0x140
24053ab2:	f042 0204 	orr.w	r2, r2, #4
24053ab6:	f8c3 2140 	str.w	r2, [r3, #320]	@ 0x140
24053aba:	f8d3 2140 	ldr.w	r2, [r3, #320]	@ 0x140
24053abe:	f002 0204 	and.w	r2, r2, #4
24053ac2:	9202      	str	r2, [sp, #8]
24053ac4:	9a02      	ldr	r2, [sp, #8]
24053ac6:	f8d3 2140 	ldr.w	r2, [r3, #320]	@ 0x140
24053aca:	f042 0201 	orr.w	r2, r2, #1
24053ace:	f8c3 2140 	str.w	r2, [r3, #320]	@ 0x140
24053ad2:	f8d3 2140 	ldr.w	r2, [r3, #320]	@ 0x140
24053ad6:	f002 0201 	and.w	r2, r2, #1
24053ada:	9203      	str	r2, [sp, #12]
24053adc:	9a03      	ldr	r2, [sp, #12]
24053ade:	f8d3 2140 	ldr.w	r2, [r3, #320]	@ 0x140
24053ae2:	f042 0202 	orr.w	r2, r2, #2
24053ae6:	f8c3 2140 	str.w	r2, [r3, #320]	@ 0x140
24053aea:	f8d3 2140 	ldr.w	r2, [r3, #320]	@ 0x140
24053aee:	f002 0202 	and.w	r2, r2, #2
24053af2:	9204      	str	r2, [sp, #16]
24053af4:	9a04      	ldr	r2, [sp, #16]
24053af6:	f8d3 2140 	ldr.w	r2, [r3, #320]	@ 0x140
24053afa:	f042 0210 	orr.w	r2, r2, #16
24053afe:	f8c3 2140 	str.w	r2, [r3, #320]	@ 0x140
24053b02:	f8d3 2140 	ldr.w	r2, [r3, #320]	@ 0x140
24053b06:	f002 0210 	and.w	r2, r2, #16
24053b0a:	9205      	str	r2, [sp, #20]
24053b0c:	9a05      	ldr	r2, [sp, #20]
24053b0e:	f8d3 2140 	ldr.w	r2, [r3, #320]	@ 0x140
24053b12:	f042 0208 	orr.w	r2, r2, #8
24053b16:	f8c3 2140 	str.w	r2, [r3, #320]	@ 0x140
24053b1a:	f8d3 3140 	ldr.w	r3, [r3, #320]	@ 0x140
24053b1e:	f003 0308 	and.w	r3, r3, #8
24053b22:	9306      	str	r3, [sp, #24]
24053b24:	9b06      	ldr	r3, [sp, #24]
24053b26:	e9cd 8507 	strd	r8, r5, [sp, #28]
24053b2a:	970b      	str	r7, [sp, #44]	@ 0x2c
24053b2c:	f002 fe9a 	bl	24056864 <HAL_GPIO_Init>
24053b30:	f44f 6338 	mov.w	r3, #2944	@ 0xb80
24053b34:	a907      	add	r1, sp, #28
24053b36:	483f      	ldr	r0, [pc, #252]	@ (24053c34 <HAL_LTDC_MspInit+0x1cc>)
24053b38:	960b      	str	r6, [sp, #44]	@ 0x2c
24053b3a:	e9cd 3507 	strd	r3, r5, [sp, #28]
24053b3e:	e9cd 4409 	strd	r4, r4, [sp, #36]	@ 0x24
24053b42:	f002 fe8f 	bl	24056864 <HAL_GPIO_Init>
24053b46:	a907      	add	r1, sp, #28
24053b48:	483b      	ldr	r0, [pc, #236]	@ (24053c38 <HAL_LTDC_MspInit+0x1d0>)
24053b4a:	e9cd 8507 	strd	r8, r5, [sp, #28]
24053b4e:	f04f 0809 	mov.w	r8, #9
24053b52:	e9cd 4409 	strd	r4, r4, [sp, #36]	@ 0x24
24053b56:	f8cd 802c 	str.w	r8, [sp, #44]	@ 0x2c
24053b5a:	f002 fe83 	bl	24056864 <HAL_GPIO_Init>
24053b5e:	f44f 4320 	mov.w	r3, #40960	@ 0xa000
24053b62:	a907      	add	r1, sp, #28
24053b64:	4835      	ldr	r0, [pc, #212]	@ (24053c3c <HAL_LTDC_MspInit+0x1d4>)
24053b66:	960b      	str	r6, [sp, #44]	@ 0x2c
24053b68:	e9cd 3507 	strd	r3, r5, [sp, #28]
24053b6c:	e9cd 4409 	strd	r4, r4, [sp, #36]	@ 0x24
24053b70:	f002 fe78 	bl	24056864 <HAL_GPIO_Init>
24053b74:	f44f 439a 	mov.w	r3, #19712	@ 0x4d00
24053b78:	a907      	add	r1, sp, #28
24053b7a:	482f      	ldr	r0, [pc, #188]	@ (24053c38 <HAL_LTDC_MspInit+0x1d0>)
24053b7c:	960b      	str	r6, [sp, #44]	@ 0x2c
24053b7e:	e9cd 3507 	strd	r3, r5, [sp, #28]
24053b82:	e9cd 4409 	strd	r4, r4, [sp, #36]	@ 0x24
24053b86:	f002 fe6d 	bl	24056864 <HAL_GPIO_Init>
24053b8a:	f44f 6389 	mov.w	r3, #1096	@ 0x448
24053b8e:	a907      	add	r1, sp, #28
24053b90:	482b      	ldr	r0, [pc, #172]	@ (24053c40 <HAL_LTDC_MspInit+0x1d8>)
24053b92:	960b      	str	r6, [sp, #44]	@ 0x2c
24053b94:	e9cd 3507 	strd	r3, r5, [sp, #28]
24053b98:	e9cd 4409 	strd	r4, r4, [sp, #36]	@ 0x24
24053b9c:	f002 fe62 	bl	24056864 <HAL_GPIO_Init>
24053ba0:	f44f 6398 	mov.w	r3, #1216	@ 0x4c0
24053ba4:	a907      	add	r1, sp, #28
24053ba6:	4822      	ldr	r0, [pc, #136]	@ (24053c30 <HAL_LTDC_MspInit+0x1c8>)
24053ba8:	960b      	str	r6, [sp, #44]	@ 0x2c
24053baa:	e9cd 3507 	strd	r3, r5, [sp, #28]
24053bae:	e9cd 4409 	strd	r4, r4, [sp, #36]	@ 0x24
24053bb2:	f002 fe57 	bl	24056864 <HAL_GPIO_Init>
24053bb6:	f44f 7300 	mov.w	r3, #512	@ 0x200
24053bba:	a907      	add	r1, sp, #28
24053bbc:	481c      	ldr	r0, [pc, #112]	@ (24053c30 <HAL_LTDC_MspInit+0x1c8>)
24053bbe:	e9cd 3507 	strd	r3, r5, [sp, #28]
24053bc2:	230a      	movs	r3, #10
24053bc4:	e9cd 4409 	strd	r4, r4, [sp, #36]	@ 0x24
24053bc8:	930b      	str	r3, [sp, #44]	@ 0x2c
24053bca:	f002 fe4b 	bl	24056864 <HAL_GPIO_Init>
24053bce:	f44f 6380 	mov.w	r3, #1024	@ 0x400
24053bd2:	a907      	add	r1, sp, #28
24053bd4:	4817      	ldr	r0, [pc, #92]	@ (24053c34 <HAL_LTDC_MspInit+0x1cc>)
24053bd6:	e9cd 3507 	strd	r3, r5, [sp, #28]
24053bda:	230c      	movs	r3, #12
24053bdc:	e9cd 4409 	strd	r4, r4, [sp, #36]	@ 0x24
24053be0:	930b      	str	r3, [sp, #44]	@ 0x2c
24053be2:	f002 fe3f 	bl	24056864 <HAL_GPIO_Init>
24053be6:	2304      	movs	r3, #4
24053be8:	a907      	add	r1, sp, #28
24053bea:	4815      	ldr	r0, [pc, #84]	@ (24053c40 <HAL_LTDC_MspInit+0x1d8>)
24053bec:	f8cd 802c 	str.w	r8, [sp, #44]	@ 0x2c
24053bf0:	e9cd 3507 	strd	r3, r5, [sp, #28]
24053bf4:	e9cd 4409 	strd	r4, r4, [sp, #36]	@ 0x24
24053bf8:	f002 fe34 	bl	24056864 <HAL_GPIO_Init>
24053bfc:	2320      	movs	r3, #32
24053bfe:	a907      	add	r1, sp, #28
24053c00:	480d      	ldr	r0, [pc, #52]	@ (24053c38 <HAL_LTDC_MspInit+0x1d0>)
24053c02:	970b      	str	r7, [sp, #44]	@ 0x2c
24053c04:	e9cd 3507 	strd	r3, r5, [sp, #28]
24053c08:	e9cd 4409 	strd	r4, r4, [sp, #36]	@ 0x24
24053c0c:	f002 fe2a 	bl	24056864 <HAL_GPIO_Init>
24053c10:	2058      	movs	r0, #88	@ 0x58
24053c12:	4622      	mov	r2, r4
24053c14:	4621      	mov	r1, r4
24053c16:	f001 fae5 	bl	240551e4 <HAL_NVIC_SetPriority>
24053c1a:	2058      	movs	r0, #88	@ 0x58
24053c1c:	f001 fb14 	bl	24055248 <HAL_NVIC_EnableIRQ>
24053c20:	b00c      	add	sp, #48	@ 0x30
24053c22:	e8bd 81f0 	ldmia.w	sp!, {r4, r5, r6, r7, r8, pc}
24053c26:	bf00      	nop
24053c28:	50001000 	.word	0x50001000
24053c2c:	58024400 	.word	0x58024400
24053c30:	58020800 	.word	0x58020800
24053c34:	58020000 	.word	0x58020000
24053c38:	58020400 	.word	0x58020400
24053c3c:	58021000 	.word	0x58021000
24053c40:	58020c00 	.word	0x58020c00

24053c44 <HAL_OSPI_MspInit>:
24053c44:	e92d 43f0 	stmdb	sp!, {r4, r5, r6, r7, r8, r9, lr}
24053c48:	b0bd      	sub	sp, #244	@ 0xf4
24053c4a:	4604      	mov	r4, r0
24053c4c:	2214      	movs	r2, #20
24053c4e:	2100      	movs	r1, #0
24053c50:	a807      	add	r0, sp, #28
24053c52:	f007 fab5 	bl	2405b1c0 <memset>
24053c56:	22c0      	movs	r2, #192	@ 0xc0
24053c58:	2100      	movs	r1, #0
24053c5a:	a80c      	add	r0, sp, #48	@ 0x30
24053c5c:	f007 fab0 	bl	2405b1c0 <memset>
24053c60:	6822      	ldr	r2, [r4, #0]
24053c62:	4b51      	ldr	r3, [pc, #324]	@ (24053da8 <HAL_OSPI_MspInit+0x164>)
24053c64:	429a      	cmp	r2, r3
24053c66:	f040 809b 	bne.w	24053da0 <HAL_OSPI_MspInit+0x15c>
24053c6a:	2300      	movs	r3, #0
24053c6c:	f04f 7200 	mov.w	r2, #33554432	@ 0x2000000
24053c70:	e9cd 230c 	strd	r2, r3, [sp, #48]	@ 0x30
24053c74:	2330      	movs	r3, #48	@ 0x30
24053c76:	eb0d 0003 	add.w	r0, sp, r3
24053c7a:	931f      	str	r3, [sp, #124]	@ 0x7c
24053c7c:	f004 fc52 	bl	24058524 <HAL_RCCEx_PeriphCLKConfig>
24053c80:	b108      	cbz	r0, 24053c86 <HAL_OSPI_MspInit+0x42>
24053c82:	f7ff fe31 	bl	240538e8 <Error_Handler>
24053c86:	4b49      	ldr	r3, [pc, #292]	@ (24053dac <HAL_OSPI_MspInit+0x168>)
24053c88:	2402      	movs	r4, #2
24053c8a:	2600      	movs	r6, #0
24053c8c:	2503      	movs	r5, #3
24053c8e:	f8d3 2134 	ldr.w	r2, [r3, #308]	@ 0x134
24053c92:	2709      	movs	r7, #9
24053c94:	f04f 0904 	mov.w	r9, #4
24053c98:	a907      	add	r1, sp, #28
24053c9a:	f442 1200 	orr.w	r2, r2, #2097152	@ 0x200000
24053c9e:	4844      	ldr	r0, [pc, #272]	@ (24053db0 <HAL_OSPI_MspInit+0x16c>)
24053ca0:	f04f 080b 	mov.w	r8, #11
24053ca4:	f8c3 2134 	str.w	r2, [r3, #308]	@ 0x134
24053ca8:	f8d3 2134 	ldr.w	r2, [r3, #308]	@ 0x134
24053cac:	f402 1200 	and.w	r2, r2, #2097152	@ 0x200000
24053cb0:	9201      	str	r2, [sp, #4]
24053cb2:	9a01      	ldr	r2, [sp, #4]
24053cb4:	f8d3 2134 	ldr.w	r2, [r3, #308]	@ 0x134
24053cb8:	f442 4280 	orr.w	r2, r2, #16384	@ 0x4000
24053cbc:	f8c3 2134 	str.w	r2, [r3, #308]	@ 0x134
24053cc0:	f8d3 2134 	ldr.w	r2, [r3, #308]	@ 0x134
24053cc4:	f402 4280 	and.w	r2, r2, #16384	@ 0x4000
24053cc8:	9202      	str	r2, [sp, #8]
24053cca:	9a02      	ldr	r2, [sp, #8]
24053ccc:	f8d3 2140 	ldr.w	r2, [r3, #320]	@ 0x140
24053cd0:	f042 0210 	orr.w	r2, r2, #16
24053cd4:	f8c3 2140 	str.w	r2, [r3, #320]	@ 0x140
24053cd8:	f8d3 2140 	ldr.w	r2, [r3, #320]	@ 0x140
24053cdc:	f002 0210 	and.w	r2, r2, #16
24053ce0:	9203      	str	r2, [sp, #12]
24053ce2:	9a03      	ldr	r2, [sp, #12]
24053ce4:	f8d3 2140 	ldr.w	r2, [r3, #320]	@ 0x140
24053ce8:	f042 0201 	orr.w	r2, r2, #1
24053cec:	f8c3 2140 	str.w	r2, [r3, #320]	@ 0x140
24053cf0:	f8d3 2140 	ldr.w	r2, [r3, #320]	@ 0x140
24053cf4:	f002 0201 	and.w	r2, r2, #1
24053cf8:	9204      	str	r2, [sp, #16]
24053cfa:	9a04      	ldr	r2, [sp, #16]
24053cfc:	f8d3 2140 	ldr.w	r2, [r3, #320]	@ 0x140
24053d00:	f042 0202 	orr.w	r2, r2, #2
24053d04:	f8c3 2140 	str.w	r2, [r3, #320]	@ 0x140
24053d08:	f8d3 2140 	ldr.w	r2, [r3, #320]	@ 0x140
24053d0c:	f002 0202 	and.w	r2, r2, #2
24053d10:	9205      	str	r2, [sp, #20]
24053d12:	9a05      	ldr	r2, [sp, #20]
24053d14:	f8d3 2140 	ldr.w	r2, [r3, #320]	@ 0x140
24053d18:	f042 0208 	orr.w	r2, r2, #8
24053d1c:	f8c3 2140 	str.w	r2, [r3, #320]	@ 0x140
24053d20:	f8d3 3140 	ldr.w	r3, [r3, #320]	@ 0x140
24053d24:	f003 0308 	and.w	r3, r3, #8
24053d28:	9306      	str	r3, [sp, #24]
24053d2a:	9b06      	ldr	r3, [sp, #24]
24053d2c:	e9cd 9407 	strd	r9, r4, [sp, #28]
24053d30:	e9cd 6509 	strd	r6, r5, [sp, #36]	@ 0x24
24053d34:	970b      	str	r7, [sp, #44]	@ 0x2c
24053d36:	f002 fd95 	bl	24056864 <HAL_GPIO_Init>
24053d3a:	a907      	add	r1, sp, #28
24053d3c:	481d      	ldr	r0, [pc, #116]	@ (24053db4 <HAL_OSPI_MspInit+0x170>)
24053d3e:	970b      	str	r7, [sp, #44]	@ 0x2c
24053d40:	e9cd 4407 	strd	r4, r4, [sp, #28]
24053d44:	e9cd 6509 	strd	r6, r5, [sp, #36]	@ 0x24
24053d48:	f002 fd8c 	bl	24056864 <HAL_GPIO_Init>
24053d4c:	a907      	add	r1, sp, #28
24053d4e:	481a      	ldr	r0, [pc, #104]	@ (24053db8 <HAL_OSPI_MspInit+0x174>)
24053d50:	f8cd 802c 	str.w	r8, [sp, #44]	@ 0x2c
24053d54:	e9cd 4407 	strd	r4, r4, [sp, #28]
24053d58:	e9cd 6509 	strd	r6, r5, [sp, #36]	@ 0x24
24053d5c:	f002 fd82 	bl	24056864 <HAL_GPIO_Init>
24053d60:	a907      	add	r1, sp, #28
24053d62:	4815      	ldr	r0, [pc, #84]	@ (24053db8 <HAL_OSPI_MspInit+0x174>)
24053d64:	970b      	str	r7, [sp, #44]	@ 0x2c
24053d66:	e9cd 9407 	strd	r9, r4, [sp, #28]
24053d6a:	e9cd 6509 	strd	r6, r5, [sp, #36]	@ 0x24
24053d6e:	f002 fd79 	bl	24056864 <HAL_GPIO_Init>
24053d72:	f44f 6300 	mov.w	r3, #2048	@ 0x800
24053d76:	a907      	add	r1, sp, #28
24053d78:	480d      	ldr	r0, [pc, #52]	@ (24053db0 <HAL_OSPI_MspInit+0x16c>)
24053d7a:	f8cd 802c 	str.w	r8, [sp, #44]	@ 0x2c
24053d7e:	e9cd 3407 	strd	r3, r4, [sp, #28]
24053d82:	e9cd 6509 	strd	r6, r5, [sp, #36]	@ 0x24
24053d86:	f002 fd6d 	bl	24056864 <HAL_GPIO_Init>
24053d8a:	f44f 5380 	mov.w	r3, #4096	@ 0x1000
24053d8e:	a907      	add	r1, sp, #28
24053d90:	480a      	ldr	r0, [pc, #40]	@ (24053dbc <HAL_OSPI_MspInit+0x178>)
24053d92:	970b      	str	r7, [sp, #44]	@ 0x2c
24053d94:	e9cd 3407 	strd	r3, r4, [sp, #28]
24053d98:	e9cd 6509 	strd	r6, r5, [sp, #36]	@ 0x24
24053d9c:	f002 fd62 	bl	24056864 <HAL_GPIO_Init>
24053da0:	b03d      	add	sp, #244	@ 0xf4
24053da2:	e8bd 83f0 	ldmia.w	sp!, {r4, r5, r6, r7, r8, r9, pc}
24053da6:	bf00      	nop
24053da8:	52005000 	.word	0x52005000
24053dac:	58024400 	.word	0x58024400
24053db0:	58021000 	.word	0x58021000
24053db4:	58020000 	.word	0x58020000
24053db8:	58020400 	.word	0x58020400
24053dbc:	58020c00 	.word	0x58020c00

24053dc0 <HAL_RTC_MspInit>:
24053dc0:	b510      	push	{r4, lr}
24053dc2:	b0b0      	sub	sp, #192	@ 0xc0
24053dc4:	4604      	mov	r4, r0
24053dc6:	22c0      	movs	r2, #192	@ 0xc0
24053dc8:	2100      	movs	r1, #0
24053dca:	4668      	mov	r0, sp
24053dcc:	f007 f9f8 	bl	2405b1c0 <memset>
24053dd0:	6822      	ldr	r2, [r4, #0]
24053dd2:	4b0c      	ldr	r3, [pc, #48]	@ (24053e04 <HAL_RTC_MspInit+0x44>)
24053dd4:	429a      	cmp	r2, r3
24053dd6:	d112      	bne.n	24053dfe <HAL_RTC_MspInit+0x3e>
24053dd8:	2300      	movs	r3, #0
24053dda:	f44f 0280 	mov.w	r2, #4194304	@ 0x400000
24053dde:	4668      	mov	r0, sp
24053de0:	e9cd 2300 	strd	r2, r3, [sp]
24053de4:	f44f 7380 	mov.w	r3, #256	@ 0x100
24053de8:	932d      	str	r3, [sp, #180]	@ 0xb4
24053dea:	f004 fb9b 	bl	24058524 <HAL_RCCEx_PeriphCLKConfig>
24053dee:	b108      	cbz	r0, 24053df4 <HAL_RTC_MspInit+0x34>
24053df0:	f7ff fd7a 	bl	240538e8 <Error_Handler>
24053df4:	4a04      	ldr	r2, [pc, #16]	@ (24053e08 <HAL_RTC_MspInit+0x48>)
24053df6:	6f13      	ldr	r3, [r2, #112]	@ 0x70
24053df8:	f443 4300 	orr.w	r3, r3, #32768	@ 0x8000
24053dfc:	6713      	str	r3, [r2, #112]	@ 0x70
24053dfe:	b030      	add	sp, #192	@ 0xc0
24053e00:	bd10      	pop	{r4, pc}
24053e02:	bf00      	nop
24053e04:	58004000 	.word	0x58004000
24053e08:	58024400 	.word	0x58024400

24053e0c <HAL_SPI_MspInit>:
24053e0c:	b510      	push	{r4, lr}
24053e0e:	b0b8      	sub	sp, #224	@ 0xe0
24053e10:	4604      	mov	r4, r0
24053e12:	2214      	movs	r2, #20
24053e14:	2100      	movs	r1, #0
24053e16:	a803      	add	r0, sp, #12
24053e18:	f007 f9d2 	bl	2405b1c0 <memset>
24053e1c:	22c0      	movs	r2, #192	@ 0xc0
24053e1e:	2100      	movs	r1, #0
24053e20:	a808      	add	r0, sp, #32
24053e22:	f007 f9cd 	bl	2405b1c0 <memset>
24053e26:	6822      	ldr	r2, [r4, #0]
24053e28:	4b1c      	ldr	r3, [pc, #112]	@ (24053e9c <HAL_SPI_MspInit+0x90>)
24053e2a:	429a      	cmp	r2, r3
24053e2c:	d134      	bne.n	24053e98 <HAL_SPI_MspInit+0x8c>
24053e2e:	2300      	movs	r3, #0
24053e30:	f44f 5280 	mov.w	r2, #4096	@ 0x1000
24053e34:	a808      	add	r0, sp, #32
24053e36:	e9cd 2308 	strd	r2, r3, [sp, #32]
24053e3a:	f44f 4380 	mov.w	r3, #16384	@ 0x4000
24053e3e:	9321      	str	r3, [sp, #132]	@ 0x84
24053e40:	f004 fb70 	bl	24058524 <HAL_RCCEx_PeriphCLKConfig>
24053e44:	b108      	cbz	r0, 24053e4a <HAL_SPI_MspInit+0x3e>
24053e46:	f7ff fd4f 	bl	240538e8 <Error_Handler>
24053e4a:	4b15      	ldr	r3, [pc, #84]	@ (24053ea0 <HAL_SPI_MspInit+0x94>)
24053e4c:	a903      	add	r1, sp, #12
24053e4e:	4815      	ldr	r0, [pc, #84]	@ (24053ea4 <HAL_SPI_MspInit+0x98>)
24053e50:	f8d3 2148 	ldr.w	r2, [r3, #328]	@ 0x148
24053e54:	f442 4280 	orr.w	r2, r2, #16384	@ 0x4000
24053e58:	f8c3 2148 	str.w	r2, [r3, #328]	@ 0x148
24053e5c:	f8d3 2148 	ldr.w	r2, [r3, #328]	@ 0x148
24053e60:	f402 4280 	and.w	r2, r2, #16384	@ 0x4000
24053e64:	9201      	str	r2, [sp, #4]
24053e66:	9a01      	ldr	r2, [sp, #4]
24053e68:	f8d3 2140 	ldr.w	r2, [r3, #320]	@ 0x140
24053e6c:	f042 0202 	orr.w	r2, r2, #2
24053e70:	f8c3 2140 	str.w	r2, [r3, #320]	@ 0x140
24053e74:	f44f 4220 	mov.w	r2, #40960	@ 0xa000
24053e78:	f8d3 3140 	ldr.w	r3, [r3, #320]	@ 0x140
24053e7c:	f003 0302 	and.w	r3, r3, #2
24053e80:	9302      	str	r3, [sp, #8]
24053e82:	9b02      	ldr	r3, [sp, #8]
24053e84:	2302      	movs	r3, #2
24053e86:	e9cd 2303 	strd	r2, r3, [sp, #12]
24053e8a:	2300      	movs	r3, #0
24053e8c:	e9cd 3305 	strd	r3, r3, [sp, #20]
24053e90:	2305      	movs	r3, #5
24053e92:	9307      	str	r3, [sp, #28]
24053e94:	f002 fce6 	bl	24056864 <HAL_GPIO_Init>
24053e98:	b038      	add	sp, #224	@ 0xe0
24053e9a:	bd10      	pop	{r4, pc}
24053e9c:	40003800 	.word	0x40003800
24053ea0:	58024400 	.word	0x58024400
24053ea4:	58020400 	.word	0x58020400

24053ea8 <HAL_TIM_Base_MspInit>:
24053ea8:	4b0f      	ldr	r3, [pc, #60]	@ (24053ee8 <HAL_TIM_Base_MspInit+0x40>)
24053eaa:	b507      	push	{r0, r1, r2, lr}
24053eac:	6802      	ldr	r2, [r0, #0]
24053eae:	429a      	cmp	r2, r3
24053eb0:	d117      	bne.n	24053ee2 <HAL_TIM_Base_MspInit+0x3a>
24053eb2:	4b0e      	ldr	r3, [pc, #56]	@ (24053eec <HAL_TIM_Base_MspInit+0x44>)
24053eb4:	2019      	movs	r0, #25
24053eb6:	f8d3 2150 	ldr.w	r2, [r3, #336]	@ 0x150
24053eba:	f042 0201 	orr.w	r2, r2, #1
24053ebe:	f8c3 2150 	str.w	r2, [r3, #336]	@ 0x150
24053ec2:	2200      	movs	r2, #0
24053ec4:	f8d3 3150 	ldr.w	r3, [r3, #336]	@ 0x150
24053ec8:	4611      	mov	r1, r2
24053eca:	f003 0301 	and.w	r3, r3, #1
24053ece:	9301      	str	r3, [sp, #4]
24053ed0:	9b01      	ldr	r3, [sp, #4]
24053ed2:	f001 f987 	bl	240551e4 <HAL_NVIC_SetPriority>
24053ed6:	2019      	movs	r0, #25
24053ed8:	b003      	add	sp, #12
24053eda:	f85d eb04 	ldr.w	lr, [sp], #4
24053ede:	f001 b9b3 	b.w	24055248 <HAL_NVIC_EnableIRQ>
24053ee2:	b003      	add	sp, #12
24053ee4:	f85d fb04 	ldr.w	pc, [sp], #4
24053ee8:	40010000 	.word	0x40010000
24053eec:	58024400 	.word	0x58024400

24053ef0 <HAL_SAI_MspInit>:
24053ef0:	b570      	push	{r4, r5, r6, lr}
24053ef2:	24c0      	movs	r4, #192	@ 0xc0
24053ef4:	b0b6      	sub	sp, #216	@ 0xd8
24053ef6:	4605      	mov	r5, r0
24053ef8:	2100      	movs	r1, #0
24053efa:	4622      	mov	r2, r4
24053efc:	a806      	add	r0, sp, #24
24053efe:	f007 f95f 	bl	2405b1c0 <memset>
24053f02:	682a      	ldr	r2, [r5, #0]
24053f04:	4b34      	ldr	r3, [pc, #208]	@ (24053fd8 <HAL_SAI_MspInit+0xe8>)
24053f06:	429a      	cmp	r2, r3
24053f08:	d164      	bne.n	24053fd4 <HAL_SAI_MspInit+0xe4>
24053f0a:	f44f 7280 	mov.w	r2, #256	@ 0x100
24053f0e:	2300      	movs	r3, #0
24053f10:	a806      	add	r0, sp, #24
24053f12:	e9cd 2306 	strd	r2, r3, [sp, #24]
24053f16:	2319      	movs	r3, #25
24053f18:	2202      	movs	r2, #2
24053f1a:	e9cd 3408 	strd	r3, r4, [sp, #32]
24053f1e:	2305      	movs	r3, #5
24053f20:	e9cd 320a 	strd	r3, r2, [sp, #40]	@ 0x28
24053f24:	930c      	str	r3, [sp, #48]	@ 0x30
24053f26:	2340      	movs	r3, #64	@ 0x40
24053f28:	930d      	str	r3, [sp, #52]	@ 0x34
24053f2a:	2301      	movs	r3, #1
24053f2c:	931c      	str	r3, [sp, #112]	@ 0x70
24053f2e:	f004 faf9 	bl	24058524 <HAL_RCCEx_PeriphCLKConfig>
24053f32:	b108      	cbz	r0, 24053f38 <HAL_SAI_MspInit+0x48>
24053f34:	f7ff fcd8 	bl	240538e8 <Error_Handler>
24053f38:	4c28      	ldr	r4, [pc, #160]	@ (24053fdc <HAL_SAI_MspInit+0xec>)
24053f3a:	6822      	ldr	r2, [r4, #0]
24053f3c:	b99a      	cbnz	r2, 24053f66 <HAL_SAI_MspInit+0x76>
24053f3e:	4b28      	ldr	r3, [pc, #160]	@ (24053fe0 <HAL_SAI_MspInit+0xf0>)
24053f40:	2057      	movs	r0, #87	@ 0x57
24053f42:	f8d3 1150 	ldr.w	r1, [r3, #336]	@ 0x150
24053f46:	f441 0180 	orr.w	r1, r1, #4194304	@ 0x400000
24053f4a:	f8c3 1150 	str.w	r1, [r3, #336]	@ 0x150
24053f4e:	4611      	mov	r1, r2
24053f50:	f8d3 3150 	ldr.w	r3, [r3, #336]	@ 0x150
24053f54:	f403 0380 	and.w	r3, r3, #4194304	@ 0x400000
24053f58:	9300      	str	r3, [sp, #0]
24053f5a:	9b00      	ldr	r3, [sp, #0]
24053f5c:	f001 f942 	bl	240551e4 <HAL_NVIC_SetPriority>
24053f60:	2057      	movs	r0, #87	@ 0x57
24053f62:	f001 f971 	bl	24055248 <HAL_NVIC_EnableIRQ>
24053f66:	6823      	ldr	r3, [r4, #0]
24053f68:	2270      	movs	r2, #112	@ 0x70
24053f6a:	2600      	movs	r6, #0
24053f6c:	a901      	add	r1, sp, #4
24053f6e:	3301      	adds	r3, #1
24053f70:	481c      	ldr	r0, [pc, #112]	@ (24053fe4 <HAL_SAI_MspInit+0xf4>)
24053f72:	6023      	str	r3, [r4, #0]
24053f74:	2302      	movs	r3, #2
24053f76:	4c1c      	ldr	r4, [pc, #112]	@ (24053fe8 <HAL_SAI_MspInit+0xf8>)
24053f78:	e9cd 2301 	strd	r2, r3, [sp, #4]
24053f7c:	2306      	movs	r3, #6
24053f7e:	e9cd 6603 	strd	r6, r6, [sp, #12]
24053f82:	9305      	str	r3, [sp, #20]
24053f84:	f002 fc6e 	bl	24056864 <HAL_GPIO_Init>
24053f88:	2357      	movs	r3, #87	@ 0x57
24053f8a:	4918      	ldr	r1, [pc, #96]	@ (24053fec <HAL_SAI_MspInit+0xfc>)
24053f8c:	f44f 6080 	mov.w	r0, #1024	@ 0x400
24053f90:	f44f 5c00 	mov.w	ip, #8192	@ 0x2000
24053f94:	f04f 0e04 	mov.w	lr, #4
24053f98:	6226      	str	r6, [r4, #32]
24053f9a:	e9c4 1300 	strd	r1, r3, [r4]
24053f9e:	2340      	movs	r3, #64	@ 0x40
24053fa0:	e9c4 3602 	strd	r3, r6, [r4, #8]
24053fa4:	f44f 6300 	mov.w	r3, #2048	@ 0x800
24053fa8:	e9c4 0304 	strd	r0, r3, [r4, #16]
24053fac:	f44f 7380 	mov.w	r3, #256	@ 0x100
24053fb0:	4620      	mov	r0, r4
24053fb2:	e9c4 c306 	strd	ip, r3, [r4, #24]
24053fb6:	2303      	movs	r3, #3
24053fb8:	e9c4 660b 	strd	r6, r6, [r4, #44]	@ 0x2c
24053fbc:	e9c4 e309 	strd	lr, r3, [r4, #36]	@ 0x24
24053fc0:	f001 fc1c 	bl	240557fc <HAL_DMA_Init>
24053fc4:	b108      	cbz	r0, 24053fca <HAL_SAI_MspInit+0xda>
24053fc6:	f7ff fc8f 	bl	240538e8 <Error_Handler>
24053fca:	f8c5 4084 	str.w	r4, [r5, #132]	@ 0x84
24053fce:	63a5      	str	r5, [r4, #56]	@ 0x38
24053fd0:	f8c5 4080 	str.w	r4, [r5, #128]	@ 0x80
24053fd4:	b036      	add	sp, #216	@ 0xd8
24053fd6:	bd70      	pop	{r4, r5, r6, pc}
24053fd8:	40015804 	.word	0x40015804
24053fdc:	20000638 	.word	0x20000638
24053fe0:	58024400 	.word	0x58024400
24053fe4:	58021000 	.word	0x58021000
24053fe8:	20000308 	.word	0x20000308
24053fec:	40020010 	.word	0x40020010

24053ff0 <NMI_Handler>:
24053ff0:	e7fe      	b.n	24053ff0 <NMI_Handler>

24053ff2 <HardFault_Handler>:
24053ff2:	e7fe      	b.n	24053ff2 <HardFault_Handler>

24053ff4 <MemManage_Handler>:
24053ff4:	e7fe      	b.n	24053ff4 <MemManage_Handler>

24053ff6 <BusFault_Handler>:
24053ff6:	e7fe      	b.n	24053ff6 <BusFault_Handler>

24053ff8 <UsageFault_Handler>:
24053ff8:	e7fe      	b.n	24053ff8 <UsageFault_Handler>

24053ffa <SVC_Handler>:
24053ffa:	4770      	bx	lr

24053ffc <DebugMon_Handler>:
24053ffc:	4770      	bx	lr

24053ffe <PendSV_Handler>:
24053ffe:	4770      	bx	lr

24054000 <SysTick_Handler>:
24054000:	b508      	push	{r3, lr}
24054002:	f000 f971 	bl	240542e8 <HAL_IncTick>
24054006:	2101      	movs	r1, #1
24054008:	4809      	ldr	r0, [pc, #36]	@ (24054030 <SysTick_Handler+0x30>)
2405400a:	f002 fd13 	bl	24056a34 <HAL_GPIO_ReadPin>
2405400e:	4a09      	ldr	r2, [pc, #36]	@ (24054034 <SysTick_Handler+0x34>)
24054010:	b950      	cbnz	r0, 24054028 <SysTick_Handler+0x28>
24054012:	6813      	ldr	r3, [r2, #0]
24054014:	3301      	adds	r3, #1
24054016:	6013      	str	r3, [r2, #0]
24054018:	f241 3287 	movw	r2, #4999	@ 0x1387
2405401c:	4293      	cmp	r3, r2
2405401e:	dd05      	ble.n	2405402c <SysTick_Handler+0x2c>
24054020:	e8bd 4008 	ldmia.w	sp!, {r3, lr}
24054024:	f001 b91e 	b.w	24055264 <HAL_NVIC_SystemReset>
24054028:	2300      	movs	r3, #0
2405402a:	6013      	str	r3, [r2, #0]
2405402c:	bd08      	pop	{r3, pc}
2405402e:	bf00      	nop
24054030:	58020000 	.word	0x58020000
24054034:	2000063c 	.word	0x2000063c

24054038 <EXTI2_IRQHandler>:
24054038:	2004      	movs	r0, #4
2405403a:	f002 bd07 	b.w	24056a4c <HAL_GPIO_EXTI_IRQHandler>
	...

24054040 <DMA1_Stream0_IRQHandler>:
24054040:	4801      	ldr	r0, [pc, #4]	@ (24054048 <DMA1_Stream0_IRQHandler+0x8>)
24054042:	f002 b909 	b.w	24056258 <HAL_DMA_IRQHandler>
24054046:	bf00      	nop
24054048:	20000308 	.word	0x20000308

2405404c <ADC_IRQHandler>:
2405404c:	4801      	ldr	r0, [pc, #4]	@ (24054054 <ADC_IRQHandler+0x8>)
2405404e:	f000 b9ff 	b.w	24054450 <HAL_ADC_IRQHandler>
24054052:	bf00      	nop
24054054:	200005d4 	.word	0x200005d4

24054058 <EXTI9_5_IRQHandler>:
24054058:	2080      	movs	r0, #128	@ 0x80
2405405a:	f002 bcf7 	b.w	24056a4c <HAL_GPIO_EXTI_IRQHandler>
	...

24054060 <TIM1_UP_IRQHandler>:
24054060:	4801      	ldr	r0, [pc, #4]	@ (24054068 <TIM1_UP_IRQHandler+0x8>)
24054062:	f006 ba92 	b.w	2405a58a <HAL_TIM_IRQHandler>
24054066:	bf00      	nop
24054068:	20000234 	.word	0x20000234

2405406c <SAI1_IRQHandler>:
2405406c:	4801      	ldr	r0, [pc, #4]	@ (24054074 <SAI1_IRQHandler+0x8>)
2405406e:	f005 bf7f 	b.w	24059f70 <HAL_SAI_IRQHandler>
24054072:	bf00      	nop
24054074:	20000380 	.word	0x20000380

24054078 <LTDC_IRQHandler>:
24054078:	4801      	ldr	r0, [pc, #4]	@ (24054080 <LTDC_IRQHandler+0x8>)
2405407a:	f002 bde7 	b.w	24056c4c <HAL_LTDC_IRQHandler>
2405407e:	bf00      	nop
24054080:	2000049c 	.word	0x2000049c

24054084 <OCTOSPI1_IRQHandler>:
24054084:	4801      	ldr	r0, [pc, #4]	@ (2405408c <OCTOSPI1_IRQHandler+0x8>)
24054086:	f003 b975 	b.w	24057374 <HAL_OSPI_IRQHandler>
2405408a:	bf00      	nop
2405408c:	20000440 	.word	0x20000440

24054090 <_getpid>:
24054090:	2001      	movs	r0, #1
24054092:	4770      	bx	lr

24054094 <_kill>:
24054094:	b508      	push	{r3, lr}
24054096:	f007 f8f1 	bl	2405b27c <__errno>
2405409a:	2316      	movs	r3, #22
2405409c:	6003      	str	r3, [r0, #0]
2405409e:	f04f 30ff 	mov.w	r0, #4294967295
240540a2:	bd08      	pop	{r3, pc}

240540a4 <_exit>:
240540a4:	b508      	push	{r3, lr}
240540a6:	f007 f8e9 	bl	2405b27c <__errno>
240540aa:	2316      	movs	r3, #22
240540ac:	6003      	str	r3, [r0, #0]
240540ae:	e7fe      	b.n	240540ae <_exit+0xa>

240540b0 <_read>:
240540b0:	b570      	push	{r4, r5, r6, lr}
240540b2:	460d      	mov	r5, r1
240540b4:	4614      	mov	r4, r2
240540b6:	460e      	mov	r6, r1
240540b8:	1b73      	subs	r3, r6, r5
240540ba:	429c      	cmp	r4, r3
240540bc:	dc01      	bgt.n	240540c2 <_read+0x12>
240540be:	4620      	mov	r0, r4
240540c0:	bd70      	pop	{r4, r5, r6, pc}
240540c2:	f3af 8000 	nop.w
240540c6:	f806 0b01 	strb.w	r0, [r6], #1
240540ca:	e7f5      	b.n	240540b8 <_read+0x8>

240540cc <_write>:
240540cc:	b570      	push	{r4, r5, r6, lr}
240540ce:	460d      	mov	r5, r1
240540d0:	4614      	mov	r4, r2
240540d2:	460e      	mov	r6, r1
240540d4:	1b73      	subs	r3, r6, r5
240540d6:	429c      	cmp	r4, r3
240540d8:	dc01      	bgt.n	240540de <_write+0x12>
240540da:	4620      	mov	r0, r4
240540dc:	bd70      	pop	{r4, r5, r6, pc}
240540de:	f816 0b01 	ldrb.w	r0, [r6], #1
240540e2:	f3af 8000 	nop.w
240540e6:	e7f5      	b.n	240540d4 <_write+0x8>

240540e8 <_close>:
240540e8:	f04f 30ff 	mov.w	r0, #4294967295
240540ec:	4770      	bx	lr

240540ee <_fstat>:
240540ee:	f44f 5300 	mov.w	r3, #8192	@ 0x2000
240540f2:	2000      	movs	r0, #0
240540f4:	604b      	str	r3, [r1, #4]
240540f6:	4770      	bx	lr

240540f8 <_isatty>:
240540f8:	2001      	movs	r0, #1
240540fa:	4770      	bx	lr

240540fc <_lseek>:
240540fc:	2000      	movs	r0, #0
240540fe:	4770      	bx	lr

24054100 <_sbrk>:
24054100:	4a0b      	ldr	r2, [pc, #44]	@ (24054130 <_sbrk+0x30>)
24054102:	4603      	mov	r3, r0
24054104:	6811      	ldr	r1, [r2, #0]
24054106:	b510      	push	{r4, lr}
24054108:	b909      	cbnz	r1, 2405410e <_sbrk+0xe>
2405410a:	490a      	ldr	r1, [pc, #40]	@ (24054134 <_sbrk+0x34>)
2405410c:	6011      	str	r1, [r2, #0]
2405410e:	6810      	ldr	r0, [r2, #0]
24054110:	4909      	ldr	r1, [pc, #36]	@ (24054138 <_sbrk+0x38>)
24054112:	4c0a      	ldr	r4, [pc, #40]	@ (2405413c <_sbrk+0x3c>)
24054114:	4403      	add	r3, r0
24054116:	1b09      	subs	r1, r1, r4
24054118:	428b      	cmp	r3, r1
2405411a:	d906      	bls.n	2405412a <_sbrk+0x2a>
2405411c:	f007 f8ae 	bl	2405b27c <__errno>
24054120:	230c      	movs	r3, #12
24054122:	6003      	str	r3, [r0, #0]
24054124:	f04f 30ff 	mov.w	r0, #4294967295
24054128:	bd10      	pop	{r4, pc}
2405412a:	6013      	str	r3, [r2, #0]
2405412c:	e7fc      	b.n	24054128 <_sbrk+0x28>
2405412e:	bf00      	nop
24054130:	20000640 	.word	0x20000640
24054134:	20000798 	.word	0x20000798
24054138:	20020000 	.word	0x20020000
2405413c:	00005000 	.word	0x00005000

24054140 <SystemInit>:
24054140:	4a22      	ldr	r2, [pc, #136]	@ (240541cc <SystemInit+0x8c>)
24054142:	f8d2 3088 	ldr.w	r3, [r2, #136]	@ 0x88
24054146:	f443 0370 	orr.w	r3, r3, #15728640	@ 0xf00000
2405414a:	f8c2 3088 	str.w	r3, [r2, #136]	@ 0x88
2405414e:	4a20      	ldr	r2, [pc, #128]	@ (240541d0 <SystemInit+0x90>)
24054150:	6813      	ldr	r3, [r2, #0]
24054152:	f003 030f 	and.w	r3, r3, #15
24054156:	2b02      	cmp	r3, #2
24054158:	d805      	bhi.n	24054166 <SystemInit+0x26>
2405415a:	6813      	ldr	r3, [r2, #0]
2405415c:	f023 030f 	bic.w	r3, r3, #15
24054160:	f043 0303 	orr.w	r3, r3, #3
24054164:	6013      	str	r3, [r2, #0]
24054166:	4b1b      	ldr	r3, [pc, #108]	@ (240541d4 <SystemInit+0x94>)
24054168:	681a      	ldr	r2, [r3, #0]
2405416a:	f042 0201 	orr.w	r2, r2, #1
2405416e:	601a      	str	r2, [r3, #0]
24054170:	2200      	movs	r2, #0
24054172:	611a      	str	r2, [r3, #16]
24054174:	4a18      	ldr	r2, [pc, #96]	@ (240541d8 <SystemInit+0x98>)
24054176:	6819      	ldr	r1, [r3, #0]
24054178:	400a      	ands	r2, r1
2405417a:	4915      	ldr	r1, [pc, #84]	@ (240541d0 <SystemInit+0x90>)
2405417c:	601a      	str	r2, [r3, #0]
2405417e:	680a      	ldr	r2, [r1, #0]
24054180:	f012 0f0c 	tst.w	r2, #12
24054184:	d005      	beq.n	24054192 <SystemInit+0x52>
24054186:	680a      	ldr	r2, [r1, #0]
24054188:	f022 020f 	bic.w	r2, r2, #15
2405418c:	f042 0203 	orr.w	r2, r2, #3
24054190:	600a      	str	r2, [r1, #0]
24054192:	2200      	movs	r2, #0
24054194:	4911      	ldr	r1, [pc, #68]	@ (240541dc <SystemInit+0x9c>)
24054196:	619a      	str	r2, [r3, #24]
24054198:	61da      	str	r2, [r3, #28]
2405419a:	621a      	str	r2, [r3, #32]
2405419c:	6299      	str	r1, [r3, #40]	@ 0x28
2405419e:	4910      	ldr	r1, [pc, #64]	@ (240541e0 <SystemInit+0xa0>)
240541a0:	62d9      	str	r1, [r3, #44]	@ 0x2c
240541a2:	4910      	ldr	r1, [pc, #64]	@ (240541e4 <SystemInit+0xa4>)
240541a4:	6319      	str	r1, [r3, #48]	@ 0x30
240541a6:	635a      	str	r2, [r3, #52]	@ 0x34
240541a8:	6399      	str	r1, [r3, #56]	@ 0x38
240541aa:	63da      	str	r2, [r3, #60]	@ 0x3c
240541ac:	6419      	str	r1, [r3, #64]	@ 0x40
240541ae:	645a      	str	r2, [r3, #68]	@ 0x44
240541b0:	6819      	ldr	r1, [r3, #0]
240541b2:	f421 2180 	bic.w	r1, r1, #262144	@ 0x40000
240541b6:	6019      	str	r1, [r3, #0]
240541b8:	661a      	str	r2, [r3, #96]	@ 0x60
240541ba:	f243 02d2 	movw	r2, #12498	@ 0x30d2
240541be:	4b0a      	ldr	r3, [pc, #40]	@ (240541e8 <SystemInit+0xa8>)
240541c0:	601a      	str	r2, [r3, #0]
240541c2:	f04f 5210 	mov.w	r2, #603979776	@ 0x24000000
240541c6:	4b01      	ldr	r3, [pc, #4]	@ (240541cc <SystemInit+0x8c>)
240541c8:	609a      	str	r2, [r3, #8]
240541ca:	4770      	bx	lr
240541cc:	e000ed00 	.word	0xe000ed00
240541d0:	52002000 	.word	0x52002000
240541d4:	58024400 	.word	0x58024400
240541d8:	eaf6ed7f 	.word	0xeaf6ed7f
240541dc:	02020200 	.word	0x02020200
240541e0:	01ff0000 	.word	0x01ff0000
240541e4:	01010280 	.word	0x01010280
240541e8:	52004000 	.word	0x52004000

240541ec <Reset_Handler>:
240541ec:	f8df d034 	ldr.w	sp, [pc, #52]	@ 24054224 <LoopFillZerobss+0xe>
240541f0:	f7ff ffa6 	bl	24054140 <SystemInit>
240541f4:	480c      	ldr	r0, [pc, #48]	@ (24054228 <LoopFillZerobss+0x12>)
240541f6:	490d      	ldr	r1, [pc, #52]	@ (2405422c <LoopFillZerobss+0x16>)
240541f8:	4a0d      	ldr	r2, [pc, #52]	@ (24054230 <LoopFillZerobss+0x1a>)
240541fa:	2300      	movs	r3, #0
240541fc:	e002      	b.n	24054204 <LoopCopyDataInit>

240541fe <CopyDataInit>:
240541fe:	58d4      	ldr	r4, [r2, r3]
24054200:	50c4      	str	r4, [r0, r3]
24054202:	3304      	adds	r3, #4

24054204 <LoopCopyDataInit>:
24054204:	18c4      	adds	r4, r0, r3
24054206:	428c      	cmp	r4, r1
24054208:	d3f9      	bcc.n	240541fe <CopyDataInit>
2405420a:	4a0a      	ldr	r2, [pc, #40]	@ (24054234 <LoopFillZerobss+0x1e>)
2405420c:	4c0a      	ldr	r4, [pc, #40]	@ (24054238 <LoopFillZerobss+0x22>)
2405420e:	2300      	movs	r3, #0
24054210:	e001      	b.n	24054216 <LoopFillZerobss>

24054212 <FillZerobss>:
24054212:	6013      	str	r3, [r2, #0]
24054214:	3204      	adds	r2, #4

24054216 <LoopFillZerobss>:
24054216:	42a2      	cmp	r2, r4
24054218:	d3fb      	bcc.n	24054212 <FillZerobss>
2405421a:	f007 f835 	bl	2405b288 <__libc_init_array>
2405421e:	f7ff f857 	bl	240532d0 <main>
24054222:	4770      	bx	lr
24054224:	20020000 	.word	0x20020000
24054228:	20000000 	.word	0x20000000
2405422c:	20000114 	.word	0x20000114
24054230:	2406033c 	.word	0x2406033c
24054234:	20000114 	.word	0x20000114
24054238:	20000794 	.word	0x20000794

2405423c <BDMA1_IRQHandler>:
2405423c:	e7fe      	b.n	2405423c <BDMA1_IRQHandler>
	...

24054240 <HAL_InitTick>:
24054240:	b538      	push	{r3, r4, r5, lr}
24054242:	4b0f      	ldr	r3, [pc, #60]	@ (24054280 <HAL_InitTick+0x40>)
24054244:	4605      	mov	r5, r0
24054246:	781a      	ldrb	r2, [r3, #0]
24054248:	b90a      	cbnz	r2, 2405424e <HAL_InitTick+0xe>
2405424a:	2001      	movs	r0, #1
2405424c:	bd38      	pop	{r3, r4, r5, pc}
2405424e:	f44f 737a 	mov.w	r3, #1000	@ 0x3e8
24054252:	fbb3 f3f2 	udiv	r3, r3, r2
24054256:	4a0b      	ldr	r2, [pc, #44]	@ (24054284 <HAL_InitTick+0x44>)
24054258:	6810      	ldr	r0, [r2, #0]
2405425a:	fbb0 f0f3 	udiv	r0, r0, r3
2405425e:	f001 f813 	bl	24055288 <HAL_SYSTICK_Config>
24054262:	4604      	mov	r4, r0
24054264:	2800      	cmp	r0, #0
24054266:	d1f0      	bne.n	2405424a <HAL_InitTick+0xa>
24054268:	2d0f      	cmp	r5, #15
2405426a:	d8ee      	bhi.n	2405424a <HAL_InitTick+0xa>
2405426c:	4602      	mov	r2, r0
2405426e:	4629      	mov	r1, r5
24054270:	f04f 30ff 	mov.w	r0, #4294967295
24054274:	f000 ffb6 	bl	240551e4 <HAL_NVIC_SetPriority>
24054278:	4b03      	ldr	r3, [pc, #12]	@ (24054288 <HAL_InitTick+0x48>)
2405427a:	4620      	mov	r0, r4
2405427c:	601d      	str	r5, [r3, #0]
2405427e:	e7e5      	b.n	2405424c <HAL_InitTick+0xc>
24054280:	200000b0 	.word	0x200000b0
24054284:	200000ac 	.word	0x200000ac
24054288:	200000b4 	.word	0x200000b4

2405428c <HAL_Init>:
2405428c:	b510      	push	{r4, lr}
2405428e:	2003      	movs	r0, #3
24054290:	f000 ff96 	bl	240551c0 <HAL_NVIC_SetPriorityGrouping>
24054294:	f003 fe5a 	bl	24057f4c <HAL_RCC_GetSysClockFreq>
24054298:	490f      	ldr	r1, [pc, #60]	@ (240542d8 <HAL_Init+0x4c>)
2405429a:	4a10      	ldr	r2, [pc, #64]	@ (240542dc <HAL_Init+0x50>)
2405429c:	698b      	ldr	r3, [r1, #24]
2405429e:	f3c3 2303 	ubfx	r3, r3, #8, #4
240542a2:	5cd3      	ldrb	r3, [r2, r3]
240542a4:	f003 031f 	and.w	r3, r3, #31
240542a8:	40d8      	lsrs	r0, r3
240542aa:	698b      	ldr	r3, [r1, #24]
240542ac:	f003 030f 	and.w	r3, r3, #15
240542b0:	5cd3      	ldrb	r3, [r2, r3]
240542b2:	4a0b      	ldr	r2, [pc, #44]	@ (240542e0 <HAL_Init+0x54>)
240542b4:	f003 031f 	and.w	r3, r3, #31
240542b8:	fa20 f303 	lsr.w	r3, r0, r3
240542bc:	6013      	str	r3, [r2, #0]
240542be:	4b09      	ldr	r3, [pc, #36]	@ (240542e4 <HAL_Init+0x58>)
240542c0:	6018      	str	r0, [r3, #0]
240542c2:	2000      	movs	r0, #0
240542c4:	f7ff ffbc 	bl	24054240 <HAL_InitTick>
240542c8:	4604      	mov	r4, r0
240542ca:	b918      	cbnz	r0, 240542d4 <HAL_Init+0x48>
240542cc:	f7ff fb0e 	bl	240538ec <HAL_MspInit>
240542d0:	4620      	mov	r0, r4
240542d2:	bd10      	pop	{r4, pc}
240542d4:	2401      	movs	r4, #1
240542d6:	e7fb      	b.n	240542d0 <HAL_Init+0x44>
240542d8:	58024400 	.word	0x58024400
240542dc:	24060236 	.word	0x24060236
240542e0:	200000a8 	.word	0x200000a8
240542e4:	200000ac 	.word	0x200000ac

240542e8 <HAL_IncTick>:
240542e8:	4a03      	ldr	r2, [pc, #12]	@ (240542f8 <HAL_IncTick+0x10>)
240542ea:	4b04      	ldr	r3, [pc, #16]	@ (240542fc <HAL_IncTick+0x14>)
240542ec:	6811      	ldr	r1, [r2, #0]
240542ee:	781b      	ldrb	r3, [r3, #0]
240542f0:	440b      	add	r3, r1
240542f2:	6013      	str	r3, [r2, #0]
240542f4:	4770      	bx	lr
240542f6:	bf00      	nop
240542f8:	20000644 	.word	0x20000644
240542fc:	200000b0 	.word	0x200000b0

24054300 <HAL_GetTick>:
24054300:	4b01      	ldr	r3, [pc, #4]	@ (24054308 <HAL_GetTick+0x8>)
24054302:	6818      	ldr	r0, [r3, #0]
24054304:	4770      	bx	lr
24054306:	bf00      	nop
24054308:	20000644 	.word	0x20000644

2405430c <HAL_Delay>:
2405430c:	b538      	push	{r3, r4, r5, lr}
2405430e:	4604      	mov	r4, r0
24054310:	f7ff fff6 	bl	24054300 <HAL_GetTick>
24054314:	4605      	mov	r5, r0
24054316:	1c63      	adds	r3, r4, #1
24054318:	bf1e      	ittt	ne
2405431a:	4b04      	ldrne	r3, [pc, #16]	@ (2405432c <HAL_Delay+0x20>)
2405431c:	781b      	ldrbne	r3, [r3, #0]
2405431e:	18e4      	addne	r4, r4, r3
24054320:	f7ff ffee 	bl	24054300 <HAL_GetTick>
24054324:	1b43      	subs	r3, r0, r5
24054326:	42a3      	cmp	r3, r4
24054328:	d3fa      	bcc.n	24054320 <HAL_Delay+0x14>
2405432a:	bd38      	pop	{r3, r4, r5, pc}
2405432c:	200000b0 	.word	0x200000b0

24054330 <LL_ADC_SetChannelSamplingTime>:
24054330:	b530      	push	{r4, r5, lr}
24054332:	0dcc      	lsrs	r4, r1, #23
24054334:	3014      	adds	r0, #20
24054336:	f3c1 5104 	ubfx	r1, r1, #20, #5
2405433a:	2507      	movs	r5, #7
2405433c:	f004 0404 	and.w	r4, r4, #4
24054340:	408d      	lsls	r5, r1
24054342:	408a      	lsls	r2, r1
24054344:	5903      	ldr	r3, [r0, r4]
24054346:	ea23 0305 	bic.w	r3, r3, r5
2405434a:	4313      	orrs	r3, r2
2405434c:	5103      	str	r3, [r0, r4]
2405434e:	bd30      	pop	{r4, r5, pc}

24054350 <LL_ADC_IsEnabled>:
24054350:	6880      	ldr	r0, [r0, #8]
24054352:	f000 0001 	and.w	r0, r0, #1
24054356:	4770      	bx	lr

24054358 <LL_ADC_REG_IsConversionOngoing>:
24054358:	6880      	ldr	r0, [r0, #8]
2405435a:	f3c0 0080 	ubfx	r0, r0, #2, #1
2405435e:	4770      	bx	lr

24054360 <HAL_ADC_PollForConversion>:
24054360:	e92d 41f0 	stmdb	sp!, {r4, r5, r6, r7, r8, lr}
24054364:	4a34      	ldr	r2, [pc, #208]	@ (24054438 <HAL_ADC_PollForConversion+0xd8>)
24054366:	4604      	mov	r4, r0
24054368:	6905      	ldr	r5, [r0, #16]
2405436a:	460e      	mov	r6, r1
2405436c:	6897      	ldr	r7, [r2, #8]
2405436e:	2d08      	cmp	r5, #8
24054370:	f007 071f 	and.w	r7, r7, #31
24054374:	d015      	beq.n	240543a2 <HAL_ADC_PollForConversion+0x42>
24054376:	f240 2321 	movw	r3, #545	@ 0x221
2405437a:	40fb      	lsrs	r3, r7
2405437c:	07d9      	lsls	r1, r3, #31
2405437e:	d50b      	bpl.n	24054398 <HAL_ADC_PollForConversion+0x38>
24054380:	6803      	ldr	r3, [r0, #0]
24054382:	68db      	ldr	r3, [r3, #12]
24054384:	f013 0f01 	tst.w	r3, #1
24054388:	d00a      	beq.n	240543a0 <HAL_ADC_PollForConversion+0x40>
2405438a:	6d63      	ldr	r3, [r4, #84]	@ 0x54
2405438c:	2001      	movs	r0, #1
2405438e:	f043 0320 	orr.w	r3, r3, #32
24054392:	6563      	str	r3, [r4, #84]	@ 0x54
24054394:	e8bd 81f0 	ldmia.w	sp!, {r4, r5, r6, r7, r8, pc}
24054398:	6893      	ldr	r3, [r2, #8]
2405439a:	f413 4f40 	tst.w	r3, #49152	@ 0xc000
2405439e:	e7f3      	b.n	24054388 <HAL_ADC_PollForConversion+0x28>
240543a0:	2504      	movs	r5, #4
240543a2:	f7ff ffad 	bl	24054300 <HAL_GetTick>
240543a6:	4680      	mov	r8, r0
240543a8:	6823      	ldr	r3, [r4, #0]
240543aa:	681a      	ldr	r2, [r3, #0]
240543ac:	422a      	tst	r2, r5
240543ae:	d025      	beq.n	240543fc <HAL_ADC_PollForConversion+0x9c>
240543b0:	6d62      	ldr	r2, [r4, #84]	@ 0x54
240543b2:	f442 7200 	orr.w	r2, r2, #512	@ 0x200
240543b6:	6562      	str	r2, [r4, #84]	@ 0x54
240543b8:	68da      	ldr	r2, [r3, #12]
240543ba:	f412 6f40 	tst.w	r2, #3072	@ 0xc00
240543be:	d10f      	bne.n	240543e0 <HAL_ADC_PollForConversion+0x80>
240543c0:	7d62      	ldrb	r2, [r4, #21]
240543c2:	b96a      	cbnz	r2, 240543e0 <HAL_ADC_PollForConversion+0x80>
240543c4:	681a      	ldr	r2, [r3, #0]
240543c6:	0716      	lsls	r6, r2, #28
240543c8:	d50a      	bpl.n	240543e0 <HAL_ADC_PollForConversion+0x80>
240543ca:	6d62      	ldr	r2, [r4, #84]	@ 0x54
240543cc:	f422 7280 	bic.w	r2, r2, #256	@ 0x100
240543d0:	6562      	str	r2, [r4, #84]	@ 0x54
240543d2:	6d62      	ldr	r2, [r4, #84]	@ 0x54
240543d4:	04d0      	lsls	r0, r2, #19
240543d6:	d403      	bmi.n	240543e0 <HAL_ADC_PollForConversion+0x80>
240543d8:	6d62      	ldr	r2, [r4, #84]	@ 0x54
240543da:	f042 0201 	orr.w	r2, r2, #1
240543de:	6562      	str	r2, [r4, #84]	@ 0x54
240543e0:	4a16      	ldr	r2, [pc, #88]	@ (2405443c <HAL_ADC_PollForConversion+0xdc>)
240543e2:	4293      	cmp	r3, r2
240543e4:	d104      	bne.n	240543f0 <HAL_ADC_PollForConversion+0x90>
240543e6:	f240 2221 	movw	r2, #545	@ 0x221
240543ea:	40fa      	lsrs	r2, r7
240543ec:	07d1      	lsls	r1, r2, #31
240543ee:	d51b      	bpl.n	24054428 <HAL_ADC_PollForConversion+0xc8>
240543f0:	68da      	ldr	r2, [r3, #12]
240543f2:	2d08      	cmp	r5, #8
240543f4:	d11b      	bne.n	2405442e <HAL_ADC_PollForConversion+0xce>
240543f6:	601d      	str	r5, [r3, #0]
240543f8:	2000      	movs	r0, #0
240543fa:	e7cb      	b.n	24054394 <HAL_ADC_PollForConversion+0x34>
240543fc:	1c72      	adds	r2, r6, #1
240543fe:	d0d4      	beq.n	240543aa <HAL_ADC_PollForConversion+0x4a>
24054400:	f7ff ff7e 	bl	24054300 <HAL_GetTick>
24054404:	eba0 0008 	sub.w	r0, r0, r8
24054408:	42b0      	cmp	r0, r6
2405440a:	d801      	bhi.n	24054410 <HAL_ADC_PollForConversion+0xb0>
2405440c:	2e00      	cmp	r6, #0
2405440e:	d1cb      	bne.n	240543a8 <HAL_ADC_PollForConversion+0x48>
24054410:	6823      	ldr	r3, [r4, #0]
24054412:	681b      	ldr	r3, [r3, #0]
24054414:	402b      	ands	r3, r5
24054416:	d1c7      	bne.n	240543a8 <HAL_ADC_PollForConversion+0x48>
24054418:	6d62      	ldr	r2, [r4, #84]	@ 0x54
2405441a:	2003      	movs	r0, #3
2405441c:	f884 3050 	strb.w	r3, [r4, #80]	@ 0x50
24054420:	f042 0204 	orr.w	r2, r2, #4
24054424:	6562      	str	r2, [r4, #84]	@ 0x54
24054426:	e7b5      	b.n	24054394 <HAL_ADC_PollForConversion+0x34>
24054428:	4a05      	ldr	r2, [pc, #20]	@ (24054440 <HAL_ADC_PollForConversion+0xe0>)
2405442a:	68d2      	ldr	r2, [r2, #12]
2405442c:	e7e1      	b.n	240543f2 <HAL_ADC_PollForConversion+0x92>
2405442e:	0452      	lsls	r2, r2, #17
24054430:	d4e2      	bmi.n	240543f8 <HAL_ADC_PollForConversion+0x98>
24054432:	220c      	movs	r2, #12
24054434:	601a      	str	r2, [r3, #0]
24054436:	e7df      	b.n	240543f8 <HAL_ADC_PollForConversion+0x98>
24054438:	40022300 	.word	0x40022300
2405443c:	40022100 	.word	0x40022100
24054440:	40022000 	.word	0x40022000

24054444 <HAL_ADC_GetValue>:
24054444:	6803      	ldr	r3, [r0, #0]
24054446:	6c18      	ldr	r0, [r3, #64]	@ 0x40
24054448:	4770      	bx	lr

2405444a <HAL_ADC_LevelOutOfWindowCallback>:
2405444a:	4770      	bx	lr

2405444c <HAL_ADC_ErrorCallback>:
2405444c:	4770      	bx	lr
	...

24054450 <HAL_ADC_IRQHandler>:
24054450:	6803      	ldr	r3, [r0, #0]
24054452:	e92d 41f0 	stmdb	sp!, {r4, r5, r6, r7, r8, lr}
24054456:	681e      	ldr	r6, [r3, #0]
24054458:	4604      	mov	r4, r0
2405445a:	f8df 8234 	ldr.w	r8, [pc, #564]	@ 24054690 <HAL_ADC_IRQHandler+0x240>
2405445e:	685d      	ldr	r5, [r3, #4]
24054460:	07b0      	lsls	r0, r6, #30
24054462:	f8d8 7008 	ldr.w	r7, [r8, #8]
24054466:	f007 071f 	and.w	r7, r7, #31
2405446a:	d50e      	bpl.n	2405448a <HAL_ADC_IRQHandler+0x3a>
2405446c:	07a9      	lsls	r1, r5, #30
2405446e:	d50c      	bpl.n	2405448a <HAL_ADC_IRQHandler+0x3a>
24054470:	6d63      	ldr	r3, [r4, #84]	@ 0x54
24054472:	06da      	lsls	r2, r3, #27
24054474:	d403      	bmi.n	2405447e <HAL_ADC_IRQHandler+0x2e>
24054476:	6d63      	ldr	r3, [r4, #84]	@ 0x54
24054478:	f443 6300 	orr.w	r3, r3, #2048	@ 0x800
2405447c:	6563      	str	r3, [r4, #84]	@ 0x54
2405447e:	4620      	mov	r0, r4
24054480:	f000 fe36 	bl	240550f0 <HAL_ADCEx_EndOfSamplingCallback>
24054484:	6823      	ldr	r3, [r4, #0]
24054486:	2202      	movs	r2, #2
24054488:	601a      	str	r2, [r3, #0]
2405448a:	0773      	lsls	r3, r6, #29
2405448c:	d501      	bpl.n	24054492 <HAL_ADC_IRQHandler+0x42>
2405448e:	0768      	lsls	r0, r5, #29
24054490:	d403      	bmi.n	2405449a <HAL_ADC_IRQHandler+0x4a>
24054492:	0731      	lsls	r1, r6, #28
24054494:	d537      	bpl.n	24054506 <HAL_ADC_IRQHandler+0xb6>
24054496:	072a      	lsls	r2, r5, #28
24054498:	d535      	bpl.n	24054506 <HAL_ADC_IRQHandler+0xb6>
2405449a:	6d63      	ldr	r3, [r4, #84]	@ 0x54
2405449c:	06db      	lsls	r3, r3, #27
2405449e:	d403      	bmi.n	240544a8 <HAL_ADC_IRQHandler+0x58>
240544a0:	6d63      	ldr	r3, [r4, #84]	@ 0x54
240544a2:	f443 7300 	orr.w	r3, r3, #512	@ 0x200
240544a6:	6563      	str	r3, [r4, #84]	@ 0x54
240544a8:	6823      	ldr	r3, [r4, #0]
240544aa:	68da      	ldr	r2, [r3, #12]
240544ac:	f412 6f40 	tst.w	r2, #3072	@ 0xc00
240544b0:	d123      	bne.n	240544fa <HAL_ADC_IRQHandler+0xaa>
240544b2:	4a75      	ldr	r2, [pc, #468]	@ (24054688 <HAL_ADC_IRQHandler+0x238>)
240544b4:	4293      	cmp	r3, r2
240544b6:	d105      	bne.n	240544c4 <HAL_ADC_IRQHandler+0x74>
240544b8:	f240 2221 	movw	r2, #545	@ 0x221
240544bc:	40fa      	lsrs	r2, r7
240544be:	07d0      	lsls	r0, r2, #31
240544c0:	f140 80be 	bpl.w	24054640 <HAL_ADC_IRQHandler+0x1f0>
240544c4:	68da      	ldr	r2, [r3, #12]
240544c6:	0491      	lsls	r1, r2, #18
240544c8:	d417      	bmi.n	240544fa <HAL_ADC_IRQHandler+0xaa>
240544ca:	681a      	ldr	r2, [r3, #0]
240544cc:	0712      	lsls	r2, r2, #28
240544ce:	d514      	bpl.n	240544fa <HAL_ADC_IRQHandler+0xaa>
240544d0:	4618      	mov	r0, r3
240544d2:	f7ff ff41 	bl	24054358 <LL_ADC_REG_IsConversionOngoing>
240544d6:	2800      	cmp	r0, #0
240544d8:	f040 80b5 	bne.w	24054646 <HAL_ADC_IRQHandler+0x1f6>
240544dc:	685a      	ldr	r2, [r3, #4]
240544de:	f022 020c 	bic.w	r2, r2, #12
240544e2:	605a      	str	r2, [r3, #4]
240544e4:	6d63      	ldr	r3, [r4, #84]	@ 0x54
240544e6:	f423 7380 	bic.w	r3, r3, #256	@ 0x100
240544ea:	6563      	str	r3, [r4, #84]	@ 0x54
240544ec:	6d63      	ldr	r3, [r4, #84]	@ 0x54
240544ee:	04d8      	lsls	r0, r3, #19
240544f0:	d403      	bmi.n	240544fa <HAL_ADC_IRQHandler+0xaa>
240544f2:	6d63      	ldr	r3, [r4, #84]	@ 0x54
240544f4:	f043 0301 	orr.w	r3, r3, #1
240544f8:	6563      	str	r3, [r4, #84]	@ 0x54
240544fa:	4620      	mov	r0, r4
240544fc:	f7fd faba 	bl	24051a74 <HAL_ADC_ConvCpltCallback>
24054500:	6823      	ldr	r3, [r4, #0]
24054502:	220c      	movs	r2, #12
24054504:	601a      	str	r2, [r3, #0]
24054506:	06b1      	lsls	r1, r6, #26
24054508:	d501      	bpl.n	2405450e <HAL_ADC_IRQHandler+0xbe>
2405450a:	06aa      	lsls	r2, r5, #26
2405450c:	d403      	bmi.n	24054516 <HAL_ADC_IRQHandler+0xc6>
2405450e:	0673      	lsls	r3, r6, #25
24054510:	d53a      	bpl.n	24054588 <HAL_ADC_IRQHandler+0x138>
24054512:	0668      	lsls	r0, r5, #25
24054514:	d538      	bpl.n	24054588 <HAL_ADC_IRQHandler+0x138>
24054516:	6d63      	ldr	r3, [r4, #84]	@ 0x54
24054518:	06d9      	lsls	r1, r3, #27
2405451a:	d403      	bmi.n	24054524 <HAL_ADC_IRQHandler+0xd4>
2405451c:	6d63      	ldr	r3, [r4, #84]	@ 0x54
2405451e:	f443 5300 	orr.w	r3, r3, #8192	@ 0x2000
24054522:	6563      	str	r3, [r4, #84]	@ 0x54
24054524:	6823      	ldr	r3, [r4, #0]
24054526:	4a58      	ldr	r2, [pc, #352]	@ (24054688 <HAL_ADC_IRQHandler+0x238>)
24054528:	6cd9      	ldr	r1, [r3, #76]	@ 0x4c
2405452a:	4293      	cmp	r3, r2
2405452c:	68d8      	ldr	r0, [r3, #12]
2405452e:	f401 71c0 	and.w	r1, r1, #384	@ 0x180
24054532:	f040 8091 	bne.w	24054658 <HAL_ADC_IRQHandler+0x208>
24054536:	22c1      	movs	r2, #193	@ 0xc1
24054538:	40fa      	lsrs	r2, r7
2405453a:	07d2      	lsls	r2, r2, #31
2405453c:	f100 808c 	bmi.w	24054658 <HAL_ADC_IRQHandler+0x208>
24054540:	4a52      	ldr	r2, [pc, #328]	@ (2405468c <HAL_ADC_IRQHandler+0x23c>)
24054542:	68d2      	ldr	r2, [r2, #12]
24054544:	b9d1      	cbnz	r1, 2405457c <HAL_ADC_IRQHandler+0x12c>
24054546:	0191      	lsls	r1, r2, #6
24054548:	d505      	bpl.n	24054556 <HAL_ADC_IRQHandler+0x106>
2405454a:	f402 5100 	and.w	r1, r2, #8192	@ 0x2000
2405454e:	f400 6040 	and.w	r0, r0, #3072	@ 0xc00
24054552:	4301      	orrs	r1, r0
24054554:	d112      	bne.n	2405457c <HAL_ADC_IRQHandler+0x12c>
24054556:	6819      	ldr	r1, [r3, #0]
24054558:	0649      	lsls	r1, r1, #25
2405455a:	d50f      	bpl.n	2405457c <HAL_ADC_IRQHandler+0x12c>
2405455c:	0292      	lsls	r2, r2, #10
2405455e:	d40d      	bmi.n	2405457c <HAL_ADC_IRQHandler+0x12c>
24054560:	689a      	ldr	r2, [r3, #8]
24054562:	0710      	lsls	r0, r2, #28
24054564:	d47a      	bmi.n	2405465c <HAL_ADC_IRQHandler+0x20c>
24054566:	685a      	ldr	r2, [r3, #4]
24054568:	f022 0260 	bic.w	r2, r2, #96	@ 0x60
2405456c:	605a      	str	r2, [r3, #4]
2405456e:	6d63      	ldr	r3, [r4, #84]	@ 0x54
24054570:	f423 5380 	bic.w	r3, r3, #4096	@ 0x1000
24054574:	6563      	str	r3, [r4, #84]	@ 0x54
24054576:	6d63      	ldr	r3, [r4, #84]	@ 0x54
24054578:	05d9      	lsls	r1, r3, #23
2405457a:	d578      	bpl.n	2405466e <HAL_ADC_IRQHandler+0x21e>
2405457c:	4620      	mov	r0, r4
2405457e:	f000 fdb3 	bl	240550e8 <HAL_ADCEx_InjectedConvCpltCallback>
24054582:	6823      	ldr	r3, [r4, #0]
24054584:	2260      	movs	r2, #96	@ 0x60
24054586:	601a      	str	r2, [r3, #0]
24054588:	0632      	lsls	r2, r6, #24
2405458a:	d50b      	bpl.n	240545a4 <HAL_ADC_IRQHandler+0x154>
2405458c:	062b      	lsls	r3, r5, #24
2405458e:	d509      	bpl.n	240545a4 <HAL_ADC_IRQHandler+0x154>
24054590:	6d63      	ldr	r3, [r4, #84]	@ 0x54
24054592:	4620      	mov	r0, r4
24054594:	f443 3380 	orr.w	r3, r3, #65536	@ 0x10000
24054598:	6563      	str	r3, [r4, #84]	@ 0x54
2405459a:	f7ff ff56 	bl	2405444a <HAL_ADC_LevelOutOfWindowCallback>
2405459e:	6823      	ldr	r3, [r4, #0]
240545a0:	2280      	movs	r2, #128	@ 0x80
240545a2:	601a      	str	r2, [r3, #0]
240545a4:	05f0      	lsls	r0, r6, #23
240545a6:	d50c      	bpl.n	240545c2 <HAL_ADC_IRQHandler+0x172>
240545a8:	05e9      	lsls	r1, r5, #23
240545aa:	d50a      	bpl.n	240545c2 <HAL_ADC_IRQHandler+0x172>
240545ac:	6d63      	ldr	r3, [r4, #84]	@ 0x54
240545ae:	4620      	mov	r0, r4
240545b0:	f443 3300 	orr.w	r3, r3, #131072	@ 0x20000
240545b4:	6563      	str	r3, [r4, #84]	@ 0x54
240545b6:	f000 fd99 	bl	240550ec <HAL_ADCEx_LevelOutOfWindow2Callback>
240545ba:	6823      	ldr	r3, [r4, #0]
240545bc:	f44f 7280 	mov.w	r2, #256	@ 0x100
240545c0:	601a      	str	r2, [r3, #0]
240545c2:	05b2      	lsls	r2, r6, #22
240545c4:	d50c      	bpl.n	240545e0 <HAL_ADC_IRQHandler+0x190>
240545c6:	05ab      	lsls	r3, r5, #22
240545c8:	d50a      	bpl.n	240545e0 <HAL_ADC_IRQHandler+0x190>
240545ca:	6d63      	ldr	r3, [r4, #84]	@ 0x54
240545cc:	4620      	mov	r0, r4
240545ce:	f443 2380 	orr.w	r3, r3, #262144	@ 0x40000
240545d2:	6563      	str	r3, [r4, #84]	@ 0x54
240545d4:	f000 fd8b 	bl	240550ee <HAL_ADCEx_LevelOutOfWindow3Callback>
240545d8:	6823      	ldr	r3, [r4, #0]
240545da:	f44f 7200 	mov.w	r2, #512	@ 0x200
240545de:	601a      	str	r2, [r3, #0]
240545e0:	06f0      	lsls	r0, r6, #27
240545e2:	d518      	bpl.n	24054616 <HAL_ADC_IRQHandler+0x1c6>
240545e4:	06e9      	lsls	r1, r5, #27
240545e6:	d516      	bpl.n	24054616 <HAL_ADC_IRQHandler+0x1c6>
240545e8:	6b23      	ldr	r3, [r4, #48]	@ 0x30
240545ea:	b133      	cbz	r3, 240545fa <HAL_ADC_IRQHandler+0x1aa>
240545ec:	2f00      	cmp	r7, #0
240545ee:	d043      	beq.n	24054678 <HAL_ADC_IRQHandler+0x228>
240545f0:	f8d8 3008 	ldr.w	r3, [r8, #8]
240545f4:	f413 4f40 	tst.w	r3, #49152	@ 0xc000
240545f8:	d00a      	beq.n	24054610 <HAL_ADC_IRQHandler+0x1c0>
240545fa:	6d63      	ldr	r3, [r4, #84]	@ 0x54
240545fc:	4620      	mov	r0, r4
240545fe:	f443 6380 	orr.w	r3, r3, #1024	@ 0x400
24054602:	6563      	str	r3, [r4, #84]	@ 0x54
24054604:	6da3      	ldr	r3, [r4, #88]	@ 0x58
24054606:	f043 0302 	orr.w	r3, r3, #2
2405460a:	65a3      	str	r3, [r4, #88]	@ 0x58
2405460c:	f7ff ff1e 	bl	2405444c <HAL_ADC_ErrorCallback>
24054610:	6823      	ldr	r3, [r4, #0]
24054612:	2210      	movs	r2, #16
24054614:	601a      	str	r2, [r3, #0]
24054616:	0572      	lsls	r2, r6, #21
24054618:	d533      	bpl.n	24054682 <HAL_ADC_IRQHandler+0x232>
2405461a:	056b      	lsls	r3, r5, #21
2405461c:	d531      	bpl.n	24054682 <HAL_ADC_IRQHandler+0x232>
2405461e:	6d63      	ldr	r3, [r4, #84]	@ 0x54
24054620:	f44f 6280 	mov.w	r2, #1024	@ 0x400
24054624:	4620      	mov	r0, r4
24054626:	f443 4380 	orr.w	r3, r3, #16384	@ 0x4000
2405462a:	6563      	str	r3, [r4, #84]	@ 0x54
2405462c:	6da3      	ldr	r3, [r4, #88]	@ 0x58
2405462e:	f043 0308 	orr.w	r3, r3, #8
24054632:	65a3      	str	r3, [r4, #88]	@ 0x58
24054634:	6823      	ldr	r3, [r4, #0]
24054636:	e8bd 41f0 	ldmia.w	sp!, {r4, r5, r6, r7, r8, lr}
2405463a:	601a      	str	r2, [r3, #0]
2405463c:	f000 bd55 	b.w	240550ea <HAL_ADCEx_InjectedQueueOverflowCallback>
24054640:	4a12      	ldr	r2, [pc, #72]	@ (2405468c <HAL_ADC_IRQHandler+0x23c>)
24054642:	68d2      	ldr	r2, [r2, #12]
24054644:	e73f      	b.n	240544c6 <HAL_ADC_IRQHandler+0x76>
24054646:	6d63      	ldr	r3, [r4, #84]	@ 0x54
24054648:	f043 0310 	orr.w	r3, r3, #16
2405464c:	6563      	str	r3, [r4, #84]	@ 0x54
2405464e:	6da3      	ldr	r3, [r4, #88]	@ 0x58
24054650:	f043 0301 	orr.w	r3, r3, #1
24054654:	65a3      	str	r3, [r4, #88]	@ 0x58
24054656:	e750      	b.n	240544fa <HAL_ADC_IRQHandler+0xaa>
24054658:	68da      	ldr	r2, [r3, #12]
2405465a:	e773      	b.n	24054544 <HAL_ADC_IRQHandler+0xf4>
2405465c:	6d63      	ldr	r3, [r4, #84]	@ 0x54
2405465e:	f043 0310 	orr.w	r3, r3, #16
24054662:	6563      	str	r3, [r4, #84]	@ 0x54
24054664:	6da3      	ldr	r3, [r4, #88]	@ 0x58
24054666:	f043 0301 	orr.w	r3, r3, #1
2405466a:	65a3      	str	r3, [r4, #88]	@ 0x58
2405466c:	e786      	b.n	2405457c <HAL_ADC_IRQHandler+0x12c>
2405466e:	6d63      	ldr	r3, [r4, #84]	@ 0x54
24054670:	f043 0301 	orr.w	r3, r3, #1
24054674:	6563      	str	r3, [r4, #84]	@ 0x54
24054676:	e781      	b.n	2405457c <HAL_ADC_IRQHandler+0x12c>
24054678:	6823      	ldr	r3, [r4, #0]
2405467a:	68db      	ldr	r3, [r3, #12]
2405467c:	f013 0f03 	tst.w	r3, #3
24054680:	e7ba      	b.n	240545f8 <HAL_ADC_IRQHandler+0x1a8>
24054682:	e8bd 81f0 	ldmia.w	sp!, {r4, r5, r6, r7, r8, pc}
24054686:	bf00      	nop
24054688:	40022100 	.word	0x40022100
2405468c:	40022000 	.word	0x40022000
24054690:	40022300 	.word	0x40022300

24054694 <HAL_ADC_ConfigChannel>:
24054694:	2300      	movs	r3, #0
24054696:	b5f7      	push	{r0, r1, r2, r4, r5, r6, r7, lr}
24054698:	9301      	str	r3, [sp, #4]
2405469a:	4605      	mov	r5, r0
2405469c:	f890 3050 	ldrb.w	r3, [r0, #80]	@ 0x50
240546a0:	460e      	mov	r6, r1
240546a2:	2b01      	cmp	r3, #1
240546a4:	f000 8188 	beq.w	240549b8 <HAL_ADC_ConfigChannel+0x324>
240546a8:	2201      	movs	r2, #1
240546aa:	6804      	ldr	r4, [r0, #0]
240546ac:	f880 2050 	strb.w	r2, [r0, #80]	@ 0x50
240546b0:	4620      	mov	r0, r4
240546b2:	f7ff fe51 	bl	24054358 <LL_ADC_REG_IsConversionOngoing>
240546b6:	2800      	cmp	r0, #0
240546b8:	f040 8178 	bne.w	240549ac <HAL_ADC_ConfigChannel+0x318>
240546bc:	680b      	ldr	r3, [r1, #0]
240546be:	2b00      	cmp	r3, #0
240546c0:	ea4f 6193 	mov.w	r1, r3, lsr #26
240546c4:	db07      	blt.n	240546d6 <HAL_ADC_ConfigChannel+0x42>
240546c6:	f3c3 0013 	ubfx	r0, r3, #0, #20
240546ca:	2800      	cmp	r0, #0
240546cc:	d16f      	bne.n	240547ae <HAL_ADC_ConfigChannel+0x11a>
240546ce:	408a      	lsls	r2, r1
240546d0:	69e3      	ldr	r3, [r4, #28]
240546d2:	4313      	orrs	r3, r2
240546d4:	61e3      	str	r3, [r4, #28]
240546d6:	6872      	ldr	r2, [r6, #4]
240546d8:	f104 0c30 	add.w	ip, r4, #48	@ 0x30
240546dc:	271f      	movs	r7, #31
240546de:	f001 011f 	and.w	r1, r1, #31
240546e2:	0990      	lsrs	r0, r2, #6
240546e4:	f002 021f 	and.w	r2, r2, #31
240546e8:	f000 000c 	and.w	r0, r0, #12
240546ec:	4097      	lsls	r7, r2
240546ee:	4091      	lsls	r1, r2
240546f0:	f85c 3000 	ldr.w	r3, [ip, r0]
240546f4:	ea23 0307 	bic.w	r3, r3, r7
240546f8:	430b      	orrs	r3, r1
240546fa:	f84c 3000 	str.w	r3, [ip, r0]
240546fe:	4620      	mov	r0, r4
24054700:	f7ff fe2a 	bl	24054358 <LL_ADC_REG_IsConversionOngoing>
24054704:	68a3      	ldr	r3, [r4, #8]
24054706:	f003 0308 	and.w	r3, r3, #8
2405470a:	4303      	orrs	r3, r0
2405470c:	d144      	bne.n	24054798 <HAL_ADC_ConfigChannel+0x104>
2405470e:	68b2      	ldr	r2, [r6, #8]
24054710:	4620      	mov	r0, r4
24054712:	6831      	ldr	r1, [r6, #0]
24054714:	f7ff fe0c 	bl	24054330 <LL_ADC_SetChannelSamplingTime>
24054718:	68e3      	ldr	r3, [r4, #12]
2405471a:	6937      	ldr	r7, [r6, #16]
2405471c:	f013 0f10 	tst.w	r3, #16
24054720:	68e3      	ldr	r3, [r4, #12]
24054722:	6971      	ldr	r1, [r6, #20]
24054724:	bf0c      	ite	eq
24054726:	f3c3 0382 	ubfxeq	r3, r3, #2, #3
2405472a:	085b      	lsrne	r3, r3, #1
2405472c:	6832      	ldr	r2, [r6, #0]
2405472e:	bf0c      	ite	eq
24054730:	005b      	lsleq	r3, r3, #1
24054732:	f003 0308 	andne.w	r3, r3, #8
24054736:	2f04      	cmp	r7, #4
24054738:	fa01 f103 	lsl.w	r1, r1, r3
2405473c:	d040      	beq.n	240547c0 <HAL_ADC_ConfigChannel+0x12c>
2405473e:	f104 0060 	add.w	r0, r4, #96	@ 0x60
24054742:	f002 42f8 	and.w	r2, r2, #2080374784	@ 0x7c000000
24054746:	f850 3027 	ldr.w	r3, [r0, r7, lsl #2]
2405474a:	f003 4300 	and.w	r3, r3, #2147483648	@ 0x80000000
2405474e:	4313      	orrs	r3, r2
24054750:	430b      	orrs	r3, r1
24054752:	f840 3027 	str.w	r3, [r0, r7, lsl #2]
24054756:	7e72      	ldrb	r2, [r6, #25]
24054758:	6931      	ldr	r1, [r6, #16]
2405475a:	f102 3cff 	add.w	ip, r2, #4294967295
2405475e:	f850 3021 	ldr.w	r3, [r0, r1, lsl #2]
24054762:	f1dc 0200 	rsbs	r2, ip, #0
24054766:	f023 4300 	bic.w	r3, r3, #2147483648	@ 0x80000000
2405476a:	eb42 020c 	adc.w	r2, r2, ip
2405476e:	ea43 73c2 	orr.w	r3, r3, r2, lsl #31
24054772:	f840 3021 	str.w	r3, [r0, r1, lsl #2]
24054776:	7e33      	ldrb	r3, [r6, #24]
24054778:	6931      	ldr	r1, [r6, #16]
2405477a:	f103 3eff 	add.w	lr, r3, #4294967295
2405477e:	6922      	ldr	r2, [r4, #16]
24054780:	f001 011f 	and.w	r1, r1, #31
24054784:	f1de 0300 	rsbs	r3, lr, #0
24054788:	f422 42f0 	bic.w	r2, r2, #30720	@ 0x7800
2405478c:	eb43 030e 	adc.w	r3, r3, lr
24054790:	02db      	lsls	r3, r3, #11
24054792:	408b      	lsls	r3, r1
24054794:	4313      	orrs	r3, r2
24054796:	6123      	str	r3, [r4, #16]
24054798:	4620      	mov	r0, r4
2405479a:	f7ff fdd9 	bl	24054350 <LL_ADC_IsEnabled>
2405479e:	2800      	cmp	r0, #0
240547a0:	d035      	beq.n	2405480e <HAL_ADC_ConfigChannel+0x17a>
240547a2:	2000      	movs	r0, #0
240547a4:	2300      	movs	r3, #0
240547a6:	f885 3050 	strb.w	r3, [r5, #80]	@ 0x50
240547aa:	b003      	add	sp, #12
240547ac:	bdf0      	pop	{r4, r5, r6, r7, pc}
240547ae:	fa93 f3a3 	rbit	r3, r3
240547b2:	fab3 f383 	clz	r3, r3
240547b6:	2201      	movs	r2, #1
240547b8:	f003 031f 	and.w	r3, r3, #31
240547bc:	409a      	lsls	r2, r3
240547be:	e787      	b.n	240546d0 <HAL_ADC_ConfigChannel+0x3c>
240547c0:	6e23      	ldr	r3, [r4, #96]	@ 0x60
240547c2:	0691      	lsls	r1, r2, #26
240547c4:	f003 43f8 	and.w	r3, r3, #2080374784	@ 0x7c000000
240547c8:	ebb3 6f82 	cmp.w	r3, r2, lsl #26
240547cc:	d103      	bne.n	240547d6 <HAL_ADC_ConfigChannel+0x142>
240547ce:	6e23      	ldr	r3, [r4, #96]	@ 0x60
240547d0:	f023 4300 	bic.w	r3, r3, #2147483648	@ 0x80000000
240547d4:	6623      	str	r3, [r4, #96]	@ 0x60
240547d6:	6e63      	ldr	r3, [r4, #100]	@ 0x64
240547d8:	f003 43f8 	and.w	r3, r3, #2080374784	@ 0x7c000000
240547dc:	4299      	cmp	r1, r3
240547de:	d103      	bne.n	240547e8 <HAL_ADC_ConfigChannel+0x154>
240547e0:	6e63      	ldr	r3, [r4, #100]	@ 0x64
240547e2:	f023 4300 	bic.w	r3, r3, #2147483648	@ 0x80000000
240547e6:	6663      	str	r3, [r4, #100]	@ 0x64
240547e8:	6ea3      	ldr	r3, [r4, #104]	@ 0x68
240547ea:	f003 43f8 	and.w	r3, r3, #2080374784	@ 0x7c000000
240547ee:	4299      	cmp	r1, r3
240547f0:	d103      	bne.n	240547fa <HAL_ADC_ConfigChannel+0x166>
240547f2:	6ea3      	ldr	r3, [r4, #104]	@ 0x68
240547f4:	f023 4300 	bic.w	r3, r3, #2147483648	@ 0x80000000
240547f8:	66a3      	str	r3, [r4, #104]	@ 0x68
240547fa:	6ee3      	ldr	r3, [r4, #108]	@ 0x6c
240547fc:	f003 43f8 	and.w	r3, r3, #2080374784	@ 0x7c000000
24054800:	4299      	cmp	r1, r3
24054802:	d1c9      	bne.n	24054798 <HAL_ADC_ConfigChannel+0x104>
24054804:	6ee3      	ldr	r3, [r4, #108]	@ 0x6c
24054806:	f023 4300 	bic.w	r3, r3, #2147483648	@ 0x80000000
2405480a:	66e3      	str	r3, [r4, #108]	@ 0x6c
2405480c:	e7c4      	b.n	24054798 <HAL_ADC_ConfigChannel+0x104>
2405480e:	68f7      	ldr	r7, [r6, #12]
24054810:	6833      	ldr	r3, [r6, #0]
24054812:	f007 0c18 	and.w	ip, r7, #24
24054816:	4a69      	ldr	r2, [pc, #420]	@ (240549bc <HAL_ADC_ConfigChannel+0x328>)
24054818:	f8d4 10c0 	ldr.w	r1, [r4, #192]	@ 0xc0
2405481c:	f3c3 0013 	ubfx	r0, r3, #0, #20
24054820:	fa22 f20c 	lsr.w	r2, r2, ip
24054824:	ea21 0100 	bic.w	r1, r1, r0
24054828:	401a      	ands	r2, r3
2405482a:	430a      	orrs	r2, r1
2405482c:	f8c4 20c0 	str.w	r2, [r4, #192]	@ 0xc0
24054830:	4a63      	ldr	r2, [pc, #396]	@ (240549c0 <HAL_ADC_ConfigChannel+0x32c>)
24054832:	4297      	cmp	r7, r2
24054834:	d11b      	bne.n	2405486e <HAL_ADC_ConfigChannel+0x1da>
24054836:	2800      	cmp	r0, #0
24054838:	d148      	bne.n	240548cc <HAL_ADC_ConfigChannel+0x238>
2405483a:	0e9a      	lsrs	r2, r3, #26
2405483c:	2101      	movs	r1, #1
2405483e:	3201      	adds	r2, #1
24054840:	f002 071f 	and.w	r7, r2, #31
24054844:	0692      	lsls	r2, r2, #26
24054846:	2f09      	cmp	r7, #9
24054848:	d860      	bhi.n	2405490c <HAL_ADC_ConfigChannel+0x278>
2405484a:	f002 42f8 	and.w	r2, r2, #2080374784	@ 0x7c000000
2405484e:	40b9      	lsls	r1, r7
24054850:	430a      	orrs	r2, r1
24054852:	2800      	cmp	r0, #0
24054854:	d155      	bne.n	24054902 <HAL_ADC_ConfigChannel+0x26e>
24054856:	0e99      	lsrs	r1, r3, #26
24054858:	3101      	adds	r1, #1
2405485a:	f001 011f 	and.w	r1, r1, #31
2405485e:	eb01 0141 	add.w	r1, r1, r1, lsl #1
24054862:	0509      	lsls	r1, r1, #20
24054864:	4311      	orrs	r1, r2
24054866:	4620      	mov	r0, r4
24054868:	68b2      	ldr	r2, [r6, #8]
2405486a:	f7ff fd61 	bl	24054330 <LL_ADC_SetChannelSamplingTime>
2405486e:	6836      	ldr	r6, [r6, #0]
24054870:	2e00      	cmp	r6, #0
24054872:	da96      	bge.n	240547a2 <HAL_ADC_ConfigChannel+0x10e>
24054874:	4b53      	ldr	r3, [pc, #332]	@ (240549c4 <HAL_ADC_ConfigChannel+0x330>)
24054876:	4854      	ldr	r0, [pc, #336]	@ (240549c8 <HAL_ADC_ConfigChannel+0x334>)
24054878:	4a54      	ldr	r2, [pc, #336]	@ (240549cc <HAL_ADC_ConfigChannel+0x338>)
2405487a:	6899      	ldr	r1, [r3, #8]
2405487c:	f7ff fd68 	bl	24054350 <LL_ADC_IsEnabled>
24054880:	4607      	mov	r7, r0
24054882:	4610      	mov	r0, r2
24054884:	f7ff fd64 	bl	24054350 <LL_ADC_IsEnabled>
24054888:	4307      	orrs	r7, r0
2405488a:	f040 808f 	bne.w	240549ac <HAL_ADC_ConfigChannel+0x318>
2405488e:	4f50      	ldr	r7, [pc, #320]	@ (240549d0 <HAL_ADC_ConfigChannel+0x33c>)
24054890:	f001 70e0 	and.w	r0, r1, #29360128	@ 0x1c00000
24054894:	42be      	cmp	r6, r7
24054896:	d167      	bne.n	24054968 <HAL_ADC_ConfigChannel+0x2d4>
24054898:	020f      	lsls	r7, r1, #8
2405489a:	d482      	bmi.n	240547a2 <HAL_ADC_ConfigChannel+0x10e>
2405489c:	4294      	cmp	r4, r2
2405489e:	d180      	bne.n	240547a2 <HAL_ADC_ConfigChannel+0x10e>
240548a0:	689a      	ldr	r2, [r3, #8]
240548a2:	f022 72e0 	bic.w	r2, r2, #29360128	@ 0x1c00000
240548a6:	4302      	orrs	r2, r0
240548a8:	f442 0200 	orr.w	r2, r2, #8388608	@ 0x800000
240548ac:	609a      	str	r2, [r3, #8]
240548ae:	4b49      	ldr	r3, [pc, #292]	@ (240549d4 <HAL_ADC_ConfigChannel+0x340>)
240548b0:	4a49      	ldr	r2, [pc, #292]	@ (240549d8 <HAL_ADC_ConfigChannel+0x344>)
240548b2:	681b      	ldr	r3, [r3, #0]
240548b4:	fbb3 f3f2 	udiv	r3, r3, r2
240548b8:	3301      	adds	r3, #1
240548ba:	005b      	lsls	r3, r3, #1
240548bc:	9301      	str	r3, [sp, #4]
240548be:	9b01      	ldr	r3, [sp, #4]
240548c0:	2b00      	cmp	r3, #0
240548c2:	f43f af6e 	beq.w	240547a2 <HAL_ADC_ConfigChannel+0x10e>
240548c6:	9b01      	ldr	r3, [sp, #4]
240548c8:	3b01      	subs	r3, #1
240548ca:	e7f7      	b.n	240548bc <HAL_ADC_ConfigChannel+0x228>
240548cc:	fa93 f2a3 	rbit	r2, r3
240548d0:	b132      	cbz	r2, 240548e0 <HAL_ADC_ConfigChannel+0x24c>
240548d2:	fab2 f282 	clz	r2, r2
240548d6:	3201      	adds	r2, #1
240548d8:	f002 021f 	and.w	r2, r2, #31
240548dc:	2a09      	cmp	r2, #9
240548de:	d825      	bhi.n	2405492c <HAL_ADC_ConfigChannel+0x298>
240548e0:	fa93 f2a3 	rbit	r2, r3
240548e4:	fab2 f282 	clz	r2, r2
240548e8:	3201      	adds	r2, #1
240548ea:	0692      	lsls	r2, r2, #26
240548ec:	f002 42f8 	and.w	r2, r2, #2080374784	@ 0x7c000000
240548f0:	fa93 f7a3 	rbit	r7, r3
240548f4:	fab7 f787 	clz	r7, r7
240548f8:	2101      	movs	r1, #1
240548fa:	3701      	adds	r7, #1
240548fc:	f007 071f 	and.w	r7, r7, #31
24054900:	e7a5      	b.n	2405484e <HAL_ADC_ConfigChannel+0x1ba>
24054902:	fa93 f1a3 	rbit	r1, r3
24054906:	fab1 f181 	clz	r1, r1
2405490a:	e7a5      	b.n	24054858 <HAL_ADC_ConfigChannel+0x1c4>
2405490c:	f002 42f8 	and.w	r2, r2, #2080374784	@ 0x7c000000
24054910:	40b9      	lsls	r1, r7
24054912:	430a      	orrs	r2, r1
24054914:	b9d8      	cbnz	r0, 2405494e <HAL_ADC_ConfigChannel+0x2ba>
24054916:	0e99      	lsrs	r1, r3, #26
24054918:	3101      	adds	r1, #1
2405491a:	f001 011f 	and.w	r1, r1, #31
2405491e:	eb01 0141 	add.w	r1, r1, r1, lsl #1
24054922:	391e      	subs	r1, #30
24054924:	0509      	lsls	r1, r1, #20
24054926:	f041 7100 	orr.w	r1, r1, #33554432	@ 0x2000000
2405492a:	e79b      	b.n	24054864 <HAL_ADC_ConfigChannel+0x1d0>
2405492c:	fa93 f2a3 	rbit	r2, r3
24054930:	fab2 f282 	clz	r2, r2
24054934:	3201      	adds	r2, #1
24054936:	0692      	lsls	r2, r2, #26
24054938:	f002 42f8 	and.w	r2, r2, #2080374784	@ 0x7c000000
2405493c:	fa93 f7a3 	rbit	r7, r3
24054940:	fab7 f787 	clz	r7, r7
24054944:	2101      	movs	r1, #1
24054946:	3701      	adds	r7, #1
24054948:	f007 071f 	and.w	r7, r7, #31
2405494c:	e7e0      	b.n	24054910 <HAL_ADC_ConfigChannel+0x27c>
2405494e:	fa93 f3a3 	rbit	r3, r3
24054952:	fab3 f383 	clz	r3, r3
24054956:	2103      	movs	r1, #3
24054958:	f06f 001d 	mvn.w	r0, #29
2405495c:	3301      	adds	r3, #1
2405495e:	f003 031f 	and.w	r3, r3, #31
24054962:	fb11 0103 	smlabb	r1, r1, r3, r0
24054966:	e7dd      	b.n	24054924 <HAL_ADC_ConfigChannel+0x290>
24054968:	4f1c      	ldr	r7, [pc, #112]	@ (240549dc <HAL_ADC_ConfigChannel+0x348>)
2405496a:	42be      	cmp	r6, r7
2405496c:	d10d      	bne.n	2405498a <HAL_ADC_ConfigChannel+0x2f6>
2405496e:	01ce      	lsls	r6, r1, #7
24054970:	f53f af17 	bmi.w	240547a2 <HAL_ADC_ConfigChannel+0x10e>
24054974:	4294      	cmp	r4, r2
24054976:	f47f af14 	bne.w	240547a2 <HAL_ADC_ConfigChannel+0x10e>
2405497a:	689a      	ldr	r2, [r3, #8]
2405497c:	f022 72e0 	bic.w	r2, r2, #29360128	@ 0x1c00000
24054980:	4302      	orrs	r2, r0
24054982:	f042 7280 	orr.w	r2, r2, #16777216	@ 0x1000000
24054986:	609a      	str	r2, [r3, #8]
24054988:	e70b      	b.n	240547a2 <HAL_ADC_ConfigChannel+0x10e>
2405498a:	4f15      	ldr	r7, [pc, #84]	@ (240549e0 <HAL_ADC_ConfigChannel+0x34c>)
2405498c:	42be      	cmp	r6, r7
2405498e:	f47f af08 	bne.w	240547a2 <HAL_ADC_ConfigChannel+0x10e>
24054992:	0249      	lsls	r1, r1, #9
24054994:	f53f af05 	bmi.w	240547a2 <HAL_ADC_ConfigChannel+0x10e>
24054998:	4294      	cmp	r4, r2
2405499a:	f47f af02 	bne.w	240547a2 <HAL_ADC_ConfigChannel+0x10e>
2405499e:	689a      	ldr	r2, [r3, #8]
240549a0:	f022 72e0 	bic.w	r2, r2, #29360128	@ 0x1c00000
240549a4:	4302      	orrs	r2, r0
240549a6:	f442 0280 	orr.w	r2, r2, #4194304	@ 0x400000
240549aa:	e7ec      	b.n	24054986 <HAL_ADC_ConfigChannel+0x2f2>
240549ac:	6d6b      	ldr	r3, [r5, #84]	@ 0x54
240549ae:	2001      	movs	r0, #1
240549b0:	f043 0320 	orr.w	r3, r3, #32
240549b4:	656b      	str	r3, [r5, #84]	@ 0x54
240549b6:	e6f5      	b.n	240547a4 <HAL_ADC_ConfigChannel+0x110>
240549b8:	2002      	movs	r0, #2
240549ba:	e6f6      	b.n	240547aa <HAL_ADC_ConfigChannel+0x116>
240549bc:	000fffff 	.word	0x000fffff
240549c0:	47ff0000 	.word	0x47ff0000
240549c4:	40022300 	.word	0x40022300
240549c8:	40022000 	.word	0x40022000
240549cc:	40022100 	.word	0x40022100
240549d0:	cb840000 	.word	0xcb840000
240549d4:	200000ac 	.word	0x200000ac
240549d8:	00030d40 	.word	0x00030d40
240549dc:	bac04000 	.word	0xbac04000
240549e0:	cfb80000 	.word	0xcfb80000

240549e4 <ADC_ConversionStop>:
240549e4:	6803      	ldr	r3, [r0, #0]
240549e6:	b570      	push	{r4, r5, r6, lr}
240549e8:	4604      	mov	r4, r0
240549ea:	4618      	mov	r0, r3
240549ec:	f7ff fcb4 	bl	24054358 <LL_ADC_REG_IsConversionOngoing>
240549f0:	689a      	ldr	r2, [r3, #8]
240549f2:	f002 0208 	and.w	r2, r2, #8
240549f6:	4302      	orrs	r2, r0
240549f8:	d101      	bne.n	240549fe <ADC_ConversionStop+0x1a>
240549fa:	2000      	movs	r0, #0
240549fc:	bd70      	pop	{r4, r5, r6, pc}
240549fe:	68da      	ldr	r2, [r3, #12]
24054a00:	0192      	lsls	r2, r2, #6
24054a02:	d53a      	bpl.n	24054a7a <ADC_ConversionStop+0x96>
24054a04:	8aa0      	ldrh	r0, [r4, #20]
24054a06:	f240 1201 	movw	r2, #257	@ 0x101
24054a0a:	4290      	cmp	r0, r2
24054a0c:	d135      	bne.n	24054a7a <ADC_ConversionStop+0x96>
24054a0e:	4a27      	ldr	r2, [pc, #156]	@ (24054aac <ADC_ConversionStop+0xc8>)
24054a10:	6819      	ldr	r1, [r3, #0]
24054a12:	064e      	lsls	r6, r1, #25
24054a14:	d525      	bpl.n	24054a62 <ADC_ConversionStop+0x7e>
24054a16:	2240      	movs	r2, #64	@ 0x40
24054a18:	2101      	movs	r1, #1
24054a1a:	601a      	str	r2, [r3, #0]
24054a1c:	4618      	mov	r0, r3
24054a1e:	f7ff fc9b 	bl	24054358 <LL_ADC_REG_IsConversionOngoing>
24054a22:	b150      	cbz	r0, 24054a3a <ADC_ConversionStop+0x56>
24054a24:	689a      	ldr	r2, [r3, #8]
24054a26:	0795      	lsls	r5, r2, #30
24054a28:	d407      	bmi.n	24054a3a <ADC_ConversionStop+0x56>
24054a2a:	689a      	ldr	r2, [r3, #8]
24054a2c:	f022 4200 	bic.w	r2, r2, #2147483648	@ 0x80000000
24054a30:	f022 023f 	bic.w	r2, r2, #63	@ 0x3f
24054a34:	f042 0210 	orr.w	r2, r2, #16
24054a38:	609a      	str	r2, [r3, #8]
24054a3a:	2901      	cmp	r1, #1
24054a3c:	d11f      	bne.n	24054a7e <ADC_ConversionStop+0x9a>
24054a3e:	2504      	movs	r5, #4
24054a40:	f7ff fc5e 	bl	24054300 <HAL_GetTick>
24054a44:	4606      	mov	r6, r0
24054a46:	6823      	ldr	r3, [r4, #0]
24054a48:	689b      	ldr	r3, [r3, #8]
24054a4a:	422b      	tst	r3, r5
24054a4c:	d0d5      	beq.n	240549fa <ADC_ConversionStop+0x16>
24054a4e:	f7ff fc57 	bl	24054300 <HAL_GetTick>
24054a52:	1b80      	subs	r0, r0, r6
24054a54:	2805      	cmp	r0, #5
24054a56:	d9f6      	bls.n	24054a46 <ADC_ConversionStop+0x62>
24054a58:	6823      	ldr	r3, [r4, #0]
24054a5a:	689b      	ldr	r3, [r3, #8]
24054a5c:	422b      	tst	r3, r5
24054a5e:	d0f2      	beq.n	24054a46 <ADC_ConversionStop+0x62>
24054a60:	e001      	b.n	24054a66 <ADC_ConversionStop+0x82>
24054a62:	3a01      	subs	r2, #1
24054a64:	d1d4      	bne.n	24054a10 <ADC_ConversionStop+0x2c>
24054a66:	6d63      	ldr	r3, [r4, #84]	@ 0x54
24054a68:	2001      	movs	r0, #1
24054a6a:	f043 0310 	orr.w	r3, r3, #16
24054a6e:	6563      	str	r3, [r4, #84]	@ 0x54
24054a70:	6da3      	ldr	r3, [r4, #88]	@ 0x58
24054a72:	f043 0301 	orr.w	r3, r3, #1
24054a76:	65a3      	str	r3, [r4, #88]	@ 0x58
24054a78:	e7c0      	b.n	240549fc <ADC_ConversionStop+0x18>
24054a7a:	2902      	cmp	r1, #2
24054a7c:	d1ce      	bne.n	24054a1c <ADC_ConversionStop+0x38>
24054a7e:	689a      	ldr	r2, [r3, #8]
24054a80:	0710      	lsls	r0, r2, #28
24054a82:	d50a      	bpl.n	24054a9a <ADC_ConversionStop+0xb6>
24054a84:	689a      	ldr	r2, [r3, #8]
24054a86:	0792      	lsls	r2, r2, #30
24054a88:	d407      	bmi.n	24054a9a <ADC_ConversionStop+0xb6>
24054a8a:	689a      	ldr	r2, [r3, #8]
24054a8c:	f022 4200 	bic.w	r2, r2, #2147483648	@ 0x80000000
24054a90:	f022 023f 	bic.w	r2, r2, #63	@ 0x3f
24054a94:	f042 0220 	orr.w	r2, r2, #32
24054a98:	609a      	str	r2, [r3, #8]
24054a9a:	2902      	cmp	r1, #2
24054a9c:	d003      	beq.n	24054aa6 <ADC_ConversionStop+0xc2>
24054a9e:	2903      	cmp	r1, #3
24054aa0:	d1cd      	bne.n	24054a3e <ADC_ConversionStop+0x5a>
24054aa2:	250c      	movs	r5, #12
24054aa4:	e7cc      	b.n	24054a40 <ADC_ConversionStop+0x5c>
24054aa6:	2508      	movs	r5, #8
24054aa8:	e7ca      	b.n	24054a40 <ADC_ConversionStop+0x5c>
24054aaa:	bf00      	nop
24054aac:	000cdc01 	.word	0x000cdc01

24054ab0 <ADC_Enable>:
24054ab0:	6802      	ldr	r2, [r0, #0]
24054ab2:	b570      	push	{r4, r5, r6, lr}
24054ab4:	4604      	mov	r4, r0
24054ab6:	4610      	mov	r0, r2
24054ab8:	f7ff fc4a 	bl	24054350 <LL_ADC_IsEnabled>
24054abc:	b108      	cbz	r0, 24054ac2 <ADC_Enable+0x12>
24054abe:	2000      	movs	r0, #0
24054ac0:	bd70      	pop	{r4, r5, r6, pc}
24054ac2:	6891      	ldr	r1, [r2, #8]
24054ac4:	4b1c      	ldr	r3, [pc, #112]	@ (24054b38 <ADC_Enable+0x88>)
24054ac6:	4219      	tst	r1, r3
24054ac8:	d009      	beq.n	24054ade <ADC_Enable+0x2e>
24054aca:	6d63      	ldr	r3, [r4, #84]	@ 0x54
24054acc:	2001      	movs	r0, #1
24054ace:	f043 0310 	orr.w	r3, r3, #16
24054ad2:	6563      	str	r3, [r4, #84]	@ 0x54
24054ad4:	6da3      	ldr	r3, [r4, #88]	@ 0x58
24054ad6:	f043 0301 	orr.w	r3, r3, #1
24054ada:	65a3      	str	r3, [r4, #88]	@ 0x58
24054adc:	e7f0      	b.n	24054ac0 <ADC_Enable+0x10>
24054ade:	6893      	ldr	r3, [r2, #8]
24054ae0:	f023 4300 	bic.w	r3, r3, #2147483648	@ 0x80000000
24054ae4:	f023 033f 	bic.w	r3, r3, #63	@ 0x3f
24054ae8:	f043 0301 	orr.w	r3, r3, #1
24054aec:	6093      	str	r3, [r2, #8]
24054aee:	f7ff fc07 	bl	24054300 <HAL_GetTick>
24054af2:	6821      	ldr	r1, [r4, #0]
24054af4:	4a11      	ldr	r2, [pc, #68]	@ (24054b3c <ADC_Enable+0x8c>)
24054af6:	4605      	mov	r5, r0
24054af8:	4b11      	ldr	r3, [pc, #68]	@ (24054b40 <ADC_Enable+0x90>)
24054afa:	4291      	cmp	r1, r2
24054afc:	689b      	ldr	r3, [r3, #8]
24054afe:	d101      	bne.n	24054b04 <ADC_Enable+0x54>
24054b00:	06d9      	lsls	r1, r3, #27
24054b02:	d1dc      	bne.n	24054abe <ADC_Enable+0xe>
24054b04:	4e0f      	ldr	r6, [pc, #60]	@ (24054b44 <ADC_Enable+0x94>)
24054b06:	e011      	b.n	24054b2c <ADC_Enable+0x7c>
24054b08:	4610      	mov	r0, r2
24054b0a:	f7ff fc21 	bl	24054350 <LL_ADC_IsEnabled>
24054b0e:	b920      	cbnz	r0, 24054b1a <ADC_Enable+0x6a>
24054b10:	6893      	ldr	r3, [r2, #8]
24054b12:	4033      	ands	r3, r6
24054b14:	f043 0301 	orr.w	r3, r3, #1
24054b18:	6093      	str	r3, [r2, #8]
24054b1a:	f7ff fbf1 	bl	24054300 <HAL_GetTick>
24054b1e:	1b40      	subs	r0, r0, r5
24054b20:	2802      	cmp	r0, #2
24054b22:	d903      	bls.n	24054b2c <ADC_Enable+0x7c>
24054b24:	6823      	ldr	r3, [r4, #0]
24054b26:	681b      	ldr	r3, [r3, #0]
24054b28:	07da      	lsls	r2, r3, #31
24054b2a:	d5ce      	bpl.n	24054aca <ADC_Enable+0x1a>
24054b2c:	6822      	ldr	r2, [r4, #0]
24054b2e:	6813      	ldr	r3, [r2, #0]
24054b30:	07db      	lsls	r3, r3, #31
24054b32:	d5e9      	bpl.n	24054b08 <ADC_Enable+0x58>
24054b34:	e7c3      	b.n	24054abe <ADC_Enable+0xe>
24054b36:	bf00      	nop
24054b38:	8000003f 	.word	0x8000003f
24054b3c:	40022100 	.word	0x40022100
24054b40:	40022300 	.word	0x40022300
24054b44:	7fffffc0 	.word	0x7fffffc0

24054b48 <HAL_ADC_Start>:
24054b48:	4b34      	ldr	r3, [pc, #208]	@ (24054c1c <HAL_ADC_Start+0xd4>)
24054b4a:	b570      	push	{r4, r5, r6, lr}
24054b4c:	4604      	mov	r4, r0
24054b4e:	6800      	ldr	r0, [r0, #0]
24054b50:	689e      	ldr	r6, [r3, #8]
24054b52:	f7ff fc01 	bl	24054358 <LL_ADC_REG_IsConversionOngoing>
24054b56:	4605      	mov	r5, r0
24054b58:	2800      	cmp	r0, #0
24054b5a:	d15d      	bne.n	24054c18 <HAL_ADC_Start+0xd0>
24054b5c:	f894 3050 	ldrb.w	r3, [r4, #80]	@ 0x50
24054b60:	2b01      	cmp	r3, #1
24054b62:	d059      	beq.n	24054c18 <HAL_ADC_Start+0xd0>
24054b64:	2301      	movs	r3, #1
24054b66:	4620      	mov	r0, r4
24054b68:	f884 3050 	strb.w	r3, [r4, #80]	@ 0x50
24054b6c:	f7ff ffa0 	bl	24054ab0 <ADC_Enable>
24054b70:	2800      	cmp	r0, #0
24054b72:	d14e      	bne.n	24054c12 <HAL_ADC_Start+0xca>
24054b74:	6d63      	ldr	r3, [r4, #84]	@ 0x54
24054b76:	f006 011f 	and.w	r1, r6, #31
24054b7a:	4a29      	ldr	r2, [pc, #164]	@ (24054c20 <HAL_ADC_Start+0xd8>)
24054b7c:	f423 6370 	bic.w	r3, r3, #3840	@ 0xf00
24054b80:	f023 0301 	bic.w	r3, r3, #1
24054b84:	f443 7380 	orr.w	r3, r3, #256	@ 0x100
24054b88:	6563      	str	r3, [r4, #84]	@ 0x54
24054b8a:	6823      	ldr	r3, [r4, #0]
24054b8c:	4293      	cmp	r3, r2
24054b8e:	d12e      	bne.n	24054bee <HAL_ADC_Start+0xa6>
24054b90:	bb79      	cbnz	r1, 24054bf2 <HAL_ADC_Start+0xaa>
24054b92:	f5a2 7280 	sub.w	r2, r2, #256	@ 0x100
24054b96:	6d65      	ldr	r5, [r4, #84]	@ 0x54
24054b98:	f425 1580 	bic.w	r5, r5, #1048576	@ 0x100000
24054b9c:	6565      	str	r5, [r4, #84]	@ 0x54
24054b9e:	6d65      	ldr	r5, [r4, #84]	@ 0x54
24054ba0:	f415 5580 	ands.w	r5, r5, #4096	@ 0x1000
24054ba4:	d002      	beq.n	24054bac <HAL_ADC_Start+0x64>
24054ba6:	6da5      	ldr	r5, [r4, #88]	@ 0x58
24054ba8:	f025 0506 	bic.w	r5, r5, #6
24054bac:	65a5      	str	r5, [r4, #88]	@ 0x58
24054bae:	251c      	movs	r5, #28
24054bb0:	4293      	cmp	r3, r2
24054bb2:	601d      	str	r5, [r3, #0]
24054bb4:	f04f 0500 	mov.w	r5, #0
24054bb8:	f884 5050 	strb.w	r5, [r4, #80]	@ 0x50
24054bbc:	d005      	beq.n	24054bca <HAL_ADC_Start+0x82>
24054bbe:	f240 2521 	movw	r5, #545	@ 0x221
24054bc2:	fa25 f101 	lsr.w	r1, r5, r1
24054bc6:	07c9      	lsls	r1, r1, #31
24054bc8:	d515      	bpl.n	24054bf6 <HAL_ADC_Start+0xae>
24054bca:	68da      	ldr	r2, [r3, #12]
24054bcc:	0192      	lsls	r2, r2, #6
24054bce:	d505      	bpl.n	24054bdc <HAL_ADC_Start+0x94>
24054bd0:	6d62      	ldr	r2, [r4, #84]	@ 0x54
24054bd2:	f422 5240 	bic.w	r2, r2, #12288	@ 0x3000
24054bd6:	f442 5280 	orr.w	r2, r2, #4096	@ 0x1000
24054bda:	6562      	str	r2, [r4, #84]	@ 0x54
24054bdc:	689a      	ldr	r2, [r3, #8]
24054bde:	f022 4200 	bic.w	r2, r2, #2147483648	@ 0x80000000
24054be2:	f022 023f 	bic.w	r2, r2, #63	@ 0x3f
24054be6:	f042 0204 	orr.w	r2, r2, #4
24054bea:	609a      	str	r2, [r3, #8]
24054bec:	bd70      	pop	{r4, r5, r6, pc}
24054bee:	461a      	mov	r2, r3
24054bf0:	e7d1      	b.n	24054b96 <HAL_ADC_Start+0x4e>
24054bf2:	4a0c      	ldr	r2, [pc, #48]	@ (24054c24 <HAL_ADC_Start+0xdc>)
24054bf4:	e7d3      	b.n	24054b9e <HAL_ADC_Start+0x56>
24054bf6:	6d63      	ldr	r3, [r4, #84]	@ 0x54
24054bf8:	f443 1380 	orr.w	r3, r3, #1048576	@ 0x100000
24054bfc:	6563      	str	r3, [r4, #84]	@ 0x54
24054bfe:	68d3      	ldr	r3, [r2, #12]
24054c00:	019b      	lsls	r3, r3, #6
24054c02:	d5f3      	bpl.n	24054bec <HAL_ADC_Start+0xa4>
24054c04:	6d63      	ldr	r3, [r4, #84]	@ 0x54
24054c06:	f423 5340 	bic.w	r3, r3, #12288	@ 0x3000
24054c0a:	f443 5380 	orr.w	r3, r3, #4096	@ 0x1000
24054c0e:	6563      	str	r3, [r4, #84]	@ 0x54
24054c10:	e7ec      	b.n	24054bec <HAL_ADC_Start+0xa4>
24054c12:	f884 5050 	strb.w	r5, [r4, #80]	@ 0x50
24054c16:	e7e9      	b.n	24054bec <HAL_ADC_Start+0xa4>
24054c18:	2002      	movs	r0, #2
24054c1a:	e7e7      	b.n	24054bec <HAL_ADC_Start+0xa4>
24054c1c:	40022300 	.word	0x40022300
24054c20:	40022100 	.word	0x40022100
24054c24:	40022000 	.word	0x40022000

24054c28 <HAL_ADC_Start_IT>:
24054c28:	4b50      	ldr	r3, [pc, #320]	@ (24054d6c <HAL_ADC_Start_IT+0x144>)
24054c2a:	b570      	push	{r4, r5, r6, lr}
24054c2c:	4604      	mov	r4, r0
24054c2e:	6800      	ldr	r0, [r0, #0]
24054c30:	689e      	ldr	r6, [r3, #8]
24054c32:	f7ff fb91 	bl	24054358 <LL_ADC_REG_IsConversionOngoing>
24054c36:	4605      	mov	r5, r0
24054c38:	2800      	cmp	r0, #0
24054c3a:	f040 8095 	bne.w	24054d68 <HAL_ADC_Start_IT+0x140>
24054c3e:	f894 3050 	ldrb.w	r3, [r4, #80]	@ 0x50
24054c42:	2b01      	cmp	r3, #1
24054c44:	f000 8090 	beq.w	24054d68 <HAL_ADC_Start_IT+0x140>
24054c48:	2301      	movs	r3, #1
24054c4a:	4620      	mov	r0, r4
24054c4c:	f884 3050 	strb.w	r3, [r4, #80]	@ 0x50
24054c50:	f7ff ff2e 	bl	24054ab0 <ADC_Enable>
24054c54:	2800      	cmp	r0, #0
24054c56:	f040 8084 	bne.w	24054d62 <HAL_ADC_Start_IT+0x13a>
24054c5a:	6d63      	ldr	r3, [r4, #84]	@ 0x54
24054c5c:	f006 011f 	and.w	r1, r6, #31
24054c60:	4a43      	ldr	r2, [pc, #268]	@ (24054d70 <HAL_ADC_Start_IT+0x148>)
24054c62:	f423 6370 	bic.w	r3, r3, #3840	@ 0xf00
24054c66:	f023 0301 	bic.w	r3, r3, #1
24054c6a:	f443 7380 	orr.w	r3, r3, #256	@ 0x100
24054c6e:	6563      	str	r3, [r4, #84]	@ 0x54
24054c70:	6823      	ldr	r3, [r4, #0]
24054c72:	4293      	cmp	r3, r2
24054c74:	d14b      	bne.n	24054d0e <HAL_ADC_Start_IT+0xe6>
24054c76:	2900      	cmp	r1, #0
24054c78:	d14b      	bne.n	24054d12 <HAL_ADC_Start_IT+0xea>
24054c7a:	f5a2 7280 	sub.w	r2, r2, #256	@ 0x100
24054c7e:	6d65      	ldr	r5, [r4, #84]	@ 0x54
24054c80:	f425 1580 	bic.w	r5, r5, #1048576	@ 0x100000
24054c84:	6565      	str	r5, [r4, #84]	@ 0x54
24054c86:	6d65      	ldr	r5, [r4, #84]	@ 0x54
24054c88:	f415 5580 	ands.w	r5, r5, #4096	@ 0x1000
24054c8c:	d002      	beq.n	24054c94 <HAL_ADC_Start_IT+0x6c>
24054c8e:	6da5      	ldr	r5, [r4, #88]	@ 0x58
24054c90:	f025 0506 	bic.w	r5, r5, #6
24054c94:	65a5      	str	r5, [r4, #88]	@ 0x58
24054c96:	251c      	movs	r5, #28
24054c98:	601d      	str	r5, [r3, #0]
24054c9a:	2500      	movs	r5, #0
24054c9c:	f884 5050 	strb.w	r5, [r4, #80]	@ 0x50
24054ca0:	685d      	ldr	r5, [r3, #4]
24054ca2:	f025 051c 	bic.w	r5, r5, #28
24054ca6:	605d      	str	r5, [r3, #4]
24054ca8:	6925      	ldr	r5, [r4, #16]
24054caa:	685e      	ldr	r6, [r3, #4]
24054cac:	2d08      	cmp	r5, #8
24054cae:	bf0c      	ite	eq
24054cb0:	f046 0608 	orreq.w	r6, r6, #8
24054cb4:	f046 0604 	orrne.w	r6, r6, #4
24054cb8:	605e      	str	r6, [r3, #4]
24054cba:	6b26      	ldr	r6, [r4, #48]	@ 0x30
24054cbc:	b91e      	cbnz	r6, 24054cc6 <HAL_ADC_Start_IT+0x9e>
24054cbe:	685e      	ldr	r6, [r3, #4]
24054cc0:	f046 0610 	orr.w	r6, r6, #16
24054cc4:	605e      	str	r6, [r3, #4]
24054cc6:	4293      	cmp	r3, r2
24054cc8:	d005      	beq.n	24054cd6 <HAL_ADC_Start_IT+0xae>
24054cca:	f240 2621 	movw	r6, #545	@ 0x221
24054cce:	fa26 f101 	lsr.w	r1, r6, r1
24054cd2:	07ce      	lsls	r6, r1, #31
24054cd4:	d526      	bpl.n	24054d24 <HAL_ADC_Start_IT+0xfc>
24054cd6:	68da      	ldr	r2, [r3, #12]
24054cd8:	0191      	lsls	r1, r2, #6
24054cda:	d50f      	bpl.n	24054cfc <HAL_ADC_Start_IT+0xd4>
24054cdc:	6d62      	ldr	r2, [r4, #84]	@ 0x54
24054cde:	2d08      	cmp	r5, #8
24054ce0:	f422 5240 	bic.w	r2, r2, #12288	@ 0x3000
24054ce4:	f442 5280 	orr.w	r2, r2, #4096	@ 0x1000
24054ce8:	6562      	str	r2, [r4, #84]	@ 0x54
24054cea:	685a      	ldr	r2, [r3, #4]
24054cec:	d113      	bne.n	24054d16 <HAL_ADC_Start_IT+0xee>
24054cee:	f022 0220 	bic.w	r2, r2, #32
24054cf2:	605a      	str	r2, [r3, #4]
24054cf4:	685a      	ldr	r2, [r3, #4]
24054cf6:	f042 0240 	orr.w	r2, r2, #64	@ 0x40
24054cfa:	605a      	str	r2, [r3, #4]
24054cfc:	689a      	ldr	r2, [r3, #8]
24054cfe:	f022 4200 	bic.w	r2, r2, #2147483648	@ 0x80000000
24054d02:	f022 023f 	bic.w	r2, r2, #63	@ 0x3f
24054d06:	f042 0204 	orr.w	r2, r2, #4
24054d0a:	609a      	str	r2, [r3, #8]
24054d0c:	bd70      	pop	{r4, r5, r6, pc}
24054d0e:	461a      	mov	r2, r3
24054d10:	e7b5      	b.n	24054c7e <HAL_ADC_Start_IT+0x56>
24054d12:	4a18      	ldr	r2, [pc, #96]	@ (24054d74 <HAL_ADC_Start_IT+0x14c>)
24054d14:	e7b7      	b.n	24054c86 <HAL_ADC_Start_IT+0x5e>
24054d16:	f022 0240 	bic.w	r2, r2, #64	@ 0x40
24054d1a:	605a      	str	r2, [r3, #4]
24054d1c:	685a      	ldr	r2, [r3, #4]
24054d1e:	f042 0220 	orr.w	r2, r2, #32
24054d22:	e7ea      	b.n	24054cfa <HAL_ADC_Start_IT+0xd2>
24054d24:	6d61      	ldr	r1, [r4, #84]	@ 0x54
24054d26:	f441 1180 	orr.w	r1, r1, #1048576	@ 0x100000
24054d2a:	6561      	str	r1, [r4, #84]	@ 0x54
24054d2c:	68d2      	ldr	r2, [r2, #12]
24054d2e:	0192      	lsls	r2, r2, #6
24054d30:	d5ec      	bpl.n	24054d0c <HAL_ADC_Start_IT+0xe4>
24054d32:	6d62      	ldr	r2, [r4, #84]	@ 0x54
24054d34:	2d08      	cmp	r5, #8
24054d36:	f422 5240 	bic.w	r2, r2, #12288	@ 0x3000
24054d3a:	f442 5280 	orr.w	r2, r2, #4096	@ 0x1000
24054d3e:	6562      	str	r2, [r4, #84]	@ 0x54
24054d40:	685a      	ldr	r2, [r3, #4]
24054d42:	d107      	bne.n	24054d54 <HAL_ADC_Start_IT+0x12c>
24054d44:	f022 0220 	bic.w	r2, r2, #32
24054d48:	605a      	str	r2, [r3, #4]
24054d4a:	685a      	ldr	r2, [r3, #4]
24054d4c:	f042 0240 	orr.w	r2, r2, #64	@ 0x40
24054d50:	605a      	str	r2, [r3, #4]
24054d52:	e7db      	b.n	24054d0c <HAL_ADC_Start_IT+0xe4>
24054d54:	f022 0240 	bic.w	r2, r2, #64	@ 0x40
24054d58:	605a      	str	r2, [r3, #4]
24054d5a:	685a      	ldr	r2, [r3, #4]
24054d5c:	f042 0220 	orr.w	r2, r2, #32
24054d60:	e7f6      	b.n	24054d50 <HAL_ADC_Start_IT+0x128>
24054d62:	f884 5050 	strb.w	r5, [r4, #80]	@ 0x50
24054d66:	e7d1      	b.n	24054d0c <HAL_ADC_Start_IT+0xe4>
24054d68:	2002      	movs	r0, #2
24054d6a:	e7cf      	b.n	24054d0c <HAL_ADC_Start_IT+0xe4>
24054d6c:	40022300 	.word	0x40022300
24054d70:	40022100 	.word	0x40022100
24054d74:	40022000 	.word	0x40022000

24054d78 <ADC_Disable>:
24054d78:	6802      	ldr	r2, [r0, #0]
24054d7a:	b538      	push	{r3, r4, r5, lr}
24054d7c:	4604      	mov	r4, r0
24054d7e:	4610      	mov	r0, r2
24054d80:	6893      	ldr	r3, [r2, #8]
24054d82:	f7ff fae5 	bl	24054350 <LL_ADC_IsEnabled>
24054d86:	b908      	cbnz	r0, 24054d8c <ADC_Disable+0x14>
24054d88:	2000      	movs	r0, #0
24054d8a:	bd38      	pop	{r3, r4, r5, pc}
24054d8c:	0799      	lsls	r1, r3, #30
24054d8e:	d4fb      	bmi.n	24054d88 <ADC_Disable+0x10>
24054d90:	6893      	ldr	r3, [r2, #8]
24054d92:	f003 030d 	and.w	r3, r3, #13
24054d96:	2b01      	cmp	r3, #1
24054d98:	d119      	bne.n	24054dce <ADC_Disable+0x56>
24054d9a:	6893      	ldr	r3, [r2, #8]
24054d9c:	f023 4300 	bic.w	r3, r3, #2147483648	@ 0x80000000
24054da0:	f023 033f 	bic.w	r3, r3, #63	@ 0x3f
24054da4:	f043 0302 	orr.w	r3, r3, #2
24054da8:	6093      	str	r3, [r2, #8]
24054daa:	2303      	movs	r3, #3
24054dac:	6013      	str	r3, [r2, #0]
24054dae:	f7ff faa7 	bl	24054300 <HAL_GetTick>
24054db2:	4605      	mov	r5, r0
24054db4:	6823      	ldr	r3, [r4, #0]
24054db6:	689b      	ldr	r3, [r3, #8]
24054db8:	07db      	lsls	r3, r3, #31
24054dba:	d5e5      	bpl.n	24054d88 <ADC_Disable+0x10>
24054dbc:	f7ff faa0 	bl	24054300 <HAL_GetTick>
24054dc0:	1b40      	subs	r0, r0, r5
24054dc2:	2802      	cmp	r0, #2
24054dc4:	d9f6      	bls.n	24054db4 <ADC_Disable+0x3c>
24054dc6:	6823      	ldr	r3, [r4, #0]
24054dc8:	689b      	ldr	r3, [r3, #8]
24054dca:	07da      	lsls	r2, r3, #31
24054dcc:	d5f2      	bpl.n	24054db4 <ADC_Disable+0x3c>
24054dce:	6d63      	ldr	r3, [r4, #84]	@ 0x54
24054dd0:	2001      	movs	r0, #1
24054dd2:	f043 0310 	orr.w	r3, r3, #16
24054dd6:	6563      	str	r3, [r4, #84]	@ 0x54
24054dd8:	6da3      	ldr	r3, [r4, #88]	@ 0x58
24054dda:	f043 0301 	orr.w	r3, r3, #1
24054dde:	65a3      	str	r3, [r4, #88]	@ 0x58
24054de0:	e7d3      	b.n	24054d8a <ADC_Disable+0x12>

24054de2 <HAL_ADC_Stop_IT>:
24054de2:	b510      	push	{r4, lr}
24054de4:	f890 3050 	ldrb.w	r3, [r0, #80]	@ 0x50
24054de8:	4604      	mov	r4, r0
24054dea:	2b01      	cmp	r3, #1
24054dec:	d01b      	beq.n	24054e26 <HAL_ADC_Stop_IT+0x44>
24054dee:	2301      	movs	r3, #1
24054df0:	2103      	movs	r1, #3
24054df2:	f880 3050 	strb.w	r3, [r0, #80]	@ 0x50
24054df6:	f7ff fdf5 	bl	240549e4 <ADC_ConversionStop>
24054dfa:	b980      	cbnz	r0, 24054e1e <HAL_ADC_Stop_IT+0x3c>
24054dfc:	6822      	ldr	r2, [r4, #0]
24054dfe:	4620      	mov	r0, r4
24054e00:	6853      	ldr	r3, [r2, #4]
24054e02:	f023 031c 	bic.w	r3, r3, #28
24054e06:	6053      	str	r3, [r2, #4]
24054e08:	f7ff ffb6 	bl	24054d78 <ADC_Disable>
24054e0c:	b938      	cbnz	r0, 24054e1e <HAL_ADC_Stop_IT+0x3c>
24054e0e:	6d63      	ldr	r3, [r4, #84]	@ 0x54
24054e10:	f423 5388 	bic.w	r3, r3, #4352	@ 0x1100
24054e14:	f023 0301 	bic.w	r3, r3, #1
24054e18:	f043 0301 	orr.w	r3, r3, #1
24054e1c:	6563      	str	r3, [r4, #84]	@ 0x54
24054e1e:	2300      	movs	r3, #0
24054e20:	f884 3050 	strb.w	r3, [r4, #80]	@ 0x50
24054e24:	bd10      	pop	{r4, pc}
24054e26:	2002      	movs	r0, #2
24054e28:	e7fc      	b.n	24054e24 <HAL_ADC_Stop_IT+0x42>
	...

24054e2c <ADC_ConfigureBoostMode>:
24054e2c:	b538      	push	{r3, r4, r5, lr}
24054e2e:	4b36      	ldr	r3, [pc, #216]	@ (24054f08 <ADC_ConfigureBoostMode+0xdc>)
24054e30:	4604      	mov	r4, r0
24054e32:	4d36      	ldr	r5, [pc, #216]	@ (24054f0c <ADC_ConfigureBoostMode+0xe0>)
24054e34:	689b      	ldr	r3, [r3, #8]
24054e36:	f413 3f40 	tst.w	r3, #196608	@ 0x30000
24054e3a:	d021      	beq.n	24054e80 <ADC_ConfigureBoostMode+0x54>
24054e3c:	f003 fa4e 	bl	240582dc <HAL_RCC_GetHCLKFreq>
24054e40:	6863      	ldr	r3, [r4, #4]
24054e42:	f5b3 3f00 	cmp.w	r3, #131072	@ 0x20000
24054e46:	d005      	beq.n	24054e54 <ADC_ConfigureBoostMode+0x28>
24054e48:	f5b3 3f40 	cmp.w	r3, #196608	@ 0x30000
24054e4c:	d006      	beq.n	24054e5c <ADC_ConfigureBoostMode+0x30>
24054e4e:	f5b3 3f80 	cmp.w	r3, #65536	@ 0x10000
24054e52:	d104      	bne.n	24054e5e <ADC_ConfigureBoostMode+0x32>
24054e54:	0c1b      	lsrs	r3, r3, #16
24054e56:	fbb0 f0f3 	udiv	r0, r0, r3
24054e5a:	e000      	b.n	24054e5e <ADC_ConfigureBoostMode+0x32>
24054e5c:	0880      	lsrs	r0, r0, #2
24054e5e:	42a8      	cmp	r0, r5
24054e60:	6822      	ldr	r2, [r4, #0]
24054e62:	d94c      	bls.n	24054efe <ADC_ConfigureBoostMode+0xd2>
24054e64:	4b2a      	ldr	r3, [pc, #168]	@ (24054f10 <ADC_ConfigureBoostMode+0xe4>)
24054e66:	4298      	cmp	r0, r3
24054e68:	d93b      	bls.n	24054ee2 <ADC_ConfigureBoostMode+0xb6>
24054e6a:	4b2a      	ldr	r3, [pc, #168]	@ (24054f14 <ADC_ConfigureBoostMode+0xe8>)
24054e6c:	4298      	cmp	r0, r3
24054e6e:	6893      	ldr	r3, [r2, #8]
24054e70:	bf96      	itet	ls
24054e72:	f423 7340 	bicls.w	r3, r3, #768	@ 0x300
24054e76:	f443 7340 	orrhi.w	r3, r3, #768	@ 0x300
24054e7a:	f443 7300 	orrls.w	r3, r3, #512	@ 0x200
24054e7e:	e036      	b.n	24054eee <ADC_ConfigureBoostMode+0xc2>
24054e80:	f44f 2000 	mov.w	r0, #524288	@ 0x80000
24054e84:	2100      	movs	r1, #0
24054e86:	f004 fa19 	bl	240592bc <HAL_RCCEx_GetPeriphCLKFreq>
24054e8a:	6863      	ldr	r3, [r4, #4]
24054e8c:	f5b3 1f10 	cmp.w	r3, #2359296	@ 0x240000
24054e90:	d031      	beq.n	24054ef6 <ADC_ConfigureBoostMode+0xca>
24054e92:	d81d      	bhi.n	24054ed0 <ADC_ConfigureBoostMode+0xa4>
24054e94:	f5b3 1fe0 	cmp.w	r3, #1835008	@ 0x1c0000
24054e98:	d02b      	beq.n	24054ef2 <ADC_ConfigureBoostMode+0xc6>
24054e9a:	d814      	bhi.n	24054ec6 <ADC_ConfigureBoostMode+0x9a>
24054e9c:	f5b3 1f80 	cmp.w	r3, #1048576	@ 0x100000
24054ea0:	d008      	beq.n	24054eb4 <ADC_ConfigureBoostMode+0x88>
24054ea2:	d80a      	bhi.n	24054eba <ADC_ConfigureBoostMode+0x8e>
24054ea4:	f5b3 2f00 	cmp.w	r3, #524288	@ 0x80000
24054ea8:	d004      	beq.n	24054eb4 <ADC_ConfigureBoostMode+0x88>
24054eaa:	f423 2200 	bic.w	r2, r3, #524288	@ 0x80000
24054eae:	f5b2 2f80 	cmp.w	r2, #262144	@ 0x40000
24054eb2:	d1d4      	bne.n	24054e5e <ADC_ConfigureBoostMode+0x32>
24054eb4:	0c9b      	lsrs	r3, r3, #18
24054eb6:	005b      	lsls	r3, r3, #1
24054eb8:	e7cd      	b.n	24054e56 <ADC_ConfigureBoostMode+0x2a>
24054eba:	f5b3 1fa0 	cmp.w	r3, #1310720	@ 0x140000
24054ebe:	d0f9      	beq.n	24054eb4 <ADC_ConfigureBoostMode+0x88>
24054ec0:	f5b3 1fc0 	cmp.w	r3, #1572864	@ 0x180000
24054ec4:	e7f5      	b.n	24054eb2 <ADC_ConfigureBoostMode+0x86>
24054ec6:	f5b3 1f00 	cmp.w	r3, #2097152	@ 0x200000
24054eca:	d1c8      	bne.n	24054e5e <ADC_ConfigureBoostMode+0x32>
24054ecc:	0940      	lsrs	r0, r0, #5
24054ece:	e7c6      	b.n	24054e5e <ADC_ConfigureBoostMode+0x32>
24054ed0:	f5b3 1f20 	cmp.w	r3, #2621440	@ 0x280000
24054ed4:	d011      	beq.n	24054efa <ADC_ConfigureBoostMode+0xce>
24054ed6:	f5b3 1f30 	cmp.w	r3, #2883584	@ 0x2c0000
24054eda:	d1c0      	bne.n	24054e5e <ADC_ConfigureBoostMode+0x32>
24054edc:	ebb5 2f10 	cmp.w	r5, r0, lsr #8
24054ee0:	d20d      	bcs.n	24054efe <ADC_ConfigureBoostMode+0xd2>
24054ee2:	6822      	ldr	r2, [r4, #0]
24054ee4:	6893      	ldr	r3, [r2, #8]
24054ee6:	f423 7340 	bic.w	r3, r3, #768	@ 0x300
24054eea:	f443 7380 	orr.w	r3, r3, #256	@ 0x100
24054eee:	6093      	str	r3, [r2, #8]
24054ef0:	bd38      	pop	{r3, r4, r5, pc}
24054ef2:	0900      	lsrs	r0, r0, #4
24054ef4:	e7b3      	b.n	24054e5e <ADC_ConfigureBoostMode+0x32>
24054ef6:	0980      	lsrs	r0, r0, #6
24054ef8:	e7b1      	b.n	24054e5e <ADC_ConfigureBoostMode+0x32>
24054efa:	09c0      	lsrs	r0, r0, #7
24054efc:	e7af      	b.n	24054e5e <ADC_ConfigureBoostMode+0x32>
24054efe:	6822      	ldr	r2, [r4, #0]
24054f00:	6893      	ldr	r3, [r2, #8]
24054f02:	f423 7340 	bic.w	r3, r3, #768	@ 0x300
24054f06:	e7f2      	b.n	24054eee <ADC_ConfigureBoostMode+0xc2>
24054f08:	40022300 	.word	0x40022300
24054f0c:	00bebc21 	.word	0x00bebc21
24054f10:	017d7841 	.word	0x017d7841
24054f14:	02faf081 	.word	0x02faf081

24054f18 <HAL_ADC_Init>:
24054f18:	2300      	movs	r3, #0
24054f1a:	b573      	push	{r0, r1, r4, r5, r6, lr}
24054f1c:	4604      	mov	r4, r0
24054f1e:	9301      	str	r3, [sp, #4]
24054f20:	2800      	cmp	r0, #0
24054f22:	f000 80c9 	beq.w	240550b8 <HAL_ADC_Init+0x1a0>
24054f26:	6d45      	ldr	r5, [r0, #84]	@ 0x54
24054f28:	b925      	cbnz	r5, 24054f34 <HAL_ADC_Init+0x1c>
24054f2a:	f7fe fcf1 	bl	24053910 <HAL_ADC_MspInit>
24054f2e:	65a5      	str	r5, [r4, #88]	@ 0x58
24054f30:	f884 5050 	strb.w	r5, [r4, #80]	@ 0x50
24054f34:	6823      	ldr	r3, [r4, #0]
24054f36:	689a      	ldr	r2, [r3, #8]
24054f38:	0090      	lsls	r0, r2, #2
24054f3a:	d505      	bpl.n	24054f48 <HAL_ADC_Init+0x30>
24054f3c:	689a      	ldr	r2, [r3, #8]
24054f3e:	f022 4220 	bic.w	r2, r2, #2684354560	@ 0xa0000000
24054f42:	f022 023f 	bic.w	r2, r2, #63	@ 0x3f
24054f46:	609a      	str	r2, [r3, #8]
24054f48:	689a      	ldr	r2, [r3, #8]
24054f4a:	00d1      	lsls	r1, r2, #3
24054f4c:	f140 8090 	bpl.w	24055070 <HAL_ADC_Init+0x158>
24054f50:	689a      	ldr	r2, [r3, #8]
24054f52:	00d2      	lsls	r2, r2, #3
24054f54:	f100 80a2 	bmi.w	2405509c <HAL_ADC_Init+0x184>
24054f58:	6d62      	ldr	r2, [r4, #84]	@ 0x54
24054f5a:	2501      	movs	r5, #1
24054f5c:	f042 0210 	orr.w	r2, r2, #16
24054f60:	6562      	str	r2, [r4, #84]	@ 0x54
24054f62:	6da2      	ldr	r2, [r4, #88]	@ 0x58
24054f64:	f042 0201 	orr.w	r2, r2, #1
24054f68:	65a2      	str	r2, [r4, #88]	@ 0x58
24054f6a:	4618      	mov	r0, r3
24054f6c:	f7ff f9f4 	bl	24054358 <LL_ADC_REG_IsConversionOngoing>
24054f70:	6d62      	ldr	r2, [r4, #84]	@ 0x54
24054f72:	f002 0210 	and.w	r2, r2, #16
24054f76:	4302      	orrs	r2, r0
24054f78:	f040 809a 	bne.w	240550b0 <HAL_ADC_Init+0x198>
24054f7c:	6d62      	ldr	r2, [r4, #84]	@ 0x54
24054f7e:	4618      	mov	r0, r3
24054f80:	f422 7281 	bic.w	r2, r2, #258	@ 0x102
24054f84:	f042 0202 	orr.w	r2, r2, #2
24054f88:	6562      	str	r2, [r4, #84]	@ 0x54
24054f8a:	f7ff f9e1 	bl	24054350 <LL_ADC_IsEnabled>
24054f8e:	b978      	cbnz	r0, 24054fb0 <HAL_ADC_Init+0x98>
24054f90:	484a      	ldr	r0, [pc, #296]	@ (240550bc <HAL_ADC_Init+0x1a4>)
24054f92:	f7ff f9dd 	bl	24054350 <LL_ADC_IsEnabled>
24054f96:	4602      	mov	r2, r0
24054f98:	4849      	ldr	r0, [pc, #292]	@ (240550c0 <HAL_ADC_Init+0x1a8>)
24054f9a:	f7ff f9d9 	bl	24054350 <LL_ADC_IsEnabled>
24054f9e:	4302      	orrs	r2, r0
24054fa0:	d106      	bne.n	24054fb0 <HAL_ADC_Init+0x98>
24054fa2:	4948      	ldr	r1, [pc, #288]	@ (240550c4 <HAL_ADC_Init+0x1ac>)
24054fa4:	6860      	ldr	r0, [r4, #4]
24054fa6:	688a      	ldr	r2, [r1, #8]
24054fa8:	f422 127c 	bic.w	r2, r2, #4128768	@ 0x3f0000
24054fac:	4302      	orrs	r2, r0
24054fae:	608a      	str	r2, [r1, #8]
24054fb0:	68a0      	ldr	r0, [r4, #8]
24054fb2:	6b22      	ldr	r2, [r4, #48]	@ 0x30
24054fb4:	7f21      	ldrb	r1, [r4, #28]
24054fb6:	4302      	orrs	r2, r0
24054fb8:	7d60      	ldrb	r0, [r4, #21]
24054fba:	2901      	cmp	r1, #1
24054fbc:	ea42 3240 	orr.w	r2, r2, r0, lsl #13
24054fc0:	ea42 4201 	orr.w	r2, r2, r1, lsl #16
24054fc4:	bf02      	ittt	eq
24054fc6:	6a21      	ldreq	r1, [r4, #32]
24054fc8:	f101 31ff 	addeq.w	r1, r1, #4294967295
24054fcc:	ea42 4241 	orreq.w	r2, r2, r1, lsl #17
24054fd0:	6a61      	ldr	r1, [r4, #36]	@ 0x24
24054fd2:	b121      	cbz	r1, 24054fde <HAL_ADC_Init+0xc6>
24054fd4:	f401 7178 	and.w	r1, r1, #992	@ 0x3e0
24054fd8:	6aa0      	ldr	r0, [r4, #40]	@ 0x28
24054fda:	4301      	orrs	r1, r0
24054fdc:	430a      	orrs	r2, r1
24054fde:	68d8      	ldr	r0, [r3, #12]
24054fe0:	4939      	ldr	r1, [pc, #228]	@ (240550c8 <HAL_ADC_Init+0x1b0>)
24054fe2:	4001      	ands	r1, r0
24054fe4:	4618      	mov	r0, r3
24054fe6:	4311      	orrs	r1, r2
24054fe8:	60d9      	str	r1, [r3, #12]
24054fea:	f7ff f9b5 	bl	24054358 <LL_ADC_REG_IsConversionOngoing>
24054fee:	689a      	ldr	r2, [r3, #8]
24054ff0:	f002 0208 	and.w	r2, r2, #8
24054ff4:	4302      	orrs	r2, r0
24054ff6:	d127      	bne.n	24055048 <HAL_ADC_Init+0x130>
24054ff8:	68da      	ldr	r2, [r3, #12]
24054ffa:	7d21      	ldrb	r1, [r4, #20]
24054ffc:	f422 4280 	bic.w	r2, r2, #16384	@ 0x4000
24055000:	f022 0203 	bic.w	r2, r2, #3
24055004:	ea42 3281 	orr.w	r2, r2, r1, lsl #14
24055008:	6ae1      	ldr	r1, [r4, #44]	@ 0x2c
2405500a:	430a      	orrs	r2, r1
2405500c:	60da      	str	r2, [r3, #12]
2405500e:	f894 2038 	ldrb.w	r2, [r4, #56]	@ 0x38
24055012:	2a01      	cmp	r2, #1
24055014:	d144      	bne.n	240550a0 <HAL_ADC_Init+0x188>
24055016:	6be2      	ldr	r2, [r4, #60]	@ 0x3c
24055018:	6918      	ldr	r0, [r3, #16]
2405501a:	1e51      	subs	r1, r2, #1
2405501c:	e9d4 2610 	ldrd	r2, r6, [r4, #64]	@ 0x40
24055020:	4332      	orrs	r2, r6
24055022:	ea42 4201 	orr.w	r2, r2, r1, lsl #16
24055026:	6ca1      	ldr	r1, [r4, #72]	@ 0x48
24055028:	430a      	orrs	r2, r1
2405502a:	4928      	ldr	r1, [pc, #160]	@ (240550cc <HAL_ADC_Init+0x1b4>)
2405502c:	4001      	ands	r1, r0
2405502e:	430a      	orrs	r2, r1
24055030:	f042 0201 	orr.w	r2, r2, #1
24055034:	611a      	str	r2, [r3, #16]
24055036:	4620      	mov	r0, r4
24055038:	691a      	ldr	r2, [r3, #16]
2405503a:	6b61      	ldr	r1, [r4, #52]	@ 0x34
2405503c:	f022 4270 	bic.w	r2, r2, #4026531840	@ 0xf0000000
24055040:	430a      	orrs	r2, r1
24055042:	611a      	str	r2, [r3, #16]
24055044:	f7ff fef2 	bl	24054e2c <ADC_ConfigureBoostMode>
24055048:	68e3      	ldr	r3, [r4, #12]
2405504a:	6822      	ldr	r2, [r4, #0]
2405504c:	2b01      	cmp	r3, #1
2405504e:	d12b      	bne.n	240550a8 <HAL_ADC_Init+0x190>
24055050:	6b11      	ldr	r1, [r2, #48]	@ 0x30
24055052:	69a3      	ldr	r3, [r4, #24]
24055054:	f021 010f 	bic.w	r1, r1, #15
24055058:	3b01      	subs	r3, #1
2405505a:	430b      	orrs	r3, r1
2405505c:	6313      	str	r3, [r2, #48]	@ 0x30
2405505e:	6d63      	ldr	r3, [r4, #84]	@ 0x54
24055060:	f023 0303 	bic.w	r3, r3, #3
24055064:	f043 0301 	orr.w	r3, r3, #1
24055068:	6563      	str	r3, [r4, #84]	@ 0x54
2405506a:	4628      	mov	r0, r5
2405506c:	b002      	add	sp, #8
2405506e:	bd70      	pop	{r4, r5, r6, pc}
24055070:	689a      	ldr	r2, [r3, #8]
24055072:	4917      	ldr	r1, [pc, #92]	@ (240550d0 <HAL_ADC_Init+0x1b8>)
24055074:	f022 4210 	bic.w	r2, r2, #2415919104	@ 0x90000000
24055078:	f022 023f 	bic.w	r2, r2, #63	@ 0x3f
2405507c:	f042 5280 	orr.w	r2, r2, #268435456	@ 0x10000000
24055080:	609a      	str	r2, [r3, #8]
24055082:	4a14      	ldr	r2, [pc, #80]	@ (240550d4 <HAL_ADC_Init+0x1bc>)
24055084:	6812      	ldr	r2, [r2, #0]
24055086:	fbb2 f2f1 	udiv	r2, r2, r1
2405508a:	3201      	adds	r2, #1
2405508c:	9201      	str	r2, [sp, #4]
2405508e:	9a01      	ldr	r2, [sp, #4]
24055090:	2a00      	cmp	r2, #0
24055092:	f43f af5d 	beq.w	24054f50 <HAL_ADC_Init+0x38>
24055096:	9a01      	ldr	r2, [sp, #4]
24055098:	3a01      	subs	r2, #1
2405509a:	e7f7      	b.n	2405508c <HAL_ADC_Init+0x174>
2405509c:	2500      	movs	r5, #0
2405509e:	e764      	b.n	24054f6a <HAL_ADC_Init+0x52>
240550a0:	691a      	ldr	r2, [r3, #16]
240550a2:	f022 0201 	bic.w	r2, r2, #1
240550a6:	e7c5      	b.n	24055034 <HAL_ADC_Init+0x11c>
240550a8:	6b13      	ldr	r3, [r2, #48]	@ 0x30
240550aa:	f023 030f 	bic.w	r3, r3, #15
240550ae:	e7d5      	b.n	2405505c <HAL_ADC_Init+0x144>
240550b0:	6d63      	ldr	r3, [r4, #84]	@ 0x54
240550b2:	f043 0310 	orr.w	r3, r3, #16
240550b6:	6563      	str	r3, [r4, #84]	@ 0x54
240550b8:	2501      	movs	r5, #1
240550ba:	e7d6      	b.n	2405506a <HAL_ADC_Init+0x152>
240550bc:	40022000 	.word	0x40022000
240550c0:	40022100 	.word	0x40022100
240550c4:	40022300 	.word	0x40022300
240550c8:	fff0c003 	.word	0xfff0c003
240550cc:	fc00f81e 	.word	0xfc00f81e
240550d0:	00030d40 	.word	0x00030d40
240550d4:	200000ac 	.word	0x200000ac

240550d8 <LL_ADC_IsEnabled>:
240550d8:	6880      	ldr	r0, [r0, #8]
240550da:	f000 0001 	and.w	r0, r0, #1
240550de:	4770      	bx	lr

240550e0 <LL_ADC_REG_IsConversionOngoing>:
240550e0:	6880      	ldr	r0, [r0, #8]
240550e2:	f3c0 0080 	ubfx	r0, r0, #2, #1
240550e6:	4770      	bx	lr

240550e8 <HAL_ADCEx_InjectedConvCpltCallback>:
240550e8:	4770      	bx	lr

240550ea <HAL_ADCEx_InjectedQueueOverflowCallback>:
240550ea:	4770      	bx	lr

240550ec <HAL_ADCEx_LevelOutOfWindow2Callback>:
240550ec:	4770      	bx	lr

240550ee <HAL_ADCEx_LevelOutOfWindow3Callback>:
240550ee:	4770      	bx	lr

240550f0 <HAL_ADCEx_EndOfSamplingCallback>:
240550f0:	4770      	bx	lr
	...

240550f4 <HAL_ADCEx_MultiModeConfigChannel>:
240550f4:	b570      	push	{r4, r5, r6, lr}
240550f6:	f890 2050 	ldrb.w	r2, [r0, #80]	@ 0x50
240550fa:	b09a      	sub	sp, #104	@ 0x68
240550fc:	4603      	mov	r3, r0
240550fe:	680c      	ldr	r4, [r1, #0]
24055100:	2a01      	cmp	r2, #1
24055102:	d054      	beq.n	240551ae <HAL_ADCEx_MultiModeConfigChannel+0xba>
24055104:	2201      	movs	r2, #1
24055106:	4e2b      	ldr	r6, [pc, #172]	@ (240551b4 <HAL_ADCEx_MultiModeConfigChannel+0xc0>)
24055108:	f880 2050 	strb.w	r2, [r0, #80]	@ 0x50
2405510c:	2000      	movs	r0, #0
2405510e:	681d      	ldr	r5, [r3, #0]
24055110:	9016      	str	r0, [sp, #88]	@ 0x58
24055112:	42b5      	cmp	r5, r6
24055114:	9017      	str	r0, [sp, #92]	@ 0x5c
24055116:	d10e      	bne.n	24055136 <HAL_ADCEx_MultiModeConfigChannel+0x42>
24055118:	4827      	ldr	r0, [pc, #156]	@ (240551b8 <HAL_ADCEx_MultiModeConfigChannel+0xc4>)
2405511a:	f7ff ffe1 	bl	240550e0 <LL_ADC_REG_IsConversionOngoing>
2405511e:	4606      	mov	r6, r0
24055120:	4628      	mov	r0, r5
24055122:	f7ff ffdd 	bl	240550e0 <LL_ADC_REG_IsConversionOngoing>
24055126:	4330      	orrs	r0, r6
24055128:	d00e      	beq.n	24055148 <HAL_ADCEx_MultiModeConfigChannel+0x54>
2405512a:	6d59      	ldr	r1, [r3, #84]	@ 0x54
2405512c:	4610      	mov	r0, r2
2405512e:	f041 0120 	orr.w	r1, r1, #32
24055132:	6559      	str	r1, [r3, #84]	@ 0x54
24055134:	e023      	b.n	2405517e <HAL_ADCEx_MultiModeConfigChannel+0x8a>
24055136:	6d59      	ldr	r1, [r3, #84]	@ 0x54
24055138:	f883 0050 	strb.w	r0, [r3, #80]	@ 0x50
2405513c:	4610      	mov	r0, r2
2405513e:	f041 0120 	orr.w	r1, r1, #32
24055142:	6559      	str	r1, [r3, #84]	@ 0x54
24055144:	b01a      	add	sp, #104	@ 0x68
24055146:	bd70      	pop	{r4, r5, r6, pc}
24055148:	4a1c      	ldr	r2, [pc, #112]	@ (240551bc <HAL_ADCEx_MultiModeConfigChannel+0xc8>)
2405514a:	b1e4      	cbz	r4, 24055186 <HAL_ADCEx_MultiModeConfigChannel+0x92>
2405514c:	6890      	ldr	r0, [r2, #8]
2405514e:	684e      	ldr	r6, [r1, #4]
24055150:	f420 4040 	bic.w	r0, r0, #49152	@ 0xc000
24055154:	4330      	orrs	r0, r6
24055156:	6090      	str	r0, [r2, #8]
24055158:	4628      	mov	r0, r5
2405515a:	f7ff ffbd 	bl	240550d8 <LL_ADC_IsEnabled>
2405515e:	4605      	mov	r5, r0
24055160:	4815      	ldr	r0, [pc, #84]	@ (240551b8 <HAL_ADCEx_MultiModeConfigChannel+0xc4>)
24055162:	f7ff ffb9 	bl	240550d8 <LL_ADC_IsEnabled>
24055166:	4305      	orrs	r5, r0
24055168:	d108      	bne.n	2405517c <HAL_ADCEx_MultiModeConfigChannel+0x88>
2405516a:	6889      	ldr	r1, [r1, #8]
2405516c:	6890      	ldr	r0, [r2, #8]
2405516e:	430c      	orrs	r4, r1
24055170:	f420 6171 	bic.w	r1, r0, #3856	@ 0xf10
24055174:	f021 010f 	bic.w	r1, r1, #15
24055178:	430c      	orrs	r4, r1
2405517a:	6094      	str	r4, [r2, #8]
2405517c:	2000      	movs	r0, #0
2405517e:	2200      	movs	r2, #0
24055180:	f883 2050 	strb.w	r2, [r3, #80]	@ 0x50
24055184:	e7de      	b.n	24055144 <HAL_ADCEx_MultiModeConfigChannel+0x50>
24055186:	6891      	ldr	r1, [r2, #8]
24055188:	4628      	mov	r0, r5
2405518a:	f421 4140 	bic.w	r1, r1, #49152	@ 0xc000
2405518e:	6091      	str	r1, [r2, #8]
24055190:	f7ff ffa2 	bl	240550d8 <LL_ADC_IsEnabled>
24055194:	4601      	mov	r1, r0
24055196:	4808      	ldr	r0, [pc, #32]	@ (240551b8 <HAL_ADCEx_MultiModeConfigChannel+0xc4>)
24055198:	f7ff ff9e 	bl	240550d8 <LL_ADC_IsEnabled>
2405519c:	4301      	orrs	r1, r0
2405519e:	d1ed      	bne.n	2405517c <HAL_ADCEx_MultiModeConfigChannel+0x88>
240551a0:	6891      	ldr	r1, [r2, #8]
240551a2:	f421 6171 	bic.w	r1, r1, #3856	@ 0xf10
240551a6:	f021 010f 	bic.w	r1, r1, #15
240551aa:	6091      	str	r1, [r2, #8]
240551ac:	e7e6      	b.n	2405517c <HAL_ADCEx_MultiModeConfigChannel+0x88>
240551ae:	2002      	movs	r0, #2
240551b0:	e7c8      	b.n	24055144 <HAL_ADCEx_MultiModeConfigChannel+0x50>
240551b2:	bf00      	nop
240551b4:	40022000 	.word	0x40022000
240551b8:	40022100 	.word	0x40022100
240551bc:	40022300 	.word	0x40022300

240551c0 <HAL_NVIC_SetPriorityGrouping>:
240551c0:	4907      	ldr	r1, [pc, #28]	@ (240551e0 <HAL_NVIC_SetPriorityGrouping+0x20>)
240551c2:	0203      	lsls	r3, r0, #8
240551c4:	68ca      	ldr	r2, [r1, #12]
240551c6:	f403 63e0 	and.w	r3, r3, #1792	@ 0x700
240551ca:	f422 62e0 	bic.w	r2, r2, #1792	@ 0x700
240551ce:	0412      	lsls	r2, r2, #16
240551d0:	0c12      	lsrs	r2, r2, #16
240551d2:	4313      	orrs	r3, r2
240551d4:	f043 63bf 	orr.w	r3, r3, #100139008	@ 0x5f80000
240551d8:	f443 3300 	orr.w	r3, r3, #131072	@ 0x20000
240551dc:	60cb      	str	r3, [r1, #12]
240551de:	4770      	bx	lr
240551e0:	e000ed00 	.word	0xe000ed00

240551e4 <HAL_NVIC_SetPriority>:
240551e4:	4b16      	ldr	r3, [pc, #88]	@ (24055240 <HAL_NVIC_SetPriority+0x5c>)
240551e6:	b530      	push	{r4, r5, lr}
240551e8:	68dc      	ldr	r4, [r3, #12]
240551ea:	f3c4 2402 	ubfx	r4, r4, #8, #3
240551ee:	f1c4 0307 	rsb	r3, r4, #7
240551f2:	1d25      	adds	r5, r4, #4
240551f4:	2b04      	cmp	r3, #4
240551f6:	bf28      	it	cs
240551f8:	2304      	movcs	r3, #4
240551fa:	2d06      	cmp	r5, #6
240551fc:	f04f 35ff 	mov.w	r5, #4294967295
24055200:	bf8c      	ite	hi
24055202:	3c03      	subhi	r4, #3
24055204:	2400      	movls	r4, #0
24055206:	fa05 f303 	lsl.w	r3, r5, r3
2405520a:	2800      	cmp	r0, #0
2405520c:	fa05 f504 	lsl.w	r5, r5, r4
24055210:	ea21 0303 	bic.w	r3, r1, r3
24055214:	ea22 0205 	bic.w	r2, r2, r5
24055218:	fa03 f304 	lsl.w	r3, r3, r4
2405521c:	ea43 0302 	orr.w	r3, r3, r2
24055220:	ea4f 1303 	mov.w	r3, r3, lsl #4
24055224:	b2db      	uxtb	r3, r3
24055226:	db06      	blt.n	24055236 <HAL_NVIC_SetPriority+0x52>
24055228:	f100 4060 	add.w	r0, r0, #3758096384	@ 0xe0000000
2405522c:	f500 4061 	add.w	r0, r0, #57600	@ 0xe100
24055230:	f880 3300 	strb.w	r3, [r0, #768]	@ 0x300
24055234:	bd30      	pop	{r4, r5, pc}
24055236:	f000 000f 	and.w	r0, r0, #15
2405523a:	4a02      	ldr	r2, [pc, #8]	@ (24055244 <HAL_NVIC_SetPriority+0x60>)
2405523c:	5413      	strb	r3, [r2, r0]
2405523e:	e7f9      	b.n	24055234 <HAL_NVIC_SetPriority+0x50>
24055240:	e000ed00 	.word	0xe000ed00
24055244:	e000ed14 	.word	0xe000ed14

24055248 <HAL_NVIC_EnableIRQ>:
24055248:	2800      	cmp	r0, #0
2405524a:	db07      	blt.n	2405525c <HAL_NVIC_EnableIRQ+0x14>
2405524c:	2301      	movs	r3, #1
2405524e:	0941      	lsrs	r1, r0, #5
24055250:	f000 001f 	and.w	r0, r0, #31
24055254:	4a02      	ldr	r2, [pc, #8]	@ (24055260 <HAL_NVIC_EnableIRQ+0x18>)
24055256:	4083      	lsls	r3, r0
24055258:	f842 3021 	str.w	r3, [r2, r1, lsl #2]
2405525c:	4770      	bx	lr
2405525e:	bf00      	nop
24055260:	e000e100 	.word	0xe000e100

24055264 <HAL_NVIC_SystemReset>:
24055264:	f3bf 8f4f 	dsb	sy
24055268:	4905      	ldr	r1, [pc, #20]	@ (24055280 <HAL_NVIC_SystemReset+0x1c>)
2405526a:	4b06      	ldr	r3, [pc, #24]	@ (24055284 <HAL_NVIC_SystemReset+0x20>)
2405526c:	68ca      	ldr	r2, [r1, #12]
2405526e:	f402 62e0 	and.w	r2, r2, #1792	@ 0x700
24055272:	4313      	orrs	r3, r2
24055274:	60cb      	str	r3, [r1, #12]
24055276:	f3bf 8f4f 	dsb	sy
2405527a:	bf00      	nop
2405527c:	e7fd      	b.n	2405527a <HAL_NVIC_SystemReset+0x16>
2405527e:	bf00      	nop
24055280:	e000ed00 	.word	0xe000ed00
24055284:	05fa0004 	.word	0x05fa0004

24055288 <HAL_SYSTICK_Config>:
24055288:	3801      	subs	r0, #1
2405528a:	f1b0 7f80 	cmp.w	r0, #16777216	@ 0x1000000
2405528e:	d20b      	bcs.n	240552a8 <HAL_SYSTICK_Config+0x20>
24055290:	f04f 23e0 	mov.w	r3, #3758153728	@ 0xe000e000
24055294:	4a05      	ldr	r2, [pc, #20]	@ (240552ac <HAL_SYSTICK_Config+0x24>)
24055296:	21f0      	movs	r1, #240	@ 0xf0
24055298:	6158      	str	r0, [r3, #20]
2405529a:	2000      	movs	r0, #0
2405529c:	f882 1023 	strb.w	r1, [r2, #35]	@ 0x23
240552a0:	2207      	movs	r2, #7
240552a2:	6198      	str	r0, [r3, #24]
240552a4:	611a      	str	r2, [r3, #16]
240552a6:	4770      	bx	lr
240552a8:	2001      	movs	r0, #1
240552aa:	4770      	bx	lr
240552ac:	e000ed00 	.word	0xe000ed00

240552b0 <HAL_DAC_Init>:
240552b0:	b510      	push	{r4, lr}
240552b2:	4604      	mov	r4, r0
240552b4:	b168      	cbz	r0, 240552d2 <HAL_DAC_Init+0x22>
240552b6:	7903      	ldrb	r3, [r0, #4]
240552b8:	f003 02ff 	and.w	r2, r3, #255	@ 0xff
240552bc:	b913      	cbnz	r3, 240552c4 <HAL_DAC_Init+0x14>
240552be:	7142      	strb	r2, [r0, #5]
240552c0:	f7fe fb64 	bl	2405398c <HAL_DAC_MspInit>
240552c4:	2302      	movs	r3, #2
240552c6:	2000      	movs	r0, #0
240552c8:	7123      	strb	r3, [r4, #4]
240552ca:	2301      	movs	r3, #1
240552cc:	6120      	str	r0, [r4, #16]
240552ce:	7123      	strb	r3, [r4, #4]
240552d0:	bd10      	pop	{r4, pc}
240552d2:	2001      	movs	r0, #1
240552d4:	e7fc      	b.n	240552d0 <HAL_DAC_Init+0x20>

240552d6 <HAL_DAC_Start>:
240552d6:	4603      	mov	r3, r0
240552d8:	b570      	push	{r4, r5, r6, lr}
240552da:	b328      	cbz	r0, 24055328 <HAL_DAC_Start+0x52>
240552dc:	7942      	ldrb	r2, [r0, #5]
240552de:	2002      	movs	r0, #2
240552e0:	2a01      	cmp	r2, #1
240552e2:	d016      	beq.n	24055312 <HAL_DAC_Start+0x3c>
240552e4:	681a      	ldr	r2, [r3, #0]
240552e6:	f001 0510 	and.w	r5, r1, #16
240552ea:	2401      	movs	r4, #1
240552ec:	7118      	strb	r0, [r3, #4]
240552ee:	6816      	ldr	r6, [r2, #0]
240552f0:	40ac      	lsls	r4, r5
240552f2:	4334      	orrs	r4, r6
240552f4:	6014      	str	r4, [r2, #0]
240552f6:	b969      	cbnz	r1, 24055314 <HAL_DAC_Start+0x3e>
240552f8:	6811      	ldr	r1, [r2, #0]
240552fa:	f001 013e 	and.w	r1, r1, #62	@ 0x3e
240552fe:	4281      	cmp	r1, r0
24055300:	d103      	bne.n	2405530a <HAL_DAC_Start+0x34>
24055302:	6851      	ldr	r1, [r2, #4]
24055304:	f041 0101 	orr.w	r1, r1, #1
24055308:	6051      	str	r1, [r2, #4]
2405530a:	2201      	movs	r2, #1
2405530c:	2000      	movs	r0, #0
2405530e:	711a      	strb	r2, [r3, #4]
24055310:	7158      	strb	r0, [r3, #5]
24055312:	bd70      	pop	{r4, r5, r6, pc}
24055314:	6811      	ldr	r1, [r2, #0]
24055316:	40a8      	lsls	r0, r5
24055318:	f401 1178 	and.w	r1, r1, #4063232	@ 0x3e0000
2405531c:	4281      	cmp	r1, r0
2405531e:	d1f4      	bne.n	2405530a <HAL_DAC_Start+0x34>
24055320:	6851      	ldr	r1, [r2, #4]
24055322:	f041 0102 	orr.w	r1, r1, #2
24055326:	e7ef      	b.n	24055308 <HAL_DAC_Start+0x32>
24055328:	2001      	movs	r0, #1
2405532a:	e7f2      	b.n	24055312 <HAL_DAC_Start+0x3c>

2405532c <HAL_DAC_SetValue>:
2405532c:	b513      	push	{r0, r1, r4, lr}
2405532e:	2400      	movs	r4, #0
24055330:	9401      	str	r4, [sp, #4]
24055332:	b170      	cbz	r0, 24055352 <HAL_DAC_SetValue+0x26>
24055334:	6800      	ldr	r0, [r0, #0]
24055336:	9001      	str	r0, [sp, #4]
24055338:	b941      	cbnz	r1, 2405534c <HAL_DAC_SetValue+0x20>
2405533a:	9901      	ldr	r1, [sp, #4]
2405533c:	3108      	adds	r1, #8
2405533e:	440a      	add	r2, r1
24055340:	2000      	movs	r0, #0
24055342:	9201      	str	r2, [sp, #4]
24055344:	9a01      	ldr	r2, [sp, #4]
24055346:	6013      	str	r3, [r2, #0]
24055348:	b002      	add	sp, #8
2405534a:	bd10      	pop	{r4, pc}
2405534c:	9901      	ldr	r1, [sp, #4]
2405534e:	3114      	adds	r1, #20
24055350:	e7f5      	b.n	2405533e <HAL_DAC_SetValue+0x12>
24055352:	2001      	movs	r0, #1
24055354:	e7f8      	b.n	24055348 <HAL_DAC_SetValue+0x1c>
	...

24055358 <HAL_DAC_ConfigChannel>:
24055358:	e92d 41f0 	stmdb	sp!, {r4, r5, r6, r7, r8, lr}
2405535c:	460d      	mov	r5, r1
2405535e:	4616      	mov	r6, r2
24055360:	4604      	mov	r4, r0
24055362:	2800      	cmp	r0, #0
24055364:	f000 8098 	beq.w	24055498 <HAL_DAC_ConfigChannel+0x140>
24055368:	2900      	cmp	r1, #0
2405536a:	f000 8095 	beq.w	24055498 <HAL_DAC_ConfigChannel+0x140>
2405536e:	7942      	ldrb	r2, [r0, #5]
24055370:	2002      	movs	r0, #2
24055372:	680b      	ldr	r3, [r1, #0]
24055374:	2a01      	cmp	r2, #1
24055376:	d079      	beq.n	2405546c <HAL_DAC_ConfigChannel+0x114>
24055378:	2201      	movs	r2, #1
2405537a:	2b04      	cmp	r3, #4
2405537c:	7120      	strb	r0, [r4, #4]
2405537e:	7162      	strb	r2, [r4, #5]
24055380:	d123      	bne.n	240553ca <HAL_DAC_ConfigChannel+0x72>
24055382:	f7fe ffbd 	bl	24054300 <HAL_GetTick>
24055386:	4607      	mov	r7, r0
24055388:	2e00      	cmp	r6, #0
2405538a:	d17a      	bne.n	24055482 <HAL_DAC_ConfigChannel+0x12a>
2405538c:	f8df 810c 	ldr.w	r8, [pc, #268]	@ 2405549c <HAL_DAC_ConfigChannel+0x144>
24055390:	6823      	ldr	r3, [r4, #0]
24055392:	6b5a      	ldr	r2, [r3, #52]	@ 0x34
24055394:	ea12 0f08 	tst.w	r2, r8
24055398:	d157      	bne.n	2405544a <HAL_DAC_ConfigChannel+0xf2>
2405539a:	69aa      	ldr	r2, [r5, #24]
2405539c:	641a      	str	r2, [r3, #64]	@ 0x40
2405539e:	6822      	ldr	r2, [r4, #0]
240553a0:	f006 0110 	and.w	r1, r6, #16
240553a4:	f240 30ff 	movw	r0, #1023	@ 0x3ff
240553a8:	6c93      	ldr	r3, [r2, #72]	@ 0x48
240553aa:	4088      	lsls	r0, r1
240553ac:	ea23 0300 	bic.w	r3, r3, r0
240553b0:	69e8      	ldr	r0, [r5, #28]
240553b2:	4088      	lsls	r0, r1
240553b4:	4303      	orrs	r3, r0
240553b6:	20ff      	movs	r0, #255	@ 0xff
240553b8:	6493      	str	r3, [r2, #72]	@ 0x48
240553ba:	4088      	lsls	r0, r1
240553bc:	6cd3      	ldr	r3, [r2, #76]	@ 0x4c
240553be:	ea23 0300 	bic.w	r3, r3, r0
240553c2:	6a28      	ldr	r0, [r5, #32]
240553c4:	4088      	lsls	r0, r1
240553c6:	4303      	orrs	r3, r0
240553c8:	64d3      	str	r3, [r2, #76]	@ 0x4c
240553ca:	6929      	ldr	r1, [r5, #16]
240553cc:	f006 0210 	and.w	r2, r6, #16
240553d0:	6823      	ldr	r3, [r4, #0]
240553d2:	2901      	cmp	r1, #1
240553d4:	d108      	bne.n	240553e8 <HAL_DAC_ConfigChannel+0x90>
240553d6:	211f      	movs	r1, #31
240553d8:	6b98      	ldr	r0, [r3, #56]	@ 0x38
240553da:	4091      	lsls	r1, r2
240553dc:	ea20 0001 	bic.w	r0, r0, r1
240553e0:	6969      	ldr	r1, [r5, #20]
240553e2:	4091      	lsls	r1, r2
240553e4:	4301      	orrs	r1, r0
240553e6:	6399      	str	r1, [r3, #56]	@ 0x38
240553e8:	2107      	movs	r1, #7
240553ea:	6bde      	ldr	r6, [r3, #60]	@ 0x3c
240553ec:	4091      	lsls	r1, r2
240553ee:	ea26 0601 	bic.w	r6, r6, r1
240553f2:	e9d5 1002 	ldrd	r1, r0, [r5, #8]
240553f6:	2801      	cmp	r0, #1
240553f8:	d04a      	beq.n	24055490 <HAL_DAC_ConfigChannel+0x138>
240553fa:	2802      	cmp	r0, #2
240553fc:	d04a      	beq.n	24055494 <HAL_DAC_ConfigChannel+0x13c>
240553fe:	fab1 f081 	clz	r0, r1
24055402:	0940      	lsrs	r0, r0, #5
24055404:	682f      	ldr	r7, [r5, #0]
24055406:	4339      	orrs	r1, r7
24055408:	4301      	orrs	r1, r0
2405540a:	f44f 4080 	mov.w	r0, #16384	@ 0x4000
2405540e:	4091      	lsls	r1, r2
24055410:	4090      	lsls	r0, r2
24055412:	4331      	orrs	r1, r6
24055414:	63d9      	str	r1, [r3, #60]	@ 0x3c
24055416:	6819      	ldr	r1, [r3, #0]
24055418:	ea21 0100 	bic.w	r1, r1, r0
2405541c:	6019      	str	r1, [r3, #0]
2405541e:	f640 71fe 	movw	r1, #4094	@ 0xffe
24055422:	6818      	ldr	r0, [r3, #0]
24055424:	4091      	lsls	r1, r2
24055426:	ea20 0001 	bic.w	r0, r0, r1
2405542a:	6869      	ldr	r1, [r5, #4]
2405542c:	4091      	lsls	r1, r2
2405542e:	4301      	orrs	r1, r0
24055430:	20c0      	movs	r0, #192	@ 0xc0
24055432:	6019      	str	r1, [r3, #0]
24055434:	fa00 f202 	lsl.w	r2, r0, r2
24055438:	6819      	ldr	r1, [r3, #0]
2405543a:	2000      	movs	r0, #0
2405543c:	ea21 0202 	bic.w	r2, r1, r2
24055440:	601a      	str	r2, [r3, #0]
24055442:	2301      	movs	r3, #1
24055444:	7160      	strb	r0, [r4, #5]
24055446:	7123      	strb	r3, [r4, #4]
24055448:	e010      	b.n	2405546c <HAL_DAC_ConfigChannel+0x114>
2405544a:	f7fe ff59 	bl	24054300 <HAL_GetTick>
2405544e:	1bc0      	subs	r0, r0, r7
24055450:	2801      	cmp	r0, #1
24055452:	d99d      	bls.n	24055390 <HAL_DAC_ConfigChannel+0x38>
24055454:	6823      	ldr	r3, [r4, #0]
24055456:	6b5b      	ldr	r3, [r3, #52]	@ 0x34
24055458:	ea13 0f08 	tst.w	r3, r8
2405545c:	d098      	beq.n	24055390 <HAL_DAC_ConfigChannel+0x38>
2405545e:	6923      	ldr	r3, [r4, #16]
24055460:	2003      	movs	r0, #3
24055462:	f043 0308 	orr.w	r3, r3, #8
24055466:	6123      	str	r3, [r4, #16]
24055468:	2303      	movs	r3, #3
2405546a:	7123      	strb	r3, [r4, #4]
2405546c:	e8bd 81f0 	ldmia.w	sp!, {r4, r5, r6, r7, r8, pc}
24055470:	f7fe ff46 	bl	24054300 <HAL_GetTick>
24055474:	1bc0      	subs	r0, r0, r7
24055476:	2801      	cmp	r0, #1
24055478:	d903      	bls.n	24055482 <HAL_DAC_ConfigChannel+0x12a>
2405547a:	6823      	ldr	r3, [r4, #0]
2405547c:	6b5b      	ldr	r3, [r3, #52]	@ 0x34
2405547e:	2b00      	cmp	r3, #0
24055480:	dbed      	blt.n	2405545e <HAL_DAC_ConfigChannel+0x106>
24055482:	6823      	ldr	r3, [r4, #0]
24055484:	6b5a      	ldr	r2, [r3, #52]	@ 0x34
24055486:	2a00      	cmp	r2, #0
24055488:	dbf2      	blt.n	24055470 <HAL_DAC_ConfigChannel+0x118>
2405548a:	69aa      	ldr	r2, [r5, #24]
2405548c:	645a      	str	r2, [r3, #68]	@ 0x44
2405548e:	e786      	b.n	2405539e <HAL_DAC_ConfigChannel+0x46>
24055490:	2000      	movs	r0, #0
24055492:	e7b7      	b.n	24055404 <HAL_DAC_ConfigChannel+0xac>
24055494:	2001      	movs	r0, #1
24055496:	e7b5      	b.n	24055404 <HAL_DAC_ConfigChannel+0xac>
24055498:	2001      	movs	r0, #1
2405549a:	e7e7      	b.n	2405546c <HAL_DAC_ConfigChannel+0x114>
2405549c:	20008000 	.word	0x20008000

240554a0 <DMA_SetConfig>:
240554a0:	b5f0      	push	{r4, r5, r6, r7, lr}
240554a2:	f8df c1b0 	ldr.w	ip, [pc, #432]	@ 24055654 <DMA_SetConfig+0x1b4>
240554a6:	6804      	ldr	r4, [r0, #0]
240554a8:	6d87      	ldr	r7, [r0, #88]	@ 0x58
240554aa:	4564      	cmp	r4, ip
240554ac:	d04f      	beq.n	2405554e <DMA_SetConfig+0xae>
240554ae:	4d65      	ldr	r5, [pc, #404]	@ (24055644 <DMA_SetConfig+0x1a4>)
240554b0:	42ac      	cmp	r4, r5
240554b2:	d04c      	beq.n	2405554e <DMA_SetConfig+0xae>
240554b4:	3518      	adds	r5, #24
240554b6:	42ac      	cmp	r4, r5
240554b8:	d049      	beq.n	2405554e <DMA_SetConfig+0xae>
240554ba:	3518      	adds	r5, #24
240554bc:	42ac      	cmp	r4, r5
240554be:	d046      	beq.n	2405554e <DMA_SetConfig+0xae>
240554c0:	3518      	adds	r5, #24
240554c2:	42ac      	cmp	r4, r5
240554c4:	d043      	beq.n	2405554e <DMA_SetConfig+0xae>
240554c6:	3518      	adds	r5, #24
240554c8:	42ac      	cmp	r4, r5
240554ca:	d040      	beq.n	2405554e <DMA_SetConfig+0xae>
240554cc:	3518      	adds	r5, #24
240554ce:	42ac      	cmp	r4, r5
240554d0:	d03d      	beq.n	2405554e <DMA_SetConfig+0xae>
240554d2:	3518      	adds	r5, #24
240554d4:	42ac      	cmp	r4, r5
240554d6:	d03a      	beq.n	2405554e <DMA_SetConfig+0xae>
240554d8:	f505 7556 	add.w	r5, r5, #856	@ 0x358
240554dc:	42ac      	cmp	r4, r5
240554de:	d036      	beq.n	2405554e <DMA_SetConfig+0xae>
240554e0:	3518      	adds	r5, #24
240554e2:	42ac      	cmp	r4, r5
240554e4:	d033      	beq.n	2405554e <DMA_SetConfig+0xae>
240554e6:	3518      	adds	r5, #24
240554e8:	42ac      	cmp	r4, r5
240554ea:	d030      	beq.n	2405554e <DMA_SetConfig+0xae>
240554ec:	3518      	adds	r5, #24
240554ee:	42ac      	cmp	r4, r5
240554f0:	d02d      	beq.n	2405554e <DMA_SetConfig+0xae>
240554f2:	3518      	adds	r5, #24
240554f4:	42ac      	cmp	r4, r5
240554f6:	d02a      	beq.n	2405554e <DMA_SetConfig+0xae>
240554f8:	3518      	adds	r5, #24
240554fa:	42ac      	cmp	r4, r5
240554fc:	d027      	beq.n	2405554e <DMA_SetConfig+0xae>
240554fe:	3518      	adds	r5, #24
24055500:	42ac      	cmp	r4, r5
24055502:	d024      	beq.n	2405554e <DMA_SetConfig+0xae>
24055504:	3518      	adds	r5, #24
24055506:	42ac      	cmp	r4, r5
24055508:	d021      	beq.n	2405554e <DMA_SetConfig+0xae>
2405550a:	4d4f      	ldr	r5, [pc, #316]	@ (24055648 <DMA_SetConfig+0x1a8>)
2405550c:	42ac      	cmp	r4, r5
2405550e:	d01e      	beq.n	2405554e <DMA_SetConfig+0xae>
24055510:	3514      	adds	r5, #20
24055512:	42ac      	cmp	r4, r5
24055514:	d01b      	beq.n	2405554e <DMA_SetConfig+0xae>
24055516:	3514      	adds	r5, #20
24055518:	42ac      	cmp	r4, r5
2405551a:	d018      	beq.n	2405554e <DMA_SetConfig+0xae>
2405551c:	3514      	adds	r5, #20
2405551e:	42ac      	cmp	r4, r5
24055520:	d015      	beq.n	2405554e <DMA_SetConfig+0xae>
24055522:	3514      	adds	r5, #20
24055524:	42ac      	cmp	r4, r5
24055526:	d012      	beq.n	2405554e <DMA_SetConfig+0xae>
24055528:	3514      	adds	r5, #20
2405552a:	42ac      	cmp	r4, r5
2405552c:	d00f      	beq.n	2405554e <DMA_SetConfig+0xae>
2405552e:	3514      	adds	r5, #20
24055530:	42ac      	cmp	r4, r5
24055532:	d00c      	beq.n	2405554e <DMA_SetConfig+0xae>
24055534:	3514      	adds	r5, #20
24055536:	42ac      	cmp	r4, r5
24055538:	d009      	beq.n	2405554e <DMA_SetConfig+0xae>
2405553a:	4d44      	ldr	r5, [pc, #272]	@ (2405564c <DMA_SetConfig+0x1ac>)
2405553c:	42ac      	cmp	r4, r5
2405553e:	d14f      	bne.n	240555e0 <DMA_SetConfig+0x140>
24055540:	6dc5      	ldr	r5, [r0, #92]	@ 0x5c
24055542:	f005 061f 	and.w	r6, r5, #31
24055546:	2501      	movs	r5, #1
24055548:	40b5      	lsls	r5, r6
2405554a:	607d      	str	r5, [r7, #4]
2405554c:	e041      	b.n	240555d2 <DMA_SetConfig+0x132>
2405554e:	e9d0 5619 	ldrd	r5, r6, [r0, #100]	@ 0x64
24055552:	606e      	str	r6, [r5, #4]
24055554:	6ec5      	ldr	r5, [r0, #108]	@ 0x6c
24055556:	b115      	cbz	r5, 2405555e <DMA_SetConfig+0xbe>
24055558:	e9d0 561c 	ldrd	r5, r6, [r0, #112]	@ 0x70
2405555c:	606e      	str	r6, [r5, #4]
2405555e:	4564      	cmp	r4, ip
24055560:	d02d      	beq.n	240555be <DMA_SetConfig+0x11e>
24055562:	4d38      	ldr	r5, [pc, #224]	@ (24055644 <DMA_SetConfig+0x1a4>)
24055564:	42ac      	cmp	r4, r5
24055566:	d02a      	beq.n	240555be <DMA_SetConfig+0x11e>
24055568:	3518      	adds	r5, #24
2405556a:	42ac      	cmp	r4, r5
2405556c:	d027      	beq.n	240555be <DMA_SetConfig+0x11e>
2405556e:	3518      	adds	r5, #24
24055570:	42ac      	cmp	r4, r5
24055572:	d024      	beq.n	240555be <DMA_SetConfig+0x11e>
24055574:	3518      	adds	r5, #24
24055576:	42ac      	cmp	r4, r5
24055578:	d021      	beq.n	240555be <DMA_SetConfig+0x11e>
2405557a:	3518      	adds	r5, #24
2405557c:	42ac      	cmp	r4, r5
2405557e:	d01e      	beq.n	240555be <DMA_SetConfig+0x11e>
24055580:	3518      	adds	r5, #24
24055582:	42ac      	cmp	r4, r5
24055584:	d01b      	beq.n	240555be <DMA_SetConfig+0x11e>
24055586:	3518      	adds	r5, #24
24055588:	42ac      	cmp	r4, r5
2405558a:	d018      	beq.n	240555be <DMA_SetConfig+0x11e>
2405558c:	f505 7556 	add.w	r5, r5, #856	@ 0x358
24055590:	42ac      	cmp	r4, r5
24055592:	d014      	beq.n	240555be <DMA_SetConfig+0x11e>
24055594:	3518      	adds	r5, #24
24055596:	42ac      	cmp	r4, r5
24055598:	d011      	beq.n	240555be <DMA_SetConfig+0x11e>
2405559a:	3518      	adds	r5, #24
2405559c:	42ac      	cmp	r4, r5
2405559e:	d00e      	beq.n	240555be <DMA_SetConfig+0x11e>
240555a0:	3518      	adds	r5, #24
240555a2:	42ac      	cmp	r4, r5
240555a4:	d00b      	beq.n	240555be <DMA_SetConfig+0x11e>
240555a6:	3518      	adds	r5, #24
240555a8:	42ac      	cmp	r4, r5
240555aa:	d008      	beq.n	240555be <DMA_SetConfig+0x11e>
240555ac:	3518      	adds	r5, #24
240555ae:	42ac      	cmp	r4, r5
240555b0:	d005      	beq.n	240555be <DMA_SetConfig+0x11e>
240555b2:	3518      	adds	r5, #24
240555b4:	42ac      	cmp	r4, r5
240555b6:	d002      	beq.n	240555be <DMA_SetConfig+0x11e>
240555b8:	3518      	adds	r5, #24
240555ba:	42ac      	cmp	r4, r5
240555bc:	d1bd      	bne.n	2405553a <DMA_SetConfig+0x9a>
240555be:	6dc5      	ldr	r5, [r0, #92]	@ 0x5c
240555c0:	f005 061f 	and.w	r6, r5, #31
240555c4:	253f      	movs	r5, #63	@ 0x3f
240555c6:	40b5      	lsls	r5, r6
240555c8:	60bd      	str	r5, [r7, #8]
240555ca:	6825      	ldr	r5, [r4, #0]
240555cc:	f425 2580 	bic.w	r5, r5, #262144	@ 0x40000
240555d0:	6025      	str	r5, [r4, #0]
240555d2:	6063      	str	r3, [r4, #4]
240555d4:	6883      	ldr	r3, [r0, #8]
240555d6:	2b40      	cmp	r3, #64	@ 0x40
240555d8:	d130      	bne.n	2405563c <DMA_SetConfig+0x19c>
240555da:	60a2      	str	r2, [r4, #8]
240555dc:	60e1      	str	r1, [r4, #12]
240555de:	e02c      	b.n	2405563a <DMA_SetConfig+0x19a>
240555e0:	4d1b      	ldr	r5, [pc, #108]	@ (24055650 <DMA_SetConfig+0x1b0>)
240555e2:	42ac      	cmp	r4, r5
240555e4:	d0ac      	beq.n	24055540 <DMA_SetConfig+0xa0>
240555e6:	3514      	adds	r5, #20
240555e8:	42ac      	cmp	r4, r5
240555ea:	d0a9      	beq.n	24055540 <DMA_SetConfig+0xa0>
240555ec:	3514      	adds	r5, #20
240555ee:	42ac      	cmp	r4, r5
240555f0:	d0a6      	beq.n	24055540 <DMA_SetConfig+0xa0>
240555f2:	3514      	adds	r5, #20
240555f4:	42ac      	cmp	r4, r5
240555f6:	d0a3      	beq.n	24055540 <DMA_SetConfig+0xa0>
240555f8:	3514      	adds	r5, #20
240555fa:	42ac      	cmp	r4, r5
240555fc:	d0a0      	beq.n	24055540 <DMA_SetConfig+0xa0>
240555fe:	3514      	adds	r5, #20
24055600:	42ac      	cmp	r4, r5
24055602:	d09d      	beq.n	24055540 <DMA_SetConfig+0xa0>
24055604:	3514      	adds	r5, #20
24055606:	42ac      	cmp	r4, r5
24055608:	d09a      	beq.n	24055540 <DMA_SetConfig+0xa0>
2405560a:	4d0f      	ldr	r5, [pc, #60]	@ (24055648 <DMA_SetConfig+0x1a8>)
2405560c:	42ac      	cmp	r4, r5
2405560e:	d097      	beq.n	24055540 <DMA_SetConfig+0xa0>
24055610:	3514      	adds	r5, #20
24055612:	42ac      	cmp	r4, r5
24055614:	d094      	beq.n	24055540 <DMA_SetConfig+0xa0>
24055616:	3514      	adds	r5, #20
24055618:	42ac      	cmp	r4, r5
2405561a:	d091      	beq.n	24055540 <DMA_SetConfig+0xa0>
2405561c:	3514      	adds	r5, #20
2405561e:	42ac      	cmp	r4, r5
24055620:	d08e      	beq.n	24055540 <DMA_SetConfig+0xa0>
24055622:	3514      	adds	r5, #20
24055624:	42ac      	cmp	r4, r5
24055626:	d08b      	beq.n	24055540 <DMA_SetConfig+0xa0>
24055628:	3514      	adds	r5, #20
2405562a:	42ac      	cmp	r4, r5
2405562c:	d088      	beq.n	24055540 <DMA_SetConfig+0xa0>
2405562e:	3514      	adds	r5, #20
24055630:	42ac      	cmp	r4, r5
24055632:	d085      	beq.n	24055540 <DMA_SetConfig+0xa0>
24055634:	3514      	adds	r5, #20
24055636:	42ac      	cmp	r4, r5
24055638:	d082      	beq.n	24055540 <DMA_SetConfig+0xa0>
2405563a:	bdf0      	pop	{r4, r5, r6, r7, pc}
2405563c:	60a1      	str	r1, [r4, #8]
2405563e:	60e2      	str	r2, [r4, #12]
24055640:	e7fb      	b.n	2405563a <DMA_SetConfig+0x19a>
24055642:	bf00      	nop
24055644:	40020028 	.word	0x40020028
24055648:	58025408 	.word	0x58025408
2405564c:	48022c08 	.word	0x48022c08
24055650:	48022c1c 	.word	0x48022c1c
24055654:	40020010 	.word	0x40020010

24055658 <DMA_CalcBaseAndBitshift>:
24055658:	6803      	ldr	r3, [r0, #0]
2405565a:	4602      	mov	r2, r0
2405565c:	4923      	ldr	r1, [pc, #140]	@ (240556ec <DMA_CalcBaseAndBitshift+0x94>)
2405565e:	428b      	cmp	r3, r1
24055660:	b510      	push	{r4, lr}
24055662:	d031      	beq.n	240556c8 <DMA_CalcBaseAndBitshift+0x70>
24055664:	3118      	adds	r1, #24
24055666:	428b      	cmp	r3, r1
24055668:	d02e      	beq.n	240556c8 <DMA_CalcBaseAndBitshift+0x70>
2405566a:	3118      	adds	r1, #24
2405566c:	428b      	cmp	r3, r1
2405566e:	d02b      	beq.n	240556c8 <DMA_CalcBaseAndBitshift+0x70>
24055670:	3118      	adds	r1, #24
24055672:	428b      	cmp	r3, r1
24055674:	d028      	beq.n	240556c8 <DMA_CalcBaseAndBitshift+0x70>
24055676:	3118      	adds	r1, #24
24055678:	428b      	cmp	r3, r1
2405567a:	d025      	beq.n	240556c8 <DMA_CalcBaseAndBitshift+0x70>
2405567c:	3118      	adds	r1, #24
2405567e:	428b      	cmp	r3, r1
24055680:	d022      	beq.n	240556c8 <DMA_CalcBaseAndBitshift+0x70>
24055682:	3118      	adds	r1, #24
24055684:	428b      	cmp	r3, r1
24055686:	d01f      	beq.n	240556c8 <DMA_CalcBaseAndBitshift+0x70>
24055688:	3118      	adds	r1, #24
2405568a:	428b      	cmp	r3, r1
2405568c:	d01c      	beq.n	240556c8 <DMA_CalcBaseAndBitshift+0x70>
2405568e:	f501 7156 	add.w	r1, r1, #856	@ 0x358
24055692:	428b      	cmp	r3, r1
24055694:	d018      	beq.n	240556c8 <DMA_CalcBaseAndBitshift+0x70>
24055696:	3118      	adds	r1, #24
24055698:	428b      	cmp	r3, r1
2405569a:	d015      	beq.n	240556c8 <DMA_CalcBaseAndBitshift+0x70>
2405569c:	3118      	adds	r1, #24
2405569e:	428b      	cmp	r3, r1
240556a0:	d012      	beq.n	240556c8 <DMA_CalcBaseAndBitshift+0x70>
240556a2:	3118      	adds	r1, #24
240556a4:	428b      	cmp	r3, r1
240556a6:	d00f      	beq.n	240556c8 <DMA_CalcBaseAndBitshift+0x70>
240556a8:	3118      	adds	r1, #24
240556aa:	428b      	cmp	r3, r1
240556ac:	d00c      	beq.n	240556c8 <DMA_CalcBaseAndBitshift+0x70>
240556ae:	3118      	adds	r1, #24
240556b0:	428b      	cmp	r3, r1
240556b2:	d009      	beq.n	240556c8 <DMA_CalcBaseAndBitshift+0x70>
240556b4:	3118      	adds	r1, #24
240556b6:	428b      	cmp	r3, r1
240556b8:	d006      	beq.n	240556c8 <DMA_CalcBaseAndBitshift+0x70>
240556ba:	3118      	adds	r1, #24
240556bc:	428b      	cmp	r3, r1
240556be:	d003      	beq.n	240556c8 <DMA_CalcBaseAndBitshift+0x70>
240556c0:	f023 00ff 	bic.w	r0, r3, #255	@ 0xff
240556c4:	6590      	str	r0, [r2, #88]	@ 0x58
240556c6:	bd10      	pop	{r4, pc}
240556c8:	b2dc      	uxtb	r4, r3
240556ca:	2118      	movs	r1, #24
240556cc:	4808      	ldr	r0, [pc, #32]	@ (240556f0 <DMA_CalcBaseAndBitshift+0x98>)
240556ce:	3c10      	subs	r4, #16
240556d0:	fbb4 f1f1 	udiv	r1, r4, r1
240556d4:	f001 0107 	and.w	r1, r1, #7
240556d8:	2c5f      	cmp	r4, #95	@ 0x5f
240556da:	5c41      	ldrb	r1, [r0, r1]
240556dc:	f423 707f 	bic.w	r0, r3, #1020	@ 0x3fc
240556e0:	f020 0003 	bic.w	r0, r0, #3
240556e4:	65d1      	str	r1, [r2, #92]	@ 0x5c
240556e6:	bf88      	it	hi
240556e8:	3004      	addhi	r0, #4
240556ea:	e7eb      	b.n	240556c4 <DMA_CalcBaseAndBitshift+0x6c>
240556ec:	40020010 	.word	0x40020010
240556f0:	24060246 	.word	0x24060246

240556f4 <DMA_CalcDMAMUXChannelBaseAndMask>:
240556f4:	6802      	ldr	r2, [r0, #0]
240556f6:	4921      	ldr	r1, [pc, #132]	@ (2405577c <DMA_CalcDMAMUXChannelBaseAndMask+0x88>)
240556f8:	b2d3      	uxtb	r3, r2
240556fa:	428a      	cmp	r2, r1
240556fc:	d028      	beq.n	24055750 <DMA_CalcDMAMUXChannelBaseAndMask+0x5c>
240556fe:	3114      	adds	r1, #20
24055700:	428a      	cmp	r2, r1
24055702:	d025      	beq.n	24055750 <DMA_CalcDMAMUXChannelBaseAndMask+0x5c>
24055704:	3114      	adds	r1, #20
24055706:	428a      	cmp	r2, r1
24055708:	d022      	beq.n	24055750 <DMA_CalcDMAMUXChannelBaseAndMask+0x5c>
2405570a:	3114      	adds	r1, #20
2405570c:	428a      	cmp	r2, r1
2405570e:	d01f      	beq.n	24055750 <DMA_CalcDMAMUXChannelBaseAndMask+0x5c>
24055710:	3114      	adds	r1, #20
24055712:	428a      	cmp	r2, r1
24055714:	d01c      	beq.n	24055750 <DMA_CalcDMAMUXChannelBaseAndMask+0x5c>
24055716:	3114      	adds	r1, #20
24055718:	428a      	cmp	r2, r1
2405571a:	d019      	beq.n	24055750 <DMA_CalcDMAMUXChannelBaseAndMask+0x5c>
2405571c:	3114      	adds	r1, #20
2405571e:	428a      	cmp	r2, r1
24055720:	d016      	beq.n	24055750 <DMA_CalcDMAMUXChannelBaseAndMask+0x5c>
24055722:	3114      	adds	r1, #20
24055724:	428a      	cmp	r2, r1
24055726:	d013      	beq.n	24055750 <DMA_CalcDMAMUXChannelBaseAndMask+0x5c>
24055728:	2118      	movs	r1, #24
2405572a:	3b10      	subs	r3, #16
2405572c:	fbb3 f3f1 	udiv	r3, r3, r1
24055730:	4913      	ldr	r1, [pc, #76]	@ (24055780 <DMA_CalcDMAMUXChannelBaseAndMask+0x8c>)
24055732:	4411      	add	r1, r2
24055734:	29a8      	cmp	r1, #168	@ 0xa8
24055736:	d91e      	bls.n	24055776 <DMA_CalcDMAMUXChannelBaseAndMask+0x82>
24055738:	f103 5280 	add.w	r2, r3, #268435456	@ 0x10000000
2405573c:	2101      	movs	r1, #1
2405573e:	f003 031f 	and.w	r3, r3, #31
24055742:	f502 4202 	add.w	r2, r2, #33280	@ 0x8200
24055746:	fa01 f303 	lsl.w	r3, r1, r3
2405574a:	490e      	ldr	r1, [pc, #56]	@ (24055784 <DMA_CalcDMAMUXChannelBaseAndMask+0x90>)
2405574c:	0092      	lsls	r2, r2, #2
2405574e:	e00e      	b.n	2405576e <DMA_CalcDMAMUXChannelBaseAndMask+0x7a>
24055750:	2214      	movs	r2, #20
24055752:	3b08      	subs	r3, #8
24055754:	2101      	movs	r1, #1
24055756:	fbb3 f3f2 	udiv	r3, r3, r2
2405575a:	f103 52b0 	add.w	r2, r3, #369098752	@ 0x16000000
2405575e:	f003 031f 	and.w	r3, r3, #31
24055762:	f502 4216 	add.w	r2, r2, #38400	@ 0x9600
24055766:	fa01 f303 	lsl.w	r3, r1, r3
2405576a:	4907      	ldr	r1, [pc, #28]	@ (24055788 <DMA_CalcDMAMUXChannelBaseAndMask+0x94>)
2405576c:	0092      	lsls	r2, r2, #2
2405576e:	6683      	str	r3, [r0, #104]	@ 0x68
24055770:	e9c0 2118 	strd	r2, r1, [r0, #96]	@ 0x60
24055774:	4770      	bx	lr
24055776:	3308      	adds	r3, #8
24055778:	e7de      	b.n	24055738 <DMA_CalcDMAMUXChannelBaseAndMask+0x44>
2405577a:	bf00      	nop
2405577c:	58025408 	.word	0x58025408
24055780:	bffdfbf0 	.word	0xbffdfbf0
24055784:	40020880 	.word	0x40020880
24055788:	58025880 	.word	0x58025880

2405578c <DMA_CalcDMAMUXRequestGenBaseAndMask>:
2405578c:	7902      	ldrb	r2, [r0, #4]
2405578e:	1e51      	subs	r1, r2, #1
24055790:	2907      	cmp	r1, #7
24055792:	b510      	push	{r4, lr}
24055794:	d821      	bhi.n	240557da <DMA_CalcDMAMUXRequestGenBaseAndMask+0x4e>
24055796:	6803      	ldr	r3, [r0, #0]
24055798:	4c13      	ldr	r4, [pc, #76]	@ (240557e8 <DMA_CalcDMAMUXRequestGenBaseAndMask+0x5c>)
2405579a:	42a3      	cmp	r3, r4
2405579c:	d01e      	beq.n	240557dc <DMA_CalcDMAMUXRequestGenBaseAndMask+0x50>
2405579e:	3414      	adds	r4, #20
240557a0:	42a3      	cmp	r3, r4
240557a2:	d01b      	beq.n	240557dc <DMA_CalcDMAMUXRequestGenBaseAndMask+0x50>
240557a4:	3414      	adds	r4, #20
240557a6:	42a3      	cmp	r3, r4
240557a8:	d018      	beq.n	240557dc <DMA_CalcDMAMUXRequestGenBaseAndMask+0x50>
240557aa:	3414      	adds	r4, #20
240557ac:	42a3      	cmp	r3, r4
240557ae:	d015      	beq.n	240557dc <DMA_CalcDMAMUXRequestGenBaseAndMask+0x50>
240557b0:	3414      	adds	r4, #20
240557b2:	42a3      	cmp	r3, r4
240557b4:	d012      	beq.n	240557dc <DMA_CalcDMAMUXRequestGenBaseAndMask+0x50>
240557b6:	3414      	adds	r4, #20
240557b8:	42a3      	cmp	r3, r4
240557ba:	d00f      	beq.n	240557dc <DMA_CalcDMAMUXRequestGenBaseAndMask+0x50>
240557bc:	3414      	adds	r4, #20
240557be:	42a3      	cmp	r3, r4
240557c0:	d00c      	beq.n	240557dc <DMA_CalcDMAMUXRequestGenBaseAndMask+0x50>
240557c2:	3414      	adds	r4, #20
240557c4:	42a3      	cmp	r3, r4
240557c6:	d009      	beq.n	240557dc <DMA_CalcDMAMUXRequestGenBaseAndMask+0x50>
240557c8:	4b08      	ldr	r3, [pc, #32]	@ (240557ec <DMA_CalcDMAMUXRequestGenBaseAndMask+0x60>)
240557ca:	4413      	add	r3, r2
240557cc:	4a08      	ldr	r2, [pc, #32]	@ (240557f0 <DMA_CalcDMAMUXRequestGenBaseAndMask+0x64>)
240557ce:	009b      	lsls	r3, r3, #2
240557d0:	e9c0 321b 	strd	r3, r2, [r0, #108]	@ 0x6c
240557d4:	2301      	movs	r3, #1
240557d6:	408b      	lsls	r3, r1
240557d8:	6743      	str	r3, [r0, #116]	@ 0x74
240557da:	bd10      	pop	{r4, pc}
240557dc:	4b05      	ldr	r3, [pc, #20]	@ (240557f4 <DMA_CalcDMAMUXRequestGenBaseAndMask+0x68>)
240557de:	4413      	add	r3, r2
240557e0:	4a05      	ldr	r2, [pc, #20]	@ (240557f8 <DMA_CalcDMAMUXRequestGenBaseAndMask+0x6c>)
240557e2:	009b      	lsls	r3, r3, #2
240557e4:	e7f4      	b.n	240557d0 <DMA_CalcDMAMUXRequestGenBaseAndMask+0x44>
240557e6:	bf00      	nop
240557e8:	58025408 	.word	0x58025408
240557ec:	1000823f 	.word	0x1000823f
240557f0:	40020940 	.word	0x40020940
240557f4:	1600963f 	.word	0x1600963f
240557f8:	58025940 	.word	0x58025940

240557fc <HAL_DMA_Init>:
240557fc:	b5f8      	push	{r3, r4, r5, r6, r7, lr}
240557fe:	4604      	mov	r4, r0
24055800:	f7fe fd7e 	bl	24054300 <HAL_GetTick>
24055804:	4606      	mov	r6, r0
24055806:	2c00      	cmp	r4, #0
24055808:	f000 80e7 	beq.w	240559da <HAL_DMA_Init+0x1de>
2405580c:	6823      	ldr	r3, [r4, #0]
2405580e:	4d83      	ldr	r5, [pc, #524]	@ (24055a1c <HAL_DMA_Init+0x220>)
24055810:	42ab      	cmp	r3, r5
24055812:	d06a      	beq.n	240558ea <HAL_DMA_Init+0xee>
24055814:	4a82      	ldr	r2, [pc, #520]	@ (24055a20 <HAL_DMA_Init+0x224>)
24055816:	4293      	cmp	r3, r2
24055818:	d067      	beq.n	240558ea <HAL_DMA_Init+0xee>
2405581a:	3218      	adds	r2, #24
2405581c:	4293      	cmp	r3, r2
2405581e:	d064      	beq.n	240558ea <HAL_DMA_Init+0xee>
24055820:	3218      	adds	r2, #24
24055822:	4293      	cmp	r3, r2
24055824:	d061      	beq.n	240558ea <HAL_DMA_Init+0xee>
24055826:	3218      	adds	r2, #24
24055828:	4293      	cmp	r3, r2
2405582a:	d05e      	beq.n	240558ea <HAL_DMA_Init+0xee>
2405582c:	3218      	adds	r2, #24
2405582e:	4293      	cmp	r3, r2
24055830:	d05b      	beq.n	240558ea <HAL_DMA_Init+0xee>
24055832:	3218      	adds	r2, #24
24055834:	4293      	cmp	r3, r2
24055836:	d058      	beq.n	240558ea <HAL_DMA_Init+0xee>
24055838:	3218      	adds	r2, #24
2405583a:	4293      	cmp	r3, r2
2405583c:	d055      	beq.n	240558ea <HAL_DMA_Init+0xee>
2405583e:	f502 7256 	add.w	r2, r2, #856	@ 0x358
24055842:	4293      	cmp	r3, r2
24055844:	d051      	beq.n	240558ea <HAL_DMA_Init+0xee>
24055846:	3218      	adds	r2, #24
24055848:	4293      	cmp	r3, r2
2405584a:	d04e      	beq.n	240558ea <HAL_DMA_Init+0xee>
2405584c:	3218      	adds	r2, #24
2405584e:	4293      	cmp	r3, r2
24055850:	d04b      	beq.n	240558ea <HAL_DMA_Init+0xee>
24055852:	3218      	adds	r2, #24
24055854:	4293      	cmp	r3, r2
24055856:	d048      	beq.n	240558ea <HAL_DMA_Init+0xee>
24055858:	3218      	adds	r2, #24
2405585a:	4293      	cmp	r3, r2
2405585c:	d045      	beq.n	240558ea <HAL_DMA_Init+0xee>
2405585e:	3218      	adds	r2, #24
24055860:	4293      	cmp	r3, r2
24055862:	d042      	beq.n	240558ea <HAL_DMA_Init+0xee>
24055864:	3218      	adds	r2, #24
24055866:	4293      	cmp	r3, r2
24055868:	d03f      	beq.n	240558ea <HAL_DMA_Init+0xee>
2405586a:	3218      	adds	r2, #24
2405586c:	4293      	cmp	r3, r2
2405586e:	d03c      	beq.n	240558ea <HAL_DMA_Init+0xee>
24055870:	4a6c      	ldr	r2, [pc, #432]	@ (24055a24 <HAL_DMA_Init+0x228>)
24055872:	4293      	cmp	r3, r2
24055874:	f040 8155 	bne.w	24055b22 <HAL_DMA_Init+0x326>
24055878:	2202      	movs	r2, #2
2405587a:	68a1      	ldr	r1, [r4, #8]
2405587c:	f884 2035 	strb.w	r2, [r4, #53]	@ 0x35
24055880:	2200      	movs	r2, #0
24055882:	2940      	cmp	r1, #64	@ 0x40
24055884:	f884 2034 	strb.w	r2, [r4, #52]	@ 0x34
24055888:	6818      	ldr	r0, [r3, #0]
2405588a:	f420 30ff 	bic.w	r0, r0, #130560	@ 0x1fe00
2405588e:	f420 70f8 	bic.w	r0, r0, #496	@ 0x1f0
24055892:	f000 8184 	beq.w	24055b9e <HAL_DMA_Init+0x3a2>
24055896:	f1a1 0280 	sub.w	r2, r1, #128	@ 0x80
2405589a:	4251      	negs	r1, r2
2405589c:	4151      	adcs	r1, r2
2405589e:	0389      	lsls	r1, r1, #14
240558a0:	e9d4 6203 	ldrd	r6, r2, [r4, #12]
240558a4:	08d2      	lsrs	r2, r2, #3
240558a6:	ea42 02d6 	orr.w	r2, r2, r6, lsr #3
240558aa:	6966      	ldr	r6, [r4, #20]
240558ac:	ea42 02d6 	orr.w	r2, r2, r6, lsr #3
240558b0:	69a6      	ldr	r6, [r4, #24]
240558b2:	ea42 02d6 	orr.w	r2, r2, r6, lsr #3
240558b6:	69e6      	ldr	r6, [r4, #28]
240558b8:	ea42 02d6 	orr.w	r2, r2, r6, lsr #3
240558bc:	6a26      	ldr	r6, [r4, #32]
240558be:	ea42 1216 	orr.w	r2, r2, r6, lsr #4
240558c2:	4302      	orrs	r2, r0
240558c4:	4620      	mov	r0, r4
240558c6:	4311      	orrs	r1, r2
240558c8:	4a57      	ldr	r2, [pc, #348]	@ (24055a28 <HAL_DMA_Init+0x22c>)
240558ca:	6019      	str	r1, [r3, #0]
240558cc:	441a      	add	r2, r3
240558ce:	2314      	movs	r3, #20
240558d0:	fbb2 f2f3 	udiv	r2, r2, r3
240558d4:	0092      	lsls	r2, r2, #2
240558d6:	65e2      	str	r2, [r4, #92]	@ 0x5c
240558d8:	f7ff febe 	bl	24055658 <DMA_CalcBaseAndBitshift>
240558dc:	6de3      	ldr	r3, [r4, #92]	@ 0x5c
240558de:	f003 021f 	and.w	r2, r3, #31
240558e2:	2301      	movs	r3, #1
240558e4:	4093      	lsls	r3, r2
240558e6:	6043      	str	r3, [r0, #4]
240558e8:	e0b2      	b.n	24055a50 <HAL_DMA_Init+0x254>
240558ea:	2202      	movs	r2, #2
240558ec:	42ab      	cmp	r3, r5
240558ee:	f884 2035 	strb.w	r2, [r4, #53]	@ 0x35
240558f2:	f04f 0200 	mov.w	r2, #0
240558f6:	f884 2034 	strb.w	r2, [r4, #52]	@ 0x34
240558fa:	d01e      	beq.n	2405593a <HAL_DMA_Init+0x13e>
240558fc:	4a48      	ldr	r2, [pc, #288]	@ (24055a20 <HAL_DMA_Init+0x224>)
240558fe:	4293      	cmp	r3, r2
24055900:	d01b      	beq.n	2405593a <HAL_DMA_Init+0x13e>
24055902:	3218      	adds	r2, #24
24055904:	4293      	cmp	r3, r2
24055906:	d018      	beq.n	2405593a <HAL_DMA_Init+0x13e>
24055908:	3218      	adds	r2, #24
2405590a:	4293      	cmp	r3, r2
2405590c:	d015      	beq.n	2405593a <HAL_DMA_Init+0x13e>
2405590e:	3218      	adds	r2, #24
24055910:	4293      	cmp	r3, r2
24055912:	d012      	beq.n	2405593a <HAL_DMA_Init+0x13e>
24055914:	3218      	adds	r2, #24
24055916:	4293      	cmp	r3, r2
24055918:	d00f      	beq.n	2405593a <HAL_DMA_Init+0x13e>
2405591a:	3218      	adds	r2, #24
2405591c:	4293      	cmp	r3, r2
2405591e:	d00c      	beq.n	2405593a <HAL_DMA_Init+0x13e>
24055920:	3218      	adds	r2, #24
24055922:	4293      	cmp	r3, r2
24055924:	d009      	beq.n	2405593a <HAL_DMA_Init+0x13e>
24055926:	f502 7256 	add.w	r2, r2, #856	@ 0x358
2405592a:	4293      	cmp	r3, r2
2405592c:	d005      	beq.n	2405593a <HAL_DMA_Init+0x13e>
2405592e:	3218      	adds	r2, #24
24055930:	4293      	cmp	r3, r2
24055932:	d002      	beq.n	2405593a <HAL_DMA_Init+0x13e>
24055934:	3218      	adds	r2, #24
24055936:	4293      	cmp	r3, r2
24055938:	d0ff      	beq.n	2405593a <HAL_DMA_Init+0x13e>
2405593a:	681a      	ldr	r2, [r3, #0]
2405593c:	f022 0201 	bic.w	r2, r2, #1
24055940:	601a      	str	r2, [r3, #0]
24055942:	6821      	ldr	r1, [r4, #0]
24055944:	680b      	ldr	r3, [r1, #0]
24055946:	07db      	lsls	r3, r3, #31
24055948:	d43d      	bmi.n	240559c6 <HAL_DMA_Init+0x1ca>
2405594a:	680b      	ldr	r3, [r1, #0]
2405594c:	4a37      	ldr	r2, [pc, #220]	@ (24055a2c <HAL_DMA_Init+0x230>)
2405594e:	69a0      	ldr	r0, [r4, #24]
24055950:	401a      	ands	r2, r3
24055952:	e9d4 3602 	ldrd	r3, r6, [r4, #8]
24055956:	4333      	orrs	r3, r6
24055958:	6926      	ldr	r6, [r4, #16]
2405595a:	4333      	orrs	r3, r6
2405595c:	6966      	ldr	r6, [r4, #20]
2405595e:	4333      	orrs	r3, r6
24055960:	69e6      	ldr	r6, [r4, #28]
24055962:	4303      	orrs	r3, r0
24055964:	4333      	orrs	r3, r6
24055966:	6a26      	ldr	r6, [r4, #32]
24055968:	4333      	orrs	r3, r6
2405596a:	6a66      	ldr	r6, [r4, #36]	@ 0x24
2405596c:	2e04      	cmp	r6, #4
2405596e:	ea43 0302 	orr.w	r3, r3, r2
24055972:	bf02      	ittt	eq
24055974:	e9d4 270b 	ldrdeq	r2, r7, [r4, #44]	@ 0x2c
24055978:	433a      	orreq	r2, r7
2405597a:	4313      	orreq	r3, r2
2405597c:	6862      	ldr	r2, [r4, #4]
2405597e:	f1a2 0729 	sub.w	r7, r2, #41	@ 0x29
24055982:	2f05      	cmp	r7, #5
24055984:	d92e      	bls.n	240559e4 <HAL_DMA_Init+0x1e8>
24055986:	2a52      	cmp	r2, #82	@ 0x52
24055988:	d829      	bhi.n	240559de <HAL_DMA_Init+0x1e2>
2405598a:	2a3e      	cmp	r2, #62	@ 0x3e
2405598c:	d905      	bls.n	2405599a <HAL_DMA_Init+0x19e>
2405598e:	4f28      	ldr	r7, [pc, #160]	@ (24055a30 <HAL_DMA_Init+0x234>)
24055990:	3a3f      	subs	r2, #63	@ 0x3f
24055992:	fa27 f202 	lsr.w	r2, r7, r2
24055996:	07d7      	lsls	r7, r2, #31
24055998:	d424      	bmi.n	240559e4 <HAL_DMA_Init+0x1e8>
2405599a:	600b      	str	r3, [r1, #0]
2405599c:	2e04      	cmp	r6, #4
2405599e:	694b      	ldr	r3, [r1, #20]
240559a0:	f023 0307 	bic.w	r3, r3, #7
240559a4:	ea43 0306 	orr.w	r3, r3, r6
240559a8:	d148      	bne.n	24055a3c <HAL_DMA_Init+0x240>
240559aa:	6aa2      	ldr	r2, [r4, #40]	@ 0x28
240559ac:	6ae6      	ldr	r6, [r4, #44]	@ 0x2c
240559ae:	4313      	orrs	r3, r2
240559b0:	2e00      	cmp	r6, #0
240559b2:	d043      	beq.n	24055a3c <HAL_DMA_Init+0x240>
240559b4:	b9c8      	cbnz	r0, 240559ea <HAL_DMA_Init+0x1ee>
240559b6:	2a01      	cmp	r2, #1
240559b8:	d028      	beq.n	24055a0c <HAL_DMA_Init+0x210>
240559ba:	f032 0202 	bics.w	r2, r2, #2
240559be:	d13d      	bne.n	24055a3c <HAL_DMA_Init+0x240>
240559c0:	01f0      	lsls	r0, r6, #7
240559c2:	d53b      	bpl.n	24055a3c <HAL_DMA_Init+0x240>
240559c4:	e025      	b.n	24055a12 <HAL_DMA_Init+0x216>
240559c6:	f7fe fc9b 	bl	24054300 <HAL_GetTick>
240559ca:	1b80      	subs	r0, r0, r6
240559cc:	2805      	cmp	r0, #5
240559ce:	d9b8      	bls.n	24055942 <HAL_DMA_Init+0x146>
240559d0:	2320      	movs	r3, #32
240559d2:	6563      	str	r3, [r4, #84]	@ 0x54
240559d4:	2303      	movs	r3, #3
240559d6:	f884 3035 	strb.w	r3, [r4, #53]	@ 0x35
240559da:	2001      	movs	r0, #1
240559dc:	bdf8      	pop	{r3, r4, r5, r6, r7, pc}
240559de:	3a74      	subs	r2, #116	@ 0x74
240559e0:	2a03      	cmp	r2, #3
240559e2:	d8da      	bhi.n	2405599a <HAL_DMA_Init+0x19e>
240559e4:	f443 1380 	orr.w	r3, r3, #1048576	@ 0x100000
240559e8:	e7d7      	b.n	2405599a <HAL_DMA_Init+0x19e>
240559ea:	f5b0 5f00 	cmp.w	r0, #8192	@ 0x2000
240559ee:	d121      	bne.n	24055a34 <HAL_DMA_Init+0x238>
240559f0:	2a03      	cmp	r2, #3
240559f2:	d823      	bhi.n	24055a3c <HAL_DMA_Init+0x240>
240559f4:	a001      	add	r0, pc, #4	@ (adr r0, 240559fc <HAL_DMA_Init+0x200>)
240559f6:	f850 f022 	ldr.w	pc, [r0, r2, lsl #2]
240559fa:	bf00      	nop
240559fc:	24055a13 	.word	0x24055a13
24055a00:	240559c1 	.word	0x240559c1
24055a04:	24055a13 	.word	0x24055a13
24055a08:	24055a0d 	.word	0x24055a0d
24055a0c:	f1b6 7fc0 	cmp.w	r6, #25165824	@ 0x1800000
24055a10:	d114      	bne.n	24055a3c <HAL_DMA_Init+0x240>
24055a12:	2340      	movs	r3, #64	@ 0x40
24055a14:	6563      	str	r3, [r4, #84]	@ 0x54
24055a16:	2301      	movs	r3, #1
24055a18:	e7dd      	b.n	240559d6 <HAL_DMA_Init+0x1da>
24055a1a:	bf00      	nop
24055a1c:	40020010 	.word	0x40020010
24055a20:	40020028 	.word	0x40020028
24055a24:	48022c08 	.word	0x48022c08
24055a28:	a7fdabf8 	.word	0xa7fdabf8
24055a2c:	fe10803f 	.word	0xfe10803f
24055a30:	000f030f 	.word	0x000f030f
24055a34:	2a02      	cmp	r2, #2
24055a36:	d9ec      	bls.n	24055a12 <HAL_DMA_Init+0x216>
24055a38:	2a03      	cmp	r2, #3
24055a3a:	d0c1      	beq.n	240559c0 <HAL_DMA_Init+0x1c4>
24055a3c:	614b      	str	r3, [r1, #20]
24055a3e:	4620      	mov	r0, r4
24055a40:	f7ff fe0a 	bl	24055658 <DMA_CalcBaseAndBitshift>
24055a44:	6de3      	ldr	r3, [r4, #92]	@ 0x5c
24055a46:	f003 021f 	and.w	r2, r3, #31
24055a4a:	233f      	movs	r3, #63	@ 0x3f
24055a4c:	4093      	lsls	r3, r2
24055a4e:	6083      	str	r3, [r0, #8]
24055a50:	6823      	ldr	r3, [r4, #0]
24055a52:	42ab      	cmp	r3, r5
24055a54:	d045      	beq.n	24055ae2 <HAL_DMA_Init+0x2e6>
24055a56:	4a55      	ldr	r2, [pc, #340]	@ (24055bac <HAL_DMA_Init+0x3b0>)
24055a58:	4293      	cmp	r3, r2
24055a5a:	d042      	beq.n	24055ae2 <HAL_DMA_Init+0x2e6>
24055a5c:	3218      	adds	r2, #24
24055a5e:	4293      	cmp	r3, r2
24055a60:	d03f      	beq.n	24055ae2 <HAL_DMA_Init+0x2e6>
24055a62:	3218      	adds	r2, #24
24055a64:	4293      	cmp	r3, r2
24055a66:	d03c      	beq.n	24055ae2 <HAL_DMA_Init+0x2e6>
24055a68:	3218      	adds	r2, #24
24055a6a:	4293      	cmp	r3, r2
24055a6c:	d039      	beq.n	24055ae2 <HAL_DMA_Init+0x2e6>
24055a6e:	3218      	adds	r2, #24
24055a70:	4293      	cmp	r3, r2
24055a72:	d036      	beq.n	24055ae2 <HAL_DMA_Init+0x2e6>
24055a74:	3218      	adds	r2, #24
24055a76:	4293      	cmp	r3, r2
24055a78:	d033      	beq.n	24055ae2 <HAL_DMA_Init+0x2e6>
24055a7a:	3218      	adds	r2, #24
24055a7c:	4293      	cmp	r3, r2
24055a7e:	d030      	beq.n	24055ae2 <HAL_DMA_Init+0x2e6>
24055a80:	f502 7256 	add.w	r2, r2, #856	@ 0x358
24055a84:	4293      	cmp	r3, r2
24055a86:	d02c      	beq.n	24055ae2 <HAL_DMA_Init+0x2e6>
24055a88:	3218      	adds	r2, #24
24055a8a:	4293      	cmp	r3, r2
24055a8c:	d029      	beq.n	24055ae2 <HAL_DMA_Init+0x2e6>
24055a8e:	3218      	adds	r2, #24
24055a90:	4293      	cmp	r3, r2
24055a92:	d026      	beq.n	24055ae2 <HAL_DMA_Init+0x2e6>
24055a94:	3218      	adds	r2, #24
24055a96:	4293      	cmp	r3, r2
24055a98:	d023      	beq.n	24055ae2 <HAL_DMA_Init+0x2e6>
24055a9a:	3218      	adds	r2, #24
24055a9c:	4293      	cmp	r3, r2
24055a9e:	d020      	beq.n	24055ae2 <HAL_DMA_Init+0x2e6>
24055aa0:	3218      	adds	r2, #24
24055aa2:	4293      	cmp	r3, r2
24055aa4:	d01d      	beq.n	24055ae2 <HAL_DMA_Init+0x2e6>
24055aa6:	3218      	adds	r2, #24
24055aa8:	4293      	cmp	r3, r2
24055aaa:	d01a      	beq.n	24055ae2 <HAL_DMA_Init+0x2e6>
24055aac:	3218      	adds	r2, #24
24055aae:	4293      	cmp	r3, r2
24055ab0:	d017      	beq.n	24055ae2 <HAL_DMA_Init+0x2e6>
24055ab2:	4a3f      	ldr	r2, [pc, #252]	@ (24055bb0 <HAL_DMA_Init+0x3b4>)
24055ab4:	4293      	cmp	r3, r2
24055ab6:	d014      	beq.n	24055ae2 <HAL_DMA_Init+0x2e6>
24055ab8:	3214      	adds	r2, #20
24055aba:	4293      	cmp	r3, r2
24055abc:	d011      	beq.n	24055ae2 <HAL_DMA_Init+0x2e6>
24055abe:	3214      	adds	r2, #20
24055ac0:	4293      	cmp	r3, r2
24055ac2:	d00e      	beq.n	24055ae2 <HAL_DMA_Init+0x2e6>
24055ac4:	3214      	adds	r2, #20
24055ac6:	4293      	cmp	r3, r2
24055ac8:	d00b      	beq.n	24055ae2 <HAL_DMA_Init+0x2e6>
24055aca:	3214      	adds	r2, #20
24055acc:	4293      	cmp	r3, r2
24055ace:	d008      	beq.n	24055ae2 <HAL_DMA_Init+0x2e6>
24055ad0:	3214      	adds	r2, #20
24055ad2:	4293      	cmp	r3, r2
24055ad4:	d005      	beq.n	24055ae2 <HAL_DMA_Init+0x2e6>
24055ad6:	3214      	adds	r2, #20
24055ad8:	4293      	cmp	r3, r2
24055ada:	d002      	beq.n	24055ae2 <HAL_DMA_Init+0x2e6>
24055adc:	3214      	adds	r2, #20
24055ade:	4293      	cmp	r3, r2
24055ae0:	d119      	bne.n	24055b16 <HAL_DMA_Init+0x31a>
24055ae2:	4620      	mov	r0, r4
24055ae4:	2500      	movs	r5, #0
24055ae6:	f7ff fe05 	bl	240556f4 <DMA_CalcDMAMUXChannelBaseAndMask>
24055aea:	68a3      	ldr	r3, [r4, #8]
24055aec:	6e22      	ldr	r2, [r4, #96]	@ 0x60
24055aee:	2b80      	cmp	r3, #128	@ 0x80
24055af0:	bf04      	itt	eq
24055af2:	2300      	moveq	r3, #0
24055af4:	6063      	streq	r3, [r4, #4]
24055af6:	6863      	ldr	r3, [r4, #4]
24055af8:	b2d9      	uxtb	r1, r3
24055afa:	3b01      	subs	r3, #1
24055afc:	6011      	str	r1, [r2, #0]
24055afe:	2b07      	cmp	r3, #7
24055b00:	e9d4 2119 	ldrd	r2, r1, [r4, #100]	@ 0x64
24055b04:	6051      	str	r1, [r2, #4]
24055b06:	d84c      	bhi.n	24055ba2 <HAL_DMA_Init+0x3a6>
24055b08:	f7ff fe40 	bl	2405578c <DMA_CalcDMAMUXRequestGenBaseAndMask>
24055b0c:	6ee3      	ldr	r3, [r4, #108]	@ 0x6c
24055b0e:	601d      	str	r5, [r3, #0]
24055b10:	e9d4 321c 	ldrd	r3, r2, [r4, #112]	@ 0x70
24055b14:	605a      	str	r2, [r3, #4]
24055b16:	2000      	movs	r0, #0
24055b18:	2301      	movs	r3, #1
24055b1a:	6560      	str	r0, [r4, #84]	@ 0x54
24055b1c:	f884 3035 	strb.w	r3, [r4, #53]	@ 0x35
24055b20:	e75c      	b.n	240559dc <HAL_DMA_Init+0x1e0>
24055b22:	4a24      	ldr	r2, [pc, #144]	@ (24055bb4 <HAL_DMA_Init+0x3b8>)
24055b24:	4293      	cmp	r3, r2
24055b26:	f43f aea7 	beq.w	24055878 <HAL_DMA_Init+0x7c>
24055b2a:	3214      	adds	r2, #20
24055b2c:	4293      	cmp	r3, r2
24055b2e:	f43f aea3 	beq.w	24055878 <HAL_DMA_Init+0x7c>
24055b32:	3214      	adds	r2, #20
24055b34:	4293      	cmp	r3, r2
24055b36:	f43f ae9f 	beq.w	24055878 <HAL_DMA_Init+0x7c>
24055b3a:	3214      	adds	r2, #20
24055b3c:	4293      	cmp	r3, r2
24055b3e:	f43f ae9b 	beq.w	24055878 <HAL_DMA_Init+0x7c>
24055b42:	3214      	adds	r2, #20
24055b44:	4293      	cmp	r3, r2
24055b46:	f43f ae97 	beq.w	24055878 <HAL_DMA_Init+0x7c>
24055b4a:	3214      	adds	r2, #20
24055b4c:	4293      	cmp	r3, r2
24055b4e:	f43f ae93 	beq.w	24055878 <HAL_DMA_Init+0x7c>
24055b52:	3214      	adds	r2, #20
24055b54:	4293      	cmp	r3, r2
24055b56:	f43f ae8f 	beq.w	24055878 <HAL_DMA_Init+0x7c>
24055b5a:	4a15      	ldr	r2, [pc, #84]	@ (24055bb0 <HAL_DMA_Init+0x3b4>)
24055b5c:	4293      	cmp	r3, r2
24055b5e:	f43f ae8b 	beq.w	24055878 <HAL_DMA_Init+0x7c>
24055b62:	3214      	adds	r2, #20
24055b64:	4293      	cmp	r3, r2
24055b66:	f43f ae87 	beq.w	24055878 <HAL_DMA_Init+0x7c>
24055b6a:	3214      	adds	r2, #20
24055b6c:	4293      	cmp	r3, r2
24055b6e:	f43f ae83 	beq.w	24055878 <HAL_DMA_Init+0x7c>
24055b72:	3214      	adds	r2, #20
24055b74:	4293      	cmp	r3, r2
24055b76:	f43f ae7f 	beq.w	24055878 <HAL_DMA_Init+0x7c>
24055b7a:	3214      	adds	r2, #20
24055b7c:	4293      	cmp	r3, r2
24055b7e:	f43f ae7b 	beq.w	24055878 <HAL_DMA_Init+0x7c>
24055b82:	3214      	adds	r2, #20
24055b84:	4293      	cmp	r3, r2
24055b86:	f43f ae77 	beq.w	24055878 <HAL_DMA_Init+0x7c>
24055b8a:	3214      	adds	r2, #20
24055b8c:	4293      	cmp	r3, r2
24055b8e:	f43f ae73 	beq.w	24055878 <HAL_DMA_Init+0x7c>
24055b92:	3214      	adds	r2, #20
24055b94:	4293      	cmp	r3, r2
24055b96:	f43f ae6f 	beq.w	24055878 <HAL_DMA_Init+0x7c>
24055b9a:	2340      	movs	r3, #64	@ 0x40
24055b9c:	e719      	b.n	240559d2 <HAL_DMA_Init+0x1d6>
24055b9e:	2110      	movs	r1, #16
24055ba0:	e67e      	b.n	240558a0 <HAL_DMA_Init+0xa4>
24055ba2:	e9c4 551b 	strd	r5, r5, [r4, #108]	@ 0x6c
24055ba6:	6765      	str	r5, [r4, #116]	@ 0x74
24055ba8:	e7b5      	b.n	24055b16 <HAL_DMA_Init+0x31a>
24055baa:	bf00      	nop
24055bac:	40020028 	.word	0x40020028
24055bb0:	58025408 	.word	0x58025408
24055bb4:	48022c1c 	.word	0x48022c1c

24055bb8 <HAL_DMA_Start_IT>:
24055bb8:	b570      	push	{r4, r5, r6, lr}
24055bba:	2800      	cmp	r0, #0
24055bbc:	f000 810a 	beq.w	24055dd4 <HAL_DMA_Start_IT+0x21c>
24055bc0:	f890 4034 	ldrb.w	r4, [r0, #52]	@ 0x34
24055bc4:	2c01      	cmp	r4, #1
24055bc6:	f000 8107 	beq.w	24055dd8 <HAL_DMA_Start_IT+0x220>
24055bca:	2401      	movs	r4, #1
24055bcc:	f880 4034 	strb.w	r4, [r0, #52]	@ 0x34
24055bd0:	f890 4035 	ldrb.w	r4, [r0, #53]	@ 0x35
24055bd4:	2c01      	cmp	r4, #1
24055bd6:	f04f 0400 	mov.w	r4, #0
24055bda:	f040 80f6 	bne.w	24055dca <HAL_DMA_Start_IT+0x212>
24055bde:	2502      	movs	r5, #2
24055be0:	f880 5035 	strb.w	r5, [r0, #53]	@ 0x35
24055be4:	4d7d      	ldr	r5, [pc, #500]	@ (24055ddc <HAL_DMA_Start_IT+0x224>)
24055be6:	6544      	str	r4, [r0, #84]	@ 0x54
24055be8:	6804      	ldr	r4, [r0, #0]
24055bea:	42ac      	cmp	r4, r5
24055bec:	d01e      	beq.n	24055c2c <HAL_DMA_Start_IT+0x74>
24055bee:	4e7c      	ldr	r6, [pc, #496]	@ (24055de0 <HAL_DMA_Start_IT+0x228>)
24055bf0:	42b4      	cmp	r4, r6
24055bf2:	d01b      	beq.n	24055c2c <HAL_DMA_Start_IT+0x74>
24055bf4:	3618      	adds	r6, #24
24055bf6:	42b4      	cmp	r4, r6
24055bf8:	d018      	beq.n	24055c2c <HAL_DMA_Start_IT+0x74>
24055bfa:	3618      	adds	r6, #24
24055bfc:	42b4      	cmp	r4, r6
24055bfe:	d015      	beq.n	24055c2c <HAL_DMA_Start_IT+0x74>
24055c00:	3618      	adds	r6, #24
24055c02:	42b4      	cmp	r4, r6
24055c04:	d012      	beq.n	24055c2c <HAL_DMA_Start_IT+0x74>
24055c06:	3618      	adds	r6, #24
24055c08:	42b4      	cmp	r4, r6
24055c0a:	d00f      	beq.n	24055c2c <HAL_DMA_Start_IT+0x74>
24055c0c:	3618      	adds	r6, #24
24055c0e:	42b4      	cmp	r4, r6
24055c10:	d00c      	beq.n	24055c2c <HAL_DMA_Start_IT+0x74>
24055c12:	3618      	adds	r6, #24
24055c14:	42b4      	cmp	r4, r6
24055c16:	d009      	beq.n	24055c2c <HAL_DMA_Start_IT+0x74>
24055c18:	f506 7656 	add.w	r6, r6, #856	@ 0x358
24055c1c:	42b4      	cmp	r4, r6
24055c1e:	d005      	beq.n	24055c2c <HAL_DMA_Start_IT+0x74>
24055c20:	3618      	adds	r6, #24
24055c22:	42b4      	cmp	r4, r6
24055c24:	d002      	beq.n	24055c2c <HAL_DMA_Start_IT+0x74>
24055c26:	3618      	adds	r6, #24
24055c28:	42b4      	cmp	r4, r6
24055c2a:	d0ff      	beq.n	24055c2c <HAL_DMA_Start_IT+0x74>
24055c2c:	6826      	ldr	r6, [r4, #0]
24055c2e:	f026 0601 	bic.w	r6, r6, #1
24055c32:	6026      	str	r6, [r4, #0]
24055c34:	f7ff fc34 	bl	240554a0 <DMA_SetConfig>
24055c38:	42ac      	cmp	r4, r5
24055c3a:	6c02      	ldr	r2, [r0, #64]	@ 0x40
24055c3c:	d053      	beq.n	24055ce6 <HAL_DMA_Start_IT+0x12e>
24055c3e:	4b68      	ldr	r3, [pc, #416]	@ (24055de0 <HAL_DMA_Start_IT+0x228>)
24055c40:	429c      	cmp	r4, r3
24055c42:	d050      	beq.n	24055ce6 <HAL_DMA_Start_IT+0x12e>
24055c44:	3318      	adds	r3, #24
24055c46:	429c      	cmp	r4, r3
24055c48:	d04d      	beq.n	24055ce6 <HAL_DMA_Start_IT+0x12e>
24055c4a:	3318      	adds	r3, #24
24055c4c:	429c      	cmp	r4, r3
24055c4e:	d04a      	beq.n	24055ce6 <HAL_DMA_Start_IT+0x12e>
24055c50:	3318      	adds	r3, #24
24055c52:	429c      	cmp	r4, r3
24055c54:	d047      	beq.n	24055ce6 <HAL_DMA_Start_IT+0x12e>
24055c56:	3318      	adds	r3, #24
24055c58:	429c      	cmp	r4, r3
24055c5a:	d044      	beq.n	24055ce6 <HAL_DMA_Start_IT+0x12e>
24055c5c:	3318      	adds	r3, #24
24055c5e:	429c      	cmp	r4, r3
24055c60:	d041      	beq.n	24055ce6 <HAL_DMA_Start_IT+0x12e>
24055c62:	3318      	adds	r3, #24
24055c64:	429c      	cmp	r4, r3
24055c66:	d03e      	beq.n	24055ce6 <HAL_DMA_Start_IT+0x12e>
24055c68:	f503 7356 	add.w	r3, r3, #856	@ 0x358
24055c6c:	429c      	cmp	r4, r3
24055c6e:	d03a      	beq.n	24055ce6 <HAL_DMA_Start_IT+0x12e>
24055c70:	3318      	adds	r3, #24
24055c72:	429c      	cmp	r4, r3
24055c74:	d037      	beq.n	24055ce6 <HAL_DMA_Start_IT+0x12e>
24055c76:	3318      	adds	r3, #24
24055c78:	429c      	cmp	r4, r3
24055c7a:	d034      	beq.n	24055ce6 <HAL_DMA_Start_IT+0x12e>
24055c7c:	3318      	adds	r3, #24
24055c7e:	429c      	cmp	r4, r3
24055c80:	d031      	beq.n	24055ce6 <HAL_DMA_Start_IT+0x12e>
24055c82:	3318      	adds	r3, #24
24055c84:	429c      	cmp	r4, r3
24055c86:	d02e      	beq.n	24055ce6 <HAL_DMA_Start_IT+0x12e>
24055c88:	3318      	adds	r3, #24
24055c8a:	429c      	cmp	r4, r3
24055c8c:	d02b      	beq.n	24055ce6 <HAL_DMA_Start_IT+0x12e>
24055c8e:	3318      	adds	r3, #24
24055c90:	429c      	cmp	r4, r3
24055c92:	d028      	beq.n	24055ce6 <HAL_DMA_Start_IT+0x12e>
24055c94:	3318      	adds	r3, #24
24055c96:	429c      	cmp	r4, r3
24055c98:	d025      	beq.n	24055ce6 <HAL_DMA_Start_IT+0x12e>
24055c9a:	6823      	ldr	r3, [r4, #0]
24055c9c:	f023 030e 	bic.w	r3, r3, #14
24055ca0:	f043 030a 	orr.w	r3, r3, #10
24055ca4:	6023      	str	r3, [r4, #0]
24055ca6:	2a00      	cmp	r2, #0
24055ca8:	d156      	bne.n	24055d58 <HAL_DMA_Start_IT+0x1a0>
24055caa:	4b4e      	ldr	r3, [pc, #312]	@ (24055de4 <HAL_DMA_Start_IT+0x22c>)
24055cac:	429c      	cmp	r4, r3
24055cae:	d027      	beq.n	24055d00 <HAL_DMA_Start_IT+0x148>
24055cb0:	4b4d      	ldr	r3, [pc, #308]	@ (24055de8 <HAL_DMA_Start_IT+0x230>)
24055cb2:	429c      	cmp	r4, r3
24055cb4:	d024      	beq.n	24055d00 <HAL_DMA_Start_IT+0x148>
24055cb6:	3314      	adds	r3, #20
24055cb8:	429c      	cmp	r4, r3
24055cba:	d021      	beq.n	24055d00 <HAL_DMA_Start_IT+0x148>
24055cbc:	3314      	adds	r3, #20
24055cbe:	429c      	cmp	r4, r3
24055cc0:	d01e      	beq.n	24055d00 <HAL_DMA_Start_IT+0x148>
24055cc2:	3314      	adds	r3, #20
24055cc4:	429c      	cmp	r4, r3
24055cc6:	d01b      	beq.n	24055d00 <HAL_DMA_Start_IT+0x148>
24055cc8:	3314      	adds	r3, #20
24055cca:	429c      	cmp	r4, r3
24055ccc:	d018      	beq.n	24055d00 <HAL_DMA_Start_IT+0x148>
24055cce:	3314      	adds	r3, #20
24055cd0:	429c      	cmp	r4, r3
24055cd2:	d015      	beq.n	24055d00 <HAL_DMA_Start_IT+0x148>
24055cd4:	3314      	adds	r3, #20
24055cd6:	429c      	cmp	r4, r3
24055cd8:	d012      	beq.n	24055d00 <HAL_DMA_Start_IT+0x148>
24055cda:	6823      	ldr	r3, [r4, #0]
24055cdc:	2000      	movs	r0, #0
24055cde:	f043 0301 	orr.w	r3, r3, #1
24055ce2:	6023      	str	r3, [r4, #0]
24055ce4:	bd70      	pop	{r4, r5, r6, pc}
24055ce6:	6823      	ldr	r3, [r4, #0]
24055ce8:	f023 031e 	bic.w	r3, r3, #30
24055cec:	f043 0316 	orr.w	r3, r3, #22
24055cf0:	6023      	str	r3, [r4, #0]
24055cf2:	b11a      	cbz	r2, 24055cfc <HAL_DMA_Start_IT+0x144>
24055cf4:	6823      	ldr	r3, [r4, #0]
24055cf6:	f043 0308 	orr.w	r3, r3, #8
24055cfa:	6023      	str	r3, [r4, #0]
24055cfc:	42ac      	cmp	r4, r5
24055cfe:	d130      	bne.n	24055d62 <HAL_DMA_Start_IT+0x1aa>
24055d00:	6e03      	ldr	r3, [r0, #96]	@ 0x60
24055d02:	681a      	ldr	r2, [r3, #0]
24055d04:	03d2      	lsls	r2, r2, #15
24055d06:	d45b      	bmi.n	24055dc0 <HAL_DMA_Start_IT+0x208>
24055d08:	6ec3      	ldr	r3, [r0, #108]	@ 0x6c
24055d0a:	b11b      	cbz	r3, 24055d14 <HAL_DMA_Start_IT+0x15c>
24055d0c:	681a      	ldr	r2, [r3, #0]
24055d0e:	f442 7280 	orr.w	r2, r2, #256	@ 0x100
24055d12:	601a      	str	r2, [r3, #0]
24055d14:	42ac      	cmp	r4, r5
24055d16:	d0e0      	beq.n	24055cda <HAL_DMA_Start_IT+0x122>
24055d18:	4b31      	ldr	r3, [pc, #196]	@ (24055de0 <HAL_DMA_Start_IT+0x228>)
24055d1a:	429c      	cmp	r4, r3
24055d1c:	d0dd      	beq.n	24055cda <HAL_DMA_Start_IT+0x122>
24055d1e:	3318      	adds	r3, #24
24055d20:	429c      	cmp	r4, r3
24055d22:	d0da      	beq.n	24055cda <HAL_DMA_Start_IT+0x122>
24055d24:	3318      	adds	r3, #24
24055d26:	429c      	cmp	r4, r3
24055d28:	d0d7      	beq.n	24055cda <HAL_DMA_Start_IT+0x122>
24055d2a:	3318      	adds	r3, #24
24055d2c:	429c      	cmp	r4, r3
24055d2e:	d0d4      	beq.n	24055cda <HAL_DMA_Start_IT+0x122>
24055d30:	3318      	adds	r3, #24
24055d32:	429c      	cmp	r4, r3
24055d34:	d0d1      	beq.n	24055cda <HAL_DMA_Start_IT+0x122>
24055d36:	3318      	adds	r3, #24
24055d38:	429c      	cmp	r4, r3
24055d3a:	d0ce      	beq.n	24055cda <HAL_DMA_Start_IT+0x122>
24055d3c:	3318      	adds	r3, #24
24055d3e:	429c      	cmp	r4, r3
24055d40:	d0cb      	beq.n	24055cda <HAL_DMA_Start_IT+0x122>
24055d42:	f503 7356 	add.w	r3, r3, #856	@ 0x358
24055d46:	429c      	cmp	r4, r3
24055d48:	d0c7      	beq.n	24055cda <HAL_DMA_Start_IT+0x122>
24055d4a:	3318      	adds	r3, #24
24055d4c:	429c      	cmp	r4, r3
24055d4e:	d0c4      	beq.n	24055cda <HAL_DMA_Start_IT+0x122>
24055d50:	3318      	adds	r3, #24
24055d52:	429c      	cmp	r4, r3
24055d54:	d0c1      	beq.n	24055cda <HAL_DMA_Start_IT+0x122>
24055d56:	e7c0      	b.n	24055cda <HAL_DMA_Start_IT+0x122>
24055d58:	6823      	ldr	r3, [r4, #0]
24055d5a:	f043 0304 	orr.w	r3, r3, #4
24055d5e:	6023      	str	r3, [r4, #0]
24055d60:	e7a3      	b.n	24055caa <HAL_DMA_Start_IT+0xf2>
24055d62:	4b1f      	ldr	r3, [pc, #124]	@ (24055de0 <HAL_DMA_Start_IT+0x228>)
24055d64:	429c      	cmp	r4, r3
24055d66:	d0cb      	beq.n	24055d00 <HAL_DMA_Start_IT+0x148>
24055d68:	3318      	adds	r3, #24
24055d6a:	429c      	cmp	r4, r3
24055d6c:	d0c8      	beq.n	24055d00 <HAL_DMA_Start_IT+0x148>
24055d6e:	3318      	adds	r3, #24
24055d70:	429c      	cmp	r4, r3
24055d72:	d0c5      	beq.n	24055d00 <HAL_DMA_Start_IT+0x148>
24055d74:	3318      	adds	r3, #24
24055d76:	429c      	cmp	r4, r3
24055d78:	d0c2      	beq.n	24055d00 <HAL_DMA_Start_IT+0x148>
24055d7a:	3318      	adds	r3, #24
24055d7c:	429c      	cmp	r4, r3
24055d7e:	d0bf      	beq.n	24055d00 <HAL_DMA_Start_IT+0x148>
24055d80:	3318      	adds	r3, #24
24055d82:	429c      	cmp	r4, r3
24055d84:	d0bc      	beq.n	24055d00 <HAL_DMA_Start_IT+0x148>
24055d86:	3318      	adds	r3, #24
24055d88:	429c      	cmp	r4, r3
24055d8a:	d0b9      	beq.n	24055d00 <HAL_DMA_Start_IT+0x148>
24055d8c:	f503 7356 	add.w	r3, r3, #856	@ 0x358
24055d90:	429c      	cmp	r4, r3
24055d92:	d0b5      	beq.n	24055d00 <HAL_DMA_Start_IT+0x148>
24055d94:	3318      	adds	r3, #24
24055d96:	429c      	cmp	r4, r3
24055d98:	d0b2      	beq.n	24055d00 <HAL_DMA_Start_IT+0x148>
24055d9a:	3318      	adds	r3, #24
24055d9c:	429c      	cmp	r4, r3
24055d9e:	d0af      	beq.n	24055d00 <HAL_DMA_Start_IT+0x148>
24055da0:	3318      	adds	r3, #24
24055da2:	429c      	cmp	r4, r3
24055da4:	d0ac      	beq.n	24055d00 <HAL_DMA_Start_IT+0x148>
24055da6:	3318      	adds	r3, #24
24055da8:	429c      	cmp	r4, r3
24055daa:	d0a9      	beq.n	24055d00 <HAL_DMA_Start_IT+0x148>
24055dac:	3318      	adds	r3, #24
24055dae:	429c      	cmp	r4, r3
24055db0:	d0a6      	beq.n	24055d00 <HAL_DMA_Start_IT+0x148>
24055db2:	3318      	adds	r3, #24
24055db4:	429c      	cmp	r4, r3
24055db6:	d0a3      	beq.n	24055d00 <HAL_DMA_Start_IT+0x148>
24055db8:	3318      	adds	r3, #24
24055dba:	429c      	cmp	r4, r3
24055dbc:	d0a0      	beq.n	24055d00 <HAL_DMA_Start_IT+0x148>
24055dbe:	e774      	b.n	24055caa <HAL_DMA_Start_IT+0xf2>
24055dc0:	681a      	ldr	r2, [r3, #0]
24055dc2:	f442 7280 	orr.w	r2, r2, #256	@ 0x100
24055dc6:	601a      	str	r2, [r3, #0]
24055dc8:	e79e      	b.n	24055d08 <HAL_DMA_Start_IT+0x150>
24055dca:	f44f 6300 	mov.w	r3, #2048	@ 0x800
24055dce:	f880 4034 	strb.w	r4, [r0, #52]	@ 0x34
24055dd2:	6543      	str	r3, [r0, #84]	@ 0x54
24055dd4:	2001      	movs	r0, #1
24055dd6:	e785      	b.n	24055ce4 <HAL_DMA_Start_IT+0x12c>
24055dd8:	2002      	movs	r0, #2
24055dda:	e783      	b.n	24055ce4 <HAL_DMA_Start_IT+0x12c>
24055ddc:	40020010 	.word	0x40020010
24055de0:	40020028 	.word	0x40020028
24055de4:	58025408 	.word	0x58025408
24055de8:	5802541c 	.word	0x5802541c

24055dec <HAL_DMA_Abort>:
24055dec:	b5f8      	push	{r3, r4, r5, r6, r7, lr}
24055dee:	4605      	mov	r5, r0
24055df0:	f7fe fa86 	bl	24054300 <HAL_GetTick>
24055df4:	4607      	mov	r7, r0
24055df6:	b145      	cbz	r5, 24055e0a <HAL_DMA_Abort+0x1e>
24055df8:	f895 3035 	ldrb.w	r3, [r5, #53]	@ 0x35
24055dfc:	2b02      	cmp	r3, #2
24055dfe:	d006      	beq.n	24055e0e <HAL_DMA_Abort+0x22>
24055e00:	2380      	movs	r3, #128	@ 0x80
24055e02:	656b      	str	r3, [r5, #84]	@ 0x54
24055e04:	2300      	movs	r3, #0
24055e06:	f885 3034 	strb.w	r3, [r5, #52]	@ 0x34
24055e0a:	2001      	movs	r0, #1
24055e0c:	bdf8      	pop	{r3, r4, r5, r6, r7, pc}
24055e0e:	682c      	ldr	r4, [r5, #0]
24055e10:	4ea9      	ldr	r6, [pc, #676]	@ (240560b8 <HAL_DMA_Abort+0x2cc>)
24055e12:	42b4      	cmp	r4, r6
24055e14:	d04a      	beq.n	24055eac <HAL_DMA_Abort+0xc0>
24055e16:	4ba9      	ldr	r3, [pc, #676]	@ (240560bc <HAL_DMA_Abort+0x2d0>)
24055e18:	429c      	cmp	r4, r3
24055e1a:	d047      	beq.n	24055eac <HAL_DMA_Abort+0xc0>
24055e1c:	3318      	adds	r3, #24
24055e1e:	429c      	cmp	r4, r3
24055e20:	d044      	beq.n	24055eac <HAL_DMA_Abort+0xc0>
24055e22:	3318      	adds	r3, #24
24055e24:	429c      	cmp	r4, r3
24055e26:	d041      	beq.n	24055eac <HAL_DMA_Abort+0xc0>
24055e28:	3318      	adds	r3, #24
24055e2a:	429c      	cmp	r4, r3
24055e2c:	d03e      	beq.n	24055eac <HAL_DMA_Abort+0xc0>
24055e2e:	3318      	adds	r3, #24
24055e30:	429c      	cmp	r4, r3
24055e32:	d03b      	beq.n	24055eac <HAL_DMA_Abort+0xc0>
24055e34:	3318      	adds	r3, #24
24055e36:	429c      	cmp	r4, r3
24055e38:	d038      	beq.n	24055eac <HAL_DMA_Abort+0xc0>
24055e3a:	3318      	adds	r3, #24
24055e3c:	429c      	cmp	r4, r3
24055e3e:	d035      	beq.n	24055eac <HAL_DMA_Abort+0xc0>
24055e40:	f503 7356 	add.w	r3, r3, #856	@ 0x358
24055e44:	429c      	cmp	r4, r3
24055e46:	d031      	beq.n	24055eac <HAL_DMA_Abort+0xc0>
24055e48:	3318      	adds	r3, #24
24055e4a:	429c      	cmp	r4, r3
24055e4c:	d02e      	beq.n	24055eac <HAL_DMA_Abort+0xc0>
24055e4e:	3318      	adds	r3, #24
24055e50:	429c      	cmp	r4, r3
24055e52:	d02b      	beq.n	24055eac <HAL_DMA_Abort+0xc0>
24055e54:	3318      	adds	r3, #24
24055e56:	429c      	cmp	r4, r3
24055e58:	d028      	beq.n	24055eac <HAL_DMA_Abort+0xc0>
24055e5a:	3318      	adds	r3, #24
24055e5c:	429c      	cmp	r4, r3
24055e5e:	d025      	beq.n	24055eac <HAL_DMA_Abort+0xc0>
24055e60:	3318      	adds	r3, #24
24055e62:	429c      	cmp	r4, r3
24055e64:	d022      	beq.n	24055eac <HAL_DMA_Abort+0xc0>
24055e66:	3318      	adds	r3, #24
24055e68:	429c      	cmp	r4, r3
24055e6a:	d01f      	beq.n	24055eac <HAL_DMA_Abort+0xc0>
24055e6c:	3318      	adds	r3, #24
24055e6e:	429c      	cmp	r4, r3
24055e70:	d01c      	beq.n	24055eac <HAL_DMA_Abort+0xc0>
24055e72:	6823      	ldr	r3, [r4, #0]
24055e74:	f023 030e 	bic.w	r3, r3, #14
24055e78:	6023      	str	r3, [r4, #0]
24055e7a:	4b91      	ldr	r3, [pc, #580]	@ (240560c0 <HAL_DMA_Abort+0x2d4>)
24055e7c:	429c      	cmp	r4, r3
24055e7e:	d01f      	beq.n	24055ec0 <HAL_DMA_Abort+0xd4>
24055e80:	3314      	adds	r3, #20
24055e82:	429c      	cmp	r4, r3
24055e84:	d01c      	beq.n	24055ec0 <HAL_DMA_Abort+0xd4>
24055e86:	3314      	adds	r3, #20
24055e88:	429c      	cmp	r4, r3
24055e8a:	d019      	beq.n	24055ec0 <HAL_DMA_Abort+0xd4>
24055e8c:	3314      	adds	r3, #20
24055e8e:	429c      	cmp	r4, r3
24055e90:	d016      	beq.n	24055ec0 <HAL_DMA_Abort+0xd4>
24055e92:	3314      	adds	r3, #20
24055e94:	429c      	cmp	r4, r3
24055e96:	d013      	beq.n	24055ec0 <HAL_DMA_Abort+0xd4>
24055e98:	3314      	adds	r3, #20
24055e9a:	429c      	cmp	r4, r3
24055e9c:	d010      	beq.n	24055ec0 <HAL_DMA_Abort+0xd4>
24055e9e:	3314      	adds	r3, #20
24055ea0:	429c      	cmp	r4, r3
24055ea2:	d00d      	beq.n	24055ec0 <HAL_DMA_Abort+0xd4>
24055ea4:	3314      	adds	r3, #20
24055ea6:	429c      	cmp	r4, r3
24055ea8:	d112      	bne.n	24055ed0 <HAL_DMA_Abort+0xe4>
24055eaa:	e009      	b.n	24055ec0 <HAL_DMA_Abort+0xd4>
24055eac:	6823      	ldr	r3, [r4, #0]
24055eae:	42b4      	cmp	r4, r6
24055eb0:	f023 031e 	bic.w	r3, r3, #30
24055eb4:	6023      	str	r3, [r4, #0]
24055eb6:	6963      	ldr	r3, [r4, #20]
24055eb8:	f023 0380 	bic.w	r3, r3, #128	@ 0x80
24055ebc:	6163      	str	r3, [r4, #20]
24055ebe:	d176      	bne.n	24055fae <HAL_DMA_Abort+0x1c2>
24055ec0:	6e2a      	ldr	r2, [r5, #96]	@ 0x60
24055ec2:	42b4      	cmp	r4, r6
24055ec4:	6813      	ldr	r3, [r2, #0]
24055ec6:	f423 7380 	bic.w	r3, r3, #256	@ 0x100
24055eca:	6013      	str	r3, [r2, #0]
24055ecc:	f040 80ab 	bne.w	24056026 <HAL_DMA_Abort+0x23a>
24055ed0:	6823      	ldr	r3, [r4, #0]
24055ed2:	f023 0301 	bic.w	r3, r3, #1
24055ed6:	6023      	str	r3, [r4, #0]
24055ed8:	6823      	ldr	r3, [r4, #0]
24055eda:	07db      	lsls	r3, r3, #31
24055edc:	f100 80cd 	bmi.w	2405607a <HAL_DMA_Abort+0x28e>
24055ee0:	682b      	ldr	r3, [r5, #0]
24055ee2:	6dea      	ldr	r2, [r5, #92]	@ 0x5c
24055ee4:	42b3      	cmp	r3, r6
24055ee6:	6da8      	ldr	r0, [r5, #88]	@ 0x58
24055ee8:	f002 021f 	and.w	r2, r2, #31
24055eec:	f000 80d1 	beq.w	24056092 <HAL_DMA_Abort+0x2a6>
24055ef0:	4972      	ldr	r1, [pc, #456]	@ (240560bc <HAL_DMA_Abort+0x2d0>)
24055ef2:	428b      	cmp	r3, r1
24055ef4:	f000 80cd 	beq.w	24056092 <HAL_DMA_Abort+0x2a6>
24055ef8:	3118      	adds	r1, #24
24055efa:	428b      	cmp	r3, r1
24055efc:	f000 80c9 	beq.w	24056092 <HAL_DMA_Abort+0x2a6>
24055f00:	3118      	adds	r1, #24
24055f02:	428b      	cmp	r3, r1
24055f04:	f000 80c5 	beq.w	24056092 <HAL_DMA_Abort+0x2a6>
24055f08:	3118      	adds	r1, #24
24055f0a:	428b      	cmp	r3, r1
24055f0c:	f000 80c1 	beq.w	24056092 <HAL_DMA_Abort+0x2a6>
24055f10:	3118      	adds	r1, #24
24055f12:	428b      	cmp	r3, r1
24055f14:	f000 80bd 	beq.w	24056092 <HAL_DMA_Abort+0x2a6>
24055f18:	3118      	adds	r1, #24
24055f1a:	428b      	cmp	r3, r1
24055f1c:	f000 80b9 	beq.w	24056092 <HAL_DMA_Abort+0x2a6>
24055f20:	3118      	adds	r1, #24
24055f22:	428b      	cmp	r3, r1
24055f24:	f000 80b5 	beq.w	24056092 <HAL_DMA_Abort+0x2a6>
24055f28:	f501 7156 	add.w	r1, r1, #856	@ 0x358
24055f2c:	428b      	cmp	r3, r1
24055f2e:	f000 80b0 	beq.w	24056092 <HAL_DMA_Abort+0x2a6>
24055f32:	3118      	adds	r1, #24
24055f34:	428b      	cmp	r3, r1
24055f36:	f000 80ac 	beq.w	24056092 <HAL_DMA_Abort+0x2a6>
24055f3a:	3118      	adds	r1, #24
24055f3c:	428b      	cmp	r3, r1
24055f3e:	f000 80a8 	beq.w	24056092 <HAL_DMA_Abort+0x2a6>
24055f42:	3118      	adds	r1, #24
24055f44:	428b      	cmp	r3, r1
24055f46:	f000 80a4 	beq.w	24056092 <HAL_DMA_Abort+0x2a6>
24055f4a:	3118      	adds	r1, #24
24055f4c:	428b      	cmp	r3, r1
24055f4e:	f000 80a0 	beq.w	24056092 <HAL_DMA_Abort+0x2a6>
24055f52:	3118      	adds	r1, #24
24055f54:	428b      	cmp	r3, r1
24055f56:	f000 809c 	beq.w	24056092 <HAL_DMA_Abort+0x2a6>
24055f5a:	3118      	adds	r1, #24
24055f5c:	428b      	cmp	r3, r1
24055f5e:	f000 8098 	beq.w	24056092 <HAL_DMA_Abort+0x2a6>
24055f62:	3118      	adds	r1, #24
24055f64:	428b      	cmp	r3, r1
24055f66:	f000 8094 	beq.w	24056092 <HAL_DMA_Abort+0x2a6>
24055f6a:	2101      	movs	r1, #1
24055f6c:	fa01 f202 	lsl.w	r2, r1, r2
24055f70:	6042      	str	r2, [r0, #4]
24055f72:	4a53      	ldr	r2, [pc, #332]	@ (240560c0 <HAL_DMA_Abort+0x2d4>)
24055f74:	4293      	cmp	r3, r2
24055f76:	f000 8092 	beq.w	2405609e <HAL_DMA_Abort+0x2b2>
24055f7a:	3214      	adds	r2, #20
24055f7c:	4293      	cmp	r3, r2
24055f7e:	f000 808e 	beq.w	2405609e <HAL_DMA_Abort+0x2b2>
24055f82:	3214      	adds	r2, #20
24055f84:	4293      	cmp	r3, r2
24055f86:	f000 808a 	beq.w	2405609e <HAL_DMA_Abort+0x2b2>
24055f8a:	3214      	adds	r2, #20
24055f8c:	4293      	cmp	r3, r2
24055f8e:	f000 8086 	beq.w	2405609e <HAL_DMA_Abort+0x2b2>
24055f92:	3214      	adds	r2, #20
24055f94:	4293      	cmp	r3, r2
24055f96:	f000 8082 	beq.w	2405609e <HAL_DMA_Abort+0x2b2>
24055f9a:	3214      	adds	r2, #20
24055f9c:	4293      	cmp	r3, r2
24055f9e:	d07e      	beq.n	2405609e <HAL_DMA_Abort+0x2b2>
24055fa0:	3214      	adds	r2, #20
24055fa2:	4293      	cmp	r3, r2
24055fa4:	d07b      	beq.n	2405609e <HAL_DMA_Abort+0x2b2>
24055fa6:	3214      	adds	r2, #20
24055fa8:	4293      	cmp	r3, r2
24055faa:	d17e      	bne.n	240560aa <HAL_DMA_Abort+0x2be>
24055fac:	e077      	b.n	2405609e <HAL_DMA_Abort+0x2b2>
24055fae:	4b43      	ldr	r3, [pc, #268]	@ (240560bc <HAL_DMA_Abort+0x2d0>)
24055fb0:	429c      	cmp	r4, r3
24055fb2:	d085      	beq.n	24055ec0 <HAL_DMA_Abort+0xd4>
24055fb4:	3318      	adds	r3, #24
24055fb6:	429c      	cmp	r4, r3
24055fb8:	d082      	beq.n	24055ec0 <HAL_DMA_Abort+0xd4>
24055fba:	3318      	adds	r3, #24
24055fbc:	429c      	cmp	r4, r3
24055fbe:	f43f af7f 	beq.w	24055ec0 <HAL_DMA_Abort+0xd4>
24055fc2:	3318      	adds	r3, #24
24055fc4:	429c      	cmp	r4, r3
24055fc6:	f43f af7b 	beq.w	24055ec0 <HAL_DMA_Abort+0xd4>
24055fca:	3318      	adds	r3, #24
24055fcc:	429c      	cmp	r4, r3
24055fce:	f43f af77 	beq.w	24055ec0 <HAL_DMA_Abort+0xd4>
24055fd2:	3318      	adds	r3, #24
24055fd4:	429c      	cmp	r4, r3
24055fd6:	f43f af73 	beq.w	24055ec0 <HAL_DMA_Abort+0xd4>
24055fda:	3318      	adds	r3, #24
24055fdc:	429c      	cmp	r4, r3
24055fde:	f43f af6f 	beq.w	24055ec0 <HAL_DMA_Abort+0xd4>
24055fe2:	f503 7356 	add.w	r3, r3, #856	@ 0x358
24055fe6:	429c      	cmp	r4, r3
24055fe8:	f43f af6a 	beq.w	24055ec0 <HAL_DMA_Abort+0xd4>
24055fec:	3318      	adds	r3, #24
24055fee:	429c      	cmp	r4, r3
24055ff0:	f43f af66 	beq.w	24055ec0 <HAL_DMA_Abort+0xd4>
24055ff4:	3318      	adds	r3, #24
24055ff6:	429c      	cmp	r4, r3
24055ff8:	f43f af62 	beq.w	24055ec0 <HAL_DMA_Abort+0xd4>
24055ffc:	3318      	adds	r3, #24
24055ffe:	429c      	cmp	r4, r3
24056000:	f43f af5e 	beq.w	24055ec0 <HAL_DMA_Abort+0xd4>
24056004:	3318      	adds	r3, #24
24056006:	429c      	cmp	r4, r3
24056008:	f43f af5a 	beq.w	24055ec0 <HAL_DMA_Abort+0xd4>
2405600c:	3318      	adds	r3, #24
2405600e:	429c      	cmp	r4, r3
24056010:	f43f af56 	beq.w	24055ec0 <HAL_DMA_Abort+0xd4>
24056014:	3318      	adds	r3, #24
24056016:	429c      	cmp	r4, r3
24056018:	f43f af52 	beq.w	24055ec0 <HAL_DMA_Abort+0xd4>
2405601c:	3318      	adds	r3, #24
2405601e:	429c      	cmp	r4, r3
24056020:	f43f af4e 	beq.w	24055ec0 <HAL_DMA_Abort+0xd4>
24056024:	e729      	b.n	24055e7a <HAL_DMA_Abort+0x8e>
24056026:	4b25      	ldr	r3, [pc, #148]	@ (240560bc <HAL_DMA_Abort+0x2d0>)
24056028:	429c      	cmp	r4, r3
2405602a:	f43f af51 	beq.w	24055ed0 <HAL_DMA_Abort+0xe4>
2405602e:	3318      	adds	r3, #24
24056030:	429c      	cmp	r4, r3
24056032:	f43f af4d 	beq.w	24055ed0 <HAL_DMA_Abort+0xe4>
24056036:	3318      	adds	r3, #24
24056038:	429c      	cmp	r4, r3
2405603a:	f43f af49 	beq.w	24055ed0 <HAL_DMA_Abort+0xe4>
2405603e:	3318      	adds	r3, #24
24056040:	429c      	cmp	r4, r3
24056042:	f43f af45 	beq.w	24055ed0 <HAL_DMA_Abort+0xe4>
24056046:	3318      	adds	r3, #24
24056048:	429c      	cmp	r4, r3
2405604a:	f43f af41 	beq.w	24055ed0 <HAL_DMA_Abort+0xe4>
2405604e:	3318      	adds	r3, #24
24056050:	429c      	cmp	r4, r3
24056052:	f43f af3d 	beq.w	24055ed0 <HAL_DMA_Abort+0xe4>
24056056:	3318      	adds	r3, #24
24056058:	429c      	cmp	r4, r3
2405605a:	f43f af39 	beq.w	24055ed0 <HAL_DMA_Abort+0xe4>
2405605e:	f503 7356 	add.w	r3, r3, #856	@ 0x358
24056062:	429c      	cmp	r4, r3
24056064:	f43f af34 	beq.w	24055ed0 <HAL_DMA_Abort+0xe4>
24056068:	3318      	adds	r3, #24
2405606a:	429c      	cmp	r4, r3
2405606c:	f43f af30 	beq.w	24055ed0 <HAL_DMA_Abort+0xe4>
24056070:	3318      	adds	r3, #24
24056072:	429c      	cmp	r4, r3
24056074:	f43f af2c 	beq.w	24055ed0 <HAL_DMA_Abort+0xe4>
24056078:	e72a      	b.n	24055ed0 <HAL_DMA_Abort+0xe4>
2405607a:	f7fe f941 	bl	24054300 <HAL_GetTick>
2405607e:	1bc0      	subs	r0, r0, r7
24056080:	2805      	cmp	r0, #5
24056082:	f67f af29 	bls.w	24055ed8 <HAL_DMA_Abort+0xec>
24056086:	2320      	movs	r3, #32
24056088:	656b      	str	r3, [r5, #84]	@ 0x54
2405608a:	2303      	movs	r3, #3
2405608c:	f885 3035 	strb.w	r3, [r5, #53]	@ 0x35
24056090:	e6b8      	b.n	24055e04 <HAL_DMA_Abort+0x18>
24056092:	213f      	movs	r1, #63	@ 0x3f
24056094:	42b3      	cmp	r3, r6
24056096:	fa01 f202 	lsl.w	r2, r1, r2
2405609a:	6082      	str	r2, [r0, #8]
2405609c:	d112      	bne.n	240560c4 <HAL_DMA_Abort+0x2d8>
2405609e:	e9d5 3219 	ldrd	r3, r2, [r5, #100]	@ 0x64
240560a2:	605a      	str	r2, [r3, #4]
240560a4:	6eeb      	ldr	r3, [r5, #108]	@ 0x6c
240560a6:	2b00      	cmp	r3, #0
240560a8:	d13b      	bne.n	24056122 <HAL_DMA_Abort+0x336>
240560aa:	2301      	movs	r3, #1
240560ac:	2000      	movs	r0, #0
240560ae:	f885 3035 	strb.w	r3, [r5, #53]	@ 0x35
240560b2:	f885 0034 	strb.w	r0, [r5, #52]	@ 0x34
240560b6:	e6a9      	b.n	24055e0c <HAL_DMA_Abort+0x20>
240560b8:	40020010 	.word	0x40020010
240560bc:	40020028 	.word	0x40020028
240560c0:	58025408 	.word	0x58025408
240560c4:	4a1b      	ldr	r2, [pc, #108]	@ (24056134 <HAL_DMA_Abort+0x348>)
240560c6:	4293      	cmp	r3, r2
240560c8:	d0e9      	beq.n	2405609e <HAL_DMA_Abort+0x2b2>
240560ca:	3218      	adds	r2, #24
240560cc:	4293      	cmp	r3, r2
240560ce:	d0e6      	beq.n	2405609e <HAL_DMA_Abort+0x2b2>
240560d0:	3218      	adds	r2, #24
240560d2:	4293      	cmp	r3, r2
240560d4:	d0e3      	beq.n	2405609e <HAL_DMA_Abort+0x2b2>
240560d6:	3218      	adds	r2, #24
240560d8:	4293      	cmp	r3, r2
240560da:	d0e0      	beq.n	2405609e <HAL_DMA_Abort+0x2b2>
240560dc:	3218      	adds	r2, #24
240560de:	4293      	cmp	r3, r2
240560e0:	d0dd      	beq.n	2405609e <HAL_DMA_Abort+0x2b2>
240560e2:	3218      	adds	r2, #24
240560e4:	4293      	cmp	r3, r2
240560e6:	d0da      	beq.n	2405609e <HAL_DMA_Abort+0x2b2>
240560e8:	3218      	adds	r2, #24
240560ea:	4293      	cmp	r3, r2
240560ec:	d0d7      	beq.n	2405609e <HAL_DMA_Abort+0x2b2>
240560ee:	f502 7256 	add.w	r2, r2, #856	@ 0x358
240560f2:	4293      	cmp	r3, r2
240560f4:	d0d3      	beq.n	2405609e <HAL_DMA_Abort+0x2b2>
240560f6:	3218      	adds	r2, #24
240560f8:	4293      	cmp	r3, r2
240560fa:	d0d0      	beq.n	2405609e <HAL_DMA_Abort+0x2b2>
240560fc:	3218      	adds	r2, #24
240560fe:	4293      	cmp	r3, r2
24056100:	d0cd      	beq.n	2405609e <HAL_DMA_Abort+0x2b2>
24056102:	3218      	adds	r2, #24
24056104:	4293      	cmp	r3, r2
24056106:	d0ca      	beq.n	2405609e <HAL_DMA_Abort+0x2b2>
24056108:	3218      	adds	r2, #24
2405610a:	4293      	cmp	r3, r2
2405610c:	d0c7      	beq.n	2405609e <HAL_DMA_Abort+0x2b2>
2405610e:	3218      	adds	r2, #24
24056110:	4293      	cmp	r3, r2
24056112:	d0c4      	beq.n	2405609e <HAL_DMA_Abort+0x2b2>
24056114:	3218      	adds	r2, #24
24056116:	4293      	cmp	r3, r2
24056118:	d0c1      	beq.n	2405609e <HAL_DMA_Abort+0x2b2>
2405611a:	3218      	adds	r2, #24
2405611c:	4293      	cmp	r3, r2
2405611e:	d0be      	beq.n	2405609e <HAL_DMA_Abort+0x2b2>
24056120:	e727      	b.n	24055f72 <HAL_DMA_Abort+0x186>
24056122:	681a      	ldr	r2, [r3, #0]
24056124:	f422 7280 	bic.w	r2, r2, #256	@ 0x100
24056128:	601a      	str	r2, [r3, #0]
2405612a:	e9d5 321c 	ldrd	r3, r2, [r5, #112]	@ 0x70
2405612e:	605a      	str	r2, [r3, #4]
24056130:	e7bb      	b.n	240560aa <HAL_DMA_Abort+0x2be>
24056132:	bf00      	nop
24056134:	40020028 	.word	0x40020028

24056138 <HAL_DMA_Abort_IT>:
24056138:	b508      	push	{r3, lr}
2405613a:	b128      	cbz	r0, 24056148 <HAL_DMA_Abort_IT+0x10>
2405613c:	f890 3035 	ldrb.w	r3, [r0, #53]	@ 0x35
24056140:	2b02      	cmp	r3, #2
24056142:	d003      	beq.n	2405614c <HAL_DMA_Abort_IT+0x14>
24056144:	2380      	movs	r3, #128	@ 0x80
24056146:	6543      	str	r3, [r0, #84]	@ 0x54
24056148:	2001      	movs	r0, #1
2405614a:	e05d      	b.n	24056208 <HAL_DMA_Abort_IT+0xd0>
2405614c:	6803      	ldr	r3, [r0, #0]
2405614e:	4a3f      	ldr	r2, [pc, #252]	@ (2405624c <HAL_DMA_Abort_IT+0x114>)
24056150:	4293      	cmp	r3, r2
24056152:	d051      	beq.n	240561f8 <HAL_DMA_Abort_IT+0xc0>
24056154:	3218      	adds	r2, #24
24056156:	4293      	cmp	r3, r2
24056158:	d04e      	beq.n	240561f8 <HAL_DMA_Abort_IT+0xc0>
2405615a:	3218      	adds	r2, #24
2405615c:	4293      	cmp	r3, r2
2405615e:	d04b      	beq.n	240561f8 <HAL_DMA_Abort_IT+0xc0>
24056160:	3218      	adds	r2, #24
24056162:	4293      	cmp	r3, r2
24056164:	d048      	beq.n	240561f8 <HAL_DMA_Abort_IT+0xc0>
24056166:	3218      	adds	r2, #24
24056168:	4293      	cmp	r3, r2
2405616a:	d045      	beq.n	240561f8 <HAL_DMA_Abort_IT+0xc0>
2405616c:	3218      	adds	r2, #24
2405616e:	4293      	cmp	r3, r2
24056170:	d042      	beq.n	240561f8 <HAL_DMA_Abort_IT+0xc0>
24056172:	3218      	adds	r2, #24
24056174:	4293      	cmp	r3, r2
24056176:	d03f      	beq.n	240561f8 <HAL_DMA_Abort_IT+0xc0>
24056178:	3218      	adds	r2, #24
2405617a:	4293      	cmp	r3, r2
2405617c:	d03c      	beq.n	240561f8 <HAL_DMA_Abort_IT+0xc0>
2405617e:	f502 7256 	add.w	r2, r2, #856	@ 0x358
24056182:	4293      	cmp	r3, r2
24056184:	d038      	beq.n	240561f8 <HAL_DMA_Abort_IT+0xc0>
24056186:	3218      	adds	r2, #24
24056188:	4293      	cmp	r3, r2
2405618a:	d035      	beq.n	240561f8 <HAL_DMA_Abort_IT+0xc0>
2405618c:	3218      	adds	r2, #24
2405618e:	4293      	cmp	r3, r2
24056190:	d032      	beq.n	240561f8 <HAL_DMA_Abort_IT+0xc0>
24056192:	3218      	adds	r2, #24
24056194:	4293      	cmp	r3, r2
24056196:	d02f      	beq.n	240561f8 <HAL_DMA_Abort_IT+0xc0>
24056198:	3218      	adds	r2, #24
2405619a:	4293      	cmp	r3, r2
2405619c:	d02c      	beq.n	240561f8 <HAL_DMA_Abort_IT+0xc0>
2405619e:	3218      	adds	r2, #24
240561a0:	4293      	cmp	r3, r2
240561a2:	d029      	beq.n	240561f8 <HAL_DMA_Abort_IT+0xc0>
240561a4:	3218      	adds	r2, #24
240561a6:	4293      	cmp	r3, r2
240561a8:	d026      	beq.n	240561f8 <HAL_DMA_Abort_IT+0xc0>
240561aa:	3218      	adds	r2, #24
240561ac:	4293      	cmp	r3, r2
240561ae:	d023      	beq.n	240561f8 <HAL_DMA_Abort_IT+0xc0>
240561b0:	681a      	ldr	r2, [r3, #0]
240561b2:	f022 020e 	bic.w	r2, r2, #14
240561b6:	601a      	str	r2, [r3, #0]
240561b8:	681a      	ldr	r2, [r3, #0]
240561ba:	f022 0201 	bic.w	r2, r2, #1
240561be:	601a      	str	r2, [r3, #0]
240561c0:	4a23      	ldr	r2, [pc, #140]	@ (24056250 <HAL_DMA_Abort_IT+0x118>)
240561c2:	4293      	cmp	r3, r2
240561c4:	d121      	bne.n	2405620a <HAL_DMA_Abort_IT+0xd2>
240561c6:	6e02      	ldr	r2, [r0, #96]	@ 0x60
240561c8:	6813      	ldr	r3, [r2, #0]
240561ca:	f423 7380 	bic.w	r3, r3, #256	@ 0x100
240561ce:	6013      	str	r3, [r2, #0]
240561d0:	e9d0 1316 	ldrd	r1, r3, [r0, #88]	@ 0x58
240561d4:	f003 021f 	and.w	r2, r3, #31
240561d8:	2301      	movs	r3, #1
240561da:	4093      	lsls	r3, r2
240561dc:	604b      	str	r3, [r1, #4]
240561de:	e9d0 3219 	ldrd	r3, r2, [r0, #100]	@ 0x64
240561e2:	605a      	str	r2, [r3, #4]
240561e4:	6ec3      	ldr	r3, [r0, #108]	@ 0x6c
240561e6:	b32b      	cbz	r3, 24056234 <HAL_DMA_Abort_IT+0xfc>
240561e8:	681a      	ldr	r2, [r3, #0]
240561ea:	f422 7280 	bic.w	r2, r2, #256	@ 0x100
240561ee:	601a      	str	r2, [r3, #0]
240561f0:	e9d0 321c 	ldrd	r3, r2, [r0, #112]	@ 0x70
240561f4:	605a      	str	r2, [r3, #4]
240561f6:	e01d      	b.n	24056234 <HAL_DMA_Abort_IT+0xfc>
240561f8:	2204      	movs	r2, #4
240561fa:	f880 2035 	strb.w	r2, [r0, #53]	@ 0x35
240561fe:	681a      	ldr	r2, [r3, #0]
24056200:	f022 0201 	bic.w	r2, r2, #1
24056204:	601a      	str	r2, [r3, #0]
24056206:	2000      	movs	r0, #0
24056208:	bd08      	pop	{r3, pc}
2405620a:	4a12      	ldr	r2, [pc, #72]	@ (24056254 <HAL_DMA_Abort_IT+0x11c>)
2405620c:	4293      	cmp	r3, r2
2405620e:	d0da      	beq.n	240561c6 <HAL_DMA_Abort_IT+0x8e>
24056210:	3214      	adds	r2, #20
24056212:	4293      	cmp	r3, r2
24056214:	d0d7      	beq.n	240561c6 <HAL_DMA_Abort_IT+0x8e>
24056216:	3214      	adds	r2, #20
24056218:	4293      	cmp	r3, r2
2405621a:	d0d4      	beq.n	240561c6 <HAL_DMA_Abort_IT+0x8e>
2405621c:	3214      	adds	r2, #20
2405621e:	4293      	cmp	r3, r2
24056220:	d0d1      	beq.n	240561c6 <HAL_DMA_Abort_IT+0x8e>
24056222:	3214      	adds	r2, #20
24056224:	4293      	cmp	r3, r2
24056226:	d0ce      	beq.n	240561c6 <HAL_DMA_Abort_IT+0x8e>
24056228:	3214      	adds	r2, #20
2405622a:	4293      	cmp	r3, r2
2405622c:	d0cb      	beq.n	240561c6 <HAL_DMA_Abort_IT+0x8e>
2405622e:	3214      	adds	r2, #20
24056230:	4293      	cmp	r3, r2
24056232:	d0c8      	beq.n	240561c6 <HAL_DMA_Abort_IT+0x8e>
24056234:	2301      	movs	r3, #1
24056236:	f880 3035 	strb.w	r3, [r0, #53]	@ 0x35
2405623a:	2300      	movs	r3, #0
2405623c:	f880 3034 	strb.w	r3, [r0, #52]	@ 0x34
24056240:	6d03      	ldr	r3, [r0, #80]	@ 0x50
24056242:	2b00      	cmp	r3, #0
24056244:	d0df      	beq.n	24056206 <HAL_DMA_Abort_IT+0xce>
24056246:	4798      	blx	r3
24056248:	e7dd      	b.n	24056206 <HAL_DMA_Abort_IT+0xce>
2405624a:	bf00      	nop
2405624c:	40020010 	.word	0x40020010
24056250:	58025408 	.word	0x58025408
24056254:	5802541c 	.word	0x5802541c

24056258 <HAL_DMA_IRQHandler>:
24056258:	2300      	movs	r3, #0
2405625a:	e92d 41f3 	stmdb	sp!, {r0, r1, r4, r5, r6, r7, r8, lr}
2405625e:	9301      	str	r3, [sp, #4]
24056260:	4604      	mov	r4, r0
24056262:	4b29      	ldr	r3, [pc, #164]	@ (24056308 <HAL_DMA_IRQHandler+0xb0>)
24056264:	4e29      	ldr	r6, [pc, #164]	@ (2405630c <HAL_DMA_IRQHandler+0xb4>)
24056266:	681f      	ldr	r7, [r3, #0]
24056268:	6803      	ldr	r3, [r0, #0]
2405626a:	6d85      	ldr	r5, [r0, #88]	@ 0x58
2405626c:	42b3      	cmp	r3, r6
2405626e:	f8d5 8000 	ldr.w	r8, [r5]
24056272:	f8d5 c000 	ldr.w	ip, [r5]
24056276:	d04f      	beq.n	24056318 <HAL_DMA_IRQHandler+0xc0>
24056278:	4a25      	ldr	r2, [pc, #148]	@ (24056310 <HAL_DMA_IRQHandler+0xb8>)
2405627a:	4293      	cmp	r3, r2
2405627c:	d04c      	beq.n	24056318 <HAL_DMA_IRQHandler+0xc0>
2405627e:	3218      	adds	r2, #24
24056280:	4293      	cmp	r3, r2
24056282:	d049      	beq.n	24056318 <HAL_DMA_IRQHandler+0xc0>
24056284:	3218      	adds	r2, #24
24056286:	4293      	cmp	r3, r2
24056288:	d046      	beq.n	24056318 <HAL_DMA_IRQHandler+0xc0>
2405628a:	3218      	adds	r2, #24
2405628c:	4293      	cmp	r3, r2
2405628e:	d043      	beq.n	24056318 <HAL_DMA_IRQHandler+0xc0>
24056290:	3218      	adds	r2, #24
24056292:	4293      	cmp	r3, r2
24056294:	d040      	beq.n	24056318 <HAL_DMA_IRQHandler+0xc0>
24056296:	3218      	adds	r2, #24
24056298:	4293      	cmp	r3, r2
2405629a:	d03d      	beq.n	24056318 <HAL_DMA_IRQHandler+0xc0>
2405629c:	3218      	adds	r2, #24
2405629e:	4293      	cmp	r3, r2
240562a0:	d03a      	beq.n	24056318 <HAL_DMA_IRQHandler+0xc0>
240562a2:	f502 7256 	add.w	r2, r2, #856	@ 0x358
240562a6:	4293      	cmp	r3, r2
240562a8:	d036      	beq.n	24056318 <HAL_DMA_IRQHandler+0xc0>
240562aa:	3218      	adds	r2, #24
240562ac:	4293      	cmp	r3, r2
240562ae:	d033      	beq.n	24056318 <HAL_DMA_IRQHandler+0xc0>
240562b0:	3218      	adds	r2, #24
240562b2:	4293      	cmp	r3, r2
240562b4:	d030      	beq.n	24056318 <HAL_DMA_IRQHandler+0xc0>
240562b6:	3218      	adds	r2, #24
240562b8:	4293      	cmp	r3, r2
240562ba:	d02d      	beq.n	24056318 <HAL_DMA_IRQHandler+0xc0>
240562bc:	3218      	adds	r2, #24
240562be:	4293      	cmp	r3, r2
240562c0:	d02a      	beq.n	24056318 <HAL_DMA_IRQHandler+0xc0>
240562c2:	3218      	adds	r2, #24
240562c4:	4293      	cmp	r3, r2
240562c6:	d027      	beq.n	24056318 <HAL_DMA_IRQHandler+0xc0>
240562c8:	3218      	adds	r2, #24
240562ca:	4293      	cmp	r3, r2
240562cc:	d024      	beq.n	24056318 <HAL_DMA_IRQHandler+0xc0>
240562ce:	3218      	adds	r2, #24
240562d0:	4293      	cmp	r3, r2
240562d2:	d021      	beq.n	24056318 <HAL_DMA_IRQHandler+0xc0>
240562d4:	4a0f      	ldr	r2, [pc, #60]	@ (24056314 <HAL_DMA_IRQHandler+0xbc>)
240562d6:	4293      	cmp	r3, r2
240562d8:	f040 820a 	bne.w	240566f0 <HAL_DMA_IRQHandler+0x498>
240562dc:	6de1      	ldr	r1, [r4, #92]	@ 0x5c
240562de:	2004      	movs	r0, #4
240562e0:	681a      	ldr	r2, [r3, #0]
240562e2:	f001 011f 	and.w	r1, r1, #31
240562e6:	4088      	lsls	r0, r1
240562e8:	ea10 0f0c 	tst.w	r0, ip
240562ec:	f000 8247 	beq.w	2405677e <HAL_DMA_IRQHandler+0x526>
240562f0:	0756      	lsls	r6, r2, #29
240562f2:	f140 8244 	bpl.w	2405677e <HAL_DMA_IRQHandler+0x526>
240562f6:	0411      	lsls	r1, r2, #16
240562f8:	6068      	str	r0, [r5, #4]
240562fa:	f140 8238 	bpl.w	2405676e <HAL_DMA_IRQHandler+0x516>
240562fe:	03d3      	lsls	r3, r2, #15
24056300:	f100 823b 	bmi.w	2405677a <HAL_DMA_IRQHandler+0x522>
24056304:	6ca3      	ldr	r3, [r4, #72]	@ 0x48
24056306:	e17e      	b.n	24056606 <HAL_DMA_IRQHandler+0x3ae>
24056308:	200000ac 	.word	0x200000ac
2405630c:	40020010 	.word	0x40020010
24056310:	40020028 	.word	0x40020028
24056314:	48022c08 	.word	0x48022c08
24056318:	6de2      	ldr	r2, [r4, #92]	@ 0x5c
2405631a:	2008      	movs	r0, #8
2405631c:	f002 021f 	and.w	r2, r2, #31
24056320:	4090      	lsls	r0, r2
24056322:	ea10 0f08 	tst.w	r0, r8
24056326:	d03d      	beq.n	240563a4 <HAL_DMA_IRQHandler+0x14c>
24056328:	42b3      	cmp	r3, r6
2405632a:	d02e      	beq.n	2405638a <HAL_DMA_IRQHandler+0x132>
2405632c:	4984      	ldr	r1, [pc, #528]	@ (24056540 <HAL_DMA_IRQHandler+0x2e8>)
2405632e:	428b      	cmp	r3, r1
24056330:	d02b      	beq.n	2405638a <HAL_DMA_IRQHandler+0x132>
24056332:	3118      	adds	r1, #24
24056334:	428b      	cmp	r3, r1
24056336:	d028      	beq.n	2405638a <HAL_DMA_IRQHandler+0x132>
24056338:	3118      	adds	r1, #24
2405633a:	428b      	cmp	r3, r1
2405633c:	d025      	beq.n	2405638a <HAL_DMA_IRQHandler+0x132>
2405633e:	3118      	adds	r1, #24
24056340:	428b      	cmp	r3, r1
24056342:	d022      	beq.n	2405638a <HAL_DMA_IRQHandler+0x132>
24056344:	3118      	adds	r1, #24
24056346:	428b      	cmp	r3, r1
24056348:	d01f      	beq.n	2405638a <HAL_DMA_IRQHandler+0x132>
2405634a:	3118      	adds	r1, #24
2405634c:	428b      	cmp	r3, r1
2405634e:	d01c      	beq.n	2405638a <HAL_DMA_IRQHandler+0x132>
24056350:	3118      	adds	r1, #24
24056352:	428b      	cmp	r3, r1
24056354:	d019      	beq.n	2405638a <HAL_DMA_IRQHandler+0x132>
24056356:	f501 7156 	add.w	r1, r1, #856	@ 0x358
2405635a:	428b      	cmp	r3, r1
2405635c:	d015      	beq.n	2405638a <HAL_DMA_IRQHandler+0x132>
2405635e:	3118      	adds	r1, #24
24056360:	428b      	cmp	r3, r1
24056362:	d012      	beq.n	2405638a <HAL_DMA_IRQHandler+0x132>
24056364:	3118      	adds	r1, #24
24056366:	428b      	cmp	r3, r1
24056368:	d00f      	beq.n	2405638a <HAL_DMA_IRQHandler+0x132>
2405636a:	3118      	adds	r1, #24
2405636c:	428b      	cmp	r3, r1
2405636e:	d00c      	beq.n	2405638a <HAL_DMA_IRQHandler+0x132>
24056370:	3118      	adds	r1, #24
24056372:	428b      	cmp	r3, r1
24056374:	d009      	beq.n	2405638a <HAL_DMA_IRQHandler+0x132>
24056376:	3118      	adds	r1, #24
24056378:	428b      	cmp	r3, r1
2405637a:	d006      	beq.n	2405638a <HAL_DMA_IRQHandler+0x132>
2405637c:	3118      	adds	r1, #24
2405637e:	428b      	cmp	r3, r1
24056380:	d003      	beq.n	2405638a <HAL_DMA_IRQHandler+0x132>
24056382:	3118      	adds	r1, #24
24056384:	428b      	cmp	r3, r1
24056386:	f040 80c1 	bne.w	2405650c <HAL_DMA_IRQHandler+0x2b4>
2405638a:	6819      	ldr	r1, [r3, #0]
2405638c:	f3c1 0180 	ubfx	r1, r1, #2, #1
24056390:	b141      	cbz	r1, 240563a4 <HAL_DMA_IRQHandler+0x14c>
24056392:	6819      	ldr	r1, [r3, #0]
24056394:	f021 0104 	bic.w	r1, r1, #4
24056398:	6019      	str	r1, [r3, #0]
2405639a:	60a8      	str	r0, [r5, #8]
2405639c:	6d61      	ldr	r1, [r4, #84]	@ 0x54
2405639e:	f041 0101 	orr.w	r1, r1, #1
240563a2:	6561      	str	r1, [r4, #84]	@ 0x54
240563a4:	fa28 f102 	lsr.w	r1, r8, r2
240563a8:	07c8      	lsls	r0, r1, #31
240563aa:	d534      	bpl.n	24056416 <HAL_DMA_IRQHandler+0x1be>
240563ac:	42b3      	cmp	r3, r6
240563ae:	d02e      	beq.n	2405640e <HAL_DMA_IRQHandler+0x1b6>
240563b0:	4963      	ldr	r1, [pc, #396]	@ (24056540 <HAL_DMA_IRQHandler+0x2e8>)
240563b2:	428b      	cmp	r3, r1
240563b4:	d02b      	beq.n	2405640e <HAL_DMA_IRQHandler+0x1b6>
240563b6:	3118      	adds	r1, #24
240563b8:	428b      	cmp	r3, r1
240563ba:	d028      	beq.n	2405640e <HAL_DMA_IRQHandler+0x1b6>
240563bc:	3118      	adds	r1, #24
240563be:	428b      	cmp	r3, r1
240563c0:	d025      	beq.n	2405640e <HAL_DMA_IRQHandler+0x1b6>
240563c2:	3118      	adds	r1, #24
240563c4:	428b      	cmp	r3, r1
240563c6:	d022      	beq.n	2405640e <HAL_DMA_IRQHandler+0x1b6>
240563c8:	3118      	adds	r1, #24
240563ca:	428b      	cmp	r3, r1
240563cc:	d01f      	beq.n	2405640e <HAL_DMA_IRQHandler+0x1b6>
240563ce:	3118      	adds	r1, #24
240563d0:	428b      	cmp	r3, r1
240563d2:	d01c      	beq.n	2405640e <HAL_DMA_IRQHandler+0x1b6>
240563d4:	3118      	adds	r1, #24
240563d6:	428b      	cmp	r3, r1
240563d8:	d019      	beq.n	2405640e <HAL_DMA_IRQHandler+0x1b6>
240563da:	f501 7156 	add.w	r1, r1, #856	@ 0x358
240563de:	428b      	cmp	r3, r1
240563e0:	d015      	beq.n	2405640e <HAL_DMA_IRQHandler+0x1b6>
240563e2:	3118      	adds	r1, #24
240563e4:	428b      	cmp	r3, r1
240563e6:	d012      	beq.n	2405640e <HAL_DMA_IRQHandler+0x1b6>
240563e8:	3118      	adds	r1, #24
240563ea:	428b      	cmp	r3, r1
240563ec:	d00f      	beq.n	2405640e <HAL_DMA_IRQHandler+0x1b6>
240563ee:	3118      	adds	r1, #24
240563f0:	428b      	cmp	r3, r1
240563f2:	d00c      	beq.n	2405640e <HAL_DMA_IRQHandler+0x1b6>
240563f4:	3118      	adds	r1, #24
240563f6:	428b      	cmp	r3, r1
240563f8:	d009      	beq.n	2405640e <HAL_DMA_IRQHandler+0x1b6>
240563fa:	3118      	adds	r1, #24
240563fc:	428b      	cmp	r3, r1
240563fe:	d006      	beq.n	2405640e <HAL_DMA_IRQHandler+0x1b6>
24056400:	3118      	adds	r1, #24
24056402:	428b      	cmp	r3, r1
24056404:	d003      	beq.n	2405640e <HAL_DMA_IRQHandler+0x1b6>
24056406:	3118      	adds	r1, #24
24056408:	428b      	cmp	r3, r1
2405640a:	f040 8083 	bne.w	24056514 <HAL_DMA_IRQHandler+0x2bc>
2405640e:	6959      	ldr	r1, [r3, #20]
24056410:	0609      	lsls	r1, r1, #24
24056412:	f100 8081 	bmi.w	24056518 <HAL_DMA_IRQHandler+0x2c0>
24056416:	2104      	movs	r1, #4
24056418:	4091      	lsls	r1, r2
2405641a:	ea11 0f08 	tst.w	r1, r8
2405641e:	d032      	beq.n	24056486 <HAL_DMA_IRQHandler+0x22e>
24056420:	42b3      	cmp	r3, r6
24056422:	d02d      	beq.n	24056480 <HAL_DMA_IRQHandler+0x228>
24056424:	4846      	ldr	r0, [pc, #280]	@ (24056540 <HAL_DMA_IRQHandler+0x2e8>)
24056426:	4283      	cmp	r3, r0
24056428:	d02a      	beq.n	24056480 <HAL_DMA_IRQHandler+0x228>
2405642a:	3018      	adds	r0, #24
2405642c:	4283      	cmp	r3, r0
2405642e:	d027      	beq.n	24056480 <HAL_DMA_IRQHandler+0x228>
24056430:	3018      	adds	r0, #24
24056432:	4283      	cmp	r3, r0
24056434:	d024      	beq.n	24056480 <HAL_DMA_IRQHandler+0x228>
24056436:	3018      	adds	r0, #24
24056438:	4283      	cmp	r3, r0
2405643a:	d021      	beq.n	24056480 <HAL_DMA_IRQHandler+0x228>
2405643c:	3018      	adds	r0, #24
2405643e:	4283      	cmp	r3, r0
24056440:	d01e      	beq.n	24056480 <HAL_DMA_IRQHandler+0x228>
24056442:	3018      	adds	r0, #24
24056444:	4283      	cmp	r3, r0
24056446:	d01b      	beq.n	24056480 <HAL_DMA_IRQHandler+0x228>
24056448:	3018      	adds	r0, #24
2405644a:	4283      	cmp	r3, r0
2405644c:	d018      	beq.n	24056480 <HAL_DMA_IRQHandler+0x228>
2405644e:	f500 7056 	add.w	r0, r0, #856	@ 0x358
24056452:	4283      	cmp	r3, r0
24056454:	d014      	beq.n	24056480 <HAL_DMA_IRQHandler+0x228>
24056456:	3018      	adds	r0, #24
24056458:	4283      	cmp	r3, r0
2405645a:	d011      	beq.n	24056480 <HAL_DMA_IRQHandler+0x228>
2405645c:	3018      	adds	r0, #24
2405645e:	4283      	cmp	r3, r0
24056460:	d00e      	beq.n	24056480 <HAL_DMA_IRQHandler+0x228>
24056462:	3018      	adds	r0, #24
24056464:	4283      	cmp	r3, r0
24056466:	d00b      	beq.n	24056480 <HAL_DMA_IRQHandler+0x228>
24056468:	3018      	adds	r0, #24
2405646a:	4283      	cmp	r3, r0
2405646c:	d008      	beq.n	24056480 <HAL_DMA_IRQHandler+0x228>
2405646e:	3018      	adds	r0, #24
24056470:	4283      	cmp	r3, r0
24056472:	d005      	beq.n	24056480 <HAL_DMA_IRQHandler+0x228>
24056474:	3018      	adds	r0, #24
24056476:	4283      	cmp	r3, r0
24056478:	d002      	beq.n	24056480 <HAL_DMA_IRQHandler+0x228>
2405647a:	3018      	adds	r0, #24
2405647c:	4283      	cmp	r3, r0
2405647e:	d153      	bne.n	24056528 <HAL_DMA_IRQHandler+0x2d0>
24056480:	6818      	ldr	r0, [r3, #0]
24056482:	0780      	lsls	r0, r0, #30
24056484:	d452      	bmi.n	2405652c <HAL_DMA_IRQHandler+0x2d4>
24056486:	2110      	movs	r1, #16
24056488:	4091      	lsls	r1, r2
2405648a:	ea11 0f08 	tst.w	r1, r8
2405648e:	d05d      	beq.n	2405654c <HAL_DMA_IRQHandler+0x2f4>
24056490:	42b3      	cmp	r3, r6
24056492:	d02d      	beq.n	240564f0 <HAL_DMA_IRQHandler+0x298>
24056494:	4a2a      	ldr	r2, [pc, #168]	@ (24056540 <HAL_DMA_IRQHandler+0x2e8>)
24056496:	4293      	cmp	r3, r2
24056498:	d02a      	beq.n	240564f0 <HAL_DMA_IRQHandler+0x298>
2405649a:	3218      	adds	r2, #24
2405649c:	4293      	cmp	r3, r2
2405649e:	d027      	beq.n	240564f0 <HAL_DMA_IRQHandler+0x298>
240564a0:	3218      	adds	r2, #24
240564a2:	4293      	cmp	r3, r2
240564a4:	d024      	beq.n	240564f0 <HAL_DMA_IRQHandler+0x298>
240564a6:	3218      	adds	r2, #24
240564a8:	4293      	cmp	r3, r2
240564aa:	d021      	beq.n	240564f0 <HAL_DMA_IRQHandler+0x298>
240564ac:	3218      	adds	r2, #24
240564ae:	4293      	cmp	r3, r2
240564b0:	d01e      	beq.n	240564f0 <HAL_DMA_IRQHandler+0x298>
240564b2:	3218      	adds	r2, #24
240564b4:	4293      	cmp	r3, r2
240564b6:	d01b      	beq.n	240564f0 <HAL_DMA_IRQHandler+0x298>
240564b8:	3218      	adds	r2, #24
240564ba:	4293      	cmp	r3, r2
240564bc:	d018      	beq.n	240564f0 <HAL_DMA_IRQHandler+0x298>
240564be:	f502 7256 	add.w	r2, r2, #856	@ 0x358
240564c2:	4293      	cmp	r3, r2
240564c4:	d014      	beq.n	240564f0 <HAL_DMA_IRQHandler+0x298>
240564c6:	3218      	adds	r2, #24
240564c8:	4293      	cmp	r3, r2
240564ca:	d011      	beq.n	240564f0 <HAL_DMA_IRQHandler+0x298>
240564cc:	3218      	adds	r2, #24
240564ce:	4293      	cmp	r3, r2
240564d0:	d00e      	beq.n	240564f0 <HAL_DMA_IRQHandler+0x298>
240564d2:	3218      	adds	r2, #24
240564d4:	4293      	cmp	r3, r2
240564d6:	d00b      	beq.n	240564f0 <HAL_DMA_IRQHandler+0x298>
240564d8:	3218      	adds	r2, #24
240564da:	4293      	cmp	r3, r2
240564dc:	d008      	beq.n	240564f0 <HAL_DMA_IRQHandler+0x298>
240564de:	3218      	adds	r2, #24
240564e0:	4293      	cmp	r3, r2
240564e2:	d005      	beq.n	240564f0 <HAL_DMA_IRQHandler+0x298>
240564e4:	3218      	adds	r2, #24
240564e6:	4293      	cmp	r3, r2
240564e8:	d002      	beq.n	240564f0 <HAL_DMA_IRQHandler+0x298>
240564ea:	3218      	adds	r2, #24
240564ec:	4293      	cmp	r3, r2
240564ee:	d123      	bne.n	24056538 <HAL_DMA_IRQHandler+0x2e0>
240564f0:	681a      	ldr	r2, [r3, #0]
240564f2:	f3c2 02c0 	ubfx	r2, r2, #3, #1
240564f6:	b34a      	cbz	r2, 2405654c <HAL_DMA_IRQHandler+0x2f4>
240564f8:	60a9      	str	r1, [r5, #8]
240564fa:	681a      	ldr	r2, [r3, #0]
240564fc:	0350      	lsls	r0, r2, #13
240564fe:	f140 808a 	bpl.w	24056616 <HAL_DMA_IRQHandler+0x3be>
24056502:	681b      	ldr	r3, [r3, #0]
24056504:	0319      	lsls	r1, r3, #12
24056506:	d41d      	bmi.n	24056544 <HAL_DMA_IRQHandler+0x2ec>
24056508:	6c23      	ldr	r3, [r4, #64]	@ 0x40
2405650a:	e01c      	b.n	24056546 <HAL_DMA_IRQHandler+0x2ee>
2405650c:	6819      	ldr	r1, [r3, #0]
2405650e:	f3c1 01c0 	ubfx	r1, r1, #3, #1
24056512:	e73d      	b.n	24056390 <HAL_DMA_IRQHandler+0x138>
24056514:	6819      	ldr	r1, [r3, #0]
24056516:	e77e      	b.n	24056416 <HAL_DMA_IRQHandler+0x1be>
24056518:	2101      	movs	r1, #1
2405651a:	4091      	lsls	r1, r2
2405651c:	60a9      	str	r1, [r5, #8]
2405651e:	6d61      	ldr	r1, [r4, #84]	@ 0x54
24056520:	f041 0102 	orr.w	r1, r1, #2
24056524:	6561      	str	r1, [r4, #84]	@ 0x54
24056526:	e776      	b.n	24056416 <HAL_DMA_IRQHandler+0x1be>
24056528:	6819      	ldr	r1, [r3, #0]
2405652a:	e7ac      	b.n	24056486 <HAL_DMA_IRQHandler+0x22e>
2405652c:	60a9      	str	r1, [r5, #8]
2405652e:	6d61      	ldr	r1, [r4, #84]	@ 0x54
24056530:	f041 0104 	orr.w	r1, r1, #4
24056534:	6561      	str	r1, [r4, #84]	@ 0x54
24056536:	e7a6      	b.n	24056486 <HAL_DMA_IRQHandler+0x22e>
24056538:	681a      	ldr	r2, [r3, #0]
2405653a:	f3c2 0280 	ubfx	r2, r2, #2, #1
2405653e:	e7da      	b.n	240564f6 <HAL_DMA_IRQHandler+0x29e>
24056540:	40020028 	.word	0x40020028
24056544:	6ca3      	ldr	r3, [r4, #72]	@ 0x48
24056546:	b10b      	cbz	r3, 2405654c <HAL_DMA_IRQHandler+0x2f4>
24056548:	4620      	mov	r0, r4
2405654a:	4798      	blx	r3
2405654c:	6de1      	ldr	r1, [r4, #92]	@ 0x5c
2405654e:	2020      	movs	r0, #32
24056550:	f001 011f 	and.w	r1, r1, #31
24056554:	4088      	lsls	r0, r1
24056556:	ea10 0f08 	tst.w	r0, r8
2405655a:	d072      	beq.n	24056642 <HAL_DMA_IRQHandler+0x3ea>
2405655c:	6823      	ldr	r3, [r4, #0]
2405655e:	42b3      	cmp	r3, r6
24056560:	d02d      	beq.n	240565be <HAL_DMA_IRQHandler+0x366>
24056562:	4a9d      	ldr	r2, [pc, #628]	@ (240567d8 <HAL_DMA_IRQHandler+0x580>)
24056564:	4293      	cmp	r3, r2
24056566:	d02a      	beq.n	240565be <HAL_DMA_IRQHandler+0x366>
24056568:	3218      	adds	r2, #24
2405656a:	4293      	cmp	r3, r2
2405656c:	d027      	beq.n	240565be <HAL_DMA_IRQHandler+0x366>
2405656e:	3218      	adds	r2, #24
24056570:	4293      	cmp	r3, r2
24056572:	d024      	beq.n	240565be <HAL_DMA_IRQHandler+0x366>
24056574:	3218      	adds	r2, #24
24056576:	4293      	cmp	r3, r2
24056578:	d021      	beq.n	240565be <HAL_DMA_IRQHandler+0x366>
2405657a:	3218      	adds	r2, #24
2405657c:	4293      	cmp	r3, r2
2405657e:	d01e      	beq.n	240565be <HAL_DMA_IRQHandler+0x366>
24056580:	3218      	adds	r2, #24
24056582:	4293      	cmp	r3, r2
24056584:	d01b      	beq.n	240565be <HAL_DMA_IRQHandler+0x366>
24056586:	3218      	adds	r2, #24
24056588:	4293      	cmp	r3, r2
2405658a:	d018      	beq.n	240565be <HAL_DMA_IRQHandler+0x366>
2405658c:	f502 7256 	add.w	r2, r2, #856	@ 0x358
24056590:	4293      	cmp	r3, r2
24056592:	d014      	beq.n	240565be <HAL_DMA_IRQHandler+0x366>
24056594:	3218      	adds	r2, #24
24056596:	4293      	cmp	r3, r2
24056598:	d011      	beq.n	240565be <HAL_DMA_IRQHandler+0x366>
2405659a:	3218      	adds	r2, #24
2405659c:	4293      	cmp	r3, r2
2405659e:	d00e      	beq.n	240565be <HAL_DMA_IRQHandler+0x366>
240565a0:	3218      	adds	r2, #24
240565a2:	4293      	cmp	r3, r2
240565a4:	d00b      	beq.n	240565be <HAL_DMA_IRQHandler+0x366>
240565a6:	3218      	adds	r2, #24
240565a8:	4293      	cmp	r3, r2
240565aa:	d008      	beq.n	240565be <HAL_DMA_IRQHandler+0x366>
240565ac:	3218      	adds	r2, #24
240565ae:	4293      	cmp	r3, r2
240565b0:	d005      	beq.n	240565be <HAL_DMA_IRQHandler+0x366>
240565b2:	3218      	adds	r2, #24
240565b4:	4293      	cmp	r3, r2
240565b6:	d002      	beq.n	240565be <HAL_DMA_IRQHandler+0x366>
240565b8:	3218      	adds	r2, #24
240565ba:	4293      	cmp	r3, r2
240565bc:	d134      	bne.n	24056628 <HAL_DMA_IRQHandler+0x3d0>
240565be:	681a      	ldr	r2, [r3, #0]
240565c0:	f3c2 1200 	ubfx	r2, r2, #4, #1
240565c4:	2a00      	cmp	r2, #0
240565c6:	d03c      	beq.n	24056642 <HAL_DMA_IRQHandler+0x3ea>
240565c8:	60a8      	str	r0, [r5, #8]
240565ca:	f894 2035 	ldrb.w	r2, [r4, #53]	@ 0x35
240565ce:	2a04      	cmp	r2, #4
240565d0:	681a      	ldr	r2, [r3, #0]
240565d2:	d12d      	bne.n	24056630 <HAL_DMA_IRQHandler+0x3d8>
240565d4:	f022 0216 	bic.w	r2, r2, #22
240565d8:	601a      	str	r2, [r3, #0]
240565da:	695a      	ldr	r2, [r3, #20]
240565dc:	f022 0280 	bic.w	r2, r2, #128	@ 0x80
240565e0:	615a      	str	r2, [r3, #20]
240565e2:	6c22      	ldr	r2, [r4, #64]	@ 0x40
240565e4:	b90a      	cbnz	r2, 240565ea <HAL_DMA_IRQHandler+0x392>
240565e6:	6ca2      	ldr	r2, [r4, #72]	@ 0x48
240565e8:	b11a      	cbz	r2, 240565f2 <HAL_DMA_IRQHandler+0x39a>
240565ea:	681a      	ldr	r2, [r3, #0]
240565ec:	f022 0208 	bic.w	r2, r2, #8
240565f0:	601a      	str	r2, [r3, #0]
240565f2:	233f      	movs	r3, #63	@ 0x3f
240565f4:	408b      	lsls	r3, r1
240565f6:	60ab      	str	r3, [r5, #8]
240565f8:	2301      	movs	r3, #1
240565fa:	f884 3035 	strb.w	r3, [r4, #53]	@ 0x35
240565fe:	2300      	movs	r3, #0
24056600:	f884 3034 	strb.w	r3, [r4, #52]	@ 0x34
24056604:	6d23      	ldr	r3, [r4, #80]	@ 0x50
24056606:	2b00      	cmp	r3, #0
24056608:	f000 80ae 	beq.w	24056768 <HAL_DMA_IRQHandler+0x510>
2405660c:	4620      	mov	r0, r4
2405660e:	b002      	add	sp, #8
24056610:	e8bd 41f0 	ldmia.w	sp!, {r4, r5, r6, r7, r8, lr}
24056614:	4718      	bx	r3
24056616:	681a      	ldr	r2, [r3, #0]
24056618:	05d2      	lsls	r2, r2, #23
2405661a:	f53f af75 	bmi.w	24056508 <HAL_DMA_IRQHandler+0x2b0>
2405661e:	681a      	ldr	r2, [r3, #0]
24056620:	f022 0208 	bic.w	r2, r2, #8
24056624:	601a      	str	r2, [r3, #0]
24056626:	e76f      	b.n	24056508 <HAL_DMA_IRQHandler+0x2b0>
24056628:	681a      	ldr	r2, [r3, #0]
2405662a:	f3c2 0240 	ubfx	r2, r2, #1, #1
2405662e:	e7c9      	b.n	240565c4 <HAL_DMA_IRQHandler+0x36c>
24056630:	0355      	lsls	r5, r2, #13
24056632:	d54e      	bpl.n	240566d2 <HAL_DMA_IRQHandler+0x47a>
24056634:	681b      	ldr	r3, [r3, #0]
24056636:	0318      	lsls	r0, r3, #12
24056638:	d458      	bmi.n	240566ec <HAL_DMA_IRQHandler+0x494>
2405663a:	6c63      	ldr	r3, [r4, #68]	@ 0x44
2405663c:	b10b      	cbz	r3, 24056642 <HAL_DMA_IRQHandler+0x3ea>
2405663e:	4620      	mov	r0, r4
24056640:	4798      	blx	r3
24056642:	6d63      	ldr	r3, [r4, #84]	@ 0x54
24056644:	2b00      	cmp	r3, #0
24056646:	f000 808f 	beq.w	24056768 <HAL_DMA_IRQHandler+0x510>
2405664a:	6d63      	ldr	r3, [r4, #84]	@ 0x54
2405664c:	07d9      	lsls	r1, r3, #31
2405664e:	d53e      	bpl.n	240566ce <HAL_DMA_IRQHandler+0x476>
24056650:	2304      	movs	r3, #4
24056652:	f884 3035 	strb.w	r3, [r4, #53]	@ 0x35
24056656:	6823      	ldr	r3, [r4, #0]
24056658:	42b3      	cmp	r3, r6
2405665a:	d01e      	beq.n	2405669a <HAL_DMA_IRQHandler+0x442>
2405665c:	4a5e      	ldr	r2, [pc, #376]	@ (240567d8 <HAL_DMA_IRQHandler+0x580>)
2405665e:	4293      	cmp	r3, r2
24056660:	d01b      	beq.n	2405669a <HAL_DMA_IRQHandler+0x442>
24056662:	3218      	adds	r2, #24
24056664:	4293      	cmp	r3, r2
24056666:	d018      	beq.n	2405669a <HAL_DMA_IRQHandler+0x442>
24056668:	3218      	adds	r2, #24
2405666a:	4293      	cmp	r3, r2
2405666c:	d015      	beq.n	2405669a <HAL_DMA_IRQHandler+0x442>
2405666e:	3218      	adds	r2, #24
24056670:	4293      	cmp	r3, r2
24056672:	d012      	beq.n	2405669a <HAL_DMA_IRQHandler+0x442>
24056674:	3218      	adds	r2, #24
24056676:	4293      	cmp	r3, r2
24056678:	d00f      	beq.n	2405669a <HAL_DMA_IRQHandler+0x442>
2405667a:	3218      	adds	r2, #24
2405667c:	4293      	cmp	r3, r2
2405667e:	d00c      	beq.n	2405669a <HAL_DMA_IRQHandler+0x442>
24056680:	3218      	adds	r2, #24
24056682:	4293      	cmp	r3, r2
24056684:	d009      	beq.n	2405669a <HAL_DMA_IRQHandler+0x442>
24056686:	f502 7256 	add.w	r2, r2, #856	@ 0x358
2405668a:	4293      	cmp	r3, r2
2405668c:	d005      	beq.n	2405669a <HAL_DMA_IRQHandler+0x442>
2405668e:	3218      	adds	r2, #24
24056690:	4293      	cmp	r3, r2
24056692:	d002      	beq.n	2405669a <HAL_DMA_IRQHandler+0x442>
24056694:	3218      	adds	r2, #24
24056696:	4293      	cmp	r3, r2
24056698:	d0ff      	beq.n	2405669a <HAL_DMA_IRQHandler+0x442>
2405669a:	f44f 5116 	mov.w	r1, #9600	@ 0x2580
2405669e:	681a      	ldr	r2, [r3, #0]
240566a0:	fbb7 f1f1 	udiv	r1, r7, r1
240566a4:	f022 0201 	bic.w	r2, r2, #1
240566a8:	601a      	str	r2, [r3, #0]
240566aa:	9a01      	ldr	r2, [sp, #4]
240566ac:	3201      	adds	r2, #1
240566ae:	428a      	cmp	r2, r1
240566b0:	9201      	str	r2, [sp, #4]
240566b2:	d802      	bhi.n	240566ba <HAL_DMA_IRQHandler+0x462>
240566b4:	681a      	ldr	r2, [r3, #0]
240566b6:	07d2      	lsls	r2, r2, #31
240566b8:	d4f7      	bmi.n	240566aa <HAL_DMA_IRQHandler+0x452>
240566ba:	681b      	ldr	r3, [r3, #0]
240566bc:	07df      	lsls	r7, r3, #31
240566be:	bf4c      	ite	mi
240566c0:	2303      	movmi	r3, #3
240566c2:	2301      	movpl	r3, #1
240566c4:	f884 3035 	strb.w	r3, [r4, #53]	@ 0x35
240566c8:	2300      	movs	r3, #0
240566ca:	f884 3034 	strb.w	r3, [r4, #52]	@ 0x34
240566ce:	6ce3      	ldr	r3, [r4, #76]	@ 0x4c
240566d0:	e799      	b.n	24056606 <HAL_DMA_IRQHandler+0x3ae>
240566d2:	681a      	ldr	r2, [r3, #0]
240566d4:	f412 7280 	ands.w	r2, r2, #256	@ 0x100
240566d8:	d108      	bne.n	240566ec <HAL_DMA_IRQHandler+0x494>
240566da:	6819      	ldr	r1, [r3, #0]
240566dc:	f021 0110 	bic.w	r1, r1, #16
240566e0:	6019      	str	r1, [r3, #0]
240566e2:	2301      	movs	r3, #1
240566e4:	f884 2034 	strb.w	r2, [r4, #52]	@ 0x34
240566e8:	f884 3035 	strb.w	r3, [r4, #53]	@ 0x35
240566ec:	6be3      	ldr	r3, [r4, #60]	@ 0x3c
240566ee:	e7a5      	b.n	2405663c <HAL_DMA_IRQHandler+0x3e4>
240566f0:	4a3a      	ldr	r2, [pc, #232]	@ (240567dc <HAL_DMA_IRQHandler+0x584>)
240566f2:	4293      	cmp	r3, r2
240566f4:	f43f adf2 	beq.w	240562dc <HAL_DMA_IRQHandler+0x84>
240566f8:	3214      	adds	r2, #20
240566fa:	4293      	cmp	r3, r2
240566fc:	f43f adee 	beq.w	240562dc <HAL_DMA_IRQHandler+0x84>
24056700:	3214      	adds	r2, #20
24056702:	4293      	cmp	r3, r2
24056704:	f43f adea 	beq.w	240562dc <HAL_DMA_IRQHandler+0x84>
24056708:	3214      	adds	r2, #20
2405670a:	4293      	cmp	r3, r2
2405670c:	f43f ade6 	beq.w	240562dc <HAL_DMA_IRQHandler+0x84>
24056710:	3214      	adds	r2, #20
24056712:	4293      	cmp	r3, r2
24056714:	f43f ade2 	beq.w	240562dc <HAL_DMA_IRQHandler+0x84>
24056718:	3214      	adds	r2, #20
2405671a:	4293      	cmp	r3, r2
2405671c:	f43f adde 	beq.w	240562dc <HAL_DMA_IRQHandler+0x84>
24056720:	3214      	adds	r2, #20
24056722:	4293      	cmp	r3, r2
24056724:	f43f adda 	beq.w	240562dc <HAL_DMA_IRQHandler+0x84>
24056728:	4a2d      	ldr	r2, [pc, #180]	@ (240567e0 <HAL_DMA_IRQHandler+0x588>)
2405672a:	4293      	cmp	r3, r2
2405672c:	f43f add6 	beq.w	240562dc <HAL_DMA_IRQHandler+0x84>
24056730:	3214      	adds	r2, #20
24056732:	4293      	cmp	r3, r2
24056734:	f43f add2 	beq.w	240562dc <HAL_DMA_IRQHandler+0x84>
24056738:	3214      	adds	r2, #20
2405673a:	4293      	cmp	r3, r2
2405673c:	f43f adce 	beq.w	240562dc <HAL_DMA_IRQHandler+0x84>
24056740:	3214      	adds	r2, #20
24056742:	4293      	cmp	r3, r2
24056744:	f43f adca 	beq.w	240562dc <HAL_DMA_IRQHandler+0x84>
24056748:	3214      	adds	r2, #20
2405674a:	4293      	cmp	r3, r2
2405674c:	f43f adc6 	beq.w	240562dc <HAL_DMA_IRQHandler+0x84>
24056750:	3214      	adds	r2, #20
24056752:	4293      	cmp	r3, r2
24056754:	f43f adc2 	beq.w	240562dc <HAL_DMA_IRQHandler+0x84>
24056758:	3214      	adds	r2, #20
2405675a:	4293      	cmp	r3, r2
2405675c:	f43f adbe 	beq.w	240562dc <HAL_DMA_IRQHandler+0x84>
24056760:	3214      	adds	r2, #20
24056762:	4293      	cmp	r3, r2
24056764:	f43f adba 	beq.w	240562dc <HAL_DMA_IRQHandler+0x84>
24056768:	b002      	add	sp, #8
2405676a:	e8bd 81f0 	ldmia.w	sp!, {r4, r5, r6, r7, r8, pc}
2405676e:	0697      	lsls	r7, r2, #26
24056770:	d403      	bmi.n	2405677a <HAL_DMA_IRQHandler+0x522>
24056772:	681a      	ldr	r2, [r3, #0]
24056774:	f022 0204 	bic.w	r2, r2, #4
24056778:	601a      	str	r2, [r3, #0]
2405677a:	6c23      	ldr	r3, [r4, #64]	@ 0x40
2405677c:	e743      	b.n	24056606 <HAL_DMA_IRQHandler+0x3ae>
2405677e:	2002      	movs	r0, #2
24056780:	4088      	lsls	r0, r1
24056782:	ea10 0f0c 	tst.w	r0, ip
24056786:	d016      	beq.n	240567b6 <HAL_DMA_IRQHandler+0x55e>
24056788:	0796      	lsls	r6, r2, #30
2405678a:	d514      	bpl.n	240567b6 <HAL_DMA_IRQHandler+0x55e>
2405678c:	6068      	str	r0, [r5, #4]
2405678e:	0410      	lsls	r0, r2, #16
24056790:	d503      	bpl.n	2405679a <HAL_DMA_IRQHandler+0x542>
24056792:	03d1      	lsls	r1, r2, #15
24056794:	d40d      	bmi.n	240567b2 <HAL_DMA_IRQHandler+0x55a>
24056796:	6c63      	ldr	r3, [r4, #68]	@ 0x44
24056798:	e735      	b.n	24056606 <HAL_DMA_IRQHandler+0x3ae>
2405679a:	f012 0220 	ands.w	r2, r2, #32
2405679e:	d108      	bne.n	240567b2 <HAL_DMA_IRQHandler+0x55a>
240567a0:	6819      	ldr	r1, [r3, #0]
240567a2:	f021 010a 	bic.w	r1, r1, #10
240567a6:	6019      	str	r1, [r3, #0]
240567a8:	2301      	movs	r3, #1
240567aa:	f884 2034 	strb.w	r2, [r4, #52]	@ 0x34
240567ae:	f884 3035 	strb.w	r3, [r4, #53]	@ 0x35
240567b2:	6be3      	ldr	r3, [r4, #60]	@ 0x3c
240567b4:	e727      	b.n	24056606 <HAL_DMA_IRQHandler+0x3ae>
240567b6:	2008      	movs	r0, #8
240567b8:	4088      	lsls	r0, r1
240567ba:	ea10 0f0c 	tst.w	r0, ip
240567be:	d0d3      	beq.n	24056768 <HAL_DMA_IRQHandler+0x510>
240567c0:	0712      	lsls	r2, r2, #28
240567c2:	d5d1      	bpl.n	24056768 <HAL_DMA_IRQHandler+0x510>
240567c4:	681a      	ldr	r2, [r3, #0]
240567c6:	f022 020e 	bic.w	r2, r2, #14
240567ca:	601a      	str	r2, [r3, #0]
240567cc:	2301      	movs	r3, #1
240567ce:	fa03 f101 	lsl.w	r1, r3, r1
240567d2:	6069      	str	r1, [r5, #4]
240567d4:	6563      	str	r3, [r4, #84]	@ 0x54
240567d6:	e775      	b.n	240566c4 <HAL_DMA_IRQHandler+0x46c>
240567d8:	40020028 	.word	0x40020028
240567dc:	48022c1c 	.word	0x48022c1c
240567e0:	58025408 	.word	0x58025408

240567e4 <HAL_DMA_GetError>:
240567e4:	6d40      	ldr	r0, [r0, #84]	@ 0x54
240567e6:	4770      	bx	lr

240567e8 <HAL_DMA2D_Init>:
240567e8:	b510      	push	{r4, lr}
240567ea:	4604      	mov	r4, r0
240567ec:	2800      	cmp	r0, #0
240567ee:	d036      	beq.n	2405685e <HAL_DMA2D_Init+0x76>
240567f0:	f890 3061 	ldrb.w	r3, [r0, #97]	@ 0x61
240567f4:	f003 02ff 	and.w	r2, r3, #255	@ 0xff
240567f8:	b91b      	cbnz	r3, 24056802 <HAL_DMA2D_Init+0x1a>
240567fa:	f880 2060 	strb.w	r2, [r0, #96]	@ 0x60
240567fe:	f7fd f91b 	bl	24053a38 <HAL_DMA2D_MspInit>
24056802:	2302      	movs	r3, #2
24056804:	69e0      	ldr	r0, [r4, #28]
24056806:	6862      	ldr	r2, [r4, #4]
24056808:	f884 3061 	strb.w	r3, [r4, #97]	@ 0x61
2405680c:	6823      	ldr	r3, [r4, #0]
2405680e:	4302      	orrs	r2, r0
24056810:	69a0      	ldr	r0, [r4, #24]
24056812:	6819      	ldr	r1, [r3, #0]
24056814:	f421 21e0 	bic.w	r1, r1, #458752	@ 0x70000
24056818:	f021 0140 	bic.w	r1, r1, #64	@ 0x40
2405681c:	430a      	orrs	r2, r1
2405681e:	601a      	str	r2, [r3, #0]
24056820:	6b59      	ldr	r1, [r3, #52]	@ 0x34
24056822:	68a2      	ldr	r2, [r4, #8]
24056824:	f421 7183 	bic.w	r1, r1, #262	@ 0x106
24056828:	4302      	orrs	r2, r0
2405682a:	f021 0101 	bic.w	r1, r1, #1
2405682e:	430a      	orrs	r2, r1
24056830:	68e1      	ldr	r1, [r4, #12]
24056832:	635a      	str	r2, [r3, #52]	@ 0x34
24056834:	6c1a      	ldr	r2, [r3, #64]	@ 0x40
24056836:	0c12      	lsrs	r2, r2, #16
24056838:	0412      	lsls	r2, r2, #16
2405683a:	430a      	orrs	r2, r1
2405683c:	641a      	str	r2, [r3, #64]	@ 0x40
2405683e:	6b59      	ldr	r1, [r3, #52]	@ 0x34
24056840:	e9d4 0204 	ldrd	r0, r2, [r4, #16]
24056844:	f421 1140 	bic.w	r1, r1, #3145728	@ 0x300000
24056848:	0552      	lsls	r2, r2, #21
2405684a:	ea42 5200 	orr.w	r2, r2, r0, lsl #20
2405684e:	2000      	movs	r0, #0
24056850:	430a      	orrs	r2, r1
24056852:	635a      	str	r2, [r3, #52]	@ 0x34
24056854:	2301      	movs	r3, #1
24056856:	6660      	str	r0, [r4, #100]	@ 0x64
24056858:	f884 3061 	strb.w	r3, [r4, #97]	@ 0x61
2405685c:	bd10      	pop	{r4, pc}
2405685e:	2001      	movs	r0, #1
24056860:	e7fc      	b.n	2405685c <HAL_DMA2D_Init+0x74>
	...

24056864 <HAL_GPIO_Init>:
24056864:	e92d 4ff7 	stmdb	sp!, {r0, r1, r2, r4, r5, r6, r7, r8, r9, sl, fp, lr}
24056868:	2300      	movs	r3, #0
2405686a:	f8df 91c4 	ldr.w	r9, [pc, #452]	@ 24056a30 <HAL_GPIO_Init+0x1cc>
2405686e:	f04f 44b0 	mov.w	r4, #1476395008	@ 0x58000000
24056872:	680a      	ldr	r2, [r1, #0]
24056874:	fa32 f503 	lsrs.w	r5, r2, r3
24056878:	d102      	bne.n	24056880 <HAL_GPIO_Init+0x1c>
2405687a:	b003      	add	sp, #12
2405687c:	e8bd 8ff0 	ldmia.w	sp!, {r4, r5, r6, r7, r8, r9, sl, fp, pc}
24056880:	2501      	movs	r5, #1
24056882:	fa05 f803 	lsl.w	r8, r5, r3
24056886:	ea18 0202 	ands.w	r2, r8, r2
2405688a:	f000 80bb 	beq.w	24056a04 <HAL_GPIO_Init+0x1a0>
2405688e:	684e      	ldr	r6, [r1, #4]
24056890:	2703      	movs	r7, #3
24056892:	ea4f 0e43 	mov.w	lr, r3, lsl #1
24056896:	f006 0503 	and.w	r5, r6, #3
2405689a:	fa07 fc0e 	lsl.w	ip, r7, lr
2405689e:	1e6f      	subs	r7, r5, #1
240568a0:	ea6f 0c0c 	mvn.w	ip, ip
240568a4:	2f01      	cmp	r7, #1
240568a6:	d834      	bhi.n	24056912 <HAL_GPIO_Init+0xae>
240568a8:	6887      	ldr	r7, [r0, #8]
240568aa:	ea07 0a0c 	and.w	sl, r7, ip
240568ae:	68cf      	ldr	r7, [r1, #12]
240568b0:	fa07 f70e 	lsl.w	r7, r7, lr
240568b4:	ea47 070a 	orr.w	r7, r7, sl
240568b8:	6087      	str	r7, [r0, #8]
240568ba:	6847      	ldr	r7, [r0, #4]
240568bc:	ea27 0808 	bic.w	r8, r7, r8
240568c0:	f3c6 1700 	ubfx	r7, r6, #4, #1
240568c4:	409f      	lsls	r7, r3
240568c6:	ea47 0708 	orr.w	r7, r7, r8
240568ca:	6047      	str	r7, [r0, #4]
240568cc:	68c7      	ldr	r7, [r0, #12]
240568ce:	2d02      	cmp	r5, #2
240568d0:	ea07 080c 	and.w	r8, r7, ip
240568d4:	688f      	ldr	r7, [r1, #8]
240568d6:	fa07 f70e 	lsl.w	r7, r7, lr
240568da:	ea47 0708 	orr.w	r7, r7, r8
240568de:	60c7      	str	r7, [r0, #12]
240568e0:	d119      	bne.n	24056916 <HAL_GPIO_Init+0xb2>
240568e2:	ea4f 08d3 	mov.w	r8, r3, lsr #3
240568e6:	f003 0a07 	and.w	sl, r3, #7
240568ea:	f04f 0b0f 	mov.w	fp, #15
240568ee:	eb00 0888 	add.w	r8, r0, r8, lsl #2
240568f2:	ea4f 0a8a 	mov.w	sl, sl, lsl #2
240568f6:	f8d8 7020 	ldr.w	r7, [r8, #32]
240568fa:	fa0b fb0a 	lsl.w	fp, fp, sl
240568fe:	ea27 0b0b 	bic.w	fp, r7, fp
24056902:	690f      	ldr	r7, [r1, #16]
24056904:	fa07 f70a 	lsl.w	r7, r7, sl
24056908:	ea47 070b 	orr.w	r7, r7, fp
2405690c:	f8c8 7020 	str.w	r7, [r8, #32]
24056910:	e001      	b.n	24056916 <HAL_GPIO_Init+0xb2>
24056912:	2d03      	cmp	r5, #3
24056914:	d1da      	bne.n	240568cc <HAL_GPIO_Init+0x68>
24056916:	6807      	ldr	r7, [r0, #0]
24056918:	fa05 f50e 	lsl.w	r5, r5, lr
2405691c:	f416 3f40 	tst.w	r6, #196608	@ 0x30000
24056920:	ea07 070c 	and.w	r7, r7, ip
24056924:	ea45 0507 	orr.w	r5, r5, r7
24056928:	6005      	str	r5, [r0, #0]
2405692a:	d06b      	beq.n	24056a04 <HAL_GPIO_Init+0x1a0>
2405692c:	f8d9 5154 	ldr.w	r5, [r9, #340]	@ 0x154
24056930:	f023 0703 	bic.w	r7, r3, #3
24056934:	f003 0c03 	and.w	ip, r3, #3
24056938:	f04f 0e0f 	mov.w	lr, #15
2405693c:	f045 0502 	orr.w	r5, r5, #2
24056940:	f107 47b0 	add.w	r7, r7, #1476395008	@ 0x58000000
24056944:	ea4f 0c8c 	mov.w	ip, ip, lsl #2
24056948:	f8c9 5154 	str.w	r5, [r9, #340]	@ 0x154
2405694c:	f507 6780 	add.w	r7, r7, #1024	@ 0x400
24056950:	f8d9 5154 	ldr.w	r5, [r9, #340]	@ 0x154
24056954:	fa0e fe0c 	lsl.w	lr, lr, ip
24056958:	f005 0502 	and.w	r5, r5, #2
2405695c:	9501      	str	r5, [sp, #4]
2405695e:	9d01      	ldr	r5, [sp, #4]
24056960:	68bd      	ldr	r5, [r7, #8]
24056962:	ea25 0e0e 	bic.w	lr, r5, lr
24056966:	4d31      	ldr	r5, [pc, #196]	@ (24056a2c <HAL_GPIO_Init+0x1c8>)
24056968:	42a8      	cmp	r0, r5
2405696a:	d04d      	beq.n	24056a08 <HAL_GPIO_Init+0x1a4>
2405696c:	f505 6580 	add.w	r5, r5, #1024	@ 0x400
24056970:	42a8      	cmp	r0, r5
24056972:	d04b      	beq.n	24056a0c <HAL_GPIO_Init+0x1a8>
24056974:	f505 6580 	add.w	r5, r5, #1024	@ 0x400
24056978:	42a8      	cmp	r0, r5
2405697a:	d049      	beq.n	24056a10 <HAL_GPIO_Init+0x1ac>
2405697c:	f505 6580 	add.w	r5, r5, #1024	@ 0x400
24056980:	42a8      	cmp	r0, r5
24056982:	d047      	beq.n	24056a14 <HAL_GPIO_Init+0x1b0>
24056984:	f505 6580 	add.w	r5, r5, #1024	@ 0x400
24056988:	42a8      	cmp	r0, r5
2405698a:	d045      	beq.n	24056a18 <HAL_GPIO_Init+0x1b4>
2405698c:	f505 6580 	add.w	r5, r5, #1024	@ 0x400
24056990:	42a8      	cmp	r0, r5
24056992:	d043      	beq.n	24056a1c <HAL_GPIO_Init+0x1b8>
24056994:	f505 6580 	add.w	r5, r5, #1024	@ 0x400
24056998:	42a8      	cmp	r0, r5
2405699a:	d041      	beq.n	24056a20 <HAL_GPIO_Init+0x1bc>
2405699c:	f505 6580 	add.w	r5, r5, #1024	@ 0x400
240569a0:	42a8      	cmp	r0, r5
240569a2:	d03f      	beq.n	24056a24 <HAL_GPIO_Init+0x1c0>
240569a4:	f505 6580 	add.w	r5, r5, #1024	@ 0x400
240569a8:	42a8      	cmp	r0, r5
240569aa:	d03d      	beq.n	24056a28 <HAL_GPIO_Init+0x1c4>
240569ac:	f505 6580 	add.w	r5, r5, #1024	@ 0x400
240569b0:	42a8      	cmp	r0, r5
240569b2:	bf14      	ite	ne
240569b4:	250a      	movne	r5, #10
240569b6:	2509      	moveq	r5, #9
240569b8:	fa05 f50c 	lsl.w	r5, r5, ip
240569bc:	f416 1f80 	tst.w	r6, #1048576	@ 0x100000
240569c0:	ea45 050e 	orr.w	r5, r5, lr
240569c4:	60bd      	str	r5, [r7, #8]
240569c6:	ea6f 0702 	mvn.w	r7, r2
240569ca:	6825      	ldr	r5, [r4, #0]
240569cc:	bf0c      	ite	eq
240569ce:	403d      	andeq	r5, r7
240569d0:	4315      	orrne	r5, r2
240569d2:	f416 1f00 	tst.w	r6, #2097152	@ 0x200000
240569d6:	6025      	str	r5, [r4, #0]
240569d8:	6865      	ldr	r5, [r4, #4]
240569da:	bf0c      	ite	eq
240569dc:	403d      	andeq	r5, r7
240569de:	4315      	orrne	r5, r2
240569e0:	f416 3f00 	tst.w	r6, #131072	@ 0x20000
240569e4:	6065      	str	r5, [r4, #4]
240569e6:	f8d4 5084 	ldr.w	r5, [r4, #132]	@ 0x84
240569ea:	bf0c      	ite	eq
240569ec:	403d      	andeq	r5, r7
240569ee:	4315      	orrne	r5, r2
240569f0:	03f6      	lsls	r6, r6, #15
240569f2:	f8c4 5084 	str.w	r5, [r4, #132]	@ 0x84
240569f6:	f8d4 5080 	ldr.w	r5, [r4, #128]	@ 0x80
240569fa:	bf54      	ite	pl
240569fc:	403d      	andpl	r5, r7
240569fe:	4315      	orrmi	r5, r2
24056a00:	f8c4 5080 	str.w	r5, [r4, #128]	@ 0x80
24056a04:	3301      	adds	r3, #1
24056a06:	e734      	b.n	24056872 <HAL_GPIO_Init+0xe>
24056a08:	2500      	movs	r5, #0
24056a0a:	e7d5      	b.n	240569b8 <HAL_GPIO_Init+0x154>
24056a0c:	2501      	movs	r5, #1
24056a0e:	e7d3      	b.n	240569b8 <HAL_GPIO_Init+0x154>
24056a10:	2502      	movs	r5, #2
24056a12:	e7d1      	b.n	240569b8 <HAL_GPIO_Init+0x154>
24056a14:	2503      	movs	r5, #3
24056a16:	e7cf      	b.n	240569b8 <HAL_GPIO_Init+0x154>
24056a18:	2504      	movs	r5, #4
24056a1a:	e7cd      	b.n	240569b8 <HAL_GPIO_Init+0x154>
24056a1c:	2505      	movs	r5, #5
24056a1e:	e7cb      	b.n	240569b8 <HAL_GPIO_Init+0x154>
24056a20:	2506      	movs	r5, #6
24056a22:	e7c9      	b.n	240569b8 <HAL_GPIO_Init+0x154>
24056a24:	2507      	movs	r5, #7
24056a26:	e7c7      	b.n	240569b8 <HAL_GPIO_Init+0x154>
24056a28:	2508      	movs	r5, #8
24056a2a:	e7c5      	b.n	240569b8 <HAL_GPIO_Init+0x154>
24056a2c:	58020000 	.word	0x58020000
24056a30:	58024400 	.word	0x58024400

24056a34 <HAL_GPIO_ReadPin>:
24056a34:	6903      	ldr	r3, [r0, #16]
24056a36:	4219      	tst	r1, r3
24056a38:	bf14      	ite	ne
24056a3a:	2001      	movne	r0, #1
24056a3c:	2000      	moveq	r0, #0
24056a3e:	4770      	bx	lr

24056a40 <HAL_GPIO_WritePin>:
24056a40:	b10a      	cbz	r2, 24056a46 <HAL_GPIO_WritePin+0x6>
24056a42:	6181      	str	r1, [r0, #24]
24056a44:	4770      	bx	lr
24056a46:	0409      	lsls	r1, r1, #16
24056a48:	e7fb      	b.n	24056a42 <HAL_GPIO_WritePin+0x2>

24056a4a <HAL_GPIO_EXTI_Callback>:
24056a4a:	4770      	bx	lr

24056a4c <HAL_GPIO_EXTI_IRQHandler>:
24056a4c:	f04f 42b0 	mov.w	r2, #1476395008	@ 0x58000000
24056a50:	f8d2 1088 	ldr.w	r1, [r2, #136]	@ 0x88
24056a54:	4201      	tst	r1, r0
24056a56:	b508      	push	{r3, lr}
24056a58:	d003      	beq.n	24056a62 <HAL_GPIO_EXTI_IRQHandler+0x16>
24056a5a:	f8c2 0088 	str.w	r0, [r2, #136]	@ 0x88
24056a5e:	f7ff fff4 	bl	24056a4a <HAL_GPIO_EXTI_Callback>
24056a62:	bd08      	pop	{r3, pc}

24056a64 <LTDC_SetConfig>:
24056a64:	01d2      	lsls	r2, r2, #7
24056a66:	6800      	ldr	r0, [r0, #0]
24056a68:	f8d1 c000 	ldr.w	ip, [r1]
24056a6c:	3284      	adds	r2, #132	@ 0x84
24056a6e:	1883      	adds	r3, r0, r2
24056a70:	e92d 43f0 	stmdb	sp!, {r4, r5, r6, r7, r8, r9, lr}
24056a74:	68c6      	ldr	r6, [r0, #12]
24056a76:	f10c 0701 	add.w	r7, ip, #1
24056a7a:	685d      	ldr	r5, [r3, #4]
24056a7c:	f04f 0e00 	mov.w	lr, #0
24056a80:	684c      	ldr	r4, [r1, #4]
24056a82:	f3c6 460b 	ubfx	r6, r6, #16, #12
24056a86:	f405 4570 	and.w	r5, r5, #61440	@ 0xf000
24056a8a:	f8d1 9018 	ldr.w	r9, [r1, #24]
24056a8e:	4426      	add	r6, r4
24056a90:	605d      	str	r5, [r3, #4]
24056a92:	68c5      	ldr	r5, [r0, #12]
24056a94:	f3c5 450b 	ubfx	r5, r5, #16, #12
24056a98:	443d      	add	r5, r7
24056a9a:	ea45 4506 	orr.w	r5, r5, r6, lsl #16
24056a9e:	605d      	str	r5, [r3, #4]
24056aa0:	68c6      	ldr	r6, [r0, #12]
24056aa2:	68cd      	ldr	r5, [r1, #12]
24056aa4:	f3c6 060a 	ubfx	r6, r6, #0, #11
24056aa8:	442e      	add	r6, r5
24056aaa:	689d      	ldr	r5, [r3, #8]
24056aac:	f405 4570 	and.w	r5, r5, #61440	@ 0xf000
24056ab0:	609d      	str	r5, [r3, #8]
24056ab2:	688d      	ldr	r5, [r1, #8]
24056ab4:	68c7      	ldr	r7, [r0, #12]
24056ab6:	3501      	adds	r5, #1
24056ab8:	f3c7 070a 	ubfx	r7, r7, #0, #11
24056abc:	443d      	add	r5, r7
24056abe:	ea45 4506 	orr.w	r5, r5, r6, lsl #16
24056ac2:	690e      	ldr	r6, [r1, #16]
24056ac4:	609d      	str	r5, [r3, #8]
24056ac6:	691d      	ldr	r5, [r3, #16]
24056ac8:	f025 0507 	bic.w	r5, r5, #7
24056acc:	611d      	str	r5, [r3, #16]
24056ace:	611e      	str	r6, [r3, #16]
24056ad0:	699d      	ldr	r5, [r3, #24]
24056ad2:	f891 7032 	ldrb.w	r7, [r1, #50]	@ 0x32
24056ad6:	f891 8031 	ldrb.w	r8, [r1, #49]	@ 0x31
24056ada:	f8c3 e018 	str.w	lr, [r3, #24]
24056ade:	f891 5030 	ldrb.w	r5, [r1, #48]	@ 0x30
24056ae2:	ea45 6509 	orr.w	r5, r5, r9, lsl #24
24056ae6:	ea45 2508 	orr.w	r5, r5, r8, lsl #8
24056aea:	ea45 4507 	orr.w	r5, r5, r7, lsl #16
24056aee:	619d      	str	r5, [r3, #24]
24056af0:	695d      	ldr	r5, [r3, #20]
24056af2:	f025 05ff 	bic.w	r5, r5, #255	@ 0xff
24056af6:	615d      	str	r5, [r3, #20]
24056af8:	694d      	ldr	r5, [r1, #20]
24056afa:	615d      	str	r5, [r3, #20]
24056afc:	69dd      	ldr	r5, [r3, #28]
24056afe:	f425 65e0 	bic.w	r5, r5, #1792	@ 0x700
24056b02:	f025 0507 	bic.w	r5, r5, #7
24056b06:	61dd      	str	r5, [r3, #28]
24056b08:	e9d1 5707 	ldrd	r5, r7, [r1, #28]
24056b0c:	433d      	orrs	r5, r7
24056b0e:	61dd      	str	r5, [r3, #28]
24056b10:	6a9d      	ldr	r5, [r3, #40]	@ 0x28
24056b12:	6a4d      	ldr	r5, [r1, #36]	@ 0x24
24056b14:	f8c3 e028 	str.w	lr, [r3, #40]	@ 0x28
24056b18:	629d      	str	r5, [r3, #40]	@ 0x28
24056b1a:	b31e      	cbz	r6, 24056b64 <LTDC_SetConfig+0x100>
24056b1c:	2e01      	cmp	r6, #1
24056b1e:	d023      	beq.n	24056b68 <LTDC_SetConfig+0x104>
24056b20:	1eb5      	subs	r5, r6, #2
24056b22:	2d02      	cmp	r5, #2
24056b24:	d922      	bls.n	24056b6c <LTDC_SetConfig+0x108>
24056b26:	2e07      	cmp	r6, #7
24056b28:	bf14      	ite	ne
24056b2a:	2501      	movne	r5, #1
24056b2c:	2502      	moveq	r5, #2
24056b2e:	6ade      	ldr	r6, [r3, #44]	@ 0x2c
24056b30:	eba4 040c 	sub.w	r4, r4, ip
24056b34:	f006 26e0 	and.w	r6, r6, #3758153728	@ 0xe000e000
24056b38:	436c      	muls	r4, r5
24056b3a:	62de      	str	r6, [r3, #44]	@ 0x2c
24056b3c:	3407      	adds	r4, #7
24056b3e:	6a8e      	ldr	r6, [r1, #40]	@ 0x28
24056b40:	6ac9      	ldr	r1, [r1, #44]	@ 0x2c
24056b42:	436e      	muls	r6, r5
24056b44:	ea44 4406 	orr.w	r4, r4, r6, lsl #16
24056b48:	62dc      	str	r4, [r3, #44]	@ 0x2c
24056b4a:	6b1c      	ldr	r4, [r3, #48]	@ 0x30
24056b4c:	f424 64ff 	bic.w	r4, r4, #2040	@ 0x7f8
24056b50:	f024 0407 	bic.w	r4, r4, #7
24056b54:	631c      	str	r4, [r3, #48]	@ 0x30
24056b56:	6319      	str	r1, [r3, #48]	@ 0x30
24056b58:	5883      	ldr	r3, [r0, r2]
24056b5a:	f043 0301 	orr.w	r3, r3, #1
24056b5e:	5083      	str	r3, [r0, r2]
24056b60:	e8bd 83f0 	ldmia.w	sp!, {r4, r5, r6, r7, r8, r9, pc}
24056b64:	2504      	movs	r5, #4
24056b66:	e7e2      	b.n	24056b2e <LTDC_SetConfig+0xca>
24056b68:	2503      	movs	r5, #3
24056b6a:	e7e0      	b.n	24056b2e <LTDC_SetConfig+0xca>
24056b6c:	2502      	movs	r5, #2
24056b6e:	e7de      	b.n	24056b2e <LTDC_SetConfig+0xca>

24056b70 <HAL_LTDC_Init>:
24056b70:	b538      	push	{r3, r4, r5, lr}
24056b72:	4604      	mov	r4, r0
24056b74:	2800      	cmp	r0, #0
24056b76:	d063      	beq.n	24056c40 <HAL_LTDC_Init+0xd0>
24056b78:	f890 30a1 	ldrb.w	r3, [r0, #161]	@ 0xa1
24056b7c:	f003 02ff 	and.w	r2, r3, #255	@ 0xff
24056b80:	b91b      	cbnz	r3, 24056b8a <HAL_LTDC_Init+0x1a>
24056b82:	f880 20a0 	strb.w	r2, [r0, #160]	@ 0xa0
24056b86:	f7fc ff6f 	bl	24053a68 <HAL_LTDC_MspInit>
24056b8a:	2302      	movs	r3, #2
24056b8c:	f884 30a1 	strb.w	r3, [r4, #161]	@ 0xa1
24056b90:	6823      	ldr	r3, [r4, #0]
24056b92:	699a      	ldr	r2, [r3, #24]
24056b94:	f022 4270 	bic.w	r2, r2, #4026531840	@ 0xf0000000
24056b98:	619a      	str	r2, [r3, #24]
24056b9a:	6999      	ldr	r1, [r3, #24]
24056b9c:	e9d4 2001 	ldrd	r2, r0, [r4, #4]
24056ba0:	4302      	orrs	r2, r0
24056ba2:	68e0      	ldr	r0, [r4, #12]
24056ba4:	4302      	orrs	r2, r0
24056ba6:	6920      	ldr	r0, [r4, #16]
24056ba8:	4302      	orrs	r2, r0
24056baa:	6960      	ldr	r0, [r4, #20]
24056bac:	430a      	orrs	r2, r1
24056bae:	4925      	ldr	r1, [pc, #148]	@ (24056c44 <HAL_LTDC_Init+0xd4>)
24056bb0:	619a      	str	r2, [r3, #24]
24056bb2:	689a      	ldr	r2, [r3, #8]
24056bb4:	400a      	ands	r2, r1
24056bb6:	609a      	str	r2, [r3, #8]
24056bb8:	689a      	ldr	r2, [r3, #8]
24056bba:	ea42 4200 	orr.w	r2, r2, r0, lsl #16
24056bbe:	69a0      	ldr	r0, [r4, #24]
24056bc0:	4302      	orrs	r2, r0
24056bc2:	69e0      	ldr	r0, [r4, #28]
24056bc4:	609a      	str	r2, [r3, #8]
24056bc6:	68da      	ldr	r2, [r3, #12]
24056bc8:	400a      	ands	r2, r1
24056bca:	60da      	str	r2, [r3, #12]
24056bcc:	68da      	ldr	r2, [r3, #12]
24056bce:	ea42 4200 	orr.w	r2, r2, r0, lsl #16
24056bd2:	6a20      	ldr	r0, [r4, #32]
24056bd4:	4302      	orrs	r2, r0
24056bd6:	6a60      	ldr	r0, [r4, #36]	@ 0x24
24056bd8:	60da      	str	r2, [r3, #12]
24056bda:	691a      	ldr	r2, [r3, #16]
24056bdc:	400a      	ands	r2, r1
24056bde:	611a      	str	r2, [r3, #16]
24056be0:	691a      	ldr	r2, [r3, #16]
24056be2:	ea42 4200 	orr.w	r2, r2, r0, lsl #16
24056be6:	6aa0      	ldr	r0, [r4, #40]	@ 0x28
24056be8:	4302      	orrs	r2, r0
24056bea:	611a      	str	r2, [r3, #16]
24056bec:	695a      	ldr	r2, [r3, #20]
24056bee:	400a      	ands	r2, r1
24056bf0:	6ae1      	ldr	r1, [r4, #44]	@ 0x2c
24056bf2:	615a      	str	r2, [r3, #20]
24056bf4:	695a      	ldr	r2, [r3, #20]
24056bf6:	ea42 4201 	orr.w	r2, r2, r1, lsl #16
24056bfa:	6b21      	ldr	r1, [r4, #48]	@ 0x30
24056bfc:	430a      	orrs	r2, r1
24056bfe:	615a      	str	r2, [r3, #20]
24056c00:	6ada      	ldr	r2, [r3, #44]	@ 0x2c
24056c02:	f894 0035 	ldrb.w	r0, [r4, #53]	@ 0x35
24056c06:	f002 427f 	and.w	r2, r2, #4278190080	@ 0xff000000
24056c0a:	f894 1036 	ldrb.w	r1, [r4, #54]	@ 0x36
24056c0e:	62da      	str	r2, [r3, #44]	@ 0x2c
24056c10:	6add      	ldr	r5, [r3, #44]	@ 0x2c
24056c12:	f894 2034 	ldrb.w	r2, [r4, #52]	@ 0x34
24056c16:	432a      	orrs	r2, r5
24056c18:	ea42 2200 	orr.w	r2, r2, r0, lsl #8
24056c1c:	2000      	movs	r0, #0
24056c1e:	ea42 4201 	orr.w	r2, r2, r1, lsl #16
24056c22:	62da      	str	r2, [r3, #44]	@ 0x2c
24056c24:	6b5a      	ldr	r2, [r3, #52]	@ 0x34
24056c26:	f042 0206 	orr.w	r2, r2, #6
24056c2a:	635a      	str	r2, [r3, #52]	@ 0x34
24056c2c:	699a      	ldr	r2, [r3, #24]
24056c2e:	f042 0201 	orr.w	r2, r2, #1
24056c32:	619a      	str	r2, [r3, #24]
24056c34:	2301      	movs	r3, #1
24056c36:	f8c4 00a4 	str.w	r0, [r4, #164]	@ 0xa4
24056c3a:	f884 30a1 	strb.w	r3, [r4, #161]	@ 0xa1
24056c3e:	bd38      	pop	{r3, r4, r5, pc}
24056c40:	2001      	movs	r0, #1
24056c42:	e7fc      	b.n	24056c3e <HAL_LTDC_Init+0xce>
24056c44:	f000f800 	.word	0xf000f800

24056c48 <HAL_LTDC_ErrorCallback>:
24056c48:	4770      	bx	lr

24056c4a <HAL_LTDC_LineEventCallback>:
24056c4a:	4770      	bx	lr

24056c4c <HAL_LTDC_IRQHandler>:
24056c4c:	6803      	ldr	r3, [r0, #0]
24056c4e:	b570      	push	{r4, r5, r6, lr}
24056c50:	6b9e      	ldr	r6, [r3, #56]	@ 0x38
24056c52:	4604      	mov	r4, r0
24056c54:	6b5d      	ldr	r5, [r3, #52]	@ 0x34
24056c56:	0772      	lsls	r2, r6, #29
24056c58:	d514      	bpl.n	24056c84 <HAL_LTDC_IRQHandler+0x38>
24056c5a:	0769      	lsls	r1, r5, #29
24056c5c:	d512      	bpl.n	24056c84 <HAL_LTDC_IRQHandler+0x38>
24056c5e:	6b5a      	ldr	r2, [r3, #52]	@ 0x34
24056c60:	f022 0204 	bic.w	r2, r2, #4
24056c64:	635a      	str	r2, [r3, #52]	@ 0x34
24056c66:	2204      	movs	r2, #4
24056c68:	63da      	str	r2, [r3, #60]	@ 0x3c
24056c6a:	f8d0 30a4 	ldr.w	r3, [r0, #164]	@ 0xa4
24056c6e:	f043 0301 	orr.w	r3, r3, #1
24056c72:	f8c0 30a4 	str.w	r3, [r0, #164]	@ 0xa4
24056c76:	2300      	movs	r3, #0
24056c78:	f880 20a1 	strb.w	r2, [r0, #161]	@ 0xa1
24056c7c:	f880 30a0 	strb.w	r3, [r0, #160]	@ 0xa0
24056c80:	f7ff ffe2 	bl	24056c48 <HAL_LTDC_ErrorCallback>
24056c84:	07b2      	lsls	r2, r6, #30
24056c86:	d516      	bpl.n	24056cb6 <HAL_LTDC_IRQHandler+0x6a>
24056c88:	07ab      	lsls	r3, r5, #30
24056c8a:	d514      	bpl.n	24056cb6 <HAL_LTDC_IRQHandler+0x6a>
24056c8c:	6823      	ldr	r3, [r4, #0]
24056c8e:	4620      	mov	r0, r4
24056c90:	6b5a      	ldr	r2, [r3, #52]	@ 0x34
24056c92:	f022 0202 	bic.w	r2, r2, #2
24056c96:	635a      	str	r2, [r3, #52]	@ 0x34
24056c98:	2202      	movs	r2, #2
24056c9a:	63da      	str	r2, [r3, #60]	@ 0x3c
24056c9c:	f8d4 30a4 	ldr.w	r3, [r4, #164]	@ 0xa4
24056ca0:	4313      	orrs	r3, r2
24056ca2:	f8c4 30a4 	str.w	r3, [r4, #164]	@ 0xa4
24056ca6:	2304      	movs	r3, #4
24056ca8:	f884 30a1 	strb.w	r3, [r4, #161]	@ 0xa1
24056cac:	2300      	movs	r3, #0
24056cae:	f884 30a0 	strb.w	r3, [r4, #160]	@ 0xa0
24056cb2:	f7ff ffc9 	bl	24056c48 <HAL_LTDC_ErrorCallback>
24056cb6:	07f0      	lsls	r0, r6, #31
24056cb8:	d510      	bpl.n	24056cdc <HAL_LTDC_IRQHandler+0x90>
24056cba:	07e9      	lsls	r1, r5, #31
24056cbc:	d50e      	bpl.n	24056cdc <HAL_LTDC_IRQHandler+0x90>
24056cbe:	6823      	ldr	r3, [r4, #0]
24056cc0:	4620      	mov	r0, r4
24056cc2:	6b5a      	ldr	r2, [r3, #52]	@ 0x34
24056cc4:	f022 0201 	bic.w	r2, r2, #1
24056cc8:	635a      	str	r2, [r3, #52]	@ 0x34
24056cca:	2201      	movs	r2, #1
24056ccc:	63da      	str	r2, [r3, #60]	@ 0x3c
24056cce:	2300      	movs	r3, #0
24056cd0:	f884 20a1 	strb.w	r2, [r4, #161]	@ 0xa1
24056cd4:	f884 30a0 	strb.w	r3, [r4, #160]	@ 0xa0
24056cd8:	f7ff ffb7 	bl	24056c4a <HAL_LTDC_LineEventCallback>
24056cdc:	0732      	lsls	r2, r6, #28
24056cde:	d511      	bpl.n	24056d04 <HAL_LTDC_IRQHandler+0xb8>
24056ce0:	072b      	lsls	r3, r5, #28
24056ce2:	d50f      	bpl.n	24056d04 <HAL_LTDC_IRQHandler+0xb8>
24056ce4:	6823      	ldr	r3, [r4, #0]
24056ce6:	4620      	mov	r0, r4
24056ce8:	6b5a      	ldr	r2, [r3, #52]	@ 0x34
24056cea:	f022 0208 	bic.w	r2, r2, #8
24056cee:	635a      	str	r2, [r3, #52]	@ 0x34
24056cf0:	2208      	movs	r2, #8
24056cf2:	63da      	str	r2, [r3, #60]	@ 0x3c
24056cf4:	2301      	movs	r3, #1
24056cf6:	f884 30a1 	strb.w	r3, [r4, #161]	@ 0xa1
24056cfa:	2300      	movs	r3, #0
24056cfc:	f884 30a0 	strb.w	r3, [r4, #160]	@ 0xa0
24056d00:	f7fb fc3a 	bl	24052578 <HAL_LTDC_ReloadEventCallback>
24056d04:	bd70      	pop	{r4, r5, r6, pc}

24056d06 <HAL_LTDC_ConfigLayer>:
24056d06:	e92d 41f0 	stmdb	sp!, {r4, r5, r6, r7, r8, lr}
24056d0a:	f890 30a0 	ldrb.w	r3, [r0, #160]	@ 0xa0
24056d0e:	4606      	mov	r6, r0
24056d10:	460f      	mov	r7, r1
24056d12:	4694      	mov	ip, r2
24056d14:	2b01      	cmp	r3, #1
24056d16:	f04f 0002 	mov.w	r0, #2
24056d1a:	d01f      	beq.n	24056d5c <HAL_LTDC_ConfigLayer+0x56>
24056d1c:	2434      	movs	r4, #52	@ 0x34
24056d1e:	f04f 0801 	mov.w	r8, #1
24056d22:	460d      	mov	r5, r1
24056d24:	f886 00a1 	strb.w	r0, [r6, #161]	@ 0xa1
24056d28:	fb04 6402 	mla	r4, r4, r2, r6
24056d2c:	f886 80a0 	strb.w	r8, [r6, #160]	@ 0xa0
24056d30:	3438      	adds	r4, #56	@ 0x38
24056d32:	cd0f      	ldmia	r5!, {r0, r1, r2, r3}
24056d34:	c40f      	stmia	r4!, {r0, r1, r2, r3}
24056d36:	cd0f      	ldmia	r5!, {r0, r1, r2, r3}
24056d38:	c40f      	stmia	r4!, {r0, r1, r2, r3}
24056d3a:	cd0f      	ldmia	r5!, {r0, r1, r2, r3}
24056d3c:	c40f      	stmia	r4!, {r0, r1, r2, r3}
24056d3e:	682b      	ldr	r3, [r5, #0]
24056d40:	4630      	mov	r0, r6
24056d42:	4662      	mov	r2, ip
24056d44:	4639      	mov	r1, r7
24056d46:	6023      	str	r3, [r4, #0]
24056d48:	f7ff fe8c 	bl	24056a64 <LTDC_SetConfig>
24056d4c:	6833      	ldr	r3, [r6, #0]
24056d4e:	2000      	movs	r0, #0
24056d50:	f8c3 8024 	str.w	r8, [r3, #36]	@ 0x24
24056d54:	f886 80a1 	strb.w	r8, [r6, #161]	@ 0xa1
24056d58:	f886 00a0 	strb.w	r0, [r6, #160]	@ 0xa0
24056d5c:	e8bd 81f0 	ldmia.w	sp!, {r4, r5, r6, r7, r8, pc}

24056d60 <HAL_LTDC_SetAddress>:
24056d60:	b570      	push	{r4, r5, r6, lr}
24056d62:	f890 30a0 	ldrb.w	r3, [r0, #160]	@ 0xa0
24056d66:	4604      	mov	r4, r0
24056d68:	2b01      	cmp	r3, #1
24056d6a:	f04f 0302 	mov.w	r3, #2
24056d6e:	d015      	beq.n	24056d9c <HAL_LTDC_SetAddress+0x3c>
24056d70:	f880 30a1 	strb.w	r3, [r0, #161]	@ 0xa1
24056d74:	2334      	movs	r3, #52	@ 0x34
24056d76:	2601      	movs	r6, #1
24056d78:	4353      	muls	r3, r2
24056d7a:	f880 60a0 	strb.w	r6, [r0, #160]	@ 0xa0
24056d7e:	18c5      	adds	r5, r0, r3
24056d80:	65e9      	str	r1, [r5, #92]	@ 0x5c
24056d82:	f103 0138 	add.w	r1, r3, #56	@ 0x38
24056d86:	4401      	add	r1, r0
24056d88:	f7ff fe6c 	bl	24056a64 <LTDC_SetConfig>
24056d8c:	6823      	ldr	r3, [r4, #0]
24056d8e:	2000      	movs	r0, #0
24056d90:	625e      	str	r6, [r3, #36]	@ 0x24
24056d92:	f884 60a1 	strb.w	r6, [r4, #161]	@ 0xa1
24056d96:	f884 00a0 	strb.w	r0, [r4, #160]	@ 0xa0
24056d9a:	bd70      	pop	{r4, r5, r6, pc}
24056d9c:	4618      	mov	r0, r3
24056d9e:	e7fc      	b.n	24056d9a <HAL_LTDC_SetAddress+0x3a>

24056da0 <HAL_LTDC_Reload>:
24056da0:	f890 20a0 	ldrb.w	r2, [r0, #160]	@ 0xa0
24056da4:	4603      	mov	r3, r0
24056da6:	2002      	movs	r0, #2
24056da8:	2a01      	cmp	r2, #1
24056daa:	d00d      	beq.n	24056dc8 <HAL_LTDC_Reload+0x28>
24056dac:	681a      	ldr	r2, [r3, #0]
24056dae:	f883 00a1 	strb.w	r0, [r3, #161]	@ 0xa1
24056db2:	6b50      	ldr	r0, [r2, #52]	@ 0x34
24056db4:	f040 0008 	orr.w	r0, r0, #8
24056db8:	6350      	str	r0, [r2, #52]	@ 0x34
24056dba:	2000      	movs	r0, #0
24056dbc:	6251      	str	r1, [r2, #36]	@ 0x24
24056dbe:	2201      	movs	r2, #1
24056dc0:	f883 00a0 	strb.w	r0, [r3, #160]	@ 0xa0
24056dc4:	f883 20a1 	strb.w	r2, [r3, #161]	@ 0xa1
24056dc8:	4770      	bx	lr

24056dca <HAL_MDMA_Abort_IT>:
24056dca:	b128      	cbz	r0, 24056dd8 <HAL_MDMA_Abort_IT+0xe>
24056dcc:	f890 303d 	ldrb.w	r3, [r0, #61]	@ 0x3d
24056dd0:	2b02      	cmp	r3, #2
24056dd2:	d003      	beq.n	24056ddc <HAL_MDMA_Abort_IT+0x12>
24056dd4:	2380      	movs	r3, #128	@ 0x80
24056dd6:	6683      	str	r3, [r0, #104]	@ 0x68
24056dd8:	2001      	movs	r0, #1
24056dda:	4770      	bx	lr
24056ddc:	6802      	ldr	r2, [r0, #0]
24056dde:	2304      	movs	r3, #4
24056de0:	f880 303d 	strb.w	r3, [r0, #61]	@ 0x3d
24056de4:	2000      	movs	r0, #0
24056de6:	68d3      	ldr	r3, [r2, #12]
24056de8:	f023 0301 	bic.w	r3, r3, #1
24056dec:	60d3      	str	r3, [r2, #12]
24056dee:	4770      	bx	lr

24056df0 <OSPI_ConfigCmd>:
24056df0:	e92d 43f0 	stmdb	sp!, {r4, r5, r6, r7, r8, r9, lr}
24056df4:	6804      	ldr	r4, [r0, #0]
24056df6:	6823      	ldr	r3, [r4, #0]
24056df8:	f023 5340 	bic.w	r3, r3, #805306368	@ 0x30000000
24056dfc:	6023      	str	r3, [r4, #0]
24056dfe:	6883      	ldr	r3, [r0, #8]
24056e00:	b92b      	cbnz	r3, 24056e0e <OSPI_ConfigCmd+0x1e>
24056e02:	6823      	ldr	r3, [r4, #0]
24056e04:	684a      	ldr	r2, [r1, #4]
24056e06:	f023 0380 	bic.w	r3, r3, #128	@ 0x80
24056e0a:	4313      	orrs	r3, r2
24056e0c:	6023      	str	r3, [r4, #0]
24056e0e:	680b      	ldr	r3, [r1, #0]
24056e10:	2b02      	cmp	r3, #2
24056e12:	d150      	bne.n	24056eb6 <OSPI_ConfigCmd+0xc6>
24056e14:	f504 72c0 	add.w	r2, r4, #384	@ 0x180
24056e18:	f504 76c4 	add.w	r6, r4, #392	@ 0x188
24056e1c:	f504 75c8 	add.w	r5, r4, #400	@ 0x190
24056e20:	f504 7cd0 	add.w	ip, r4, #416	@ 0x1a0
24056e24:	e9d1 3712 	ldrd	r3, r7, [r1, #72]	@ 0x48
24056e28:	433b      	orrs	r3, r7
24056e2a:	6013      	str	r3, [r2, #0]
24056e2c:	6acb      	ldr	r3, [r1, #44]	@ 0x2c
24056e2e:	b16b      	cbz	r3, 24056e4c <OSPI_ConfigCmd+0x5c>
24056e30:	6a8b      	ldr	r3, [r1, #40]	@ 0x28
24056e32:	f8cc 3000 	str.w	r3, [ip]
24056e36:	6b4f      	ldr	r7, [r1, #52]	@ 0x34
24056e38:	6acb      	ldr	r3, [r1, #44]	@ 0x2c
24056e3a:	f8d2 c000 	ldr.w	ip, [r2]
24056e3e:	433b      	orrs	r3, r7
24056e40:	6b0f      	ldr	r7, [r1, #48]	@ 0x30
24056e42:	433b      	orrs	r3, r7
24056e44:	f42c 177c 	bic.w	r7, ip, #4128768	@ 0x3f0000
24056e48:	433b      	orrs	r3, r7
24056e4a:	6013      	str	r3, [r2, #0]
24056e4c:	6833      	ldr	r3, [r6, #0]
24056e4e:	6c4f      	ldr	r7, [r1, #68]	@ 0x44
24056e50:	f023 031f 	bic.w	r3, r3, #31
24056e54:	433b      	orrs	r3, r7
24056e56:	6033      	str	r3, [r6, #0]
24056e58:	f8d1 e038 	ldr.w	lr, [r1, #56]	@ 0x38
24056e5c:	f1be 0f00 	cmp.w	lr, #0
24056e60:	d004      	beq.n	24056e6c <OSPI_ConfigCmd+0x7c>
24056e62:	680b      	ldr	r3, [r1, #0]
24056e64:	b913      	cbnz	r3, 24056e6c <OSPI_ConfigCmd+0x7c>
24056e66:	6bcb      	ldr	r3, [r1, #60]	@ 0x3c
24056e68:	3b01      	subs	r3, #1
24056e6a:	6423      	str	r3, [r4, #64]	@ 0x40
24056e6c:	68cb      	ldr	r3, [r1, #12]
24056e6e:	f8d1 901c 	ldr.w	r9, [r1, #28]
24056e72:	2b00      	cmp	r3, #0
24056e74:	d07a      	beq.n	24056f6c <OSPI_ConfigCmd+0x17c>
24056e76:	e9d1 c804 	ldrd	ip, r8, [r1, #16]
24056e7a:	f1b9 0f00 	cmp.w	r9, #0
24056e7e:	d04a      	beq.n	24056f16 <OSPI_ConfigCmd+0x126>
24056e80:	e9d1 6708 	ldrd	r6, r7, [r1, #32]
24056e84:	f1be 0f00 	cmp.w	lr, #0
24056e88:	d029      	beq.n	24056ede <OSPI_ConfigCmd+0xee>
24056e8a:	ea4e 0303 	orr.w	r3, lr, r3
24056e8e:	6810      	ldr	r0, [r2, #0]
24056e90:	ea43 0309 	orr.w	r3, r3, r9
24056e94:	ea43 0308 	orr.w	r3, r3, r8
24056e98:	ea43 030c 	orr.w	r3, r3, ip
24056e9c:	433b      	orrs	r3, r7
24056e9e:	4333      	orrs	r3, r6
24056ea0:	6c0e      	ldr	r6, [r1, #64]	@ 0x40
24056ea2:	4333      	orrs	r3, r6
24056ea4:	4e43      	ldr	r6, [pc, #268]	@ (24056fb4 <OSPI_ConfigCmd+0x1c4>)
24056ea6:	4006      	ands	r6, r0
24056ea8:	4333      	orrs	r3, r6
24056eaa:	6013      	str	r3, [r2, #0]
24056eac:	688b      	ldr	r3, [r1, #8]
24056eae:	602b      	str	r3, [r5, #0]
24056eb0:	698b      	ldr	r3, [r1, #24]
24056eb2:	64a3      	str	r3, [r4, #72]	@ 0x48
24056eb4:	e043      	b.n	24056f3e <OSPI_ConfigCmd+0x14e>
24056eb6:	2b03      	cmp	r3, #3
24056eb8:	bf01      	itttt	eq
24056eba:	f504 72a0 	addeq.w	r2, r4, #320	@ 0x140
24056ebe:	f504 76a4 	addeq.w	r6, r4, #328	@ 0x148
24056ec2:	f504 75a8 	addeq.w	r5, r4, #336	@ 0x150
24056ec6:	f504 7cb0 	addeq.w	ip, r4, #352	@ 0x160
24056eca:	bf1f      	itttt	ne
24056ecc:	f504 7280 	addne.w	r2, r4, #256	@ 0x100
24056ed0:	f504 7684 	addne.w	r6, r4, #264	@ 0x108
24056ed4:	f504 7588 	addne.w	r5, r4, #272	@ 0x110
24056ed8:	f504 7c90 	addne.w	ip, r4, #288	@ 0x120
24056edc:	e7a2      	b.n	24056e24 <OSPI_ConfigCmd+0x34>
24056ede:	ea43 0309 	orr.w	r3, r3, r9
24056ee2:	f8d2 e000 	ldr.w	lr, [r2]
24056ee6:	ea43 0308 	orr.w	r3, r3, r8
24056eea:	f42e 5e7c 	bic.w	lr, lr, #16128	@ 0x3f00
24056eee:	ea43 030c 	orr.w	r3, r3, ip
24056ef2:	f02e 0e3f 	bic.w	lr, lr, #63	@ 0x3f
24056ef6:	433b      	orrs	r3, r7
24056ef8:	4333      	orrs	r3, r6
24056efa:	ea43 030e 	orr.w	r3, r3, lr
24056efe:	6013      	str	r3, [r2, #0]
24056f00:	6ac3      	ldr	r3, [r0, #44]	@ 0x2c
24056f02:	f1b3 5f80 	cmp.w	r3, #268435456	@ 0x10000000
24056f06:	d1d1      	bne.n	24056eac <OSPI_ConfigCmd+0xbc>
24056f08:	694b      	ldr	r3, [r1, #20]
24056f0a:	2b08      	cmp	r3, #8
24056f0c:	d1ce      	bne.n	24056eac <OSPI_ConfigCmd+0xbc>
24056f0e:	6813      	ldr	r3, [r2, #0]
24056f10:	f043 6300 	orr.w	r3, r3, #134217728	@ 0x8000000
24056f14:	e7c9      	b.n	24056eaa <OSPI_ConfigCmd+0xba>
24056f16:	f1be 0f00 	cmp.w	lr, #0
24056f1a:	d013      	beq.n	24056f44 <OSPI_ConfigCmd+0x154>
24056f1c:	ea4e 0303 	orr.w	r3, lr, r3
24056f20:	6810      	ldr	r0, [r2, #0]
24056f22:	6c0c      	ldr	r4, [r1, #64]	@ 0x40
24056f24:	ea43 0308 	orr.w	r3, r3, r8
24056f28:	f020 6070 	bic.w	r0, r0, #251658240	@ 0xf000000
24056f2c:	ea43 030c 	orr.w	r3, r3, ip
24056f30:	f020 003f 	bic.w	r0, r0, #63	@ 0x3f
24056f34:	4323      	orrs	r3, r4
24056f36:	4303      	orrs	r3, r0
24056f38:	6013      	str	r3, [r2, #0]
24056f3a:	688b      	ldr	r3, [r1, #8]
24056f3c:	602b      	str	r3, [r5, #0]
24056f3e:	2000      	movs	r0, #0
24056f40:	e8bd 83f0 	ldmia.w	sp!, {r4, r5, r6, r7, r8, r9, pc}
24056f44:	6814      	ldr	r4, [r2, #0]
24056f46:	ea43 0308 	orr.w	r3, r3, r8
24056f4a:	f024 043f 	bic.w	r4, r4, #63	@ 0x3f
24056f4e:	ea43 030c 	orr.w	r3, r3, ip
24056f52:	4323      	orrs	r3, r4
24056f54:	6013      	str	r3, [r2, #0]
24056f56:	6ac3      	ldr	r3, [r0, #44]	@ 0x2c
24056f58:	f1b3 5f80 	cmp.w	r3, #268435456	@ 0x10000000
24056f5c:	d1ed      	bne.n	24056f3a <OSPI_ConfigCmd+0x14a>
24056f5e:	694b      	ldr	r3, [r1, #20]
24056f60:	2b08      	cmp	r3, #8
24056f62:	d1ea      	bne.n	24056f3a <OSPI_ConfigCmd+0x14a>
24056f64:	6813      	ldr	r3, [r2, #0]
24056f66:	f043 6300 	orr.w	r3, r3, #134217728	@ 0x8000000
24056f6a:	e7e5      	b.n	24056f38 <OSPI_ConfigCmd+0x148>
24056f6c:	f1b9 0f00 	cmp.w	r9, #0
24056f70:	d01b      	beq.n	24056faa <OSPI_ConfigCmd+0x1ba>
24056f72:	e9d1 6008 	ldrd	r6, r0, [r1, #32]
24056f76:	f1be 0f00 	cmp.w	lr, #0
24056f7a:	d00d      	beq.n	24056f98 <OSPI_ConfigCmd+0x1a8>
24056f7c:	ea4e 0309 	orr.w	r3, lr, r9
24056f80:	6815      	ldr	r5, [r2, #0]
24056f82:	4303      	orrs	r3, r0
24056f84:	6c08      	ldr	r0, [r1, #64]	@ 0x40
24056f86:	4333      	orrs	r3, r6
24056f88:	4303      	orrs	r3, r0
24056f8a:	f025 6070 	bic.w	r0, r5, #251658240	@ 0xf000000
24056f8e:	f420 507c 	bic.w	r0, r0, #16128	@ 0x3f00
24056f92:	4303      	orrs	r3, r0
24056f94:	6013      	str	r3, [r2, #0]
24056f96:	e78b      	b.n	24056eb0 <OSPI_ConfigCmd+0xc0>
24056f98:	6813      	ldr	r3, [r2, #0]
24056f9a:	ea40 0009 	orr.w	r0, r0, r9
24056f9e:	f423 537c 	bic.w	r3, r3, #16128	@ 0x3f00
24056fa2:	4330      	orrs	r0, r6
24056fa4:	4318      	orrs	r0, r3
24056fa6:	6010      	str	r0, [r2, #0]
24056fa8:	e782      	b.n	24056eb0 <OSPI_ConfigCmd+0xc0>
24056faa:	2308      	movs	r3, #8
24056fac:	6543      	str	r3, [r0, #84]	@ 0x54
24056fae:	2001      	movs	r0, #1
24056fb0:	e7c6      	b.n	24056f40 <OSPI_ConfigCmd+0x150>
24056fb2:	bf00      	nop
24056fb4:	f0ffc0c0 	.word	0xf0ffc0c0

24056fb8 <OSPI_WaitFlagStateUntilTimeout>:
24056fb8:	e92d 41f0 	stmdb	sp!, {r4, r5, r6, r7, r8, lr}
24056fbc:	f8dd 8018 	ldr.w	r8, [sp, #24]
24056fc0:	4604      	mov	r4, r0
24056fc2:	460e      	mov	r6, r1
24056fc4:	4615      	mov	r5, r2
24056fc6:	461f      	mov	r7, r3
24056fc8:	6822      	ldr	r2, [r4, #0]
24056fca:	6a13      	ldr	r3, [r2, #32]
24056fcc:	4233      	tst	r3, r6
24056fce:	bf14      	ite	ne
24056fd0:	2301      	movne	r3, #1
24056fd2:	2300      	moveq	r3, #0
24056fd4:	42ab      	cmp	r3, r5
24056fd6:	d101      	bne.n	24056fdc <OSPI_WaitFlagStateUntilTimeout+0x24>
24056fd8:	2000      	movs	r0, #0
24056fda:	e012      	b.n	24057002 <OSPI_WaitFlagStateUntilTimeout+0x4a>
24056fdc:	f1b8 3fff 	cmp.w	r8, #4294967295
24056fe0:	d0f3      	beq.n	24056fca <OSPI_WaitFlagStateUntilTimeout+0x12>
24056fe2:	f7fd f98d 	bl	24054300 <HAL_GetTick>
24056fe6:	1bc0      	subs	r0, r0, r7
24056fe8:	4540      	cmp	r0, r8
24056fea:	d802      	bhi.n	24056ff2 <OSPI_WaitFlagStateUntilTimeout+0x3a>
24056fec:	f1b8 0f00 	cmp.w	r8, #0
24056ff0:	d1ea      	bne.n	24056fc8 <OSPI_WaitFlagStateUntilTimeout+0x10>
24056ff2:	f44f 7300 	mov.w	r3, #512	@ 0x200
24056ff6:	2001      	movs	r0, #1
24056ff8:	6523      	str	r3, [r4, #80]	@ 0x50
24056ffa:	6d63      	ldr	r3, [r4, #84]	@ 0x54
24056ffc:	f043 0301 	orr.w	r3, r3, #1
24057000:	6563      	str	r3, [r4, #84]	@ 0x54
24057002:	e8bd 81f0 	ldmia.w	sp!, {r4, r5, r6, r7, r8, pc}
	...

24057008 <HAL_OSPI_Init>:
24057008:	b5f7      	push	{r0, r1, r2, r4, r5, r6, r7, lr}
2405700a:	4604      	mov	r4, r0
2405700c:	f7fd f978 	bl	24054300 <HAL_GetTick>
24057010:	4606      	mov	r6, r0
24057012:	2c00      	cmp	r4, #0
24057014:	d068      	beq.n	240570e8 <HAL_OSPI_Init+0xe0>
24057016:	2300      	movs	r3, #0
24057018:	6563      	str	r3, [r4, #84]	@ 0x54
2405701a:	6d27      	ldr	r7, [r4, #80]	@ 0x50
2405701c:	2f00      	cmp	r7, #0
2405701e:	d15e      	bne.n	240570de <HAL_OSPI_Init+0xd6>
24057020:	4620      	mov	r0, r4
24057022:	f7fc fe0f 	bl	24053c44 <HAL_OSPI_MspInit>
24057026:	6b63      	ldr	r3, [r4, #52]	@ 0x34
24057028:	68e1      	ldr	r1, [r4, #12]
2405702a:	f241 3288 	movw	r2, #5000	@ 0x1388
2405702e:	6825      	ldr	r5, [r4, #0]
24057030:	4319      	orrs	r1, r3
24057032:	69e3      	ldr	r3, [r4, #28]
24057034:	68a8      	ldr	r0, [r5, #8]
24057036:	4319      	orrs	r1, r3
24057038:	4b2c      	ldr	r3, [pc, #176]	@ (240570ec <HAL_OSPI_Init+0xe4>)
2405703a:	65a2      	str	r2, [r4, #88]	@ 0x58
2405703c:	4003      	ands	r3, r0
2405703e:	4620      	mov	r0, r4
24057040:	4319      	orrs	r1, r3
24057042:	6923      	ldr	r3, [r4, #16]
24057044:	3b01      	subs	r3, #1
24057046:	ea41 4103 	orr.w	r1, r1, r3, lsl #16
2405704a:	6963      	ldr	r3, [r4, #20]
2405704c:	3b01      	subs	r3, #1
2405704e:	ea41 2103 	orr.w	r1, r1, r3, lsl #8
24057052:	60a9      	str	r1, [r5, #8]
24057054:	68eb      	ldr	r3, [r5, #12]
24057056:	6a21      	ldr	r1, [r4, #32]
24057058:	f423 23e0 	bic.w	r3, r3, #458752	@ 0x70000
2405705c:	430b      	orrs	r3, r1
2405705e:	6b21      	ldr	r1, [r4, #48]	@ 0x30
24057060:	60eb      	str	r3, [r5, #12]
24057062:	6ba3      	ldr	r3, [r4, #56]	@ 0x38
24057064:	ea43 4301 	orr.w	r3, r3, r1, lsl #16
24057068:	6861      	ldr	r1, [r4, #4]
2405706a:	612b      	str	r3, [r5, #16]
2405706c:	3901      	subs	r1, #1
2405706e:	6be3      	ldr	r3, [r4, #60]	@ 0x3c
24057070:	616b      	str	r3, [r5, #20]
24057072:	682b      	ldr	r3, [r5, #0]
24057074:	f423 53f8 	bic.w	r3, r3, #7936	@ 0x1f00
24057078:	ea43 2301 	orr.w	r3, r3, r1, lsl #8
2405707c:	2120      	movs	r1, #32
2405707e:	602b      	str	r3, [r5, #0]
24057080:	4633      	mov	r3, r6
24057082:	9200      	str	r2, [sp, #0]
24057084:	463a      	mov	r2, r7
24057086:	f7ff ff97 	bl	24056fb8 <OSPI_WaitFlagStateUntilTimeout>
2405708a:	bb48      	cbnz	r0, 240570e0 <HAL_OSPI_Init+0xd8>
2405708c:	6823      	ldr	r3, [r4, #0]
2405708e:	6a62      	ldr	r2, [r4, #36]	@ 0x24
24057090:	68d9      	ldr	r1, [r3, #12]
24057092:	3a01      	subs	r2, #1
24057094:	f021 01ff 	bic.w	r1, r1, #255	@ 0xff
24057098:	430a      	orrs	r2, r1
2405709a:	68a1      	ldr	r1, [r4, #8]
2405709c:	60da      	str	r2, [r3, #12]
2405709e:	681a      	ldr	r2, [r3, #0]
240570a0:	f022 0240 	bic.w	r2, r2, #64	@ 0x40
240570a4:	430a      	orrs	r2, r1
240570a6:	601a      	str	r2, [r3, #0]
240570a8:	f8d3 1108 	ldr.w	r1, [r3, #264]	@ 0x108
240570ac:	e9d4 200a 	ldrd	r2, r0, [r4, #40]	@ 0x28
240570b0:	f021 41a0 	bic.w	r1, r1, #1342177280	@ 0x50000000
240570b4:	4302      	orrs	r2, r0
240570b6:	430a      	orrs	r2, r1
240570b8:	f8c3 2108 	str.w	r2, [r3, #264]	@ 0x108
240570bc:	681a      	ldr	r2, [r3, #0]
240570be:	f042 0201 	orr.w	r2, r2, #1
240570c2:	601a      	str	r2, [r3, #0]
240570c4:	69a2      	ldr	r2, [r4, #24]
240570c6:	2a02      	cmp	r2, #2
240570c8:	d103      	bne.n	240570d2 <HAL_OSPI_Init+0xca>
240570ca:	689a      	ldr	r2, [r3, #8]
240570cc:	f042 0202 	orr.w	r2, r2, #2
240570d0:	609a      	str	r2, [r3, #8]
240570d2:	68e3      	ldr	r3, [r4, #12]
240570d4:	f1b3 6f80 	cmp.w	r3, #67108864	@ 0x4000000
240570d8:	d104      	bne.n	240570e4 <HAL_OSPI_Init+0xdc>
240570da:	2301      	movs	r3, #1
240570dc:	6523      	str	r3, [r4, #80]	@ 0x50
240570de:	2000      	movs	r0, #0
240570e0:	b003      	add	sp, #12
240570e2:	bdf0      	pop	{r4, r5, r6, r7, pc}
240570e4:	2302      	movs	r3, #2
240570e6:	e7f9      	b.n	240570dc <HAL_OSPI_Init+0xd4>
240570e8:	2001      	movs	r0, #1
240570ea:	e7f9      	b.n	240570e0 <HAL_OSPI_Init+0xd8>
240570ec:	f8e0f8f4 	.word	0xf8e0f8f4

240570f0 <HAL_OSPI_Command>:
240570f0:	b5f7      	push	{r0, r1, r2, r4, r5, r6, r7, lr}
240570f2:	4604      	mov	r4, r0
240570f4:	460d      	mov	r5, r1
240570f6:	4617      	mov	r7, r2
240570f8:	f7fd f902 	bl	24054300 <HAL_GetTick>
240570fc:	6d23      	ldr	r3, [r4, #80]	@ 0x50
240570fe:	4606      	mov	r6, r0
24057100:	2b02      	cmp	r3, #2
24057102:	d107      	bne.n	24057114 <HAL_OSPI_Command+0x24>
24057104:	68e3      	ldr	r3, [r4, #12]
24057106:	f1b3 6f80 	cmp.w	r3, #67108864	@ 0x4000000
2405710a:	d109      	bne.n	24057120 <HAL_OSPI_Command+0x30>
2405710c:	2310      	movs	r3, #16
2405710e:	2001      	movs	r0, #1
24057110:	6563      	str	r3, [r4, #84]	@ 0x54
24057112:	e01f      	b.n	24057154 <HAL_OSPI_Command+0x64>
24057114:	2b14      	cmp	r3, #20
24057116:	d11f      	bne.n	24057158 <HAL_OSPI_Command+0x68>
24057118:	682b      	ldr	r3, [r5, #0]
2405711a:	3b02      	subs	r3, #2
2405711c:	2b01      	cmp	r3, #1
2405711e:	d8f5      	bhi.n	2405710c <HAL_OSPI_Command+0x1c>
24057120:	4633      	mov	r3, r6
24057122:	2200      	movs	r2, #0
24057124:	2120      	movs	r1, #32
24057126:	4620      	mov	r0, r4
24057128:	9700      	str	r7, [sp, #0]
2405712a:	f7ff ff45 	bl	24056fb8 <OSPI_WaitFlagStateUntilTimeout>
2405712e:	b988      	cbnz	r0, 24057154 <HAL_OSPI_Command+0x64>
24057130:	6560      	str	r0, [r4, #84]	@ 0x54
24057132:	4629      	mov	r1, r5
24057134:	4620      	mov	r0, r4
24057136:	f7ff fe5b 	bl	24056df0 <OSPI_ConfigCmd>
2405713a:	b958      	cbnz	r0, 24057154 <HAL_OSPI_Command+0x64>
2405713c:	6bab      	ldr	r3, [r5, #56]	@ 0x38
2405713e:	b99b      	cbnz	r3, 24057168 <HAL_OSPI_Command+0x78>
24057140:	4633      	mov	r3, r6
24057142:	2201      	movs	r2, #1
24057144:	2102      	movs	r1, #2
24057146:	4620      	mov	r0, r4
24057148:	9700      	str	r7, [sp, #0]
2405714a:	f7ff ff35 	bl	24056fb8 <OSPI_WaitFlagStateUntilTimeout>
2405714e:	6823      	ldr	r3, [r4, #0]
24057150:	2202      	movs	r2, #2
24057152:	625a      	str	r2, [r3, #36]	@ 0x24
24057154:	b003      	add	sp, #12
24057156:	bdf0      	pop	{r4, r5, r6, r7, pc}
24057158:	2b24      	cmp	r3, #36	@ 0x24
2405715a:	d1d7      	bne.n	2405710c <HAL_OSPI_Command+0x1c>
2405715c:	682b      	ldr	r3, [r5, #0]
2405715e:	f023 0302 	bic.w	r3, r3, #2
24057162:	2b01      	cmp	r3, #1
24057164:	d1d2      	bne.n	2405710c <HAL_OSPI_Command+0x1c>
24057166:	e7db      	b.n	24057120 <HAL_OSPI_Command+0x30>
24057168:	682b      	ldr	r3, [r5, #0]
2405716a:	b90b      	cbnz	r3, 24057170 <HAL_OSPI_Command+0x80>
2405716c:	2304      	movs	r3, #4
2405716e:	e005      	b.n	2405717c <HAL_OSPI_Command+0x8c>
24057170:	2b01      	cmp	r3, #1
24057172:	d105      	bne.n	24057180 <HAL_OSPI_Command+0x90>
24057174:	6d23      	ldr	r3, [r4, #80]	@ 0x50
24057176:	2b24      	cmp	r3, #36	@ 0x24
24057178:	d0f8      	beq.n	2405716c <HAL_OSPI_Command+0x7c>
2405717a:	2314      	movs	r3, #20
2405717c:	6523      	str	r3, [r4, #80]	@ 0x50
2405717e:	e7e9      	b.n	24057154 <HAL_OSPI_Command+0x64>
24057180:	2b02      	cmp	r3, #2
24057182:	d1e7      	bne.n	24057154 <HAL_OSPI_Command+0x64>
24057184:	6d23      	ldr	r3, [r4, #80]	@ 0x50
24057186:	2b14      	cmp	r3, #20
24057188:	d0f0      	beq.n	2405716c <HAL_OSPI_Command+0x7c>
2405718a:	2324      	movs	r3, #36	@ 0x24
2405718c:	e7f6      	b.n	2405717c <HAL_OSPI_Command+0x8c>

2405718e <HAL_OSPI_Transmit>:
2405718e:	e92d 41f3 	stmdb	sp!, {r0, r1, r4, r5, r6, r7, r8, lr}
24057192:	4604      	mov	r4, r0
24057194:	4688      	mov	r8, r1
24057196:	4616      	mov	r6, r2
24057198:	f7fd f8b2 	bl	24054300 <HAL_GetTick>
2405719c:	6827      	ldr	r7, [r4, #0]
2405719e:	4605      	mov	r5, r0
240571a0:	f1b8 0f00 	cmp.w	r8, #0
240571a4:	d103      	bne.n	240571ae <HAL_OSPI_Transmit+0x20>
240571a6:	2308      	movs	r3, #8
240571a8:	2001      	movs	r0, #1
240571aa:	6563      	str	r3, [r4, #84]	@ 0x54
240571ac:	e02e      	b.n	2405720c <HAL_OSPI_Transmit+0x7e>
240571ae:	6d23      	ldr	r3, [r4, #80]	@ 0x50
240571b0:	2b04      	cmp	r3, #4
240571b2:	d12e      	bne.n	24057212 <HAL_OSPI_Transmit+0x84>
240571b4:	6c3b      	ldr	r3, [r7, #64]	@ 0x40
240571b6:	f8c4 8040 	str.w	r8, [r4, #64]	@ 0x40
240571ba:	3301      	adds	r3, #1
240571bc:	64a3      	str	r3, [r4, #72]	@ 0x48
240571be:	6ca3      	ldr	r3, [r4, #72]	@ 0x48
240571c0:	6463      	str	r3, [r4, #68]	@ 0x44
240571c2:	683b      	ldr	r3, [r7, #0]
240571c4:	f023 5340 	bic.w	r3, r3, #805306368	@ 0x30000000
240571c8:	603b      	str	r3, [r7, #0]
240571ca:	462b      	mov	r3, r5
240571cc:	2201      	movs	r2, #1
240571ce:	2104      	movs	r1, #4
240571d0:	4620      	mov	r0, r4
240571d2:	9600      	str	r6, [sp, #0]
240571d4:	f7ff fef0 	bl	24056fb8 <OSPI_WaitFlagStateUntilTimeout>
240571d8:	b9c0      	cbnz	r0, 2405720c <HAL_OSPI_Transmit+0x7e>
240571da:	6c23      	ldr	r3, [r4, #64]	@ 0x40
240571dc:	781b      	ldrb	r3, [r3, #0]
240571de:	f887 3050 	strb.w	r3, [r7, #80]	@ 0x50
240571e2:	6c23      	ldr	r3, [r4, #64]	@ 0x40
240571e4:	3301      	adds	r3, #1
240571e6:	6423      	str	r3, [r4, #64]	@ 0x40
240571e8:	6ca3      	ldr	r3, [r4, #72]	@ 0x48
240571ea:	3b01      	subs	r3, #1
240571ec:	64a3      	str	r3, [r4, #72]	@ 0x48
240571ee:	6ca3      	ldr	r3, [r4, #72]	@ 0x48
240571f0:	2b00      	cmp	r3, #0
240571f2:	d1ea      	bne.n	240571ca <HAL_OSPI_Transmit+0x3c>
240571f4:	462b      	mov	r3, r5
240571f6:	2201      	movs	r2, #1
240571f8:	2102      	movs	r1, #2
240571fa:	4620      	mov	r0, r4
240571fc:	9600      	str	r6, [sp, #0]
240571fe:	f7ff fedb 	bl	24056fb8 <OSPI_WaitFlagStateUntilTimeout>
24057202:	b918      	cbnz	r0, 2405720c <HAL_OSPI_Transmit+0x7e>
24057204:	2302      	movs	r3, #2
24057206:	6822      	ldr	r2, [r4, #0]
24057208:	6253      	str	r3, [r2, #36]	@ 0x24
2405720a:	6523      	str	r3, [r4, #80]	@ 0x50
2405720c:	b002      	add	sp, #8
2405720e:	e8bd 81f0 	ldmia.w	sp!, {r4, r5, r6, r7, r8, pc}
24057212:	2310      	movs	r3, #16
24057214:	e7c8      	b.n	240571a8 <HAL_OSPI_Transmit+0x1a>

24057216 <HAL_OSPI_Receive>:
24057216:	e92d 41f3 	stmdb	sp!, {r0, r1, r4, r5, r6, r7, r8, lr}
2405721a:	4604      	mov	r4, r0
2405721c:	4616      	mov	r6, r2
2405721e:	4688      	mov	r8, r1
24057220:	f7fd f86e 	bl	24054300 <HAL_GetTick>
24057224:	6825      	ldr	r5, [r4, #0]
24057226:	4607      	mov	r7, r0
24057228:	6caa      	ldr	r2, [r5, #72]	@ 0x48
2405722a:	f8d5 0110 	ldr.w	r0, [r5, #272]	@ 0x110
2405722e:	f1b8 0f00 	cmp.w	r8, #0
24057232:	d103      	bne.n	2405723c <HAL_OSPI_Receive+0x26>
24057234:	2308      	movs	r3, #8
24057236:	2001      	movs	r0, #1
24057238:	6563      	str	r3, [r4, #84]	@ 0x54
2405723a:	e035      	b.n	240572a8 <HAL_OSPI_Receive+0x92>
2405723c:	6d23      	ldr	r3, [r4, #80]	@ 0x50
2405723e:	2b04      	cmp	r3, #4
24057240:	d13d      	bne.n	240572be <HAL_OSPI_Receive+0xa8>
24057242:	6c2b      	ldr	r3, [r5, #64]	@ 0x40
24057244:	f8c4 8040 	str.w	r8, [r4, #64]	@ 0x40
24057248:	3301      	adds	r3, #1
2405724a:	64a3      	str	r3, [r4, #72]	@ 0x48
2405724c:	6ca3      	ldr	r3, [r4, #72]	@ 0x48
2405724e:	6463      	str	r3, [r4, #68]	@ 0x44
24057250:	6829      	ldr	r1, [r5, #0]
24057252:	68e3      	ldr	r3, [r4, #12]
24057254:	f021 5140 	bic.w	r1, r1, #805306368	@ 0x30000000
24057258:	f1b3 6f80 	cmp.w	r3, #67108864	@ 0x4000000
2405725c:	f041 5180 	orr.w	r1, r1, #268435456	@ 0x10000000
24057260:	6029      	str	r1, [r5, #0]
24057262:	d124      	bne.n	240572ae <HAL_OSPI_Receive+0x98>
24057264:	64aa      	str	r2, [r5, #72]	@ 0x48
24057266:	463b      	mov	r3, r7
24057268:	2201      	movs	r2, #1
2405726a:	2106      	movs	r1, #6
2405726c:	4620      	mov	r0, r4
2405726e:	9600      	str	r6, [sp, #0]
24057270:	f7ff fea2 	bl	24056fb8 <OSPI_WaitFlagStateUntilTimeout>
24057274:	b9c0      	cbnz	r0, 240572a8 <HAL_OSPI_Receive+0x92>
24057276:	f895 2050 	ldrb.w	r2, [r5, #80]	@ 0x50
2405727a:	6c23      	ldr	r3, [r4, #64]	@ 0x40
2405727c:	701a      	strb	r2, [r3, #0]
2405727e:	6c23      	ldr	r3, [r4, #64]	@ 0x40
24057280:	3301      	adds	r3, #1
24057282:	6423      	str	r3, [r4, #64]	@ 0x40
24057284:	6ca3      	ldr	r3, [r4, #72]	@ 0x48
24057286:	3b01      	subs	r3, #1
24057288:	64a3      	str	r3, [r4, #72]	@ 0x48
2405728a:	6ca3      	ldr	r3, [r4, #72]	@ 0x48
2405728c:	2b00      	cmp	r3, #0
2405728e:	d1ea      	bne.n	24057266 <HAL_OSPI_Receive+0x50>
24057290:	463b      	mov	r3, r7
24057292:	2201      	movs	r2, #1
24057294:	2102      	movs	r1, #2
24057296:	4620      	mov	r0, r4
24057298:	9600      	str	r6, [sp, #0]
2405729a:	f7ff fe8d 	bl	24056fb8 <OSPI_WaitFlagStateUntilTimeout>
2405729e:	b918      	cbnz	r0, 240572a8 <HAL_OSPI_Receive+0x92>
240572a0:	2302      	movs	r3, #2
240572a2:	6822      	ldr	r2, [r4, #0]
240572a4:	6253      	str	r3, [r2, #36]	@ 0x24
240572a6:	6523      	str	r3, [r4, #80]	@ 0x50
240572a8:	b002      	add	sp, #8
240572aa:	e8bd 81f0 	ldmia.w	sp!, {r4, r5, r6, r7, r8, pc}
240572ae:	f8d5 3100 	ldr.w	r3, [r5, #256]	@ 0x100
240572b2:	f413 6fe0 	tst.w	r3, #1792	@ 0x700
240572b6:	d1d5      	bne.n	24057264 <HAL_OSPI_Receive+0x4e>
240572b8:	f8c5 0110 	str.w	r0, [r5, #272]	@ 0x110
240572bc:	e7d3      	b.n	24057266 <HAL_OSPI_Receive+0x50>
240572be:	2310      	movs	r3, #16
240572c0:	e7b9      	b.n	24057236 <HAL_OSPI_Receive+0x20>

240572c2 <HAL_OSPI_MemoryMapped>:
240572c2:	b537      	push	{r0, r1, r2, r4, r5, lr}
240572c4:	4604      	mov	r4, r0
240572c6:	460d      	mov	r5, r1
240572c8:	f7fd f81a 	bl	24054300 <HAL_GetTick>
240572cc:	4603      	mov	r3, r0
240572ce:	6d22      	ldr	r2, [r4, #80]	@ 0x50
240572d0:	2a04      	cmp	r2, #4
240572d2:	d121      	bne.n	24057318 <HAL_OSPI_MemoryMapped+0x56>
240572d4:	6da2      	ldr	r2, [r4, #88]	@ 0x58
240572d6:	2120      	movs	r1, #32
240572d8:	4620      	mov	r0, r4
240572da:	9200      	str	r2, [sp, #0]
240572dc:	2200      	movs	r2, #0
240572de:	f7ff fe6b 	bl	24056fb8 <OSPI_WaitFlagStateUntilTimeout>
240572e2:	b9b8      	cbnz	r0, 24057314 <HAL_OSPI_MemoryMapped+0x52>
240572e4:	6829      	ldr	r1, [r5, #0]
240572e6:	2388      	movs	r3, #136	@ 0x88
240572e8:	6822      	ldr	r2, [r4, #0]
240572ea:	2908      	cmp	r1, #8
240572ec:	6523      	str	r3, [r4, #80]	@ 0x50
240572ee:	d108      	bne.n	24057302 <HAL_OSPI_MemoryMapped+0x40>
240572f0:	686b      	ldr	r3, [r5, #4]
240572f2:	f8c2 3130 	str.w	r3, [r2, #304]	@ 0x130
240572f6:	2310      	movs	r3, #16
240572f8:	6253      	str	r3, [r2, #36]	@ 0x24
240572fa:	6813      	ldr	r3, [r2, #0]
240572fc:	f443 1380 	orr.w	r3, r3, #1048576	@ 0x100000
24057300:	6013      	str	r3, [r2, #0]
24057302:	6813      	ldr	r3, [r2, #0]
24057304:	f023 5340 	bic.w	r3, r3, #805306368	@ 0x30000000
24057308:	f023 0308 	bic.w	r3, r3, #8
2405730c:	430b      	orrs	r3, r1
2405730e:	f043 5340 	orr.w	r3, r3, #805306368	@ 0x30000000
24057312:	6013      	str	r3, [r2, #0]
24057314:	b003      	add	sp, #12
24057316:	bd30      	pop	{r4, r5, pc}
24057318:	2310      	movs	r3, #16
2405731a:	2001      	movs	r0, #1
2405731c:	6563      	str	r3, [r4, #84]	@ 0x54
2405731e:	e7f9      	b.n	24057314 <HAL_OSPI_MemoryMapped+0x52>

24057320 <HAL_OSPI_ErrorCallback>:
24057320:	4770      	bx	lr

24057322 <HAL_OSPI_AbortCpltCallback>:
24057322:	4770      	bx	lr

24057324 <OSPI_DMAAbortCplt>:
24057324:	6c00      	ldr	r0, [r0, #64]	@ 0x40
24057326:	b508      	push	{r3, lr}
24057328:	2300      	movs	r3, #0
2405732a:	6483      	str	r3, [r0, #72]	@ 0x48
2405732c:	6d03      	ldr	r3, [r0, #80]	@ 0x50
2405732e:	f5b3 7f80 	cmp.w	r3, #256	@ 0x100
24057332:	d114      	bne.n	2405735e <OSPI_DMAAbortCplt+0x3a>
24057334:	6803      	ldr	r3, [r0, #0]
24057336:	6a1a      	ldr	r2, [r3, #32]
24057338:	f012 0f20 	tst.w	r2, #32
2405733c:	f04f 0202 	mov.w	r2, #2
24057340:	d009      	beq.n	24057356 <OSPI_DMAAbortCplt+0x32>
24057342:	625a      	str	r2, [r3, #36]	@ 0x24
24057344:	681a      	ldr	r2, [r3, #0]
24057346:	f442 3200 	orr.w	r2, r2, #131072	@ 0x20000
2405734a:	601a      	str	r2, [r3, #0]
2405734c:	681a      	ldr	r2, [r3, #0]
2405734e:	f042 0202 	orr.w	r2, r2, #2
24057352:	601a      	str	r2, [r3, #0]
24057354:	bd08      	pop	{r3, pc}
24057356:	6502      	str	r2, [r0, #80]	@ 0x50
24057358:	f7ff ffe3 	bl	24057322 <HAL_OSPI_AbortCpltCallback>
2405735c:	e7fa      	b.n	24057354 <OSPI_DMAAbortCplt+0x30>
2405735e:	2302      	movs	r3, #2
24057360:	6503      	str	r3, [r0, #80]	@ 0x50
24057362:	f7ff ffdd 	bl	24057320 <HAL_OSPI_ErrorCallback>
24057366:	e7f5      	b.n	24057354 <OSPI_DMAAbortCplt+0x30>

24057368 <HAL_OSPI_FifoThresholdCallback>:
24057368:	4770      	bx	lr

2405736a <HAL_OSPI_CmdCpltCallback>:
2405736a:	4770      	bx	lr

2405736c <HAL_OSPI_RxCpltCallback>:
2405736c:	4770      	bx	lr

2405736e <HAL_OSPI_TxCpltCallback>:
2405736e:	4770      	bx	lr

24057370 <HAL_OSPI_StatusMatchCallback>:
24057370:	4770      	bx	lr

24057372 <HAL_OSPI_TimeOutCallback>:
24057372:	4770      	bx	lr

24057374 <HAL_OSPI_IRQHandler>:
24057374:	b538      	push	{r3, r4, r5, lr}
24057376:	6803      	ldr	r3, [r0, #0]
24057378:	4604      	mov	r4, r0
2405737a:	6a1a      	ldr	r2, [r3, #32]
2405737c:	6818      	ldr	r0, [r3, #0]
2405737e:	0755      	lsls	r5, r2, #29
24057380:	6d21      	ldr	r1, [r4, #80]	@ 0x50
24057382:	d51f      	bpl.n	240573c4 <HAL_OSPI_IRQHandler+0x50>
24057384:	0345      	lsls	r5, r0, #13
24057386:	d51d      	bpl.n	240573c4 <HAL_OSPI_IRQHandler+0x50>
24057388:	2918      	cmp	r1, #24
2405738a:	d114      	bne.n	240573b6 <HAL_OSPI_IRQHandler+0x42>
2405738c:	6c22      	ldr	r2, [r4, #64]	@ 0x40
2405738e:	7812      	ldrb	r2, [r2, #0]
24057390:	f883 2050 	strb.w	r2, [r3, #80]	@ 0x50
24057394:	6c23      	ldr	r3, [r4, #64]	@ 0x40
24057396:	3301      	adds	r3, #1
24057398:	6423      	str	r3, [r4, #64]	@ 0x40
2405739a:	6ca3      	ldr	r3, [r4, #72]	@ 0x48
2405739c:	3b01      	subs	r3, #1
2405739e:	64a3      	str	r3, [r4, #72]	@ 0x48
240573a0:	6ca3      	ldr	r3, [r4, #72]	@ 0x48
240573a2:	b923      	cbnz	r3, 240573ae <HAL_OSPI_IRQHandler+0x3a>
240573a4:	6822      	ldr	r2, [r4, #0]
240573a6:	6813      	ldr	r3, [r2, #0]
240573a8:	f423 2380 	bic.w	r3, r3, #262144	@ 0x40000
240573ac:	6013      	str	r3, [r2, #0]
240573ae:	4620      	mov	r0, r4
240573b0:	f7ff ffda 	bl	24057368 <HAL_OSPI_FifoThresholdCallback>
240573b4:	bd38      	pop	{r3, r4, r5, pc}
240573b6:	2928      	cmp	r1, #40	@ 0x28
240573b8:	d1f2      	bne.n	240573a0 <HAL_OSPI_IRQHandler+0x2c>
240573ba:	6c22      	ldr	r2, [r4, #64]	@ 0x40
240573bc:	f893 3050 	ldrb.w	r3, [r3, #80]	@ 0x50
240573c0:	7013      	strb	r3, [r2, #0]
240573c2:	e7e7      	b.n	24057394 <HAL_OSPI_IRQHandler+0x20>
240573c4:	0795      	lsls	r5, r2, #30
240573c6:	d53e      	bpl.n	24057446 <HAL_OSPI_IRQHandler+0xd2>
240573c8:	0385      	lsls	r5, r0, #14
240573ca:	d53c      	bpl.n	24057446 <HAL_OSPI_IRQHandler+0xd2>
240573cc:	2928      	cmp	r1, #40	@ 0x28
240573ce:	d11d      	bne.n	2405740c <HAL_OSPI_IRQHandler+0x98>
240573d0:	6ca1      	ldr	r1, [r4, #72]	@ 0x48
240573d2:	b169      	cbz	r1, 240573f0 <HAL_OSPI_IRQHandler+0x7c>
240573d4:	f412 5f7c 	tst.w	r2, #16128	@ 0x3f00
240573d8:	d00a      	beq.n	240573f0 <HAL_OSPI_IRQHandler+0x7c>
240573da:	f893 3050 	ldrb.w	r3, [r3, #80]	@ 0x50
240573de:	6c22      	ldr	r2, [r4, #64]	@ 0x40
240573e0:	7013      	strb	r3, [r2, #0]
240573e2:	6c23      	ldr	r3, [r4, #64]	@ 0x40
240573e4:	3301      	adds	r3, #1
240573e6:	6423      	str	r3, [r4, #64]	@ 0x40
240573e8:	6ca3      	ldr	r3, [r4, #72]	@ 0x48
240573ea:	3b01      	subs	r3, #1
240573ec:	64a3      	str	r3, [r4, #72]	@ 0x48
240573ee:	e7e1      	b.n	240573b4 <HAL_OSPI_IRQHandler+0x40>
240573f0:	6ca2      	ldr	r2, [r4, #72]	@ 0x48
240573f2:	2a00      	cmp	r2, #0
240573f4:	d1de      	bne.n	240573b4 <HAL_OSPI_IRQHandler+0x40>
240573f6:	2102      	movs	r1, #2
240573f8:	4620      	mov	r0, r4
240573fa:	6259      	str	r1, [r3, #36]	@ 0x24
240573fc:	681a      	ldr	r2, [r3, #0]
240573fe:	f422 22e0 	bic.w	r2, r2, #458752	@ 0x70000
24057402:	601a      	str	r2, [r3, #0]
24057404:	6521      	str	r1, [r4, #80]	@ 0x50
24057406:	f7ff ffb1 	bl	2405736c <HAL_OSPI_RxCpltCallback>
2405740a:	e7d3      	b.n	240573b4 <HAL_OSPI_IRQHandler+0x40>
2405740c:	2002      	movs	r0, #2
2405740e:	2918      	cmp	r1, #24
24057410:	6258      	str	r0, [r3, #36]	@ 0x24
24057412:	681a      	ldr	r2, [r3, #0]
24057414:	f422 22e0 	bic.w	r2, r2, #458752	@ 0x70000
24057418:	601a      	str	r2, [r3, #0]
2405741a:	6520      	str	r0, [r4, #80]	@ 0x50
2405741c:	d103      	bne.n	24057426 <HAL_OSPI_IRQHandler+0xb2>
2405741e:	4620      	mov	r0, r4
24057420:	f7ff ffa5 	bl	2405736e <HAL_OSPI_TxCpltCallback>
24057424:	e7c6      	b.n	240573b4 <HAL_OSPI_IRQHandler+0x40>
24057426:	2908      	cmp	r1, #8
24057428:	d103      	bne.n	24057432 <HAL_OSPI_IRQHandler+0xbe>
2405742a:	4620      	mov	r0, r4
2405742c:	f7ff ff9d 	bl	2405736a <HAL_OSPI_CmdCpltCallback>
24057430:	e7c0      	b.n	240573b4 <HAL_OSPI_IRQHandler+0x40>
24057432:	f5b1 7f80 	cmp.w	r1, #256	@ 0x100
24057436:	d1bd      	bne.n	240573b4 <HAL_OSPI_IRQHandler+0x40>
24057438:	6d63      	ldr	r3, [r4, #84]	@ 0x54
2405743a:	4620      	mov	r0, r4
2405743c:	2b00      	cmp	r3, #0
2405743e:	d131      	bne.n	240574a4 <HAL_OSPI_IRQHandler+0x130>
24057440:	f7ff ff6f 	bl	24057322 <HAL_OSPI_AbortCpltCallback>
24057444:	e7b6      	b.n	240573b4 <HAL_OSPI_IRQHandler+0x40>
24057446:	0711      	lsls	r1, r2, #28
24057448:	d510      	bpl.n	2405746c <HAL_OSPI_IRQHandler+0xf8>
2405744a:	0305      	lsls	r5, r0, #12
2405744c:	d50e      	bpl.n	2405746c <HAL_OSPI_IRQHandler+0xf8>
2405744e:	2208      	movs	r2, #8
24057450:	625a      	str	r2, [r3, #36]	@ 0x24
24057452:	681a      	ldr	r2, [r3, #0]
24057454:	0250      	lsls	r0, r2, #9
24057456:	d505      	bpl.n	24057464 <HAL_OSPI_IRQHandler+0xf0>
24057458:	681a      	ldr	r2, [r3, #0]
2405745a:	f422 2210 	bic.w	r2, r2, #589824	@ 0x90000
2405745e:	601a      	str	r2, [r3, #0]
24057460:	2302      	movs	r3, #2
24057462:	6523      	str	r3, [r4, #80]	@ 0x50
24057464:	4620      	mov	r0, r4
24057466:	f7ff ff83 	bl	24057370 <HAL_OSPI_StatusMatchCallback>
2405746a:	e7a3      	b.n	240573b4 <HAL_OSPI_IRQHandler+0x40>
2405746c:	07d1      	lsls	r1, r2, #31
2405746e:	d51c      	bpl.n	240574aa <HAL_OSPI_IRQHandler+0x136>
24057470:	03c5      	lsls	r5, r0, #15
24057472:	d51a      	bpl.n	240574aa <HAL_OSPI_IRQHandler+0x136>
24057474:	2201      	movs	r2, #1
24057476:	2502      	movs	r5, #2
24057478:	625a      	str	r2, [r3, #36]	@ 0x24
2405747a:	681a      	ldr	r2, [r3, #0]
2405747c:	f422 12f8 	bic.w	r2, r2, #2031616	@ 0x1f0000
24057480:	601a      	str	r2, [r3, #0]
24057482:	6565      	str	r5, [r4, #84]	@ 0x54
24057484:	681a      	ldr	r2, [r3, #0]
24057486:	0750      	lsls	r0, r2, #29
24057488:	d50a      	bpl.n	240574a0 <HAL_OSPI_IRQHandler+0x12c>
2405748a:	681a      	ldr	r2, [r3, #0]
2405748c:	6ce0      	ldr	r0, [r4, #76]	@ 0x4c
2405748e:	f022 0204 	bic.w	r2, r2, #4
24057492:	601a      	str	r2, [r3, #0]
24057494:	4b0a      	ldr	r3, [pc, #40]	@ (240574c0 <HAL_OSPI_IRQHandler+0x14c>)
24057496:	6583      	str	r3, [r0, #88]	@ 0x58
24057498:	f7ff fc97 	bl	24056dca <HAL_MDMA_Abort_IT>
2405749c:	2800      	cmp	r0, #0
2405749e:	d089      	beq.n	240573b4 <HAL_OSPI_IRQHandler+0x40>
240574a0:	4620      	mov	r0, r4
240574a2:	6525      	str	r5, [r4, #80]	@ 0x50
240574a4:	f7ff ff3c 	bl	24057320 <HAL_OSPI_ErrorCallback>
240574a8:	e784      	b.n	240573b4 <HAL_OSPI_IRQHandler+0x40>
240574aa:	06d1      	lsls	r1, r2, #27
240574ac:	d582      	bpl.n	240573b4 <HAL_OSPI_IRQHandler+0x40>
240574ae:	02c2      	lsls	r2, r0, #11
240574b0:	d580      	bpl.n	240573b4 <HAL_OSPI_IRQHandler+0x40>
240574b2:	2210      	movs	r2, #16
240574b4:	4620      	mov	r0, r4
240574b6:	625a      	str	r2, [r3, #36]	@ 0x24
240574b8:	f7ff ff5b 	bl	24057372 <HAL_OSPI_TimeOutCallback>
240574bc:	e77a      	b.n	240573b4 <HAL_OSPI_IRQHandler+0x40>
240574be:	bf00      	nop
240574c0:	24057325 	.word	0x24057325

240574c4 <HAL_OSPIM_Config>:
240574c4:	4b96      	ldr	r3, [pc, #600]	@ (24057720 <HAL_OSPIM_Config+0x25c>)
240574c6:	468c      	mov	ip, r1
240574c8:	6802      	ldr	r2, [r0, #0]
240574ca:	e92d 4ff0 	stmdb	sp!, {r4, r5, r6, r7, r8, r9, sl, fp, lr}
240574ce:	429a      	cmp	r2, r3
240574d0:	b091      	sub	sp, #68	@ 0x44
240574d2:	f04f 0701 	mov.w	r7, #1
240574d6:	f04f 0400 	mov.w	r4, #0
240574da:	bf15      	itete	ne
240574dc:	f04f 0a00 	movne.w	sl, #0
240574e0:	f04f 0a01 	moveq.w	sl, #1
240574e4:	2601      	movne	r6, #1
240574e6:	2600      	moveq	r6, #0
240574e8:	ab04      	add	r3, sp, #16
240574ea:	f8df e238 	ldr.w	lr, [pc, #568]	@ 24057724 <HAL_OSPIM_Config+0x260>
240574ee:	2f02      	cmp	r7, #2
240574f0:	611c      	str	r4, [r3, #16]
240574f2:	e9c3 4400 	strd	r4, r4, [r3]
240574f6:	e9c3 4402 	strd	r4, r4, [r3, #8]
240574fa:	f040 810d 	bne.w	24057718 <HAL_OSPIM_Config+0x254>
240574fe:	4a89      	ldr	r2, [pc, #548]	@ (24057724 <HAL_OSPIM_Config+0x260>)
24057500:	4889      	ldr	r0, [pc, #548]	@ (24057728 <HAL_OSPIM_Config+0x264>)
24057502:	6812      	ldr	r2, [r2, #0]
24057504:	f012 0f01 	tst.w	r2, #1
24057508:	bf18      	it	ne
2405750a:	f44f 7000 	movne.w	r0, #512	@ 0x200
2405750e:	2500      	movs	r5, #0
24057510:	eb0e 0285 	add.w	r2, lr, r5, lsl #2
24057514:	1c69      	adds	r1, r5, #1
24057516:	6852      	ldr	r2, [r2, #4]
24057518:	07d5      	lsls	r5, r2, #31
2405751a:	d504      	bpl.n	24057526 <HAL_OSPIM_Config+0x62>
2405751c:	ea82 0500 	eor.w	r5, r2, r0
24057520:	07ad      	lsls	r5, r5, #30
24057522:	bf58      	it	pl
24057524:	6019      	strpl	r1, [r3, #0]
24057526:	06d5      	lsls	r5, r2, #27
24057528:	d504      	bpl.n	24057534 <HAL_OSPIM_Config+0x70>
2405752a:	ea82 0500 	eor.w	r5, r2, r0
2405752e:	06ad      	lsls	r5, r5, #26
24057530:	bf58      	it	pl
24057532:	6059      	strpl	r1, [r3, #4]
24057534:	05d5      	lsls	r5, r2, #23
24057536:	d504      	bpl.n	24057542 <HAL_OSPIM_Config+0x7e>
24057538:	ea82 0500 	eor.w	r5, r2, r0
2405753c:	05ad      	lsls	r5, r5, #22
2405753e:	bf58      	it	pl
24057540:	6099      	strpl	r1, [r3, #8]
24057542:	03d5      	lsls	r5, r2, #15
24057544:	d50a      	bpl.n	2405755c <HAL_OSPIM_Config+0x98>
24057546:	ea82 0500 	eor.w	r5, r2, r0
2405754a:	036d      	lsls	r5, r5, #13
2405754c:	d406      	bmi.n	2405755c <HAL_OSPIM_Config+0x98>
2405754e:	0395      	lsls	r5, r2, #14
24057550:	bf54      	ite	pl
24057552:	f441 3580 	orrpl.w	r5, r1, #65536	@ 0x10000
24057556:	f041 7580 	orrmi.w	r5, r1, #16777216	@ 0x1000000
2405755a:	60dd      	str	r5, [r3, #12]
2405755c:	01d5      	lsls	r5, r2, #7
2405755e:	d50a      	bpl.n	24057576 <HAL_OSPIM_Config+0xb2>
24057560:	ea82 0500 	eor.w	r5, r2, r0
24057564:	016d      	lsls	r5, r5, #5
24057566:	d406      	bmi.n	24057576 <HAL_OSPIM_Config+0xb2>
24057568:	0195      	lsls	r5, r2, #6
2405756a:	bf54      	ite	pl
2405756c:	f441 3280 	orrpl.w	r2, r1, #65536	@ 0x10000
24057570:	f041 7280 	orrmi.w	r2, r1, #16777216	@ 0x1000000
24057574:	611a      	str	r2, [r3, #16]
24057576:	2902      	cmp	r1, #2
24057578:	f04f 0501 	mov.w	r5, #1
2405757c:	d1c8      	bne.n	24057510 <HAL_OSPIM_Config+0x4c>
2405757e:	42af      	cmp	r7, r5
24057580:	f103 0318 	add.w	r3, r3, #24
24057584:	f000 80c6 	beq.w	24057714 <HAL_OSPIM_Config+0x250>
24057588:	4b65      	ldr	r3, [pc, #404]	@ (24057720 <HAL_OSPIM_Config+0x25c>)
2405758a:	681f      	ldr	r7, [r3, #0]
2405758c:	402f      	ands	r7, r5
2405758e:	d004      	beq.n	2405759a <HAL_OSPIM_Config+0xd6>
24057590:	681a      	ldr	r2, [r3, #0]
24057592:	462f      	mov	r7, r5
24057594:	f022 0201 	bic.w	r2, r2, #1
24057598:	601a      	str	r2, [r3, #0]
2405759a:	4b64      	ldr	r3, [pc, #400]	@ (2405772c <HAL_OSPIM_Config+0x268>)
2405759c:	681a      	ldr	r2, [r3, #0]
2405759e:	07d1      	lsls	r1, r2, #31
240575a0:	f140 80bc 	bpl.w	2405771c <HAL_OSPIM_Config+0x258>
240575a4:	681a      	ldr	r2, [r3, #0]
240575a6:	f022 0201 	bic.w	r2, r2, #1
240575aa:	601a      	str	r2, [r3, #0]
240575ac:	f047 0302 	orr.w	r3, r7, #2
240575b0:	9303      	str	r3, [sp, #12]
240575b2:	ab10      	add	r3, sp, #64	@ 0x40
240575b4:	2118      	movs	r1, #24
240575b6:	fb01 3106 	mla	r1, r1, r6, r3
240575ba:	4b5a      	ldr	r3, [pc, #360]	@ (24057724 <HAL_OSPIM_Config+0x260>)
240575bc:	f851 2c28 	ldr.w	r2, [r1, #-40]
240575c0:	3a01      	subs	r2, #1
240575c2:	eb03 0282 	add.w	r2, r3, r2, lsl #2
240575c6:	6850      	ldr	r0, [r2, #4]
240575c8:	f420 7080 	bic.w	r0, r0, #256	@ 0x100
240575cc:	6050      	str	r0, [r2, #4]
240575ce:	681a      	ldr	r2, [r3, #0]
240575d0:	07d2      	lsls	r2, r2, #31
240575d2:	f140 80af 	bpl.w	24057734 <HAL_OSPIM_Config+0x270>
240575d6:	681a      	ldr	r2, [r3, #0]
240575d8:	f022 0201 	bic.w	r2, r2, #1
240575dc:	601a      	str	r2, [r3, #0]
240575de:	f1ba 0f00 	cmp.w	sl, #0
240575e2:	d02c      	beq.n	2405763e <HAL_OSPIM_Config+0x17a>
240575e4:	9a0a      	ldr	r2, [sp, #40]	@ 0x28
240575e6:	3a01      	subs	r2, #1
240575e8:	eb03 0282 	add.w	r2, r3, r2, lsl #2
240575ec:	6851      	ldr	r1, [r2, #4]
240575ee:	f041 0102 	orr.w	r1, r1, #2
240575f2:	6051      	str	r1, [r2, #4]
240575f4:	9a0b      	ldr	r2, [sp, #44]	@ 0x2c
240575f6:	b132      	cbz	r2, 24057606 <HAL_OSPIM_Config+0x142>
240575f8:	3a01      	subs	r2, #1
240575fa:	eb03 0382 	add.w	r3, r3, r2, lsl #2
240575fe:	685a      	ldr	r2, [r3, #4]
24057600:	f042 0220 	orr.w	r2, r2, #32
24057604:	605a      	str	r2, [r3, #4]
24057606:	9b0d      	ldr	r3, [sp, #52]	@ 0x34
24057608:	b15b      	cbz	r3, 24057622 <HAL_OSPIM_Config+0x15e>
2405760a:	3b01      	subs	r3, #1
2405760c:	f003 0301 	and.w	r3, r3, #1
24057610:	009b      	lsls	r3, r3, #2
24057612:	f103 43a4 	add.w	r3, r3, #1375731712	@ 0x52000000
24057616:	f503 4334 	add.w	r3, r3, #46080	@ 0xb400
2405761a:	685a      	ldr	r2, [r3, #4]
2405761c:	f442 2280 	orr.w	r2, r2, #262144	@ 0x40000
24057620:	605a      	str	r2, [r3, #4]
24057622:	9b0e      	ldr	r3, [sp, #56]	@ 0x38
24057624:	b15b      	cbz	r3, 2405763e <HAL_OSPIM_Config+0x17a>
24057626:	3b01      	subs	r3, #1
24057628:	f003 0301 	and.w	r3, r3, #1
2405762c:	009b      	lsls	r3, r3, #2
2405762e:	f103 43a4 	add.w	r3, r3, #1375731712	@ 0x52000000
24057632:	f503 4334 	add.w	r3, r3, #46080	@ 0xb400
24057636:	685a      	ldr	r2, [r3, #4]
24057638:	f042 6280 	orr.w	r2, r2, #67108864	@ 0x4000000
2405763c:	605a      	str	r2, [r3, #4]
2405763e:	f8dc 3000 	ldr.w	r3, [ip]
24057642:	f04f 0918 	mov.w	r9, #24
24057646:	f8dc 5004 	ldr.w	r5, [ip, #4]
2405764a:	9302      	str	r3, [sp, #8]
2405764c:	ab10      	add	r3, sp, #64	@ 0x40
2405764e:	9902      	ldr	r1, [sp, #8]
24057650:	fb09 390a 	mla	r9, r9, sl, r3
24057654:	f8df b0cc 	ldr.w	fp, [pc, #204]	@ 24057724 <HAL_OSPIM_Config+0x260>
24057658:	f859 8c30 	ldr.w	r8, [r9, #-48]
2405765c:	f859 3c2c 	ldr.w	r3, [r9, #-44]
24057660:	4541      	cmp	r1, r8
24057662:	f859 4c24 	ldr.w	r4, [r9, #-36]
24057666:	9301      	str	r3, [sp, #4]
24057668:	f859 0c20 	ldr.w	r0, [r9, #-32]
2405766c:	f8dc 3010 	ldr.w	r3, [ip, #16]
24057670:	9901      	ldr	r1, [sp, #4]
24057672:	e9dc e202 	ldrd	lr, r2, [ip, #8]
24057676:	f000 809a 	beq.w	240577ae <HAL_OSPIM_Config+0x2ea>
2405767a:	42a9      	cmp	r1, r5
2405767c:	d008      	beq.n	24057690 <HAL_OSPIM_Config+0x1cc>
2405767e:	f859 9c28 	ldr.w	r9, [r9, #-40]
24057682:	45f1      	cmp	r9, lr
24057684:	d004      	beq.n	24057690 <HAL_OSPIM_Config+0x1cc>
24057686:	42a2      	cmp	r2, r4
24057688:	d002      	beq.n	24057690 <HAL_OSPIM_Config+0x1cc>
2405768a:	4298      	cmp	r0, r3
2405768c:	f040 809e 	bne.w	240577cc <HAL_OSPIM_Config+0x308>
24057690:	f108 38ff 	add.w	r8, r8, #4294967295
24057694:	9901      	ldr	r1, [sp, #4]
24057696:	eb0b 0888 	add.w	r8, fp, r8, lsl #2
2405769a:	f8d8 9004 	ldr.w	r9, [r8, #4]
2405769e:	f029 0901 	bic.w	r9, r9, #1
240576a2:	f8c8 9004 	str.w	r9, [r8, #4]
240576a6:	b141      	cbz	r1, 240576ba <HAL_OSPIM_Config+0x1f6>
240576a8:	3901      	subs	r1, #1
240576aa:	eb0b 0181 	add.w	r1, fp, r1, lsl #2
240576ae:	f8d1 8004 	ldr.w	r8, [r1, #4]
240576b2:	f028 0810 	bic.w	r8, r8, #16
240576b6:	f8c1 8004 	str.w	r8, [r1, #4]
240576ba:	2118      	movs	r1, #24
240576bc:	f10d 0840 	add.w	r8, sp, #64	@ 0x40
240576c0:	fb01 8a0a 	mla	sl, r1, sl, r8
240576c4:	f85a 1c28 	ldr.w	r1, [sl, #-40]
240576c8:	ea4f 0881 	mov.w	r8, r1, lsl #2
240576cc:	4918      	ldr	r1, [pc, #96]	@ (24057730 <HAL_OSPIM_Config+0x26c>)
240576ce:	4441      	add	r1, r8
240576d0:	f8d1 8004 	ldr.w	r8, [r1, #4]
240576d4:	f428 7880 	bic.w	r8, r8, #256	@ 0x100
240576d8:	f8c1 8004 	str.w	r8, [r1, #4]
240576dc:	b15c      	cbz	r4, 240576f6 <HAL_OSPIM_Config+0x232>
240576de:	3c01      	subs	r4, #1
240576e0:	f004 0401 	and.w	r4, r4, #1
240576e4:	00a4      	lsls	r4, r4, #2
240576e6:	f104 44a4 	add.w	r4, r4, #1375731712	@ 0x52000000
240576ea:	f504 4434 	add.w	r4, r4, #46080	@ 0xb400
240576ee:	6861      	ldr	r1, [r4, #4]
240576f0:	f421 3180 	bic.w	r1, r1, #65536	@ 0x10000
240576f4:	6061      	str	r1, [r4, #4]
240576f6:	2800      	cmp	r0, #0
240576f8:	d068      	beq.n	240577cc <HAL_OSPIM_Config+0x308>
240576fa:	3801      	subs	r0, #1
240576fc:	f000 0001 	and.w	r0, r0, #1
24057700:	0080      	lsls	r0, r0, #2
24057702:	f100 40a4 	add.w	r0, r0, #1375731712	@ 0x52000000
24057706:	f500 4034 	add.w	r0, r0, #46080	@ 0xb400
2405770a:	6841      	ldr	r1, [r0, #4]
2405770c:	f021 7180 	bic.w	r1, r1, #16777216	@ 0x1000000
24057710:	6041      	str	r1, [r0, #4]
24057712:	e05b      	b.n	240577cc <HAL_OSPIM_Config+0x308>
24057714:	460f      	mov	r7, r1
24057716:	e6ea      	b.n	240574ee <HAL_OSPIM_Config+0x2a>
24057718:	2000      	movs	r0, #0
2405771a:	e6f8      	b.n	2405750e <HAL_OSPIM_Config+0x4a>
2405771c:	9703      	str	r7, [sp, #12]
2405771e:	e748      	b.n	240575b2 <HAL_OSPIM_Config+0xee>
24057720:	52005000 	.word	0x52005000
24057724:	5200b400 	.word	0x5200b400
24057728:	04040222 	.word	0x04040222
2405772c:	5200a000 	.word	0x5200a000
24057730:	5200b3fc 	.word	0x5200b3fc
24057734:	f851 2c30 	ldr.w	r2, [r1, #-48]
24057738:	2a00      	cmp	r2, #0
2405773a:	d080      	beq.n	2405763e <HAL_OSPIM_Config+0x17a>
2405773c:	3a01      	subs	r2, #1
2405773e:	eb03 0282 	add.w	r2, r3, r2, lsl #2
24057742:	6850      	ldr	r0, [r2, #4]
24057744:	f020 0001 	bic.w	r0, r0, #1
24057748:	6050      	str	r0, [r2, #4]
2405774a:	f851 2c2c 	ldr.w	r2, [r1, #-44]
2405774e:	b132      	cbz	r2, 2405775e <HAL_OSPIM_Config+0x29a>
24057750:	3a01      	subs	r2, #1
24057752:	eb03 0382 	add.w	r3, r3, r2, lsl #2
24057756:	685a      	ldr	r2, [r3, #4]
24057758:	f022 0210 	bic.w	r2, r2, #16
2405775c:	605a      	str	r2, [r3, #4]
2405775e:	2318      	movs	r3, #24
24057760:	aa10      	add	r2, sp, #64	@ 0x40
24057762:	fb03 2306 	mla	r3, r3, r6, r2
24057766:	f853 3c24 	ldr.w	r3, [r3, #-36]
2405776a:	b15b      	cbz	r3, 24057784 <HAL_OSPIM_Config+0x2c0>
2405776c:	3b01      	subs	r3, #1
2405776e:	f003 0301 	and.w	r3, r3, #1
24057772:	009b      	lsls	r3, r3, #2
24057774:	f103 43a4 	add.w	r3, r3, #1375731712	@ 0x52000000
24057778:	f503 4334 	add.w	r3, r3, #46080	@ 0xb400
2405777c:	685a      	ldr	r2, [r3, #4]
2405777e:	f422 3280 	bic.w	r2, r2, #65536	@ 0x10000
24057782:	605a      	str	r2, [r3, #4]
24057784:	2318      	movs	r3, #24
24057786:	aa10      	add	r2, sp, #64	@ 0x40
24057788:	fb03 2306 	mla	r3, r3, r6, r2
2405778c:	f853 3c20 	ldr.w	r3, [r3, #-32]
24057790:	2b00      	cmp	r3, #0
24057792:	f43f af54 	beq.w	2405763e <HAL_OSPIM_Config+0x17a>
24057796:	3b01      	subs	r3, #1
24057798:	f003 0301 	and.w	r3, r3, #1
2405779c:	009b      	lsls	r3, r3, #2
2405779e:	f103 43a4 	add.w	r3, r3, #1375731712	@ 0x52000000
240577a2:	f503 4334 	add.w	r3, r3, #46080	@ 0xb400
240577a6:	685a      	ldr	r2, [r3, #4]
240577a8:	f022 7280 	bic.w	r2, r2, #16777216	@ 0x1000000
240577ac:	e746      	b.n	2405763c <HAL_OSPIM_Config+0x178>
240577ae:	42a9      	cmp	r1, r5
240577b0:	f47f af6e 	bne.w	24057690 <HAL_OSPIM_Config+0x1cc>
240577b4:	42a2      	cmp	r2, r4
240577b6:	f47f af6b 	bne.w	24057690 <HAL_OSPIM_Config+0x1cc>
240577ba:	4298      	cmp	r0, r3
240577bc:	f47f af68 	bne.w	24057690 <HAL_OSPIM_Config+0x1cc>
240577c0:	f8db 1000 	ldr.w	r1, [fp]
240577c4:	f041 0101 	orr.w	r1, r1, #1
240577c8:	f8cb 1000 	str.w	r1, [fp]
240577cc:	4c72      	ldr	r4, [pc, #456]	@ (24057998 <HAL_OSPIM_Config+0x4d4>)
240577ce:	f10e 3eff 	add.w	lr, lr, #4294967295
240577d2:	eb04 0e8e 	add.w	lr, r4, lr, lsl #2
240577d6:	f8de 1004 	ldr.w	r1, [lr, #4]
240577da:	f421 7140 	bic.w	r1, r1, #768	@ 0x300
240577de:	ea41 2146 	orr.w	r1, r1, r6, lsl #9
240577e2:	f441 7180 	orr.w	r1, r1, #256	@ 0x100
240577e6:	f8ce 1004 	str.w	r1, [lr, #4]
240577ea:	f8dc 0014 	ldr.w	r0, [ip, #20]
240577ee:	6821      	ldr	r1, [r4, #0]
240577f0:	3801      	subs	r0, #1
240577f2:	f3c1 4107 	ubfx	r1, r1, #16, #8
240577f6:	4288      	cmp	r0, r1
240577f8:	d905      	bls.n	24057806 <HAL_OSPIM_Config+0x342>
240577fa:	6821      	ldr	r1, [r4, #0]
240577fc:	f421 017f 	bic.w	r1, r1, #16711680	@ 0xff0000
24057800:	ea41 4100 	orr.w	r1, r1, r0, lsl #16
24057804:	6021      	str	r1, [r4, #0]
24057806:	9902      	ldr	r1, [sp, #8]
24057808:	f402 3c80 	and.w	ip, r2, #65536	@ 0x10000
2405780c:	6820      	ldr	r0, [r4, #0]
2405780e:	3901      	subs	r1, #1
24057810:	f010 0f01 	tst.w	r0, #1
24057814:	f403 3080 	and.w	r0, r3, #65536	@ 0x10000
24057818:	ea4f 0181 	mov.w	r1, r1, lsl #2
2405781c:	4421      	add	r1, r4
2405781e:	d061      	beq.n	240578e4 <HAL_OSPIM_Config+0x420>
24057820:	684e      	ldr	r6, [r1, #4]
24057822:	f026 0603 	bic.w	r6, r6, #3
24057826:	f046 0601 	orr.w	r6, r6, #1
2405782a:	604e      	str	r6, [r1, #4]
2405782c:	b145      	cbz	r5, 24057840 <HAL_OSPIM_Config+0x37c>
2405782e:	3d01      	subs	r5, #1
24057830:	eb04 0585 	add.w	r5, r4, r5, lsl #2
24057834:	6869      	ldr	r1, [r5, #4]
24057836:	f021 0130 	bic.w	r1, r1, #48	@ 0x30
2405783a:	f041 0110 	orr.w	r1, r1, #16
2405783e:	6069      	str	r1, [r5, #4]
24057840:	f1bc 0f00 	cmp.w	ip, #0
24057844:	d02e      	beq.n	240578a4 <HAL_OSPIM_Config+0x3e0>
24057846:	3a01      	subs	r2, #1
24057848:	f002 0201 	and.w	r2, r2, #1
2405784c:	0092      	lsls	r2, r2, #2
2405784e:	f102 42a4 	add.w	r2, r2, #1375731712	@ 0x52000000
24057852:	f502 4234 	add.w	r2, r2, #46080	@ 0xb400
24057856:	6851      	ldr	r1, [r2, #4]
24057858:	f421 21e0 	bic.w	r1, r1, #458752	@ 0x70000
2405785c:	f441 3180 	orr.w	r1, r1, #65536	@ 0x10000
24057860:	6051      	str	r1, [r2, #4]
24057862:	b378      	cbz	r0, 240578c4 <HAL_OSPIM_Config+0x400>
24057864:	3b01      	subs	r3, #1
24057866:	f003 0301 	and.w	r3, r3, #1
2405786a:	009b      	lsls	r3, r3, #2
2405786c:	f103 43a4 	add.w	r3, r3, #1375731712	@ 0x52000000
24057870:	f503 4334 	add.w	r3, r3, #46080	@ 0xb400
24057874:	685a      	ldr	r2, [r3, #4]
24057876:	f422 22e0 	bic.w	r2, r2, #458752	@ 0x70000
2405787a:	f442 3240 	orr.w	r2, r2, #196608	@ 0x30000
2405787e:	605a      	str	r2, [r3, #4]
24057880:	b127      	cbz	r7, 2405788c <HAL_OSPIM_Config+0x3c8>
24057882:	4a46      	ldr	r2, [pc, #280]	@ (2405799c <HAL_OSPIM_Config+0x4d8>)
24057884:	6813      	ldr	r3, [r2, #0]
24057886:	f043 0301 	orr.w	r3, r3, #1
2405788a:	6013      	str	r3, [r2, #0]
2405788c:	9b03      	ldr	r3, [sp, #12]
2405788e:	079b      	lsls	r3, r3, #30
24057890:	d504      	bpl.n	2405789c <HAL_OSPIM_Config+0x3d8>
24057892:	4a43      	ldr	r2, [pc, #268]	@ (240579a0 <HAL_OSPIM_Config+0x4dc>)
24057894:	6813      	ldr	r3, [r2, #0]
24057896:	f043 0301 	orr.w	r3, r3, #1
2405789a:	6013      	str	r3, [r2, #0]
2405789c:	2000      	movs	r0, #0
2405789e:	b011      	add	sp, #68	@ 0x44
240578a0:	e8bd 8ff0 	ldmia.w	sp!, {r4, r5, r6, r7, r8, r9, sl, fp, pc}
240578a4:	2a00      	cmp	r2, #0
240578a6:	d0dc      	beq.n	24057862 <HAL_OSPIM_Config+0x39e>
240578a8:	3a01      	subs	r2, #1
240578aa:	f002 0201 	and.w	r2, r2, #1
240578ae:	0092      	lsls	r2, r2, #2
240578b0:	f102 42a4 	add.w	r2, r2, #1375731712	@ 0x52000000
240578b4:	f502 4234 	add.w	r2, r2, #46080	@ 0xb400
240578b8:	6851      	ldr	r1, [r2, #4]
240578ba:	f021 61e0 	bic.w	r1, r1, #117440512	@ 0x7000000
240578be:	f041 7180 	orr.w	r1, r1, #16777216	@ 0x1000000
240578c2:	e7cd      	b.n	24057860 <HAL_OSPIM_Config+0x39c>
240578c4:	2b00      	cmp	r3, #0
240578c6:	d0db      	beq.n	24057880 <HAL_OSPIM_Config+0x3bc>
240578c8:	3b01      	subs	r3, #1
240578ca:	f003 0301 	and.w	r3, r3, #1
240578ce:	009b      	lsls	r3, r3, #2
240578d0:	f103 43a4 	add.w	r3, r3, #1375731712	@ 0x52000000
240578d4:	f503 4334 	add.w	r3, r3, #46080	@ 0xb400
240578d8:	685a      	ldr	r2, [r3, #4]
240578da:	f022 62e0 	bic.w	r2, r2, #117440512	@ 0x7000000
240578de:	f042 7240 	orr.w	r2, r2, #50331648	@ 0x3000000
240578e2:	e7cc      	b.n	2405787e <HAL_OSPIM_Config+0x3ba>
240578e4:	f8d1 e004 	ldr.w	lr, [r1, #4]
240578e8:	f02e 0e03 	bic.w	lr, lr, #3
240578ec:	ea4e 0e46 	orr.w	lr, lr, r6, lsl #1
240578f0:	f04e 0e01 	orr.w	lr, lr, #1
240578f4:	f8c1 e004 	str.w	lr, [r1, #4]
240578f8:	b155      	cbz	r5, 24057910 <HAL_OSPIM_Config+0x44c>
240578fa:	3d01      	subs	r5, #1
240578fc:	eb04 0485 	add.w	r4, r4, r5, lsl #2
24057900:	6861      	ldr	r1, [r4, #4]
24057902:	f021 0130 	bic.w	r1, r1, #48	@ 0x30
24057906:	ea41 1146 	orr.w	r1, r1, r6, lsl #5
2405790a:	f041 0110 	orr.w	r1, r1, #16
2405790e:	6061      	str	r1, [r4, #4]
24057910:	f1bc 0f00 	cmp.w	ip, #0
24057914:	d01e      	beq.n	24057954 <HAL_OSPIM_Config+0x490>
24057916:	3a01      	subs	r2, #1
24057918:	f002 0201 	and.w	r2, r2, #1
2405791c:	0092      	lsls	r2, r2, #2
2405791e:	f102 42a4 	add.w	r2, r2, #1375731712	@ 0x52000000
24057922:	f502 4234 	add.w	r2, r2, #46080	@ 0xb400
24057926:	6851      	ldr	r1, [r2, #4]
24057928:	f421 21e0 	bic.w	r1, r1, #458752	@ 0x70000
2405792c:	ea41 4186 	orr.w	r1, r1, r6, lsl #18
24057930:	f441 3180 	orr.w	r1, r1, #65536	@ 0x10000
24057934:	6051      	str	r1, [r2, #4]
24057936:	b1f8      	cbz	r0, 24057978 <HAL_OSPIM_Config+0x4b4>
24057938:	3b01      	subs	r3, #1
2405793a:	f003 0301 	and.w	r3, r3, #1
2405793e:	009b      	lsls	r3, r3, #2
24057940:	f103 43a4 	add.w	r3, r3, #1375731712	@ 0x52000000
24057944:	f503 4334 	add.w	r3, r3, #46080	@ 0xb400
24057948:	685a      	ldr	r2, [r3, #4]
2405794a:	f422 22e0 	bic.w	r2, r2, #458752	@ 0x70000
2405794e:	ea42 4286 	orr.w	r2, r2, r6, lsl #18
24057952:	e792      	b.n	2405787a <HAL_OSPIM_Config+0x3b6>
24057954:	2a00      	cmp	r2, #0
24057956:	d0ee      	beq.n	24057936 <HAL_OSPIM_Config+0x472>
24057958:	3a01      	subs	r2, #1
2405795a:	f002 0201 	and.w	r2, r2, #1
2405795e:	0092      	lsls	r2, r2, #2
24057960:	f102 42a4 	add.w	r2, r2, #1375731712	@ 0x52000000
24057964:	f502 4234 	add.w	r2, r2, #46080	@ 0xb400
24057968:	6851      	ldr	r1, [r2, #4]
2405796a:	f021 61e0 	bic.w	r1, r1, #117440512	@ 0x7000000
2405796e:	ea41 6186 	orr.w	r1, r1, r6, lsl #26
24057972:	f041 7180 	orr.w	r1, r1, #16777216	@ 0x1000000
24057976:	e7dd      	b.n	24057934 <HAL_OSPIM_Config+0x470>
24057978:	2b00      	cmp	r3, #0
2405797a:	d081      	beq.n	24057880 <HAL_OSPIM_Config+0x3bc>
2405797c:	3b01      	subs	r3, #1
2405797e:	f003 0301 	and.w	r3, r3, #1
24057982:	009b      	lsls	r3, r3, #2
24057984:	f103 43a4 	add.w	r3, r3, #1375731712	@ 0x52000000
24057988:	f503 4334 	add.w	r3, r3, #46080	@ 0xb400
2405798c:	685a      	ldr	r2, [r3, #4]
2405798e:	f022 62e0 	bic.w	r2, r2, #117440512	@ 0x7000000
24057992:	ea42 6286 	orr.w	r2, r2, r6, lsl #26
24057996:	e7a2      	b.n	240578de <HAL_OSPIM_Config+0x41a>
24057998:	5200b400 	.word	0x5200b400
2405799c:	52005000 	.word	0x52005000
240579a0:	5200a000 	.word	0x5200a000

240579a4 <HAL_PWR_EnableBkUpAccess>:
240579a4:	4a02      	ldr	r2, [pc, #8]	@ (240579b0 <HAL_PWR_EnableBkUpAccess+0xc>)
240579a6:	6813      	ldr	r3, [r2, #0]
240579a8:	f443 7380 	orr.w	r3, r3, #256	@ 0x100
240579ac:	6013      	str	r3, [r2, #0]
240579ae:	4770      	bx	lr
240579b0:	58024800 	.word	0x58024800

240579b4 <HAL_PWREx_ConfigSupply>:
240579b4:	b538      	push	{r3, r4, r5, lr}
240579b6:	4c10      	ldr	r4, [pc, #64]	@ (240579f8 <HAL_PWREx_ConfigSupply+0x44>)
240579b8:	68e3      	ldr	r3, [r4, #12]
240579ba:	f013 0f04 	tst.w	r3, #4
240579be:	68e3      	ldr	r3, [r4, #12]
240579c0:	d105      	bne.n	240579ce <HAL_PWREx_ConfigSupply+0x1a>
240579c2:	f003 0307 	and.w	r3, r3, #7
240579c6:	1a18      	subs	r0, r3, r0
240579c8:	bf18      	it	ne
240579ca:	2001      	movne	r0, #1
240579cc:	bd38      	pop	{r3, r4, r5, pc}
240579ce:	f023 0307 	bic.w	r3, r3, #7
240579d2:	4318      	orrs	r0, r3
240579d4:	60e0      	str	r0, [r4, #12]
240579d6:	f7fc fc93 	bl	24054300 <HAL_GetTick>
240579da:	4605      	mov	r5, r0
240579dc:	6863      	ldr	r3, [r4, #4]
240579de:	049b      	lsls	r3, r3, #18
240579e0:	d501      	bpl.n	240579e6 <HAL_PWREx_ConfigSupply+0x32>
240579e2:	2000      	movs	r0, #0
240579e4:	e7f2      	b.n	240579cc <HAL_PWREx_ConfigSupply+0x18>
240579e6:	f7fc fc8b 	bl	24054300 <HAL_GetTick>
240579ea:	1b40      	subs	r0, r0, r5
240579ec:	f5b0 7f7a 	cmp.w	r0, #1000	@ 0x3e8
240579f0:	d9f4      	bls.n	240579dc <HAL_PWREx_ConfigSupply+0x28>
240579f2:	2001      	movs	r0, #1
240579f4:	e7ea      	b.n	240579cc <HAL_PWREx_ConfigSupply+0x18>
240579f6:	bf00      	nop
240579f8:	58024800 	.word	0x58024800

240579fc <HAL_RCC_OscConfig>:
240579fc:	b5f8      	push	{r3, r4, r5, r6, r7, lr}
240579fe:	4604      	mov	r4, r0
24057a00:	2800      	cmp	r0, #0
24057a02:	d069      	beq.n	24057ad8 <HAL_RCC_OscConfig+0xdc>
24057a04:	6803      	ldr	r3, [r0, #0]
24057a06:	07d8      	lsls	r0, r3, #31
24057a08:	d453      	bmi.n	24057ab2 <HAL_RCC_OscConfig+0xb6>
24057a0a:	6823      	ldr	r3, [r4, #0]
24057a0c:	0799      	lsls	r1, r3, #30
24057a0e:	f100 80b8 	bmi.w	24057b82 <HAL_RCC_OscConfig+0x186>
24057a12:	6823      	ldr	r3, [r4, #0]
24057a14:	06da      	lsls	r2, r3, #27
24057a16:	d51c      	bpl.n	24057a52 <HAL_RCC_OscConfig+0x56>
24057a18:	4a96      	ldr	r2, [pc, #600]	@ (24057c74 <HAL_RCC_OscConfig+0x278>)
24057a1a:	6913      	ldr	r3, [r2, #16]
24057a1c:	6a91      	ldr	r1, [r2, #40]	@ 0x28
24057a1e:	f003 0338 	and.w	r3, r3, #56	@ 0x38
24057a22:	2b08      	cmp	r3, #8
24057a24:	d007      	beq.n	24057a36 <HAL_RCC_OscConfig+0x3a>
24057a26:	2b18      	cmp	r3, #24
24057a28:	f040 80f8 	bne.w	24057c1c <HAL_RCC_OscConfig+0x220>
24057a2c:	f001 0303 	and.w	r3, r1, #3
24057a30:	2b01      	cmp	r3, #1
24057a32:	f040 80f3 	bne.w	24057c1c <HAL_RCC_OscConfig+0x220>
24057a36:	6813      	ldr	r3, [r2, #0]
24057a38:	05db      	lsls	r3, r3, #23
24057a3a:	d502      	bpl.n	24057a42 <HAL_RCC_OscConfig+0x46>
24057a3c:	69e3      	ldr	r3, [r4, #28]
24057a3e:	2b80      	cmp	r3, #128	@ 0x80
24057a40:	d14a      	bne.n	24057ad8 <HAL_RCC_OscConfig+0xdc>
24057a42:	4a8c      	ldr	r2, [pc, #560]	@ (24057c74 <HAL_RCC_OscConfig+0x278>)
24057a44:	6a21      	ldr	r1, [r4, #32]
24057a46:	68d3      	ldr	r3, [r2, #12]
24057a48:	f023 537c 	bic.w	r3, r3, #1056964608	@ 0x3f000000
24057a4c:	ea43 6301 	orr.w	r3, r3, r1, lsl #24
24057a50:	60d3      	str	r3, [r2, #12]
24057a52:	6823      	ldr	r3, [r4, #0]
24057a54:	0719      	lsls	r1, r3, #28
24057a56:	f100 8111 	bmi.w	24057c7c <HAL_RCC_OscConfig+0x280>
24057a5a:	6823      	ldr	r3, [r4, #0]
24057a5c:	069a      	lsls	r2, r3, #26
24057a5e:	f100 8132 	bmi.w	24057cc6 <HAL_RCC_OscConfig+0x2ca>
24057a62:	6823      	ldr	r3, [r4, #0]
24057a64:	075d      	lsls	r5, r3, #29
24057a66:	d51e      	bpl.n	24057aa6 <HAL_RCC_OscConfig+0xaa>
24057a68:	4d83      	ldr	r5, [pc, #524]	@ (24057c78 <HAL_RCC_OscConfig+0x27c>)
24057a6a:	682b      	ldr	r3, [r5, #0]
24057a6c:	f443 7380 	orr.w	r3, r3, #256	@ 0x100
24057a70:	602b      	str	r3, [r5, #0]
24057a72:	f7fc fc45 	bl	24054300 <HAL_GetTick>
24057a76:	4606      	mov	r6, r0
24057a78:	682b      	ldr	r3, [r5, #0]
24057a7a:	05da      	lsls	r2, r3, #23
24057a7c:	f140 8148 	bpl.w	24057d10 <HAL_RCC_OscConfig+0x314>
24057a80:	68a3      	ldr	r3, [r4, #8]
24057a82:	4d7c      	ldr	r5, [pc, #496]	@ (24057c74 <HAL_RCC_OscConfig+0x278>)
24057a84:	2b01      	cmp	r3, #1
24057a86:	f040 814a 	bne.w	24057d1e <HAL_RCC_OscConfig+0x322>
24057a8a:	6f2b      	ldr	r3, [r5, #112]	@ 0x70
24057a8c:	f043 0301 	orr.w	r3, r3, #1
24057a90:	672b      	str	r3, [r5, #112]	@ 0x70
24057a92:	f241 3788 	movw	r7, #5000	@ 0x1388
24057a96:	f7fc fc33 	bl	24054300 <HAL_GetTick>
24057a9a:	4e76      	ldr	r6, [pc, #472]	@ (24057c74 <HAL_RCC_OscConfig+0x278>)
24057a9c:	4605      	mov	r5, r0
24057a9e:	6f33      	ldr	r3, [r6, #112]	@ 0x70
24057aa0:	079b      	lsls	r3, r3, #30
24057aa2:	f140 8178 	bpl.w	24057d96 <HAL_RCC_OscConfig+0x39a>
24057aa6:	6a61      	ldr	r1, [r4, #36]	@ 0x24
24057aa8:	2900      	cmp	r1, #0
24057aaa:	f040 817b 	bne.w	24057da4 <HAL_RCC_OscConfig+0x3a8>
24057aae:	2000      	movs	r0, #0
24057ab0:	e02a      	b.n	24057b08 <HAL_RCC_OscConfig+0x10c>
24057ab2:	4a70      	ldr	r2, [pc, #448]	@ (24057c74 <HAL_RCC_OscConfig+0x278>)
24057ab4:	6913      	ldr	r3, [r2, #16]
24057ab6:	6a91      	ldr	r1, [r2, #40]	@ 0x28
24057ab8:	f003 0338 	and.w	r3, r3, #56	@ 0x38
24057abc:	2b10      	cmp	r3, #16
24057abe:	d005      	beq.n	24057acc <HAL_RCC_OscConfig+0xd0>
24057ac0:	2b18      	cmp	r3, #24
24057ac2:	d10b      	bne.n	24057adc <HAL_RCC_OscConfig+0xe0>
24057ac4:	f001 0303 	and.w	r3, r1, #3
24057ac8:	2b02      	cmp	r3, #2
24057aca:	d107      	bne.n	24057adc <HAL_RCC_OscConfig+0xe0>
24057acc:	6813      	ldr	r3, [r2, #0]
24057ace:	039a      	lsls	r2, r3, #14
24057ad0:	d59b      	bpl.n	24057a0a <HAL_RCC_OscConfig+0xe>
24057ad2:	6863      	ldr	r3, [r4, #4]
24057ad4:	2b00      	cmp	r3, #0
24057ad6:	d198      	bne.n	24057a0a <HAL_RCC_OscConfig+0xe>
24057ad8:	2001      	movs	r0, #1
24057ada:	e015      	b.n	24057b08 <HAL_RCC_OscConfig+0x10c>
24057adc:	6863      	ldr	r3, [r4, #4]
24057ade:	4d65      	ldr	r5, [pc, #404]	@ (24057c74 <HAL_RCC_OscConfig+0x278>)
24057ae0:	f5b3 3f80 	cmp.w	r3, #65536	@ 0x10000
24057ae4:	d111      	bne.n	24057b0a <HAL_RCC_OscConfig+0x10e>
24057ae6:	682b      	ldr	r3, [r5, #0]
24057ae8:	f443 3380 	orr.w	r3, r3, #65536	@ 0x10000
24057aec:	602b      	str	r3, [r5, #0]
24057aee:	f7fc fc07 	bl	24054300 <HAL_GetTick>
24057af2:	4e60      	ldr	r6, [pc, #384]	@ (24057c74 <HAL_RCC_OscConfig+0x278>)
24057af4:	4605      	mov	r5, r0
24057af6:	6833      	ldr	r3, [r6, #0]
24057af8:	039b      	lsls	r3, r3, #14
24057afa:	d486      	bmi.n	24057a0a <HAL_RCC_OscConfig+0xe>
24057afc:	f7fc fc00 	bl	24054300 <HAL_GetTick>
24057b00:	1b40      	subs	r0, r0, r5
24057b02:	2864      	cmp	r0, #100	@ 0x64
24057b04:	d9f7      	bls.n	24057af6 <HAL_RCC_OscConfig+0xfa>
24057b06:	2003      	movs	r0, #3
24057b08:	bdf8      	pop	{r3, r4, r5, r6, r7, pc}
24057b0a:	b9c3      	cbnz	r3, 24057b3e <HAL_RCC_OscConfig+0x142>
24057b0c:	682b      	ldr	r3, [r5, #0]
24057b0e:	f423 3380 	bic.w	r3, r3, #65536	@ 0x10000
24057b12:	602b      	str	r3, [r5, #0]
24057b14:	682b      	ldr	r3, [r5, #0]
24057b16:	f423 1380 	bic.w	r3, r3, #1048576	@ 0x100000
24057b1a:	602b      	str	r3, [r5, #0]
24057b1c:	682b      	ldr	r3, [r5, #0]
24057b1e:	f423 2380 	bic.w	r3, r3, #262144	@ 0x40000
24057b22:	602b      	str	r3, [r5, #0]
24057b24:	f7fc fbec 	bl	24054300 <HAL_GetTick>
24057b28:	4606      	mov	r6, r0
24057b2a:	682b      	ldr	r3, [r5, #0]
24057b2c:	039f      	lsls	r7, r3, #14
24057b2e:	f57f af6c 	bpl.w	24057a0a <HAL_RCC_OscConfig+0xe>
24057b32:	f7fc fbe5 	bl	24054300 <HAL_GetTick>
24057b36:	1b80      	subs	r0, r0, r6
24057b38:	2864      	cmp	r0, #100	@ 0x64
24057b3a:	d9f6      	bls.n	24057b2a <HAL_RCC_OscConfig+0x12e>
24057b3c:	e7e3      	b.n	24057b06 <HAL_RCC_OscConfig+0x10a>
24057b3e:	f5b3 2fa0 	cmp.w	r3, #327680	@ 0x50000
24057b42:	d108      	bne.n	24057b56 <HAL_RCC_OscConfig+0x15a>
24057b44:	682b      	ldr	r3, [r5, #0]
24057b46:	f443 2380 	orr.w	r3, r3, #262144	@ 0x40000
24057b4a:	602b      	str	r3, [r5, #0]
24057b4c:	682b      	ldr	r3, [r5, #0]
24057b4e:	f423 1380 	bic.w	r3, r3, #1048576	@ 0x100000
24057b52:	602b      	str	r3, [r5, #0]
24057b54:	e7c7      	b.n	24057ae6 <HAL_RCC_OscConfig+0xea>
24057b56:	f5b3 1fa8 	cmp.w	r3, #1376256	@ 0x150000
24057b5a:	682b      	ldr	r3, [r5, #0]
24057b5c:	d106      	bne.n	24057b6c <HAL_RCC_OscConfig+0x170>
24057b5e:	f443 2380 	orr.w	r3, r3, #262144	@ 0x40000
24057b62:	602b      	str	r3, [r5, #0]
24057b64:	682b      	ldr	r3, [r5, #0]
24057b66:	f443 1380 	orr.w	r3, r3, #1048576	@ 0x100000
24057b6a:	e7f2      	b.n	24057b52 <HAL_RCC_OscConfig+0x156>
24057b6c:	f423 3380 	bic.w	r3, r3, #65536	@ 0x10000
24057b70:	602b      	str	r3, [r5, #0]
24057b72:	682b      	ldr	r3, [r5, #0]
24057b74:	f423 2380 	bic.w	r3, r3, #262144	@ 0x40000
24057b78:	602b      	str	r3, [r5, #0]
24057b7a:	682b      	ldr	r3, [r5, #0]
24057b7c:	f423 1380 	bic.w	r3, r3, #1048576	@ 0x100000
24057b80:	e7b4      	b.n	24057aec <HAL_RCC_OscConfig+0xf0>
24057b82:	493c      	ldr	r1, [pc, #240]	@ (24057c74 <HAL_RCC_OscConfig+0x278>)
24057b84:	68e2      	ldr	r2, [r4, #12]
24057b86:	690b      	ldr	r3, [r1, #16]
24057b88:	6a88      	ldr	r0, [r1, #40]	@ 0x28
24057b8a:	f013 0338 	ands.w	r3, r3, #56	@ 0x38
24057b8e:	d003      	beq.n	24057b98 <HAL_RCC_OscConfig+0x19c>
24057b90:	2b18      	cmp	r3, #24
24057b92:	d120      	bne.n	24057bd6 <HAL_RCC_OscConfig+0x1da>
24057b94:	0780      	lsls	r0, r0, #30
24057b96:	d11e      	bne.n	24057bd6 <HAL_RCC_OscConfig+0x1da>
24057b98:	680b      	ldr	r3, [r1, #0]
24057b9a:	075b      	lsls	r3, r3, #29
24057b9c:	d501      	bpl.n	24057ba2 <HAL_RCC_OscConfig+0x1a6>
24057b9e:	2a00      	cmp	r2, #0
24057ba0:	d09a      	beq.n	24057ad8 <HAL_RCC_OscConfig+0xdc>
24057ba2:	4d34      	ldr	r5, [pc, #208]	@ (24057c74 <HAL_RCC_OscConfig+0x278>)
24057ba4:	682b      	ldr	r3, [r5, #0]
24057ba6:	f023 0319 	bic.w	r3, r3, #25
24057baa:	4313      	orrs	r3, r2
24057bac:	602b      	str	r3, [r5, #0]
24057bae:	f7fc fba7 	bl	24054300 <HAL_GetTick>
24057bb2:	4606      	mov	r6, r0
24057bb4:	682b      	ldr	r3, [r5, #0]
24057bb6:	075f      	lsls	r7, r3, #29
24057bb8:	d507      	bpl.n	24057bca <HAL_RCC_OscConfig+0x1ce>
24057bba:	686b      	ldr	r3, [r5, #4]
24057bbc:	6922      	ldr	r2, [r4, #16]
24057bbe:	f023 43fe 	bic.w	r3, r3, #2130706432	@ 0x7f000000
24057bc2:	ea43 6302 	orr.w	r3, r3, r2, lsl #24
24057bc6:	606b      	str	r3, [r5, #4]
24057bc8:	e723      	b.n	24057a12 <HAL_RCC_OscConfig+0x16>
24057bca:	f7fc fb99 	bl	24054300 <HAL_GetTick>
24057bce:	1b80      	subs	r0, r0, r6
24057bd0:	2802      	cmp	r0, #2
24057bd2:	d9ef      	bls.n	24057bb4 <HAL_RCC_OscConfig+0x1b8>
24057bd4:	e797      	b.n	24057b06 <HAL_RCC_OscConfig+0x10a>
24057bd6:	4d27      	ldr	r5, [pc, #156]	@ (24057c74 <HAL_RCC_OscConfig+0x278>)
24057bd8:	682b      	ldr	r3, [r5, #0]
24057bda:	b17a      	cbz	r2, 24057bfc <HAL_RCC_OscConfig+0x200>
24057bdc:	f023 0319 	bic.w	r3, r3, #25
24057be0:	4313      	orrs	r3, r2
24057be2:	602b      	str	r3, [r5, #0]
24057be4:	f7fc fb8c 	bl	24054300 <HAL_GetTick>
24057be8:	4606      	mov	r6, r0
24057bea:	682b      	ldr	r3, [r5, #0]
24057bec:	0758      	lsls	r0, r3, #29
24057bee:	d4e4      	bmi.n	24057bba <HAL_RCC_OscConfig+0x1be>
24057bf0:	f7fc fb86 	bl	24054300 <HAL_GetTick>
24057bf4:	1b80      	subs	r0, r0, r6
24057bf6:	2802      	cmp	r0, #2
24057bf8:	d9f7      	bls.n	24057bea <HAL_RCC_OscConfig+0x1ee>
24057bfa:	e784      	b.n	24057b06 <HAL_RCC_OscConfig+0x10a>
24057bfc:	f023 0301 	bic.w	r3, r3, #1
24057c00:	602b      	str	r3, [r5, #0]
24057c02:	f7fc fb7d 	bl	24054300 <HAL_GetTick>
24057c06:	4606      	mov	r6, r0
24057c08:	682b      	ldr	r3, [r5, #0]
24057c0a:	0759      	lsls	r1, r3, #29
24057c0c:	f57f af01 	bpl.w	24057a12 <HAL_RCC_OscConfig+0x16>
24057c10:	f7fc fb76 	bl	24054300 <HAL_GetTick>
24057c14:	1b80      	subs	r0, r0, r6
24057c16:	2802      	cmp	r0, #2
24057c18:	d9f6      	bls.n	24057c08 <HAL_RCC_OscConfig+0x20c>
24057c1a:	e774      	b.n	24057b06 <HAL_RCC_OscConfig+0x10a>
24057c1c:	69e3      	ldr	r3, [r4, #28]
24057c1e:	4d15      	ldr	r5, [pc, #84]	@ (24057c74 <HAL_RCC_OscConfig+0x278>)
24057c20:	b1bb      	cbz	r3, 24057c52 <HAL_RCC_OscConfig+0x256>
24057c22:	682b      	ldr	r3, [r5, #0]
24057c24:	f043 0380 	orr.w	r3, r3, #128	@ 0x80
24057c28:	602b      	str	r3, [r5, #0]
24057c2a:	f7fc fb69 	bl	24054300 <HAL_GetTick>
24057c2e:	4606      	mov	r6, r0
24057c30:	682b      	ldr	r3, [r5, #0]
24057c32:	05df      	lsls	r7, r3, #23
24057c34:	d507      	bpl.n	24057c46 <HAL_RCC_OscConfig+0x24a>
24057c36:	68eb      	ldr	r3, [r5, #12]
24057c38:	6a22      	ldr	r2, [r4, #32]
24057c3a:	f023 537c 	bic.w	r3, r3, #1056964608	@ 0x3f000000
24057c3e:	ea43 6302 	orr.w	r3, r3, r2, lsl #24
24057c42:	60eb      	str	r3, [r5, #12]
24057c44:	e705      	b.n	24057a52 <HAL_RCC_OscConfig+0x56>
24057c46:	f7fc fb5b 	bl	24054300 <HAL_GetTick>
24057c4a:	1b80      	subs	r0, r0, r6
24057c4c:	2802      	cmp	r0, #2
24057c4e:	d9ef      	bls.n	24057c30 <HAL_RCC_OscConfig+0x234>
24057c50:	e759      	b.n	24057b06 <HAL_RCC_OscConfig+0x10a>
24057c52:	682b      	ldr	r3, [r5, #0]
24057c54:	f023 0380 	bic.w	r3, r3, #128	@ 0x80
24057c58:	602b      	str	r3, [r5, #0]
24057c5a:	f7fc fb51 	bl	24054300 <HAL_GetTick>
24057c5e:	4606      	mov	r6, r0
24057c60:	682b      	ldr	r3, [r5, #0]
24057c62:	05d8      	lsls	r0, r3, #23
24057c64:	f57f aef5 	bpl.w	24057a52 <HAL_RCC_OscConfig+0x56>
24057c68:	f7fc fb4a 	bl	24054300 <HAL_GetTick>
24057c6c:	1b80      	subs	r0, r0, r6
24057c6e:	2802      	cmp	r0, #2
24057c70:	d9f6      	bls.n	24057c60 <HAL_RCC_OscConfig+0x264>
24057c72:	e748      	b.n	24057b06 <HAL_RCC_OscConfig+0x10a>
24057c74:	58024400 	.word	0x58024400
24057c78:	58024800 	.word	0x58024800
24057c7c:	6963      	ldr	r3, [r4, #20]
24057c7e:	4d8a      	ldr	r5, [pc, #552]	@ (24057ea8 <HAL_RCC_OscConfig+0x4ac>)
24057c80:	b183      	cbz	r3, 24057ca4 <HAL_RCC_OscConfig+0x2a8>
24057c82:	6f6b      	ldr	r3, [r5, #116]	@ 0x74
24057c84:	f043 0301 	orr.w	r3, r3, #1
24057c88:	676b      	str	r3, [r5, #116]	@ 0x74
24057c8a:	f7fc fb39 	bl	24054300 <HAL_GetTick>
24057c8e:	4606      	mov	r6, r0
24057c90:	6f6b      	ldr	r3, [r5, #116]	@ 0x74
24057c92:	079b      	lsls	r3, r3, #30
24057c94:	f53f aee1 	bmi.w	24057a5a <HAL_RCC_OscConfig+0x5e>
24057c98:	f7fc fb32 	bl	24054300 <HAL_GetTick>
24057c9c:	1b80      	subs	r0, r0, r6
24057c9e:	2802      	cmp	r0, #2
24057ca0:	d9f6      	bls.n	24057c90 <HAL_RCC_OscConfig+0x294>
24057ca2:	e730      	b.n	24057b06 <HAL_RCC_OscConfig+0x10a>
24057ca4:	6f6b      	ldr	r3, [r5, #116]	@ 0x74
24057ca6:	f023 0301 	bic.w	r3, r3, #1
24057caa:	676b      	str	r3, [r5, #116]	@ 0x74
24057cac:	f7fc fb28 	bl	24054300 <HAL_GetTick>
24057cb0:	4606      	mov	r6, r0
24057cb2:	6f6b      	ldr	r3, [r5, #116]	@ 0x74
24057cb4:	079f      	lsls	r7, r3, #30
24057cb6:	f57f aed0 	bpl.w	24057a5a <HAL_RCC_OscConfig+0x5e>
24057cba:	f7fc fb21 	bl	24054300 <HAL_GetTick>
24057cbe:	1b80      	subs	r0, r0, r6
24057cc0:	2802      	cmp	r0, #2
24057cc2:	d9f6      	bls.n	24057cb2 <HAL_RCC_OscConfig+0x2b6>
24057cc4:	e71f      	b.n	24057b06 <HAL_RCC_OscConfig+0x10a>
24057cc6:	69a3      	ldr	r3, [r4, #24]
24057cc8:	4d77      	ldr	r5, [pc, #476]	@ (24057ea8 <HAL_RCC_OscConfig+0x4ac>)
24057cca:	b183      	cbz	r3, 24057cee <HAL_RCC_OscConfig+0x2f2>
24057ccc:	682b      	ldr	r3, [r5, #0]
24057cce:	f443 5380 	orr.w	r3, r3, #4096	@ 0x1000
24057cd2:	602b      	str	r3, [r5, #0]
24057cd4:	f7fc fb14 	bl	24054300 <HAL_GetTick>
24057cd8:	4606      	mov	r6, r0
24057cda:	682b      	ldr	r3, [r5, #0]
24057cdc:	0498      	lsls	r0, r3, #18
24057cde:	f53f aec0 	bmi.w	24057a62 <HAL_RCC_OscConfig+0x66>
24057ce2:	f7fc fb0d 	bl	24054300 <HAL_GetTick>
24057ce6:	1b80      	subs	r0, r0, r6
24057ce8:	2802      	cmp	r0, #2
24057cea:	d9f6      	bls.n	24057cda <HAL_RCC_OscConfig+0x2de>
24057cec:	e70b      	b.n	24057b06 <HAL_RCC_OscConfig+0x10a>
24057cee:	682b      	ldr	r3, [r5, #0]
24057cf0:	f423 5380 	bic.w	r3, r3, #4096	@ 0x1000
24057cf4:	602b      	str	r3, [r5, #0]
24057cf6:	f7fc fb03 	bl	24054300 <HAL_GetTick>
24057cfa:	4606      	mov	r6, r0
24057cfc:	682b      	ldr	r3, [r5, #0]
24057cfe:	0499      	lsls	r1, r3, #18
24057d00:	f57f aeaf 	bpl.w	24057a62 <HAL_RCC_OscConfig+0x66>
24057d04:	f7fc fafc 	bl	24054300 <HAL_GetTick>
24057d08:	1b80      	subs	r0, r0, r6
24057d0a:	2802      	cmp	r0, #2
24057d0c:	d9f6      	bls.n	24057cfc <HAL_RCC_OscConfig+0x300>
24057d0e:	e6fa      	b.n	24057b06 <HAL_RCC_OscConfig+0x10a>
24057d10:	f7fc faf6 	bl	24054300 <HAL_GetTick>
24057d14:	1b80      	subs	r0, r0, r6
24057d16:	2864      	cmp	r0, #100	@ 0x64
24057d18:	f67f aeae 	bls.w	24057a78 <HAL_RCC_OscConfig+0x7c>
24057d1c:	e6f3      	b.n	24057b06 <HAL_RCC_OscConfig+0x10a>
24057d1e:	b9d3      	cbnz	r3, 24057d56 <HAL_RCC_OscConfig+0x35a>
24057d20:	6f2b      	ldr	r3, [r5, #112]	@ 0x70
24057d22:	f241 3788 	movw	r7, #5000	@ 0x1388
24057d26:	f023 0301 	bic.w	r3, r3, #1
24057d2a:	672b      	str	r3, [r5, #112]	@ 0x70
24057d2c:	6f2b      	ldr	r3, [r5, #112]	@ 0x70
24057d2e:	f023 0380 	bic.w	r3, r3, #128	@ 0x80
24057d32:	672b      	str	r3, [r5, #112]	@ 0x70
24057d34:	6f2b      	ldr	r3, [r5, #112]	@ 0x70
24057d36:	f023 0304 	bic.w	r3, r3, #4
24057d3a:	672b      	str	r3, [r5, #112]	@ 0x70
24057d3c:	f7fc fae0 	bl	24054300 <HAL_GetTick>
24057d40:	4606      	mov	r6, r0
24057d42:	6f2b      	ldr	r3, [r5, #112]	@ 0x70
24057d44:	0798      	lsls	r0, r3, #30
24057d46:	f57f aeae 	bpl.w	24057aa6 <HAL_RCC_OscConfig+0xaa>
24057d4a:	f7fc fad9 	bl	24054300 <HAL_GetTick>
24057d4e:	1b80      	subs	r0, r0, r6
24057d50:	42b8      	cmp	r0, r7
24057d52:	d9f6      	bls.n	24057d42 <HAL_RCC_OscConfig+0x346>
24057d54:	e6d7      	b.n	24057b06 <HAL_RCC_OscConfig+0x10a>
24057d56:	2b05      	cmp	r3, #5
24057d58:	d108      	bne.n	24057d6c <HAL_RCC_OscConfig+0x370>
24057d5a:	6f2b      	ldr	r3, [r5, #112]	@ 0x70
24057d5c:	f043 0304 	orr.w	r3, r3, #4
24057d60:	672b      	str	r3, [r5, #112]	@ 0x70
24057d62:	6f2b      	ldr	r3, [r5, #112]	@ 0x70
24057d64:	f023 0380 	bic.w	r3, r3, #128	@ 0x80
24057d68:	672b      	str	r3, [r5, #112]	@ 0x70
24057d6a:	e68e      	b.n	24057a8a <HAL_RCC_OscConfig+0x8e>
24057d6c:	2b85      	cmp	r3, #133	@ 0x85
24057d6e:	6f2b      	ldr	r3, [r5, #112]	@ 0x70
24057d70:	d106      	bne.n	24057d80 <HAL_RCC_OscConfig+0x384>
24057d72:	f043 0304 	orr.w	r3, r3, #4
24057d76:	672b      	str	r3, [r5, #112]	@ 0x70
24057d78:	6f2b      	ldr	r3, [r5, #112]	@ 0x70
24057d7a:	f043 0380 	orr.w	r3, r3, #128	@ 0x80
24057d7e:	e7f3      	b.n	24057d68 <HAL_RCC_OscConfig+0x36c>
24057d80:	f023 0301 	bic.w	r3, r3, #1
24057d84:	672b      	str	r3, [r5, #112]	@ 0x70
24057d86:	6f2b      	ldr	r3, [r5, #112]	@ 0x70
24057d88:	f023 0304 	bic.w	r3, r3, #4
24057d8c:	672b      	str	r3, [r5, #112]	@ 0x70
24057d8e:	6f2b      	ldr	r3, [r5, #112]	@ 0x70
24057d90:	f023 0380 	bic.w	r3, r3, #128	@ 0x80
24057d94:	e67c      	b.n	24057a90 <HAL_RCC_OscConfig+0x94>
24057d96:	f7fc fab3 	bl	24054300 <HAL_GetTick>
24057d9a:	1b40      	subs	r0, r0, r5
24057d9c:	42b8      	cmp	r0, r7
24057d9e:	f67f ae7e 	bls.w	24057a9e <HAL_RCC_OscConfig+0xa2>
24057da2:	e6b0      	b.n	24057b06 <HAL_RCC_OscConfig+0x10a>
24057da4:	4d40      	ldr	r5, [pc, #256]	@ (24057ea8 <HAL_RCC_OscConfig+0x4ac>)
24057da6:	692b      	ldr	r3, [r5, #16]
24057da8:	f003 0338 	and.w	r3, r3, #56	@ 0x38
24057dac:	2b18      	cmp	r3, #24
24057dae:	d07d      	beq.n	24057eac <HAL_RCC_OscConfig+0x4b0>
24057db0:	682b      	ldr	r3, [r5, #0]
24057db2:	2902      	cmp	r1, #2
24057db4:	f023 7380 	bic.w	r3, r3, #16777216	@ 0x1000000
24057db8:	602b      	str	r3, [r5, #0]
24057dba:	d167      	bne.n	24057e8c <HAL_RCC_OscConfig+0x490>
24057dbc:	f7fc faa0 	bl	24054300 <HAL_GetTick>
24057dc0:	4606      	mov	r6, r0
24057dc2:	682b      	ldr	r3, [r5, #0]
24057dc4:	0199      	lsls	r1, r3, #6
24057dc6:	d45b      	bmi.n	24057e80 <HAL_RCC_OscConfig+0x484>
24057dc8:	6aab      	ldr	r3, [r5, #40]	@ 0x28
24057dca:	6aa2      	ldr	r2, [r4, #40]	@ 0x28
24057dcc:	f423 737c 	bic.w	r3, r3, #1008	@ 0x3f0
24057dd0:	f023 0303 	bic.w	r3, r3, #3
24057dd4:	4313      	orrs	r3, r2
24057dd6:	6ae2      	ldr	r2, [r4, #44]	@ 0x2c
24057dd8:	ea43 1302 	orr.w	r3, r3, r2, lsl #4
24057ddc:	62ab      	str	r3, [r5, #40]	@ 0x28
24057dde:	6b63      	ldr	r3, [r4, #52]	@ 0x34
24057de0:	6ba2      	ldr	r2, [r4, #56]	@ 0x38
24057de2:	3b01      	subs	r3, #1
24057de4:	3a01      	subs	r2, #1
24057de6:	025b      	lsls	r3, r3, #9
24057de8:	0412      	lsls	r2, r2, #16
24057dea:	b29b      	uxth	r3, r3
24057dec:	f402 02fe 	and.w	r2, r2, #8323072	@ 0x7f0000
24057df0:	4313      	orrs	r3, r2
24057df2:	6b22      	ldr	r2, [r4, #48]	@ 0x30
24057df4:	3a01      	subs	r2, #1
24057df6:	f3c2 0208 	ubfx	r2, r2, #0, #9
24057dfa:	4313      	orrs	r3, r2
24057dfc:	6be2      	ldr	r2, [r4, #60]	@ 0x3c
24057dfe:	3a01      	subs	r2, #1
24057e00:	0612      	lsls	r2, r2, #24
24057e02:	f002 42fe 	and.w	r2, r2, #2130706432	@ 0x7f000000
24057e06:	4313      	orrs	r3, r2
24057e08:	632b      	str	r3, [r5, #48]	@ 0x30
24057e0a:	6aeb      	ldr	r3, [r5, #44]	@ 0x2c
24057e0c:	f023 0301 	bic.w	r3, r3, #1
24057e10:	62eb      	str	r3, [r5, #44]	@ 0x2c
24057e12:	6b6b      	ldr	r3, [r5, #52]	@ 0x34
24057e14:	6ca2      	ldr	r2, [r4, #72]	@ 0x48
24057e16:	f423 437f 	bic.w	r3, r3, #65280	@ 0xff00
24057e1a:	f023 03f8 	bic.w	r3, r3, #248	@ 0xf8
24057e1e:	ea43 03c2 	orr.w	r3, r3, r2, lsl #3
24057e22:	636b      	str	r3, [r5, #52]	@ 0x34
24057e24:	6aeb      	ldr	r3, [r5, #44]	@ 0x2c
24057e26:	6c22      	ldr	r2, [r4, #64]	@ 0x40
24057e28:	f023 030c 	bic.w	r3, r3, #12
24057e2c:	4313      	orrs	r3, r2
24057e2e:	62eb      	str	r3, [r5, #44]	@ 0x2c
24057e30:	6aeb      	ldr	r3, [r5, #44]	@ 0x2c
24057e32:	6c62      	ldr	r2, [r4, #68]	@ 0x44
24057e34:	f023 0302 	bic.w	r3, r3, #2
24057e38:	4313      	orrs	r3, r2
24057e3a:	62eb      	str	r3, [r5, #44]	@ 0x2c
24057e3c:	6aeb      	ldr	r3, [r5, #44]	@ 0x2c
24057e3e:	f443 3380 	orr.w	r3, r3, #65536	@ 0x10000
24057e42:	62eb      	str	r3, [r5, #44]	@ 0x2c
24057e44:	6aeb      	ldr	r3, [r5, #44]	@ 0x2c
24057e46:	f443 3300 	orr.w	r3, r3, #131072	@ 0x20000
24057e4a:	62eb      	str	r3, [r5, #44]	@ 0x2c
24057e4c:	6aeb      	ldr	r3, [r5, #44]	@ 0x2c
24057e4e:	f443 2380 	orr.w	r3, r3, #262144	@ 0x40000
24057e52:	62eb      	str	r3, [r5, #44]	@ 0x2c
24057e54:	6aeb      	ldr	r3, [r5, #44]	@ 0x2c
24057e56:	f043 0301 	orr.w	r3, r3, #1
24057e5a:	62eb      	str	r3, [r5, #44]	@ 0x2c
24057e5c:	682b      	ldr	r3, [r5, #0]
24057e5e:	f043 7380 	orr.w	r3, r3, #16777216	@ 0x1000000
24057e62:	602b      	str	r3, [r5, #0]
24057e64:	f7fc fa4c 	bl	24054300 <HAL_GetTick>
24057e68:	4d0f      	ldr	r5, [pc, #60]	@ (24057ea8 <HAL_RCC_OscConfig+0x4ac>)
24057e6a:	4604      	mov	r4, r0
24057e6c:	682b      	ldr	r3, [r5, #0]
24057e6e:	019a      	lsls	r2, r3, #6
24057e70:	f53f ae1d 	bmi.w	24057aae <HAL_RCC_OscConfig+0xb2>
24057e74:	f7fc fa44 	bl	24054300 <HAL_GetTick>
24057e78:	1b00      	subs	r0, r0, r4
24057e7a:	2802      	cmp	r0, #2
24057e7c:	d9f6      	bls.n	24057e6c <HAL_RCC_OscConfig+0x470>
24057e7e:	e642      	b.n	24057b06 <HAL_RCC_OscConfig+0x10a>
24057e80:	f7fc fa3e 	bl	24054300 <HAL_GetTick>
24057e84:	1b80      	subs	r0, r0, r6
24057e86:	2802      	cmp	r0, #2
24057e88:	d99b      	bls.n	24057dc2 <HAL_RCC_OscConfig+0x3c6>
24057e8a:	e63c      	b.n	24057b06 <HAL_RCC_OscConfig+0x10a>
24057e8c:	f7fc fa38 	bl	24054300 <HAL_GetTick>
24057e90:	4604      	mov	r4, r0
24057e92:	682b      	ldr	r3, [r5, #0]
24057e94:	019b      	lsls	r3, r3, #6
24057e96:	f57f ae0a 	bpl.w	24057aae <HAL_RCC_OscConfig+0xb2>
24057e9a:	f7fc fa31 	bl	24054300 <HAL_GetTick>
24057e9e:	1b00      	subs	r0, r0, r4
24057ea0:	2802      	cmp	r0, #2
24057ea2:	d9f6      	bls.n	24057e92 <HAL_RCC_OscConfig+0x496>
24057ea4:	e62f      	b.n	24057b06 <HAL_RCC_OscConfig+0x10a>
24057ea6:	bf00      	nop
24057ea8:	58024400 	.word	0x58024400
24057eac:	2901      	cmp	r1, #1
24057eae:	6aaa      	ldr	r2, [r5, #40]	@ 0x28
24057eb0:	6b2b      	ldr	r3, [r5, #48]	@ 0x30
24057eb2:	f43f ae11 	beq.w	24057ad8 <HAL_RCC_OscConfig+0xdc>
24057eb6:	f002 0103 	and.w	r1, r2, #3
24057eba:	6aa0      	ldr	r0, [r4, #40]	@ 0x28
24057ebc:	4281      	cmp	r1, r0
24057ebe:	f47f ae0b 	bne.w	24057ad8 <HAL_RCC_OscConfig+0xdc>
24057ec2:	f3c2 1205 	ubfx	r2, r2, #4, #6
24057ec6:	6ae1      	ldr	r1, [r4, #44]	@ 0x2c
24057ec8:	428a      	cmp	r2, r1
24057eca:	f47f ae05 	bne.w	24057ad8 <HAL_RCC_OscConfig+0xdc>
24057ece:	6b22      	ldr	r2, [r4, #48]	@ 0x30
24057ed0:	f3c3 0108 	ubfx	r1, r3, #0, #9
24057ed4:	3a01      	subs	r2, #1
24057ed6:	4291      	cmp	r1, r2
24057ed8:	f47f adfe 	bne.w	24057ad8 <HAL_RCC_OscConfig+0xdc>
24057edc:	6b62      	ldr	r2, [r4, #52]	@ 0x34
24057ede:	f3c3 2146 	ubfx	r1, r3, #9, #7
24057ee2:	3a01      	subs	r2, #1
24057ee4:	4291      	cmp	r1, r2
24057ee6:	f47f adf7 	bne.w	24057ad8 <HAL_RCC_OscConfig+0xdc>
24057eea:	6ba2      	ldr	r2, [r4, #56]	@ 0x38
24057eec:	f3c3 4106 	ubfx	r1, r3, #16, #7
24057ef0:	3a01      	subs	r2, #1
24057ef2:	4291      	cmp	r1, r2
24057ef4:	f47f adf0 	bne.w	24057ad8 <HAL_RCC_OscConfig+0xdc>
24057ef8:	6be2      	ldr	r2, [r4, #60]	@ 0x3c
24057efa:	f3c3 6306 	ubfx	r3, r3, #24, #7
24057efe:	3a01      	subs	r2, #1
24057f00:	4293      	cmp	r3, r2
24057f02:	f47f ade9 	bne.w	24057ad8 <HAL_RCC_OscConfig+0xdc>
24057f06:	6b6b      	ldr	r3, [r5, #52]	@ 0x34
24057f08:	6ca2      	ldr	r2, [r4, #72]	@ 0x48
24057f0a:	f3c3 03cc 	ubfx	r3, r3, #3, #13
24057f0e:	429a      	cmp	r2, r3
24057f10:	f43f adcd 	beq.w	24057aae <HAL_RCC_OscConfig+0xb2>
24057f14:	4d0c      	ldr	r5, [pc, #48]	@ (24057f48 <HAL_RCC_OscConfig+0x54c>)
24057f16:	6aeb      	ldr	r3, [r5, #44]	@ 0x2c
24057f18:	f023 0301 	bic.w	r3, r3, #1
24057f1c:	62eb      	str	r3, [r5, #44]	@ 0x2c
24057f1e:	f7fc f9ef 	bl	24054300 <HAL_GetTick>
24057f22:	4606      	mov	r6, r0
24057f24:	f7fc f9ec 	bl	24054300 <HAL_GetTick>
24057f28:	42b0      	cmp	r0, r6
24057f2a:	d0fb      	beq.n	24057f24 <HAL_RCC_OscConfig+0x528>
24057f2c:	6b6b      	ldr	r3, [r5, #52]	@ 0x34
24057f2e:	6ca2      	ldr	r2, [r4, #72]	@ 0x48
24057f30:	f423 437f 	bic.w	r3, r3, #65280	@ 0xff00
24057f34:	f023 03f8 	bic.w	r3, r3, #248	@ 0xf8
24057f38:	ea43 03c2 	orr.w	r3, r3, r2, lsl #3
24057f3c:	636b      	str	r3, [r5, #52]	@ 0x34
24057f3e:	6aeb      	ldr	r3, [r5, #44]	@ 0x2c
24057f40:	f043 0301 	orr.w	r3, r3, #1
24057f44:	62eb      	str	r3, [r5, #44]	@ 0x2c
24057f46:	e5b2      	b.n	24057aae <HAL_RCC_OscConfig+0xb2>
24057f48:	58024400 	.word	0x58024400

24057f4c <HAL_RCC_GetSysClockFreq>:
24057f4c:	4b49      	ldr	r3, [pc, #292]	@ (24058074 <HAL_RCC_GetSysClockFreq+0x128>)
24057f4e:	691a      	ldr	r2, [r3, #16]
24057f50:	f002 0238 	and.w	r2, r2, #56	@ 0x38
24057f54:	2a10      	cmp	r2, #16
24057f56:	b530      	push	{r4, r5, lr}
24057f58:	f000 8088 	beq.w	2405806c <HAL_RCC_GetSysClockFreq+0x120>
24057f5c:	2a18      	cmp	r2, #24
24057f5e:	d00c      	beq.n	24057f7a <HAL_RCC_GetSysClockFreq+0x2e>
24057f60:	2a00      	cmp	r2, #0
24057f62:	f040 8085 	bne.w	24058070 <HAL_RCC_GetSysClockFreq+0x124>
24057f66:	681a      	ldr	r2, [r3, #0]
24057f68:	4843      	ldr	r0, [pc, #268]	@ (24058078 <HAL_RCC_GetSysClockFreq+0x12c>)
24057f6a:	f012 0f20 	tst.w	r2, #32
24057f6e:	d003      	beq.n	24057f78 <HAL_RCC_GetSysClockFreq+0x2c>
24057f70:	681b      	ldr	r3, [r3, #0]
24057f72:	f3c3 03c1 	ubfx	r3, r3, #3, #2
24057f76:	40d8      	lsrs	r0, r3
24057f78:	bd30      	pop	{r4, r5, pc}
24057f7a:	6a99      	ldr	r1, [r3, #40]	@ 0x28
24057f7c:	6a9d      	ldr	r5, [r3, #40]	@ 0x28
24057f7e:	6adc      	ldr	r4, [r3, #44]	@ 0x2c
24057f80:	f415 7f7c 	tst.w	r5, #1008	@ 0x3f0
24057f84:	f3c5 1005 	ubfx	r0, r5, #4, #6
24057f88:	6b5a      	ldr	r2, [r3, #52]	@ 0x34
24057f8a:	d0f5      	beq.n	24057f78 <HAL_RCC_GetSysClockFreq+0x2c>
24057f8c:	f3c2 02cc 	ubfx	r2, r2, #3, #13
24057f90:	f004 0401 	and.w	r4, r4, #1
24057f94:	f001 0103 	and.w	r1, r1, #3
24057f98:	ee07 0a90 	vmov	s15, r0
24057f9c:	4362      	muls	r2, r4
24057f9e:	eeb7 6a00 	vmov.f32	s12, #112	@ 0x3f800000  1.0
24057fa2:	2901      	cmp	r1, #1
24057fa4:	eeb8 7ae7 	vcvt.f32.s32	s14, s15
24057fa8:	ee06 2a90 	vmov	s13, r2
24057fac:	eefa 6ae9 	vcvt.f32.s32	s13, s13, #13
24057fb0:	d04e      	beq.n	24058050 <HAL_RCC_GetSysClockFreq+0x104>
24057fb2:	2902      	cmp	r1, #2
24057fb4:	d03e      	beq.n	24058034 <HAL_RCC_GetSysClockFreq+0xe8>
24057fb6:	2900      	cmp	r1, #0
24057fb8:	d14a      	bne.n	24058050 <HAL_RCC_GetSysClockFreq+0x104>
24057fba:	681a      	ldr	r2, [r3, #0]
24057fbc:	0692      	lsls	r2, r2, #26
24057fbe:	d527      	bpl.n	24058010 <HAL_RCC_GetSysClockFreq+0xc4>
24057fc0:	6819      	ldr	r1, [r3, #0]
24057fc2:	4a2d      	ldr	r2, [pc, #180]	@ (24058078 <HAL_RCC_GetSysClockFreq+0x12c>)
24057fc4:	f3c1 01c1 	ubfx	r1, r1, #3, #2
24057fc8:	6b1b      	ldr	r3, [r3, #48]	@ 0x30
24057fca:	40ca      	lsrs	r2, r1
24057fcc:	f3c3 0308 	ubfx	r3, r3, #0, #9
24057fd0:	ee07 2a90 	vmov	s15, r2
24057fd4:	eef8 5ae7 	vcvt.f32.s32	s11, s15
24057fd8:	eec5 7a87 	vdiv.f32	s15, s11, s14
24057fdc:	ee07 3a10 	vmov	s14, r3
24057fe0:	eeb8 7ac7 	vcvt.f32.s32	s14, s14
24057fe4:	ee37 7a26 	vadd.f32	s14, s14, s13
24057fe8:	ee37 7a06 	vadd.f32	s14, s14, s12
24057fec:	ee67 7a87 	vmul.f32	s15, s15, s14
24057ff0:	4b20      	ldr	r3, [pc, #128]	@ (24058074 <HAL_RCC_GetSysClockFreq+0x128>)
24057ff2:	6b1b      	ldr	r3, [r3, #48]	@ 0x30
24057ff4:	f3c3 2346 	ubfx	r3, r3, #9, #7
24057ff8:	3301      	adds	r3, #1
24057ffa:	ee07 3a10 	vmov	s14, r3
24057ffe:	eef8 6ac7 	vcvt.f32.s32	s13, s14
24058002:	ee87 7aa6 	vdiv.f32	s14, s15, s13
24058006:	eefc 7ac7 	vcvt.u32.f32	s15, s14
2405800a:	ee17 0a90 	vmov	r0, s15
2405800e:	e7b3      	b.n	24057f78 <HAL_RCC_GetSysClockFreq+0x2c>
24058010:	6b1b      	ldr	r3, [r3, #48]	@ 0x30
24058012:	f3c3 0308 	ubfx	r3, r3, #0, #9
24058016:	ee07 3a90 	vmov	s15, r3
2405801a:	eef8 7ae7 	vcvt.f32.s32	s15, s15
2405801e:	ee77 7aa6 	vadd.f32	s15, s15, s13
24058022:	ee77 7a86 	vadd.f32	s15, s15, s12
24058026:	ed9f 6a15 	vldr	s12, [pc, #84]	@ 2405807c <HAL_RCC_GetSysClockFreq+0x130>
2405802a:	eec6 6a07 	vdiv.f32	s13, s12, s14
2405802e:	ee67 7aa6 	vmul.f32	s15, s15, s13
24058032:	e7dd      	b.n	24057ff0 <HAL_RCC_GetSysClockFreq+0xa4>
24058034:	6b1b      	ldr	r3, [r3, #48]	@ 0x30
24058036:	f3c3 0308 	ubfx	r3, r3, #0, #9
2405803a:	ee07 3a90 	vmov	s15, r3
2405803e:	eef8 7ae7 	vcvt.f32.s32	s15, s15
24058042:	ee77 7aa6 	vadd.f32	s15, s15, s13
24058046:	ee77 7a86 	vadd.f32	s15, s15, s12
2405804a:	ed9f 6a0d 	vldr	s12, [pc, #52]	@ 24058080 <HAL_RCC_GetSysClockFreq+0x134>
2405804e:	e7ec      	b.n	2405802a <HAL_RCC_GetSysClockFreq+0xde>
24058050:	6b1b      	ldr	r3, [r3, #48]	@ 0x30
24058052:	f3c3 0308 	ubfx	r3, r3, #0, #9
24058056:	ee07 3a90 	vmov	s15, r3
2405805a:	eef8 7ae7 	vcvt.f32.s32	s15, s15
2405805e:	ee77 7aa6 	vadd.f32	s15, s15, s13
24058062:	ee77 7a86 	vadd.f32	s15, s15, s12
24058066:	ed9f 6a07 	vldr	s12, [pc, #28]	@ 24058084 <HAL_RCC_GetSysClockFreq+0x138>
2405806a:	e7de      	b.n	2405802a <HAL_RCC_GetSysClockFreq+0xde>
2405806c:	4806      	ldr	r0, [pc, #24]	@ (24058088 <HAL_RCC_GetSysClockFreq+0x13c>)
2405806e:	e783      	b.n	24057f78 <HAL_RCC_GetSysClockFreq+0x2c>
24058070:	4806      	ldr	r0, [pc, #24]	@ (2405808c <HAL_RCC_GetSysClockFreq+0x140>)
24058072:	e781      	b.n	24057f78 <HAL_RCC_GetSysClockFreq+0x2c>
24058074:	58024400 	.word	0x58024400
24058078:	03d09000 	.word	0x03d09000
2405807c:	4c742400 	.word	0x4c742400
24058080:	4bb71b00 	.word	0x4bb71b00
24058084:	4a742400 	.word	0x4a742400
24058088:	016e3600 	.word	0x016e3600
2405808c:	003d0900 	.word	0x003d0900

24058090 <HAL_RCC_ClockConfig>:
24058090:	e92d 41f0 	stmdb	sp!, {r4, r5, r6, r7, r8, lr}
24058094:	460d      	mov	r5, r1
24058096:	4604      	mov	r4, r0
24058098:	b910      	cbnz	r0, 240580a0 <HAL_RCC_ClockConfig+0x10>
2405809a:	2001      	movs	r0, #1
2405809c:	e8bd 81f0 	ldmia.w	sp!, {r4, r5, r6, r7, r8, pc}
240580a0:	4a88      	ldr	r2, [pc, #544]	@ (240582c4 <HAL_RCC_ClockConfig+0x234>)
240580a2:	6813      	ldr	r3, [r2, #0]
240580a4:	f003 030f 	and.w	r3, r3, #15
240580a8:	428b      	cmp	r3, r1
240580aa:	f0c0 8093 	bcc.w	240581d4 <HAL_RCC_ClockConfig+0x144>
240580ae:	6823      	ldr	r3, [r4, #0]
240580b0:	075f      	lsls	r7, r3, #29
240580b2:	f100 809b 	bmi.w	240581ec <HAL_RCC_ClockConfig+0x15c>
240580b6:	071e      	lsls	r6, r3, #28
240580b8:	d50b      	bpl.n	240580d2 <HAL_RCC_ClockConfig+0x42>
240580ba:	4983      	ldr	r1, [pc, #524]	@ (240582c8 <HAL_RCC_ClockConfig+0x238>)
240580bc:	6960      	ldr	r0, [r4, #20]
240580be:	69ca      	ldr	r2, [r1, #28]
240580c0:	f002 0270 	and.w	r2, r2, #112	@ 0x70
240580c4:	4290      	cmp	r0, r2
240580c6:	d904      	bls.n	240580d2 <HAL_RCC_ClockConfig+0x42>
240580c8:	69ca      	ldr	r2, [r1, #28]
240580ca:	f022 0270 	bic.w	r2, r2, #112	@ 0x70
240580ce:	4302      	orrs	r2, r0
240580d0:	61ca      	str	r2, [r1, #28]
240580d2:	06d8      	lsls	r0, r3, #27
240580d4:	d50b      	bpl.n	240580ee <HAL_RCC_ClockConfig+0x5e>
240580d6:	497c      	ldr	r1, [pc, #496]	@ (240582c8 <HAL_RCC_ClockConfig+0x238>)
240580d8:	69a0      	ldr	r0, [r4, #24]
240580da:	69ca      	ldr	r2, [r1, #28]
240580dc:	f402 62e0 	and.w	r2, r2, #1792	@ 0x700
240580e0:	4290      	cmp	r0, r2
240580e2:	d904      	bls.n	240580ee <HAL_RCC_ClockConfig+0x5e>
240580e4:	69ca      	ldr	r2, [r1, #28]
240580e6:	f422 62e0 	bic.w	r2, r2, #1792	@ 0x700
240580ea:	4302      	orrs	r2, r0
240580ec:	61ca      	str	r2, [r1, #28]
240580ee:	0699      	lsls	r1, r3, #26
240580f0:	d50b      	bpl.n	2405810a <HAL_RCC_ClockConfig+0x7a>
240580f2:	4975      	ldr	r1, [pc, #468]	@ (240582c8 <HAL_RCC_ClockConfig+0x238>)
240580f4:	69e0      	ldr	r0, [r4, #28]
240580f6:	6a0a      	ldr	r2, [r1, #32]
240580f8:	f002 0270 	and.w	r2, r2, #112	@ 0x70
240580fc:	4290      	cmp	r0, r2
240580fe:	d904      	bls.n	2405810a <HAL_RCC_ClockConfig+0x7a>
24058100:	6a0a      	ldr	r2, [r1, #32]
24058102:	f022 0270 	bic.w	r2, r2, #112	@ 0x70
24058106:	4302      	orrs	r2, r0
24058108:	620a      	str	r2, [r1, #32]
2405810a:	079a      	lsls	r2, r3, #30
2405810c:	d50b      	bpl.n	24058126 <HAL_RCC_ClockConfig+0x96>
2405810e:	496e      	ldr	r1, [pc, #440]	@ (240582c8 <HAL_RCC_ClockConfig+0x238>)
24058110:	68e0      	ldr	r0, [r4, #12]
24058112:	698a      	ldr	r2, [r1, #24]
24058114:	f002 020f 	and.w	r2, r2, #15
24058118:	4290      	cmp	r0, r2
2405811a:	d904      	bls.n	24058126 <HAL_RCC_ClockConfig+0x96>
2405811c:	698a      	ldr	r2, [r1, #24]
2405811e:	f022 020f 	bic.w	r2, r2, #15
24058122:	4302      	orrs	r2, r0
24058124:	618a      	str	r2, [r1, #24]
24058126:	07df      	lsls	r7, r3, #31
24058128:	d46e      	bmi.n	24058208 <HAL_RCC_ClockConfig+0x178>
2405812a:	6823      	ldr	r3, [r4, #0]
2405812c:	079e      	lsls	r6, r3, #30
2405812e:	f100 80a1 	bmi.w	24058274 <HAL_RCC_ClockConfig+0x1e4>
24058132:	4964      	ldr	r1, [pc, #400]	@ (240582c4 <HAL_RCC_ClockConfig+0x234>)
24058134:	680a      	ldr	r2, [r1, #0]
24058136:	f002 020f 	and.w	r2, r2, #15
2405813a:	42aa      	cmp	r2, r5
2405813c:	f200 80a8 	bhi.w	24058290 <HAL_RCC_ClockConfig+0x200>
24058140:	0758      	lsls	r0, r3, #29
24058142:	f100 80b1 	bmi.w	240582a8 <HAL_RCC_ClockConfig+0x218>
24058146:	0719      	lsls	r1, r3, #28
24058148:	d50b      	bpl.n	24058162 <HAL_RCC_ClockConfig+0xd2>
2405814a:	495f      	ldr	r1, [pc, #380]	@ (240582c8 <HAL_RCC_ClockConfig+0x238>)
2405814c:	6960      	ldr	r0, [r4, #20]
2405814e:	69ca      	ldr	r2, [r1, #28]
24058150:	f002 0270 	and.w	r2, r2, #112	@ 0x70
24058154:	4290      	cmp	r0, r2
24058156:	d204      	bcs.n	24058162 <HAL_RCC_ClockConfig+0xd2>
24058158:	69ca      	ldr	r2, [r1, #28]
2405815a:	f022 0270 	bic.w	r2, r2, #112	@ 0x70
2405815e:	4302      	orrs	r2, r0
24058160:	61ca      	str	r2, [r1, #28]
24058162:	06da      	lsls	r2, r3, #27
24058164:	d50b      	bpl.n	2405817e <HAL_RCC_ClockConfig+0xee>
24058166:	4958      	ldr	r1, [pc, #352]	@ (240582c8 <HAL_RCC_ClockConfig+0x238>)
24058168:	69a0      	ldr	r0, [r4, #24]
2405816a:	69ca      	ldr	r2, [r1, #28]
2405816c:	f402 62e0 	and.w	r2, r2, #1792	@ 0x700
24058170:	4290      	cmp	r0, r2
24058172:	d204      	bcs.n	2405817e <HAL_RCC_ClockConfig+0xee>
24058174:	69ca      	ldr	r2, [r1, #28]
24058176:	f422 62e0 	bic.w	r2, r2, #1792	@ 0x700
2405817a:	4302      	orrs	r2, r0
2405817c:	61ca      	str	r2, [r1, #28]
2405817e:	069b      	lsls	r3, r3, #26
24058180:	d50b      	bpl.n	2405819a <HAL_RCC_ClockConfig+0x10a>
24058182:	4a51      	ldr	r2, [pc, #324]	@ (240582c8 <HAL_RCC_ClockConfig+0x238>)
24058184:	69e1      	ldr	r1, [r4, #28]
24058186:	6a13      	ldr	r3, [r2, #32]
24058188:	f003 0370 	and.w	r3, r3, #112	@ 0x70
2405818c:	4299      	cmp	r1, r3
2405818e:	d204      	bcs.n	2405819a <HAL_RCC_ClockConfig+0x10a>
24058190:	6a13      	ldr	r3, [r2, #32]
24058192:	f023 0370 	bic.w	r3, r3, #112	@ 0x70
24058196:	430b      	orrs	r3, r1
24058198:	6213      	str	r3, [r2, #32]
2405819a:	f7ff fed7 	bl	24057f4c <HAL_RCC_GetSysClockFreq>
2405819e:	494a      	ldr	r1, [pc, #296]	@ (240582c8 <HAL_RCC_ClockConfig+0x238>)
240581a0:	4a4a      	ldr	r2, [pc, #296]	@ (240582cc <HAL_RCC_ClockConfig+0x23c>)
240581a2:	698b      	ldr	r3, [r1, #24]
240581a4:	f3c3 2303 	ubfx	r3, r3, #8, #4
240581a8:	5cd3      	ldrb	r3, [r2, r3]
240581aa:	f003 031f 	and.w	r3, r3, #31
240581ae:	40d8      	lsrs	r0, r3
240581b0:	698b      	ldr	r3, [r1, #24]
240581b2:	f003 030f 	and.w	r3, r3, #15
240581b6:	5cd3      	ldrb	r3, [r2, r3]
240581b8:	4a45      	ldr	r2, [pc, #276]	@ (240582d0 <HAL_RCC_ClockConfig+0x240>)
240581ba:	f003 031f 	and.w	r3, r3, #31
240581be:	fa20 f303 	lsr.w	r3, r0, r3
240581c2:	6013      	str	r3, [r2, #0]
240581c4:	4b43      	ldr	r3, [pc, #268]	@ (240582d4 <HAL_RCC_ClockConfig+0x244>)
240581c6:	6018      	str	r0, [r3, #0]
240581c8:	4b43      	ldr	r3, [pc, #268]	@ (240582d8 <HAL_RCC_ClockConfig+0x248>)
240581ca:	e8bd 41f0 	ldmia.w	sp!, {r4, r5, r6, r7, r8, lr}
240581ce:	6818      	ldr	r0, [r3, #0]
240581d0:	f7fc b836 	b.w	24054240 <HAL_InitTick>
240581d4:	6813      	ldr	r3, [r2, #0]
240581d6:	f023 030f 	bic.w	r3, r3, #15
240581da:	430b      	orrs	r3, r1
240581dc:	6013      	str	r3, [r2, #0]
240581de:	6813      	ldr	r3, [r2, #0]
240581e0:	f003 030f 	and.w	r3, r3, #15
240581e4:	428b      	cmp	r3, r1
240581e6:	f47f af58 	bne.w	2405809a <HAL_RCC_ClockConfig+0xa>
240581ea:	e760      	b.n	240580ae <HAL_RCC_ClockConfig+0x1e>
240581ec:	4936      	ldr	r1, [pc, #216]	@ (240582c8 <HAL_RCC_ClockConfig+0x238>)
240581ee:	6920      	ldr	r0, [r4, #16]
240581f0:	698a      	ldr	r2, [r1, #24]
240581f2:	f002 0270 	and.w	r2, r2, #112	@ 0x70
240581f6:	4290      	cmp	r0, r2
240581f8:	f67f af5d 	bls.w	240580b6 <HAL_RCC_ClockConfig+0x26>
240581fc:	698a      	ldr	r2, [r1, #24]
240581fe:	f022 0270 	bic.w	r2, r2, #112	@ 0x70
24058202:	4302      	orrs	r2, r0
24058204:	618a      	str	r2, [r1, #24]
24058206:	e756      	b.n	240580b6 <HAL_RCC_ClockConfig+0x26>
24058208:	4b2f      	ldr	r3, [pc, #188]	@ (240582c8 <HAL_RCC_ClockConfig+0x238>)
2405820a:	68a1      	ldr	r1, [r4, #8]
2405820c:	699a      	ldr	r2, [r3, #24]
2405820e:	f422 6270 	bic.w	r2, r2, #3840	@ 0xf00
24058212:	430a      	orrs	r2, r1
24058214:	619a      	str	r2, [r3, #24]
24058216:	6861      	ldr	r1, [r4, #4]
24058218:	681a      	ldr	r2, [r3, #0]
2405821a:	2902      	cmp	r1, #2
2405821c:	d11d      	bne.n	2405825a <HAL_RCC_ClockConfig+0x1ca>
2405821e:	f412 3f00 	tst.w	r2, #131072	@ 0x20000
24058222:	f43f af3a 	beq.w	2405809a <HAL_RCC_ClockConfig+0xa>
24058226:	691a      	ldr	r2, [r3, #16]
24058228:	f241 3888 	movw	r8, #5000	@ 0x1388
2405822c:	4f26      	ldr	r7, [pc, #152]	@ (240582c8 <HAL_RCC_ClockConfig+0x238>)
2405822e:	f022 0207 	bic.w	r2, r2, #7
24058232:	430a      	orrs	r2, r1
24058234:	611a      	str	r2, [r3, #16]
24058236:	f7fc f863 	bl	24054300 <HAL_GetTick>
2405823a:	4606      	mov	r6, r0
2405823c:	693b      	ldr	r3, [r7, #16]
2405823e:	6862      	ldr	r2, [r4, #4]
24058240:	f003 0338 	and.w	r3, r3, #56	@ 0x38
24058244:	ebb3 0fc2 	cmp.w	r3, r2, lsl #3
24058248:	f43f af6f 	beq.w	2405812a <HAL_RCC_ClockConfig+0x9a>
2405824c:	f7fc f858 	bl	24054300 <HAL_GetTick>
24058250:	1b80      	subs	r0, r0, r6
24058252:	4540      	cmp	r0, r8
24058254:	d9f2      	bls.n	2405823c <HAL_RCC_ClockConfig+0x1ac>
24058256:	2003      	movs	r0, #3
24058258:	e720      	b.n	2405809c <HAL_RCC_ClockConfig+0xc>
2405825a:	2903      	cmp	r1, #3
2405825c:	d102      	bne.n	24058264 <HAL_RCC_ClockConfig+0x1d4>
2405825e:	f012 7f00 	tst.w	r2, #33554432	@ 0x2000000
24058262:	e7de      	b.n	24058222 <HAL_RCC_ClockConfig+0x192>
24058264:	2901      	cmp	r1, #1
24058266:	d102      	bne.n	2405826e <HAL_RCC_ClockConfig+0x1de>
24058268:	f412 7f80 	tst.w	r2, #256	@ 0x100
2405826c:	e7d9      	b.n	24058222 <HAL_RCC_ClockConfig+0x192>
2405826e:	f012 0f04 	tst.w	r2, #4
24058272:	e7d6      	b.n	24058222 <HAL_RCC_ClockConfig+0x192>
24058274:	4914      	ldr	r1, [pc, #80]	@ (240582c8 <HAL_RCC_ClockConfig+0x238>)
24058276:	68e0      	ldr	r0, [r4, #12]
24058278:	698a      	ldr	r2, [r1, #24]
2405827a:	f002 020f 	and.w	r2, r2, #15
2405827e:	4290      	cmp	r0, r2
24058280:	f4bf af57 	bcs.w	24058132 <HAL_RCC_ClockConfig+0xa2>
24058284:	698a      	ldr	r2, [r1, #24]
24058286:	f022 020f 	bic.w	r2, r2, #15
2405828a:	4302      	orrs	r2, r0
2405828c:	618a      	str	r2, [r1, #24]
2405828e:	e750      	b.n	24058132 <HAL_RCC_ClockConfig+0xa2>
24058290:	680a      	ldr	r2, [r1, #0]
24058292:	f022 020f 	bic.w	r2, r2, #15
24058296:	432a      	orrs	r2, r5
24058298:	600a      	str	r2, [r1, #0]
2405829a:	680a      	ldr	r2, [r1, #0]
2405829c:	f002 020f 	and.w	r2, r2, #15
240582a0:	42aa      	cmp	r2, r5
240582a2:	f47f aefa 	bne.w	2405809a <HAL_RCC_ClockConfig+0xa>
240582a6:	e74b      	b.n	24058140 <HAL_RCC_ClockConfig+0xb0>
240582a8:	4907      	ldr	r1, [pc, #28]	@ (240582c8 <HAL_RCC_ClockConfig+0x238>)
240582aa:	6920      	ldr	r0, [r4, #16]
240582ac:	698a      	ldr	r2, [r1, #24]
240582ae:	f002 0270 	and.w	r2, r2, #112	@ 0x70
240582b2:	4290      	cmp	r0, r2
240582b4:	f4bf af47 	bcs.w	24058146 <HAL_RCC_ClockConfig+0xb6>
240582b8:	698a      	ldr	r2, [r1, #24]
240582ba:	f022 0270 	bic.w	r2, r2, #112	@ 0x70
240582be:	4302      	orrs	r2, r0
240582c0:	618a      	str	r2, [r1, #24]
240582c2:	e740      	b.n	24058146 <HAL_RCC_ClockConfig+0xb6>
240582c4:	52002000 	.word	0x52002000
240582c8:	58024400 	.word	0x58024400
240582cc:	24060236 	.word	0x24060236
240582d0:	200000a8 	.word	0x200000a8
240582d4:	200000ac 	.word	0x200000ac
240582d8:	200000b4 	.word	0x200000b4

240582dc <HAL_RCC_GetHCLKFreq>:
240582dc:	b508      	push	{r3, lr}
240582de:	f7ff fe35 	bl	24057f4c <HAL_RCC_GetSysClockFreq>
240582e2:	4a0b      	ldr	r2, [pc, #44]	@ (24058310 <HAL_RCC_GetHCLKFreq+0x34>)
240582e4:	490b      	ldr	r1, [pc, #44]	@ (24058314 <HAL_RCC_GetHCLKFreq+0x38>)
240582e6:	6993      	ldr	r3, [r2, #24]
240582e8:	6992      	ldr	r2, [r2, #24]
240582ea:	f3c3 2303 	ubfx	r3, r3, #8, #4
240582ee:	f002 020f 	and.w	r2, r2, #15
240582f2:	5ccb      	ldrb	r3, [r1, r3]
240582f4:	f003 031f 	and.w	r3, r3, #31
240582f8:	fa20 f303 	lsr.w	r3, r0, r3
240582fc:	5c88      	ldrb	r0, [r1, r2]
240582fe:	4a06      	ldr	r2, [pc, #24]	@ (24058318 <HAL_RCC_GetHCLKFreq+0x3c>)
24058300:	f000 001f 	and.w	r0, r0, #31
24058304:	fa23 f000 	lsr.w	r0, r3, r0
24058308:	6010      	str	r0, [r2, #0]
2405830a:	4a04      	ldr	r2, [pc, #16]	@ (2405831c <HAL_RCC_GetHCLKFreq+0x40>)
2405830c:	6013      	str	r3, [r2, #0]
2405830e:	bd08      	pop	{r3, pc}
24058310:	58024400 	.word	0x58024400
24058314:	24060236 	.word	0x24060236
24058318:	200000a8 	.word	0x200000a8
2405831c:	200000ac 	.word	0x200000ac

24058320 <HAL_RCC_GetPCLK1Freq>:
24058320:	b508      	push	{r3, lr}
24058322:	f7ff ffdb 	bl	240582dc <HAL_RCC_GetHCLKFreq>
24058326:	4b05      	ldr	r3, [pc, #20]	@ (2405833c <HAL_RCC_GetPCLK1Freq+0x1c>)
24058328:	4a05      	ldr	r2, [pc, #20]	@ (24058340 <HAL_RCC_GetPCLK1Freq+0x20>)
2405832a:	69db      	ldr	r3, [r3, #28]
2405832c:	f3c3 1302 	ubfx	r3, r3, #4, #3
24058330:	5cd3      	ldrb	r3, [r2, r3]
24058332:	f003 031f 	and.w	r3, r3, #31
24058336:	40d8      	lsrs	r0, r3
24058338:	bd08      	pop	{r3, pc}
2405833a:	bf00      	nop
2405833c:	58024400 	.word	0x58024400
24058340:	24060236 	.word	0x24060236

24058344 <RCCEx_PLL2_Config>:
24058344:	b5f8      	push	{r3, r4, r5, r6, r7, lr}
24058346:	4c3a      	ldr	r4, [pc, #232]	@ (24058430 <RCCEx_PLL2_Config+0xec>)
24058348:	4606      	mov	r6, r0
2405834a:	460d      	mov	r5, r1
2405834c:	6aa3      	ldr	r3, [r4, #40]	@ 0x28
2405834e:	f003 0303 	and.w	r3, r3, #3
24058352:	2b03      	cmp	r3, #3
24058354:	d069      	beq.n	2405842a <RCCEx_PLL2_Config+0xe6>
24058356:	6823      	ldr	r3, [r4, #0]
24058358:	f023 6380 	bic.w	r3, r3, #67108864	@ 0x4000000
2405835c:	6023      	str	r3, [r4, #0]
2405835e:	f7fb ffcf 	bl	24054300 <HAL_GetTick>
24058362:	4607      	mov	r7, r0
24058364:	6823      	ldr	r3, [r4, #0]
24058366:	011a      	lsls	r2, r3, #4
24058368:	d44b      	bmi.n	24058402 <RCCEx_PLL2_Config+0xbe>
2405836a:	6aa3      	ldr	r3, [r4, #40]	@ 0x28
2405836c:	6832      	ldr	r2, [r6, #0]
2405836e:	f423 337c 	bic.w	r3, r3, #258048	@ 0x3f000
24058372:	ea43 3302 	orr.w	r3, r3, r2, lsl #12
24058376:	62a3      	str	r3, [r4, #40]	@ 0x28
24058378:	68b3      	ldr	r3, [r6, #8]
2405837a:	68f2      	ldr	r2, [r6, #12]
2405837c:	3b01      	subs	r3, #1
2405837e:	3a01      	subs	r2, #1
24058380:	025b      	lsls	r3, r3, #9
24058382:	0412      	lsls	r2, r2, #16
24058384:	b29b      	uxth	r3, r3
24058386:	f402 02fe 	and.w	r2, r2, #8323072	@ 0x7f0000
2405838a:	4313      	orrs	r3, r2
2405838c:	6872      	ldr	r2, [r6, #4]
2405838e:	3a01      	subs	r2, #1
24058390:	f3c2 0208 	ubfx	r2, r2, #0, #9
24058394:	4313      	orrs	r3, r2
24058396:	6932      	ldr	r2, [r6, #16]
24058398:	3a01      	subs	r2, #1
2405839a:	0612      	lsls	r2, r2, #24
2405839c:	f002 42fe 	and.w	r2, r2, #2130706432	@ 0x7f000000
240583a0:	4313      	orrs	r3, r2
240583a2:	63a3      	str	r3, [r4, #56]	@ 0x38
240583a4:	6ae3      	ldr	r3, [r4, #44]	@ 0x2c
240583a6:	6972      	ldr	r2, [r6, #20]
240583a8:	f023 03c0 	bic.w	r3, r3, #192	@ 0xc0
240583ac:	4313      	orrs	r3, r2
240583ae:	62e3      	str	r3, [r4, #44]	@ 0x2c
240583b0:	6ae3      	ldr	r3, [r4, #44]	@ 0x2c
240583b2:	69b2      	ldr	r2, [r6, #24]
240583b4:	f023 0320 	bic.w	r3, r3, #32
240583b8:	4313      	orrs	r3, r2
240583ba:	62e3      	str	r3, [r4, #44]	@ 0x2c
240583bc:	6ae3      	ldr	r3, [r4, #44]	@ 0x2c
240583be:	f023 0310 	bic.w	r3, r3, #16
240583c2:	62e3      	str	r3, [r4, #44]	@ 0x2c
240583c4:	6be3      	ldr	r3, [r4, #60]	@ 0x3c
240583c6:	69f2      	ldr	r2, [r6, #28]
240583c8:	f423 437f 	bic.w	r3, r3, #65280	@ 0xff00
240583cc:	f023 03f8 	bic.w	r3, r3, #248	@ 0xf8
240583d0:	ea43 03c2 	orr.w	r3, r3, r2, lsl #3
240583d4:	63e3      	str	r3, [r4, #60]	@ 0x3c
240583d6:	6ae3      	ldr	r3, [r4, #44]	@ 0x2c
240583d8:	f043 0310 	orr.w	r3, r3, #16
240583dc:	62e3      	str	r3, [r4, #44]	@ 0x2c
240583de:	6ae3      	ldr	r3, [r4, #44]	@ 0x2c
240583e0:	b9b5      	cbnz	r5, 24058410 <RCCEx_PLL2_Config+0xcc>
240583e2:	f443 2300 	orr.w	r3, r3, #524288	@ 0x80000
240583e6:	62e3      	str	r3, [r4, #44]	@ 0x2c
240583e8:	4c11      	ldr	r4, [pc, #68]	@ (24058430 <RCCEx_PLL2_Config+0xec>)
240583ea:	6823      	ldr	r3, [r4, #0]
240583ec:	f043 6380 	orr.w	r3, r3, #67108864	@ 0x4000000
240583f0:	6023      	str	r3, [r4, #0]
240583f2:	f7fb ff85 	bl	24054300 <HAL_GetTick>
240583f6:	4605      	mov	r5, r0
240583f8:	6823      	ldr	r3, [r4, #0]
240583fa:	011b      	lsls	r3, r3, #4
240583fc:	d50f      	bpl.n	2405841e <RCCEx_PLL2_Config+0xda>
240583fe:	2000      	movs	r0, #0
24058400:	e005      	b.n	2405840e <RCCEx_PLL2_Config+0xca>
24058402:	f7fb ff7d 	bl	24054300 <HAL_GetTick>
24058406:	1bc0      	subs	r0, r0, r7
24058408:	2802      	cmp	r0, #2
2405840a:	d9ab      	bls.n	24058364 <RCCEx_PLL2_Config+0x20>
2405840c:	2003      	movs	r0, #3
2405840e:	bdf8      	pop	{r3, r4, r5, r6, r7, pc}
24058410:	2d01      	cmp	r5, #1
24058412:	bf0c      	ite	eq
24058414:	f443 1380 	orreq.w	r3, r3, #1048576	@ 0x100000
24058418:	f443 1300 	orrne.w	r3, r3, #2097152	@ 0x200000
2405841c:	e7e3      	b.n	240583e6 <RCCEx_PLL2_Config+0xa2>
2405841e:	f7fb ff6f 	bl	24054300 <HAL_GetTick>
24058422:	1b40      	subs	r0, r0, r5
24058424:	2802      	cmp	r0, #2
24058426:	d9e7      	bls.n	240583f8 <RCCEx_PLL2_Config+0xb4>
24058428:	e7f0      	b.n	2405840c <RCCEx_PLL2_Config+0xc8>
2405842a:	2001      	movs	r0, #1
2405842c:	e7ef      	b.n	2405840e <RCCEx_PLL2_Config+0xca>
2405842e:	bf00      	nop
24058430:	58024400 	.word	0x58024400

24058434 <RCCEx_PLL3_Config>:
24058434:	b5f8      	push	{r3, r4, r5, r6, r7, lr}
24058436:	4c3a      	ldr	r4, [pc, #232]	@ (24058520 <RCCEx_PLL3_Config+0xec>)
24058438:	4606      	mov	r6, r0
2405843a:	460d      	mov	r5, r1
2405843c:	6aa3      	ldr	r3, [r4, #40]	@ 0x28
2405843e:	f003 0303 	and.w	r3, r3, #3
24058442:	2b03      	cmp	r3, #3
24058444:	d069      	beq.n	2405851a <RCCEx_PLL3_Config+0xe6>
24058446:	6823      	ldr	r3, [r4, #0]
24058448:	f023 5380 	bic.w	r3, r3, #268435456	@ 0x10000000
2405844c:	6023      	str	r3, [r4, #0]
2405844e:	f7fb ff57 	bl	24054300 <HAL_GetTick>
24058452:	4607      	mov	r7, r0
24058454:	6823      	ldr	r3, [r4, #0]
24058456:	009a      	lsls	r2, r3, #2
24058458:	d44b      	bmi.n	240584f2 <RCCEx_PLL3_Config+0xbe>
2405845a:	6aa3      	ldr	r3, [r4, #40]	@ 0x28
2405845c:	6832      	ldr	r2, [r6, #0]
2405845e:	f023 737c 	bic.w	r3, r3, #66060288	@ 0x3f00000
24058462:	ea43 5302 	orr.w	r3, r3, r2, lsl #20
24058466:	62a3      	str	r3, [r4, #40]	@ 0x28
24058468:	68b3      	ldr	r3, [r6, #8]
2405846a:	68f2      	ldr	r2, [r6, #12]
2405846c:	3b01      	subs	r3, #1
2405846e:	3a01      	subs	r2, #1
24058470:	025b      	lsls	r3, r3, #9
24058472:	0412      	lsls	r2, r2, #16
24058474:	b29b      	uxth	r3, r3
24058476:	f402 02fe 	and.w	r2, r2, #8323072	@ 0x7f0000
2405847a:	4313      	orrs	r3, r2
2405847c:	6872      	ldr	r2, [r6, #4]
2405847e:	3a01      	subs	r2, #1
24058480:	f3c2 0208 	ubfx	r2, r2, #0, #9
24058484:	4313      	orrs	r3, r2
24058486:	6932      	ldr	r2, [r6, #16]
24058488:	3a01      	subs	r2, #1
2405848a:	0612      	lsls	r2, r2, #24
2405848c:	f002 42fe 	and.w	r2, r2, #2130706432	@ 0x7f000000
24058490:	4313      	orrs	r3, r2
24058492:	6423      	str	r3, [r4, #64]	@ 0x40
24058494:	6ae3      	ldr	r3, [r4, #44]	@ 0x2c
24058496:	6972      	ldr	r2, [r6, #20]
24058498:	f423 6340 	bic.w	r3, r3, #3072	@ 0xc00
2405849c:	4313      	orrs	r3, r2
2405849e:	62e3      	str	r3, [r4, #44]	@ 0x2c
240584a0:	6ae3      	ldr	r3, [r4, #44]	@ 0x2c
240584a2:	69b2      	ldr	r2, [r6, #24]
240584a4:	f423 7300 	bic.w	r3, r3, #512	@ 0x200
240584a8:	4313      	orrs	r3, r2
240584aa:	62e3      	str	r3, [r4, #44]	@ 0x2c
240584ac:	6ae3      	ldr	r3, [r4, #44]	@ 0x2c
240584ae:	f423 7380 	bic.w	r3, r3, #256	@ 0x100
240584b2:	62e3      	str	r3, [r4, #44]	@ 0x2c
240584b4:	6c63      	ldr	r3, [r4, #68]	@ 0x44
240584b6:	69f2      	ldr	r2, [r6, #28]
240584b8:	f423 437f 	bic.w	r3, r3, #65280	@ 0xff00
240584bc:	f023 03f8 	bic.w	r3, r3, #248	@ 0xf8
240584c0:	ea43 03c2 	orr.w	r3, r3, r2, lsl #3
240584c4:	6463      	str	r3, [r4, #68]	@ 0x44
240584c6:	6ae3      	ldr	r3, [r4, #44]	@ 0x2c
240584c8:	f443 7380 	orr.w	r3, r3, #256	@ 0x100
240584cc:	62e3      	str	r3, [r4, #44]	@ 0x2c
240584ce:	6ae3      	ldr	r3, [r4, #44]	@ 0x2c
240584d0:	b9b5      	cbnz	r5, 24058500 <RCCEx_PLL3_Config+0xcc>
240584d2:	f443 0380 	orr.w	r3, r3, #4194304	@ 0x400000
240584d6:	62e3      	str	r3, [r4, #44]	@ 0x2c
240584d8:	4c11      	ldr	r4, [pc, #68]	@ (24058520 <RCCEx_PLL3_Config+0xec>)
240584da:	6823      	ldr	r3, [r4, #0]
240584dc:	f043 5380 	orr.w	r3, r3, #268435456	@ 0x10000000
240584e0:	6023      	str	r3, [r4, #0]
240584e2:	f7fb ff0d 	bl	24054300 <HAL_GetTick>
240584e6:	4605      	mov	r5, r0
240584e8:	6823      	ldr	r3, [r4, #0]
240584ea:	009b      	lsls	r3, r3, #2
240584ec:	d50f      	bpl.n	2405850e <RCCEx_PLL3_Config+0xda>
240584ee:	2000      	movs	r0, #0
240584f0:	e005      	b.n	240584fe <RCCEx_PLL3_Config+0xca>
240584f2:	f7fb ff05 	bl	24054300 <HAL_GetTick>
240584f6:	1bc0      	subs	r0, r0, r7
240584f8:	2802      	cmp	r0, #2
240584fa:	d9ab      	bls.n	24058454 <RCCEx_PLL3_Config+0x20>
240584fc:	2003      	movs	r0, #3
240584fe:	bdf8      	pop	{r3, r4, r5, r6, r7, pc}
24058500:	2d01      	cmp	r5, #1
24058502:	bf0c      	ite	eq
24058504:	f443 0300 	orreq.w	r3, r3, #8388608	@ 0x800000
24058508:	f043 7380 	orrne.w	r3, r3, #16777216	@ 0x1000000
2405850c:	e7e3      	b.n	240584d6 <RCCEx_PLL3_Config+0xa2>
2405850e:	f7fb fef7 	bl	24054300 <HAL_GetTick>
24058512:	1b40      	subs	r0, r0, r5
24058514:	2802      	cmp	r0, #2
24058516:	d9e7      	bls.n	240584e8 <RCCEx_PLL3_Config+0xb4>
24058518:	e7f0      	b.n	240584fc <RCCEx_PLL3_Config+0xc8>
2405851a:	2001      	movs	r0, #1
2405851c:	e7ef      	b.n	240584fe <RCCEx_PLL3_Config+0xca>
2405851e:	bf00      	nop
24058520:	58024400 	.word	0x58024400

24058524 <HAL_RCCEx_PeriphCLKConfig>:
24058524:	e92d 43f8 	stmdb	sp!, {r3, r4, r5, r6, r7, r8, r9, lr}
24058528:	6803      	ldr	r3, [r0, #0]
2405852a:	4605      	mov	r5, r0
2405852c:	0119      	lsls	r1, r3, #4
2405852e:	d51e      	bpl.n	2405856e <HAL_RCCEx_PeriphCLKConfig+0x4a>
24058530:	6ec3      	ldr	r3, [r0, #108]	@ 0x6c
24058532:	f5b3 1f00 	cmp.w	r3, #2097152	@ 0x200000
24058536:	d02a      	beq.n	2405858e <HAL_RCCEx_PeriphCLKConfig+0x6a>
24058538:	d80f      	bhi.n	2405855a <HAL_RCCEx_PeriphCLKConfig+0x36>
2405853a:	b1d3      	cbz	r3, 24058572 <HAL_RCCEx_PeriphCLKConfig+0x4e>
2405853c:	f5b3 1f80 	cmp.w	r3, #1048576	@ 0x100000
24058540:	d01d      	beq.n	2405857e <HAL_RCCEx_PeriphCLKConfig+0x5a>
24058542:	2601      	movs	r6, #1
24058544:	682b      	ldr	r3, [r5, #0]
24058546:	05da      	lsls	r2, r3, #23
24058548:	d54f      	bpl.n	240585ea <HAL_RCCEx_PeriphCLKConfig+0xc6>
2405854a:	6dab      	ldr	r3, [r5, #88]	@ 0x58
2405854c:	2b04      	cmp	r3, #4
2405854e:	d84b      	bhi.n	240585e8 <HAL_RCCEx_PeriphCLKConfig+0xc4>
24058550:	e8df f003 	tbb	[pc, r3]
24058554:	27443d22 	.word	0x27443d22
24058558:	27          	.byte	0x27
24058559:	00          	.byte	0x00
2405855a:	f5b3 1f40 	cmp.w	r3, #3145728	@ 0x300000
2405855e:	d1f0      	bne.n	24058542 <HAL_RCCEx_PeriphCLKConfig+0x1e>
24058560:	4a98      	ldr	r2, [pc, #608]	@ (240587c4 <HAL_RCCEx_PeriphCLKConfig+0x2a0>)
24058562:	6ee9      	ldr	r1, [r5, #108]	@ 0x6c
24058564:	6d13      	ldr	r3, [r2, #80]	@ 0x50
24058566:	f423 1340 	bic.w	r3, r3, #3145728	@ 0x300000
2405856a:	430b      	orrs	r3, r1
2405856c:	6513      	str	r3, [r2, #80]	@ 0x50
2405856e:	2600      	movs	r6, #0
24058570:	e7e8      	b.n	24058544 <HAL_RCCEx_PeriphCLKConfig+0x20>
24058572:	4a94      	ldr	r2, [pc, #592]	@ (240587c4 <HAL_RCCEx_PeriphCLKConfig+0x2a0>)
24058574:	6ad3      	ldr	r3, [r2, #44]	@ 0x2c
24058576:	f443 3300 	orr.w	r3, r3, #131072	@ 0x20000
2405857a:	62d3      	str	r3, [r2, #44]	@ 0x2c
2405857c:	e7f0      	b.n	24058560 <HAL_RCCEx_PeriphCLKConfig+0x3c>
2405857e:	2102      	movs	r1, #2
24058580:	3008      	adds	r0, #8
24058582:	f7ff fedf 	bl	24058344 <RCCEx_PLL2_Config>
24058586:	4606      	mov	r6, r0
24058588:	2800      	cmp	r0, #0
2405858a:	d1db      	bne.n	24058544 <HAL_RCCEx_PeriphCLKConfig+0x20>
2405858c:	e7e8      	b.n	24058560 <HAL_RCCEx_PeriphCLKConfig+0x3c>
2405858e:	2102      	movs	r1, #2
24058590:	3028      	adds	r0, #40	@ 0x28
24058592:	f7ff ff4f 	bl	24058434 <RCCEx_PLL3_Config>
24058596:	e7f6      	b.n	24058586 <HAL_RCCEx_PeriphCLKConfig+0x62>
24058598:	4a8a      	ldr	r2, [pc, #552]	@ (240587c4 <HAL_RCCEx_PeriphCLKConfig+0x2a0>)
2405859a:	6ad3      	ldr	r3, [r2, #44]	@ 0x2c
2405859c:	f443 3300 	orr.w	r3, r3, #131072	@ 0x20000
240585a0:	62d3      	str	r3, [r2, #44]	@ 0x2c
240585a2:	4634      	mov	r4, r6
240585a4:	bb1c      	cbnz	r4, 240585ee <HAL_RCCEx_PeriphCLKConfig+0xca>
240585a6:	4a87      	ldr	r2, [pc, #540]	@ (240587c4 <HAL_RCCEx_PeriphCLKConfig+0x2a0>)
240585a8:	6da9      	ldr	r1, [r5, #88]	@ 0x58
240585aa:	6d13      	ldr	r3, [r2, #80]	@ 0x50
240585ac:	f023 0307 	bic.w	r3, r3, #7
240585b0:	430b      	orrs	r3, r1
240585b2:	6513      	str	r3, [r2, #80]	@ 0x50
240585b4:	682b      	ldr	r3, [r5, #0]
240585b6:	059b      	lsls	r3, r3, #22
240585b8:	d52a      	bpl.n	24058610 <HAL_RCCEx_PeriphCLKConfig+0xec>
240585ba:	6deb      	ldr	r3, [r5, #92]	@ 0x5c
240585bc:	2b80      	cmp	r3, #128	@ 0x80
240585be:	d044      	beq.n	2405864a <HAL_RCCEx_PeriphCLKConfig+0x126>
240585c0:	d817      	bhi.n	240585f2 <HAL_RCCEx_PeriphCLKConfig+0xce>
240585c2:	b3ab      	cbz	r3, 24058630 <HAL_RCCEx_PeriphCLKConfig+0x10c>
240585c4:	2b40      	cmp	r3, #64	@ 0x40
240585c6:	d039      	beq.n	2405863c <HAL_RCCEx_PeriphCLKConfig+0x118>
240585c8:	2601      	movs	r6, #1
240585ca:	4634      	mov	r4, r6
240585cc:	e020      	b.n	24058610 <HAL_RCCEx_PeriphCLKConfig+0xec>
240585ce:	2100      	movs	r1, #0
240585d0:	f105 0008 	add.w	r0, r5, #8
240585d4:	f7ff feb6 	bl	24058344 <RCCEx_PLL2_Config>
240585d8:	4604      	mov	r4, r0
240585da:	e7e3      	b.n	240585a4 <HAL_RCCEx_PeriphCLKConfig+0x80>
240585dc:	2100      	movs	r1, #0
240585de:	f105 0028 	add.w	r0, r5, #40	@ 0x28
240585e2:	f7ff ff27 	bl	24058434 <RCCEx_PLL3_Config>
240585e6:	e7f7      	b.n	240585d8 <HAL_RCCEx_PeriphCLKConfig+0xb4>
240585e8:	2601      	movs	r6, #1
240585ea:	4634      	mov	r4, r6
240585ec:	e7e2      	b.n	240585b4 <HAL_RCCEx_PeriphCLKConfig+0x90>
240585ee:	4626      	mov	r6, r4
240585f0:	e7e0      	b.n	240585b4 <HAL_RCCEx_PeriphCLKConfig+0x90>
240585f2:	f023 0240 	bic.w	r2, r3, #64	@ 0x40
240585f6:	f5b2 7f80 	cmp.w	r2, #256	@ 0x100
240585fa:	d001      	beq.n	24058600 <HAL_RCCEx_PeriphCLKConfig+0xdc>
240585fc:	2bc0      	cmp	r3, #192	@ 0xc0
240585fe:	d1e3      	bne.n	240585c8 <HAL_RCCEx_PeriphCLKConfig+0xa4>
24058600:	bb4c      	cbnz	r4, 24058656 <HAL_RCCEx_PeriphCLKConfig+0x132>
24058602:	4a70      	ldr	r2, [pc, #448]	@ (240587c4 <HAL_RCCEx_PeriphCLKConfig+0x2a0>)
24058604:	6de9      	ldr	r1, [r5, #92]	@ 0x5c
24058606:	6d13      	ldr	r3, [r2, #80]	@ 0x50
24058608:	f423 73e0 	bic.w	r3, r3, #448	@ 0x1c0
2405860c:	430b      	orrs	r3, r1
2405860e:	6513      	str	r3, [r2, #80]	@ 0x50
24058610:	682b      	ldr	r3, [r5, #0]
24058612:	055f      	lsls	r7, r3, #21
24058614:	d531      	bpl.n	2405867a <HAL_RCCEx_PeriphCLKConfig+0x156>
24058616:	6e2b      	ldr	r3, [r5, #96]	@ 0x60
24058618:	f5b3 6f80 	cmp.w	r3, #1024	@ 0x400
2405861c:	d047      	beq.n	240586ae <HAL_RCCEx_PeriphCLKConfig+0x18a>
2405861e:	d81c      	bhi.n	2405865a <HAL_RCCEx_PeriphCLKConfig+0x136>
24058620:	2b00      	cmp	r3, #0
24058622:	d037      	beq.n	24058694 <HAL_RCCEx_PeriphCLKConfig+0x170>
24058624:	f5b3 7f00 	cmp.w	r3, #512	@ 0x200
24058628:	d03a      	beq.n	240586a0 <HAL_RCCEx_PeriphCLKConfig+0x17c>
2405862a:	2601      	movs	r6, #1
2405862c:	4634      	mov	r4, r6
2405862e:	e024      	b.n	2405867a <HAL_RCCEx_PeriphCLKConfig+0x156>
24058630:	4a64      	ldr	r2, [pc, #400]	@ (240587c4 <HAL_RCCEx_PeriphCLKConfig+0x2a0>)
24058632:	6ad3      	ldr	r3, [r2, #44]	@ 0x2c
24058634:	f443 3300 	orr.w	r3, r3, #131072	@ 0x20000
24058638:	62d3      	str	r3, [r2, #44]	@ 0x2c
2405863a:	e7e1      	b.n	24058600 <HAL_RCCEx_PeriphCLKConfig+0xdc>
2405863c:	2100      	movs	r1, #0
2405863e:	f105 0008 	add.w	r0, r5, #8
24058642:	f7ff fe7f 	bl	24058344 <RCCEx_PLL2_Config>
24058646:	4604      	mov	r4, r0
24058648:	e7da      	b.n	24058600 <HAL_RCCEx_PeriphCLKConfig+0xdc>
2405864a:	2100      	movs	r1, #0
2405864c:	f105 0028 	add.w	r0, r5, #40	@ 0x28
24058650:	f7ff fef0 	bl	24058434 <RCCEx_PLL3_Config>
24058654:	e7f7      	b.n	24058646 <HAL_RCCEx_PeriphCLKConfig+0x122>
24058656:	4626      	mov	r6, r4
24058658:	e7da      	b.n	24058610 <HAL_RCCEx_PeriphCLKConfig+0xec>
2405865a:	f423 7200 	bic.w	r2, r3, #512	@ 0x200
2405865e:	f5b2 6f00 	cmp.w	r2, #2048	@ 0x800
24058662:	d002      	beq.n	2405866a <HAL_RCCEx_PeriphCLKConfig+0x146>
24058664:	f5b3 6fc0 	cmp.w	r3, #1536	@ 0x600
24058668:	d1df      	bne.n	2405862a <HAL_RCCEx_PeriphCLKConfig+0x106>
2405866a:	bb34      	cbnz	r4, 240586ba <HAL_RCCEx_PeriphCLKConfig+0x196>
2405866c:	4a55      	ldr	r2, [pc, #340]	@ (240587c4 <HAL_RCCEx_PeriphCLKConfig+0x2a0>)
2405866e:	6e29      	ldr	r1, [r5, #96]	@ 0x60
24058670:	6d13      	ldr	r3, [r2, #80]	@ 0x50
24058672:	f423 6360 	bic.w	r3, r3, #3584	@ 0xe00
24058676:	430b      	orrs	r3, r1
24058678:	6513      	str	r3, [r2, #80]	@ 0x50
2405867a:	682b      	ldr	r3, [r5, #0]
2405867c:	0198      	lsls	r0, r3, #6
2405867e:	d528      	bpl.n	240586d2 <HAL_RCCEx_PeriphCLKConfig+0x1ae>
24058680:	6ceb      	ldr	r3, [r5, #76]	@ 0x4c
24058682:	2b20      	cmp	r3, #32
24058684:	d03b      	beq.n	240586fe <HAL_RCCEx_PeriphCLKConfig+0x1da>
24058686:	d81a      	bhi.n	240586be <HAL_RCCEx_PeriphCLKConfig+0x19a>
24058688:	b1db      	cbz	r3, 240586c2 <HAL_RCCEx_PeriphCLKConfig+0x19e>
2405868a:	2b10      	cmp	r3, #16
2405868c:	d031      	beq.n	240586f2 <HAL_RCCEx_PeriphCLKConfig+0x1ce>
2405868e:	2601      	movs	r6, #1
24058690:	4634      	mov	r4, r6
24058692:	e01e      	b.n	240586d2 <HAL_RCCEx_PeriphCLKConfig+0x1ae>
24058694:	4a4b      	ldr	r2, [pc, #300]	@ (240587c4 <HAL_RCCEx_PeriphCLKConfig+0x2a0>)
24058696:	6ad3      	ldr	r3, [r2, #44]	@ 0x2c
24058698:	f443 3300 	orr.w	r3, r3, #131072	@ 0x20000
2405869c:	62d3      	str	r3, [r2, #44]	@ 0x2c
2405869e:	e7e4      	b.n	2405866a <HAL_RCCEx_PeriphCLKConfig+0x146>
240586a0:	2100      	movs	r1, #0
240586a2:	f105 0008 	add.w	r0, r5, #8
240586a6:	f7ff fe4d 	bl	24058344 <RCCEx_PLL2_Config>
240586aa:	4604      	mov	r4, r0
240586ac:	e7dd      	b.n	2405866a <HAL_RCCEx_PeriphCLKConfig+0x146>
240586ae:	2100      	movs	r1, #0
240586b0:	f105 0028 	add.w	r0, r5, #40	@ 0x28
240586b4:	f7ff febe 	bl	24058434 <RCCEx_PLL3_Config>
240586b8:	e7f7      	b.n	240586aa <HAL_RCCEx_PeriphCLKConfig+0x186>
240586ba:	4626      	mov	r6, r4
240586bc:	e7dd      	b.n	2405867a <HAL_RCCEx_PeriphCLKConfig+0x156>
240586be:	2b30      	cmp	r3, #48	@ 0x30
240586c0:	d1e5      	bne.n	2405868e <HAL_RCCEx_PeriphCLKConfig+0x16a>
240586c2:	bb1c      	cbnz	r4, 2405870c <HAL_RCCEx_PeriphCLKConfig+0x1e8>
240586c4:	4a3f      	ldr	r2, [pc, #252]	@ (240587c4 <HAL_RCCEx_PeriphCLKConfig+0x2a0>)
240586c6:	6ce9      	ldr	r1, [r5, #76]	@ 0x4c
240586c8:	6cd3      	ldr	r3, [r2, #76]	@ 0x4c
240586ca:	f023 0330 	bic.w	r3, r3, #48	@ 0x30
240586ce:	430b      	orrs	r3, r1
240586d0:	64d3      	str	r3, [r2, #76]	@ 0x4c
240586d2:	682b      	ldr	r3, [r5, #0]
240586d4:	04d9      	lsls	r1, r3, #19
240586d6:	d52a      	bpl.n	2405872e <HAL_RCCEx_PeriphCLKConfig+0x20a>
240586d8:	6e6b      	ldr	r3, [r5, #100]	@ 0x64
240586da:	f5b3 5f00 	cmp.w	r3, #8192	@ 0x2000
240586de:	d07a      	beq.n	240587d6 <HAL_RCCEx_PeriphCLKConfig+0x2b2>
240586e0:	d816      	bhi.n	24058710 <HAL_RCCEx_PeriphCLKConfig+0x1ec>
240586e2:	2b00      	cmp	r3, #0
240586e4:	d068      	beq.n	240587b8 <HAL_RCCEx_PeriphCLKConfig+0x294>
240586e6:	f5b3 5f80 	cmp.w	r3, #4096	@ 0x1000
240586ea:	d06d      	beq.n	240587c8 <HAL_RCCEx_PeriphCLKConfig+0x2a4>
240586ec:	2601      	movs	r6, #1
240586ee:	4634      	mov	r4, r6
240586f0:	e01d      	b.n	2405872e <HAL_RCCEx_PeriphCLKConfig+0x20a>
240586f2:	4a34      	ldr	r2, [pc, #208]	@ (240587c4 <HAL_RCCEx_PeriphCLKConfig+0x2a0>)
240586f4:	6ad3      	ldr	r3, [r2, #44]	@ 0x2c
240586f6:	f443 3300 	orr.w	r3, r3, #131072	@ 0x20000
240586fa:	62d3      	str	r3, [r2, #44]	@ 0x2c
240586fc:	e7e1      	b.n	240586c2 <HAL_RCCEx_PeriphCLKConfig+0x19e>
240586fe:	2102      	movs	r1, #2
24058700:	f105 0008 	add.w	r0, r5, #8
24058704:	f7ff fe1e 	bl	24058344 <RCCEx_PLL2_Config>
24058708:	4604      	mov	r4, r0
2405870a:	e7da      	b.n	240586c2 <HAL_RCCEx_PeriphCLKConfig+0x19e>
2405870c:	4626      	mov	r6, r4
2405870e:	e7e0      	b.n	240586d2 <HAL_RCCEx_PeriphCLKConfig+0x1ae>
24058710:	f5b3 5f40 	cmp.w	r3, #12288	@ 0x3000
24058714:	d002      	beq.n	2405871c <HAL_RCCEx_PeriphCLKConfig+0x1f8>
24058716:	f5b3 4f80 	cmp.w	r3, #16384	@ 0x4000
2405871a:	d1e7      	bne.n	240586ec <HAL_RCCEx_PeriphCLKConfig+0x1c8>
2405871c:	2c00      	cmp	r4, #0
2405871e:	d160      	bne.n	240587e2 <HAL_RCCEx_PeriphCLKConfig+0x2be>
24058720:	4a28      	ldr	r2, [pc, #160]	@ (240587c4 <HAL_RCCEx_PeriphCLKConfig+0x2a0>)
24058722:	6e69      	ldr	r1, [r5, #100]	@ 0x64
24058724:	6d13      	ldr	r3, [r2, #80]	@ 0x50
24058726:	f423 43e0 	bic.w	r3, r3, #28672	@ 0x7000
2405872a:	430b      	orrs	r3, r1
2405872c:	6513      	str	r3, [r2, #80]	@ 0x50
2405872e:	682b      	ldr	r3, [r5, #0]
24058730:	049a      	lsls	r2, r3, #18
24058732:	d50b      	bpl.n	2405874c <HAL_RCCEx_PeriphCLKConfig+0x228>
24058734:	6eab      	ldr	r3, [r5, #104]	@ 0x68
24058736:	f5b3 3f00 	cmp.w	r3, #131072	@ 0x20000
2405873a:	d06c      	beq.n	24058816 <HAL_RCCEx_PeriphCLKConfig+0x2f2>
2405873c:	d853      	bhi.n	240587e6 <HAL_RCCEx_PeriphCLKConfig+0x2c2>
2405873e:	2b00      	cmp	r3, #0
24058740:	d059      	beq.n	240587f6 <HAL_RCCEx_PeriphCLKConfig+0x2d2>
24058742:	f5b3 3f80 	cmp.w	r3, #65536	@ 0x10000
24058746:	d05f      	beq.n	24058808 <HAL_RCCEx_PeriphCLKConfig+0x2e4>
24058748:	2601      	movs	r6, #1
2405874a:	4634      	mov	r4, r6
2405874c:	682b      	ldr	r3, [r5, #0]
2405874e:	045b      	lsls	r3, r3, #17
24058750:	d50d      	bpl.n	2405876e <HAL_RCCEx_PeriphCLKConfig+0x24a>
24058752:	f8d5 30b0 	ldr.w	r3, [r5, #176]	@ 0xb0
24058756:	f1b3 5f00 	cmp.w	r3, #536870912	@ 0x20000000
2405875a:	f000 8082 	beq.w	24058862 <HAL_RCCEx_PeriphCLKConfig+0x33e>
2405875e:	d862      	bhi.n	24058826 <HAL_RCCEx_PeriphCLKConfig+0x302>
24058760:	2b00      	cmp	r3, #0
24058762:	d06a      	beq.n	2405883a <HAL_RCCEx_PeriphCLKConfig+0x316>
24058764:	f1b3 5f80 	cmp.w	r3, #268435456	@ 0x10000000
24058768:	d074      	beq.n	24058854 <HAL_RCCEx_PeriphCLKConfig+0x330>
2405876a:	2601      	movs	r6, #1
2405876c:	4634      	mov	r4, r6
2405876e:	682b      	ldr	r3, [r5, #0]
24058770:	041f      	lsls	r7, r3, #16
24058772:	d513      	bpl.n	2405879c <HAL_RCCEx_PeriphCLKConfig+0x278>
24058774:	6fab      	ldr	r3, [r5, #120]	@ 0x78
24058776:	f1b3 5f80 	cmp.w	r3, #268435456	@ 0x10000000
2405877a:	d07a      	beq.n	24058872 <HAL_RCCEx_PeriphCLKConfig+0x34e>
2405877c:	f1b3 5f00 	cmp.w	r3, #536870912	@ 0x20000000
24058780:	d07d      	beq.n	2405887e <HAL_RCCEx_PeriphCLKConfig+0x35a>
24058782:	2b00      	cmp	r3, #0
24058784:	f040 8082 	bne.w	2405888c <HAL_RCCEx_PeriphCLKConfig+0x368>
24058788:	2c00      	cmp	r4, #0
2405878a:	f040 8082 	bne.w	24058892 <HAL_RCCEx_PeriphCLKConfig+0x36e>
2405878e:	4a0d      	ldr	r2, [pc, #52]	@ (240587c4 <HAL_RCCEx_PeriphCLKConfig+0x2a0>)
24058790:	6fa9      	ldr	r1, [r5, #120]	@ 0x78
24058792:	6d13      	ldr	r3, [r2, #80]	@ 0x50
24058794:	f023 5340 	bic.w	r3, r3, #805306368	@ 0x30000000
24058798:	430b      	orrs	r3, r1
2405879a:	6513      	str	r3, [r2, #80]	@ 0x50
2405879c:	682b      	ldr	r3, [r5, #0]
2405879e:	01d8      	lsls	r0, r3, #7
240587a0:	f140 8087 	bpl.w	240588b2 <HAL_RCCEx_PeriphCLKConfig+0x38e>
240587a4:	6cab      	ldr	r3, [r5, #72]	@ 0x48
240587a6:	2b03      	cmp	r3, #3
240587a8:	f200 80e1 	bhi.w	2405896e <HAL_RCCEx_PeriphCLKConfig+0x44a>
240587ac:	e8df f013 	tbh	[pc, r3, lsl #1]
240587b0:	00730078 	.word	0x00730078
240587b4:	007800d8 	.word	0x007800d8
240587b8:	4a02      	ldr	r2, [pc, #8]	@ (240587c4 <HAL_RCCEx_PeriphCLKConfig+0x2a0>)
240587ba:	6ad3      	ldr	r3, [r2, #44]	@ 0x2c
240587bc:	f443 3300 	orr.w	r3, r3, #131072	@ 0x20000
240587c0:	62d3      	str	r3, [r2, #44]	@ 0x2c
240587c2:	e7ab      	b.n	2405871c <HAL_RCCEx_PeriphCLKConfig+0x1f8>
240587c4:	58024400 	.word	0x58024400
240587c8:	2100      	movs	r1, #0
240587ca:	f105 0008 	add.w	r0, r5, #8
240587ce:	f7ff fdb9 	bl	24058344 <RCCEx_PLL2_Config>
240587d2:	4604      	mov	r4, r0
240587d4:	e7a2      	b.n	2405871c <HAL_RCCEx_PeriphCLKConfig+0x1f8>
240587d6:	2100      	movs	r1, #0
240587d8:	f105 0028 	add.w	r0, r5, #40	@ 0x28
240587dc:	f7ff fe2a 	bl	24058434 <RCCEx_PLL3_Config>
240587e0:	e7f7      	b.n	240587d2 <HAL_RCCEx_PeriphCLKConfig+0x2ae>
240587e2:	4626      	mov	r6, r4
240587e4:	e7a3      	b.n	2405872e <HAL_RCCEx_PeriphCLKConfig+0x20a>
240587e6:	f423 3280 	bic.w	r2, r3, #65536	@ 0x10000
240587ea:	f5b2 2f80 	cmp.w	r2, #262144	@ 0x40000
240587ee:	d002      	beq.n	240587f6 <HAL_RCCEx_PeriphCLKConfig+0x2d2>
240587f0:	f5b3 3f40 	cmp.w	r3, #196608	@ 0x30000
240587f4:	d1a8      	bne.n	24058748 <HAL_RCCEx_PeriphCLKConfig+0x224>
240587f6:	b9a4      	cbnz	r4, 24058822 <HAL_RCCEx_PeriphCLKConfig+0x2fe>
240587f8:	4a94      	ldr	r2, [pc, #592]	@ (24058a4c <HAL_RCCEx_PeriphCLKConfig+0x528>)
240587fa:	6ea9      	ldr	r1, [r5, #104]	@ 0x68
240587fc:	6d13      	ldr	r3, [r2, #80]	@ 0x50
240587fe:	f423 23e0 	bic.w	r3, r3, #458752	@ 0x70000
24058802:	430b      	orrs	r3, r1
24058804:	6513      	str	r3, [r2, #80]	@ 0x50
24058806:	e7a1      	b.n	2405874c <HAL_RCCEx_PeriphCLKConfig+0x228>
24058808:	2101      	movs	r1, #1
2405880a:	f105 0008 	add.w	r0, r5, #8
2405880e:	f7ff fd99 	bl	24058344 <RCCEx_PLL2_Config>
24058812:	4604      	mov	r4, r0
24058814:	e7ef      	b.n	240587f6 <HAL_RCCEx_PeriphCLKConfig+0x2d2>
24058816:	2101      	movs	r1, #1
24058818:	f105 0028 	add.w	r0, r5, #40	@ 0x28
2405881c:	f7ff fe0a 	bl	24058434 <RCCEx_PLL3_Config>
24058820:	e7f7      	b.n	24058812 <HAL_RCCEx_PeriphCLKConfig+0x2ee>
24058822:	4626      	mov	r6, r4
24058824:	e792      	b.n	2405874c <HAL_RCCEx_PeriphCLKConfig+0x228>
24058826:	f1b3 4fa0 	cmp.w	r3, #1342177280	@ 0x50000000
2405882a:	d006      	beq.n	2405883a <HAL_RCCEx_PeriphCLKConfig+0x316>
2405882c:	d80f      	bhi.n	2405884e <HAL_RCCEx_PeriphCLKConfig+0x32a>
2405882e:	f1b3 5f40 	cmp.w	r3, #805306368	@ 0x30000000
24058832:	d002      	beq.n	2405883a <HAL_RCCEx_PeriphCLKConfig+0x316>
24058834:	f1b3 4f80 	cmp.w	r3, #1073741824	@ 0x40000000
24058838:	d197      	bne.n	2405876a <HAL_RCCEx_PeriphCLKConfig+0x246>
2405883a:	b9c4      	cbnz	r4, 2405886e <HAL_RCCEx_PeriphCLKConfig+0x34a>
2405883c:	4a83      	ldr	r2, [pc, #524]	@ (24058a4c <HAL_RCCEx_PeriphCLKConfig+0x528>)
2405883e:	f8d5 10b0 	ldr.w	r1, [r5, #176]	@ 0xb0
24058842:	6d93      	ldr	r3, [r2, #88]	@ 0x58
24058844:	f023 43e0 	bic.w	r3, r3, #1879048192	@ 0x70000000
24058848:	430b      	orrs	r3, r1
2405884a:	6593      	str	r3, [r2, #88]	@ 0x58
2405884c:	e78f      	b.n	2405876e <HAL_RCCEx_PeriphCLKConfig+0x24a>
2405884e:	f1b3 4fc0 	cmp.w	r3, #1610612736	@ 0x60000000
24058852:	e7f1      	b.n	24058838 <HAL_RCCEx_PeriphCLKConfig+0x314>
24058854:	2101      	movs	r1, #1
24058856:	f105 0008 	add.w	r0, r5, #8
2405885a:	f7ff fd73 	bl	24058344 <RCCEx_PLL2_Config>
2405885e:	4604      	mov	r4, r0
24058860:	e7eb      	b.n	2405883a <HAL_RCCEx_PeriphCLKConfig+0x316>
24058862:	2101      	movs	r1, #1
24058864:	f105 0028 	add.w	r0, r5, #40	@ 0x28
24058868:	f7ff fde4 	bl	24058434 <RCCEx_PLL3_Config>
2405886c:	e7f7      	b.n	2405885e <HAL_RCCEx_PeriphCLKConfig+0x33a>
2405886e:	4626      	mov	r6, r4
24058870:	e77d      	b.n	2405876e <HAL_RCCEx_PeriphCLKConfig+0x24a>
24058872:	4a76      	ldr	r2, [pc, #472]	@ (24058a4c <HAL_RCCEx_PeriphCLKConfig+0x528>)
24058874:	6ad3      	ldr	r3, [r2, #44]	@ 0x2c
24058876:	f443 3300 	orr.w	r3, r3, #131072	@ 0x20000
2405887a:	62d3      	str	r3, [r2, #44]	@ 0x2c
2405887c:	e784      	b.n	24058788 <HAL_RCCEx_PeriphCLKConfig+0x264>
2405887e:	2101      	movs	r1, #1
24058880:	f105 0008 	add.w	r0, r5, #8
24058884:	f7ff fd5e 	bl	24058344 <RCCEx_PLL2_Config>
24058888:	4604      	mov	r4, r0
2405888a:	e77d      	b.n	24058788 <HAL_RCCEx_PeriphCLKConfig+0x264>
2405888c:	2601      	movs	r6, #1
2405888e:	4634      	mov	r4, r6
24058890:	e784      	b.n	2405879c <HAL_RCCEx_PeriphCLKConfig+0x278>
24058892:	4626      	mov	r6, r4
24058894:	e782      	b.n	2405879c <HAL_RCCEx_PeriphCLKConfig+0x278>
24058896:	4a6d      	ldr	r2, [pc, #436]	@ (24058a4c <HAL_RCCEx_PeriphCLKConfig+0x528>)
24058898:	6ad3      	ldr	r3, [r2, #44]	@ 0x2c
2405889a:	f443 3300 	orr.w	r3, r3, #131072	@ 0x20000
2405889e:	62d3      	str	r3, [r2, #44]	@ 0x2c
240588a0:	2c00      	cmp	r4, #0
240588a2:	d167      	bne.n	24058974 <HAL_RCCEx_PeriphCLKConfig+0x450>
240588a4:	4a69      	ldr	r2, [pc, #420]	@ (24058a4c <HAL_RCCEx_PeriphCLKConfig+0x528>)
240588a6:	6ca9      	ldr	r1, [r5, #72]	@ 0x48
240588a8:	6cd3      	ldr	r3, [r2, #76]	@ 0x4c
240588aa:	f023 0303 	bic.w	r3, r3, #3
240588ae:	430b      	orrs	r3, r1
240588b0:	64d3      	str	r3, [r2, #76]	@ 0x4c
240588b2:	682b      	ldr	r3, [r5, #0]
240588b4:	0259      	lsls	r1, r3, #9
240588b6:	d539      	bpl.n	2405892c <HAL_RCCEx_PeriphCLKConfig+0x408>
240588b8:	4f65      	ldr	r7, [pc, #404]	@ (24058a50 <HAL_RCCEx_PeriphCLKConfig+0x52c>)
240588ba:	683b      	ldr	r3, [r7, #0]
240588bc:	f443 7380 	orr.w	r3, r3, #256	@ 0x100
240588c0:	603b      	str	r3, [r7, #0]
240588c2:	f7fb fd1d 	bl	24054300 <HAL_GetTick>
240588c6:	4680      	mov	r8, r0
240588c8:	683b      	ldr	r3, [r7, #0]
240588ca:	05da      	lsls	r2, r3, #23
240588cc:	d554      	bpl.n	24058978 <HAL_RCCEx_PeriphCLKConfig+0x454>
240588ce:	2c00      	cmp	r4, #0
240588d0:	d170      	bne.n	240589b4 <HAL_RCCEx_PeriphCLKConfig+0x490>
240588d2:	4b5e      	ldr	r3, [pc, #376]	@ (24058a4c <HAL_RCCEx_PeriphCLKConfig+0x528>)
240588d4:	f8d5 00b4 	ldr.w	r0, [r5, #180]	@ 0xb4
240588d8:	6f1a      	ldr	r2, [r3, #112]	@ 0x70
240588da:	4042      	eors	r2, r0
240588dc:	f412 7f40 	tst.w	r2, #768	@ 0x300
240588e0:	d00b      	beq.n	240588fa <HAL_RCCEx_PeriphCLKConfig+0x3d6>
240588e2:	6f1a      	ldr	r2, [r3, #112]	@ 0x70
240588e4:	6f19      	ldr	r1, [r3, #112]	@ 0x70
240588e6:	f422 7240 	bic.w	r2, r2, #768	@ 0x300
240588ea:	f441 3180 	orr.w	r1, r1, #65536	@ 0x10000
240588ee:	6719      	str	r1, [r3, #112]	@ 0x70
240588f0:	6f19      	ldr	r1, [r3, #112]	@ 0x70
240588f2:	f421 3180 	bic.w	r1, r1, #65536	@ 0x10000
240588f6:	6719      	str	r1, [r3, #112]	@ 0x70
240588f8:	671a      	str	r2, [r3, #112]	@ 0x70
240588fa:	f5b0 7f80 	cmp.w	r0, #256	@ 0x100
240588fe:	d044      	beq.n	2405898a <HAL_RCCEx_PeriphCLKConfig+0x466>
24058900:	f8d5 30b4 	ldr.w	r3, [r5, #180]	@ 0xb4
24058904:	4951      	ldr	r1, [pc, #324]	@ (24058a4c <HAL_RCCEx_PeriphCLKConfig+0x528>)
24058906:	f403 7240 	and.w	r2, r3, #768	@ 0x300
2405890a:	f5b2 7f40 	cmp.w	r2, #768	@ 0x300
2405890e:	d14d      	bne.n	240589ac <HAL_RCCEx_PeriphCLKConfig+0x488>
24058910:	6908      	ldr	r0, [r1, #16]
24058912:	4a50      	ldr	r2, [pc, #320]	@ (24058a54 <HAL_RCCEx_PeriphCLKConfig+0x530>)
24058914:	f420 507c 	bic.w	r0, r0, #16128	@ 0x3f00
24058918:	ea02 1213 	and.w	r2, r2, r3, lsr #4
2405891c:	4302      	orrs	r2, r0
2405891e:	610a      	str	r2, [r1, #16]
24058920:	f3c3 030b 	ubfx	r3, r3, #0, #12
24058924:	4a49      	ldr	r2, [pc, #292]	@ (24058a4c <HAL_RCCEx_PeriphCLKConfig+0x528>)
24058926:	6f11      	ldr	r1, [r2, #112]	@ 0x70
24058928:	430b      	orrs	r3, r1
2405892a:	6713      	str	r3, [r2, #112]	@ 0x70
2405892c:	682b      	ldr	r3, [r5, #0]
2405892e:	07d8      	lsls	r0, r3, #31
24058930:	d50a      	bpl.n	24058948 <HAL_RCCEx_PeriphCLKConfig+0x424>
24058932:	f8d5 3084 	ldr.w	r3, [r5, #132]	@ 0x84
24058936:	2b10      	cmp	r3, #16
24058938:	d055      	beq.n	240589e6 <HAL_RCCEx_PeriphCLKConfig+0x4c2>
2405893a:	d83d      	bhi.n	240589b8 <HAL_RCCEx_PeriphCLKConfig+0x494>
2405893c:	2b00      	cmp	r3, #0
2405893e:	d041      	beq.n	240589c4 <HAL_RCCEx_PeriphCLKConfig+0x4a0>
24058940:	2b08      	cmp	r3, #8
24058942:	d049      	beq.n	240589d8 <HAL_RCCEx_PeriphCLKConfig+0x4b4>
24058944:	2601      	movs	r6, #1
24058946:	4634      	mov	r4, r6
24058948:	682b      	ldr	r3, [r5, #0]
2405894a:	0799      	lsls	r1, r3, #30
2405894c:	d562      	bpl.n	24058a14 <HAL_RCCEx_PeriphCLKConfig+0x4f0>
2405894e:	f8d5 3080 	ldr.w	r3, [r5, #128]	@ 0x80
24058952:	2b05      	cmp	r3, #5
24058954:	d874      	bhi.n	24058a40 <HAL_RCCEx_PeriphCLKConfig+0x51c>
24058956:	e8df f003 	tbb	[pc, r3]
2405895a:	4e54      	.short	0x4e54
2405895c:	5454546d 	.word	0x5454546d
24058960:	2102      	movs	r1, #2
24058962:	f105 0008 	add.w	r0, r5, #8
24058966:	f7ff fced 	bl	24058344 <RCCEx_PLL2_Config>
2405896a:	4604      	mov	r4, r0
2405896c:	e798      	b.n	240588a0 <HAL_RCCEx_PeriphCLKConfig+0x37c>
2405896e:	2601      	movs	r6, #1
24058970:	4634      	mov	r4, r6
24058972:	e79e      	b.n	240588b2 <HAL_RCCEx_PeriphCLKConfig+0x38e>
24058974:	4626      	mov	r6, r4
24058976:	e79c      	b.n	240588b2 <HAL_RCCEx_PeriphCLKConfig+0x38e>
24058978:	f7fb fcc2 	bl	24054300 <HAL_GetTick>
2405897c:	eba0 0008 	sub.w	r0, r0, r8
24058980:	2864      	cmp	r0, #100	@ 0x64
24058982:	d9a1      	bls.n	240588c8 <HAL_RCCEx_PeriphCLKConfig+0x3a4>
24058984:	2603      	movs	r6, #3
24058986:	4634      	mov	r4, r6
24058988:	e7d0      	b.n	2405892c <HAL_RCCEx_PeriphCLKConfig+0x408>
2405898a:	f7fb fcb9 	bl	24054300 <HAL_GetTick>
2405898e:	f8df 80bc 	ldr.w	r8, [pc, #188]	@ 24058a4c <HAL_RCCEx_PeriphCLKConfig+0x528>
24058992:	4607      	mov	r7, r0
24058994:	f241 3988 	movw	r9, #5000	@ 0x1388
24058998:	f8d8 3070 	ldr.w	r3, [r8, #112]	@ 0x70
2405899c:	079b      	lsls	r3, r3, #30
2405899e:	d4af      	bmi.n	24058900 <HAL_RCCEx_PeriphCLKConfig+0x3dc>
240589a0:	f7fb fcae 	bl	24054300 <HAL_GetTick>
240589a4:	1bc0      	subs	r0, r0, r7
240589a6:	4548      	cmp	r0, r9
240589a8:	d9f6      	bls.n	24058998 <HAL_RCCEx_PeriphCLKConfig+0x474>
240589aa:	e7eb      	b.n	24058984 <HAL_RCCEx_PeriphCLKConfig+0x460>
240589ac:	690a      	ldr	r2, [r1, #16]
240589ae:	f422 527c 	bic.w	r2, r2, #16128	@ 0x3f00
240589b2:	e7b4      	b.n	2405891e <HAL_RCCEx_PeriphCLKConfig+0x3fa>
240589b4:	4626      	mov	r6, r4
240589b6:	e7b9      	b.n	2405892c <HAL_RCCEx_PeriphCLKConfig+0x408>
240589b8:	f023 0208 	bic.w	r2, r3, #8
240589bc:	2a20      	cmp	r2, #32
240589be:	d001      	beq.n	240589c4 <HAL_RCCEx_PeriphCLKConfig+0x4a0>
240589c0:	2b18      	cmp	r3, #24
240589c2:	d1bf      	bne.n	24058944 <HAL_RCCEx_PeriphCLKConfig+0x420>
240589c4:	b9ac      	cbnz	r4, 240589f2 <HAL_RCCEx_PeriphCLKConfig+0x4ce>
240589c6:	4a21      	ldr	r2, [pc, #132]	@ (24058a4c <HAL_RCCEx_PeriphCLKConfig+0x528>)
240589c8:	f8d5 1084 	ldr.w	r1, [r5, #132]	@ 0x84
240589cc:	6d53      	ldr	r3, [r2, #84]	@ 0x54
240589ce:	f023 0338 	bic.w	r3, r3, #56	@ 0x38
240589d2:	430b      	orrs	r3, r1
240589d4:	6553      	str	r3, [r2, #84]	@ 0x54
240589d6:	e7b7      	b.n	24058948 <HAL_RCCEx_PeriphCLKConfig+0x424>
240589d8:	2101      	movs	r1, #1
240589da:	f105 0008 	add.w	r0, r5, #8
240589de:	f7ff fcb1 	bl	24058344 <RCCEx_PLL2_Config>
240589e2:	4604      	mov	r4, r0
240589e4:	e7ee      	b.n	240589c4 <HAL_RCCEx_PeriphCLKConfig+0x4a0>
240589e6:	2101      	movs	r1, #1
240589e8:	f105 0028 	add.w	r0, r5, #40	@ 0x28
240589ec:	f7ff fd22 	bl	24058434 <RCCEx_PLL3_Config>
240589f0:	e7f7      	b.n	240589e2 <HAL_RCCEx_PeriphCLKConfig+0x4be>
240589f2:	4626      	mov	r6, r4
240589f4:	e7a8      	b.n	24058948 <HAL_RCCEx_PeriphCLKConfig+0x424>
240589f6:	2101      	movs	r1, #1
240589f8:	f105 0008 	add.w	r0, r5, #8
240589fc:	f7ff fca2 	bl	24058344 <RCCEx_PLL2_Config>
24058a00:	4604      	mov	r4, r0
24058a02:	bb04      	cbnz	r4, 24058a46 <HAL_RCCEx_PeriphCLKConfig+0x522>
24058a04:	4a11      	ldr	r2, [pc, #68]	@ (24058a4c <HAL_RCCEx_PeriphCLKConfig+0x528>)
24058a06:	f8d5 1080 	ldr.w	r1, [r5, #128]	@ 0x80
24058a0a:	6d53      	ldr	r3, [r2, #84]	@ 0x54
24058a0c:	f023 0307 	bic.w	r3, r3, #7
24058a10:	430b      	orrs	r3, r1
24058a12:	6553      	str	r3, [r2, #84]	@ 0x54
24058a14:	682b      	ldr	r3, [r5, #0]
24058a16:	075a      	lsls	r2, r3, #29
24058a18:	d52f      	bpl.n	24058a7a <HAL_RCCEx_PeriphCLKConfig+0x556>
24058a1a:	f8d5 309c 	ldr.w	r3, [r5, #156]	@ 0x9c
24058a1e:	2b05      	cmp	r3, #5
24058a20:	f200 8171 	bhi.w	24058d06 <HAL_RCCEx_PeriphCLKConfig+0x7e2>
24058a24:	e8df f013 	tbh	[pc, r3, lsl #1]
24058a28:	0018001e 	.word	0x0018001e
24058a2c:	001e0169 	.word	0x001e0169
24058a30:	001e001e 	.word	0x001e001e
24058a34:	2101      	movs	r1, #1
24058a36:	f105 0028 	add.w	r0, r5, #40	@ 0x28
24058a3a:	f7ff fcfb 	bl	24058434 <RCCEx_PLL3_Config>
24058a3e:	e7df      	b.n	24058a00 <HAL_RCCEx_PeriphCLKConfig+0x4dc>
24058a40:	2601      	movs	r6, #1
24058a42:	4634      	mov	r4, r6
24058a44:	e7e6      	b.n	24058a14 <HAL_RCCEx_PeriphCLKConfig+0x4f0>
24058a46:	4626      	mov	r6, r4
24058a48:	e7e4      	b.n	24058a14 <HAL_RCCEx_PeriphCLKConfig+0x4f0>
24058a4a:	bf00      	nop
24058a4c:	58024400 	.word	0x58024400
24058a50:	58024800 	.word	0x58024800
24058a54:	00ffffcf 	.word	0x00ffffcf
24058a58:	2101      	movs	r1, #1
24058a5a:	f105 0008 	add.w	r0, r5, #8
24058a5e:	f7ff fc71 	bl	24058344 <RCCEx_PLL2_Config>
24058a62:	4604      	mov	r4, r0
24058a64:	2c00      	cmp	r4, #0
24058a66:	f040 8151 	bne.w	24058d0c <HAL_RCCEx_PeriphCLKConfig+0x7e8>
24058a6a:	4aa9      	ldr	r2, [pc, #676]	@ (24058d10 <HAL_RCCEx_PeriphCLKConfig+0x7ec>)
24058a6c:	f8d5 109c 	ldr.w	r1, [r5, #156]	@ 0x9c
24058a70:	6d93      	ldr	r3, [r2, #88]	@ 0x58
24058a72:	f023 0307 	bic.w	r3, r3, #7
24058a76:	430b      	orrs	r3, r1
24058a78:	6593      	str	r3, [r2, #88]	@ 0x58
24058a7a:	682b      	ldr	r3, [r5, #0]
24058a7c:	069b      	lsls	r3, r3, #26
24058a7e:	d510      	bpl.n	24058aa2 <HAL_RCCEx_PeriphCLKConfig+0x57e>
24058a80:	f8d5 3098 	ldr.w	r3, [r5, #152]	@ 0x98
24058a84:	f1b3 5f00 	cmp.w	r3, #536870912	@ 0x20000000
24058a88:	f000 815e 	beq.w	24058d48 <HAL_RCCEx_PeriphCLKConfig+0x824>
24058a8c:	f200 8142 	bhi.w	24058d14 <HAL_RCCEx_PeriphCLKConfig+0x7f0>
24058a90:	2b00      	cmp	r3, #0
24058a92:	f000 8148 	beq.w	24058d26 <HAL_RCCEx_PeriphCLKConfig+0x802>
24058a96:	f1b3 5f80 	cmp.w	r3, #268435456	@ 0x10000000
24058a9a:	f000 814e 	beq.w	24058d3a <HAL_RCCEx_PeriphCLKConfig+0x816>
24058a9e:	2601      	movs	r6, #1
24058aa0:	4634      	mov	r4, r6
24058aa2:	682b      	ldr	r3, [r5, #0]
24058aa4:	065f      	lsls	r7, r3, #25
24058aa6:	d510      	bpl.n	24058aca <HAL_RCCEx_PeriphCLKConfig+0x5a6>
24058aa8:	f8d5 30a4 	ldr.w	r3, [r5, #164]	@ 0xa4
24058aac:	f5b3 6f00 	cmp.w	r3, #2048	@ 0x800
24058ab0:	f000 816c 	beq.w	24058d8c <HAL_RCCEx_PeriphCLKConfig+0x868>
24058ab4:	f200 8150 	bhi.w	24058d58 <HAL_RCCEx_PeriphCLKConfig+0x834>
24058ab8:	2b00      	cmp	r3, #0
24058aba:	f000 8156 	beq.w	24058d6a <HAL_RCCEx_PeriphCLKConfig+0x846>
24058abe:	f5b3 6f80 	cmp.w	r3, #1024	@ 0x400
24058ac2:	f000 815c 	beq.w	24058d7e <HAL_RCCEx_PeriphCLKConfig+0x85a>
24058ac6:	2601      	movs	r6, #1
24058ac8:	4634      	mov	r4, r6
24058aca:	682b      	ldr	r3, [r5, #0]
24058acc:	0618      	lsls	r0, r3, #24
24058ace:	d510      	bpl.n	24058af2 <HAL_RCCEx_PeriphCLKConfig+0x5ce>
24058ad0:	f8d5 30a8 	ldr.w	r3, [r5, #168]	@ 0xa8
24058ad4:	f5b3 4f80 	cmp.w	r3, #16384	@ 0x4000
24058ad8:	f000 817a 	beq.w	24058dd0 <HAL_RCCEx_PeriphCLKConfig+0x8ac>
24058adc:	f200 815e 	bhi.w	24058d9c <HAL_RCCEx_PeriphCLKConfig+0x878>
24058ae0:	2b00      	cmp	r3, #0
24058ae2:	f000 8164 	beq.w	24058dae <HAL_RCCEx_PeriphCLKConfig+0x88a>
24058ae6:	f5b3 5f00 	cmp.w	r3, #8192	@ 0x2000
24058aea:	f000 816a 	beq.w	24058dc2 <HAL_RCCEx_PeriphCLKConfig+0x89e>
24058aee:	2601      	movs	r6, #1
24058af0:	4634      	mov	r4, r6
24058af2:	682b      	ldr	r3, [r5, #0]
24058af4:	0719      	lsls	r1, r3, #28
24058af6:	d514      	bpl.n	24058b22 <HAL_RCCEx_PeriphCLKConfig+0x5fe>
24058af8:	f8d5 308c 	ldr.w	r3, [r5, #140]	@ 0x8c
24058afc:	f5b3 5f80 	cmp.w	r3, #4096	@ 0x1000
24058b00:	d107      	bne.n	24058b12 <HAL_RCCEx_PeriphCLKConfig+0x5ee>
24058b02:	2102      	movs	r1, #2
24058b04:	f105 0028 	add.w	r0, r5, #40	@ 0x28
24058b08:	f7ff fc94 	bl	24058434 <RCCEx_PLL3_Config>
24058b0c:	2800      	cmp	r0, #0
24058b0e:	bf18      	it	ne
24058b10:	2601      	movne	r6, #1
24058b12:	4a7f      	ldr	r2, [pc, #508]	@ (24058d10 <HAL_RCCEx_PeriphCLKConfig+0x7ec>)
24058b14:	f8d5 108c 	ldr.w	r1, [r5, #140]	@ 0x8c
24058b18:	6d53      	ldr	r3, [r2, #84]	@ 0x54
24058b1a:	f423 5340 	bic.w	r3, r3, #12288	@ 0x3000
24058b1e:	430b      	orrs	r3, r1
24058b20:	6553      	str	r3, [r2, #84]	@ 0x54
24058b22:	682b      	ldr	r3, [r5, #0]
24058b24:	06da      	lsls	r2, r3, #27
24058b26:	d514      	bpl.n	24058b52 <HAL_RCCEx_PeriphCLKConfig+0x62e>
24058b28:	f8d5 30a0 	ldr.w	r3, [r5, #160]	@ 0xa0
24058b2c:	f5b3 7f80 	cmp.w	r3, #256	@ 0x100
24058b30:	d107      	bne.n	24058b42 <HAL_RCCEx_PeriphCLKConfig+0x61e>
24058b32:	2102      	movs	r1, #2
24058b34:	f105 0028 	add.w	r0, r5, #40	@ 0x28
24058b38:	f7ff fc7c 	bl	24058434 <RCCEx_PLL3_Config>
24058b3c:	2800      	cmp	r0, #0
24058b3e:	bf18      	it	ne
24058b40:	2601      	movne	r6, #1
24058b42:	4a73      	ldr	r2, [pc, #460]	@ (24058d10 <HAL_RCCEx_PeriphCLKConfig+0x7ec>)
24058b44:	f8d5 10a0 	ldr.w	r1, [r5, #160]	@ 0xa0
24058b48:	6d93      	ldr	r3, [r2, #88]	@ 0x58
24058b4a:	f423 7340 	bic.w	r3, r3, #768	@ 0x300
24058b4e:	430b      	orrs	r3, r1
24058b50:	6593      	str	r3, [r2, #88]	@ 0x58
24058b52:	682b      	ldr	r3, [r5, #0]
24058b54:	031b      	lsls	r3, r3, #12
24058b56:	d51b      	bpl.n	24058b90 <HAL_RCCEx_PeriphCLKConfig+0x66c>
24058b58:	f8d5 10ac 	ldr.w	r1, [r5, #172]	@ 0xac
24058b5c:	f5b1 3f80 	cmp.w	r1, #65536	@ 0x10000
24058b60:	f000 813e 	beq.w	24058de0 <HAL_RCCEx_PeriphCLKConfig+0x8bc>
24058b64:	f5b1 3f00 	cmp.w	r1, #131072	@ 0x20000
24058b68:	d007      	beq.n	24058b7a <HAL_RCCEx_PeriphCLKConfig+0x656>
24058b6a:	2900      	cmp	r1, #0
24058b6c:	f040 813e 	bne.w	24058dec <HAL_RCCEx_PeriphCLKConfig+0x8c8>
24058b70:	f105 0008 	add.w	r0, r5, #8
24058b74:	f7ff fbe6 	bl	24058344 <RCCEx_PLL2_Config>
24058b78:	4604      	mov	r4, r0
24058b7a:	2c00      	cmp	r4, #0
24058b7c:	f040 8139 	bne.w	24058df2 <HAL_RCCEx_PeriphCLKConfig+0x8ce>
24058b80:	4a63      	ldr	r2, [pc, #396]	@ (24058d10 <HAL_RCCEx_PeriphCLKConfig+0x7ec>)
24058b82:	f8d5 10ac 	ldr.w	r1, [r5, #172]	@ 0xac
24058b86:	6d93      	ldr	r3, [r2, #88]	@ 0x58
24058b88:	f423 3340 	bic.w	r3, r3, #196608	@ 0x30000
24058b8c:	430b      	orrs	r3, r1
24058b8e:	6593      	str	r3, [r2, #88]	@ 0x58
24058b90:	682b      	ldr	r3, [r5, #0]
24058b92:	035f      	lsls	r7, r3, #13
24058b94:	d50f      	bpl.n	24058bb6 <HAL_RCCEx_PeriphCLKConfig+0x692>
24058b96:	f8d5 3090 	ldr.w	r3, [r5, #144]	@ 0x90
24058b9a:	f5b3 1f00 	cmp.w	r3, #2097152	@ 0x200000
24058b9e:	f000 8139 	beq.w	24058e14 <HAL_RCCEx_PeriphCLKConfig+0x8f0>
24058ba2:	f5b3 1f40 	cmp.w	r3, #3145728	@ 0x300000
24058ba6:	f000 812b 	beq.w	24058e00 <HAL_RCCEx_PeriphCLKConfig+0x8dc>
24058baa:	f5b3 1f80 	cmp.w	r3, #1048576	@ 0x100000
24058bae:	f000 8122 	beq.w	24058df6 <HAL_RCCEx_PeriphCLKConfig+0x8d2>
24058bb2:	2601      	movs	r6, #1
24058bb4:	4634      	mov	r4, r6
24058bb6:	682b      	ldr	r3, [r5, #0]
24058bb8:	03d8      	lsls	r0, r3, #15
24058bba:	d509      	bpl.n	24058bd0 <HAL_RCCEx_PeriphCLKConfig+0x6ac>
24058bbc:	6d2b      	ldr	r3, [r5, #80]	@ 0x50
24058bbe:	2b00      	cmp	r3, #0
24058bc0:	f000 8131 	beq.w	24058e26 <HAL_RCCEx_PeriphCLKConfig+0x902>
24058bc4:	f5b3 3f80 	cmp.w	r3, #65536	@ 0x10000
24058bc8:	f000 813b 	beq.w	24058e42 <HAL_RCCEx_PeriphCLKConfig+0x91e>
24058bcc:	2601      	movs	r6, #1
24058bce:	4634      	mov	r4, r6
24058bd0:	682b      	ldr	r3, [r5, #0]
24058bd2:	0099      	lsls	r1, r3, #2
24058bd4:	d507      	bpl.n	24058be6 <HAL_RCCEx_PeriphCLKConfig+0x6c2>
24058bd6:	2102      	movs	r1, #2
24058bd8:	f105 0028 	add.w	r0, r5, #40	@ 0x28
24058bdc:	f7ff fc2a 	bl	24058434 <RCCEx_PLL3_Config>
24058be0:	2800      	cmp	r0, #0
24058be2:	bf18      	it	ne
24058be4:	2601      	movne	r6, #1
24058be6:	e9d5 3100 	ldrd	r3, r1, [r5]
24058bea:	039a      	lsls	r2, r3, #14
24058bec:	f140 8141 	bpl.w	24058e72 <HAL_RCCEx_PeriphCLKConfig+0x94e>
24058bf0:	f8d5 0088 	ldr.w	r0, [r5, #136]	@ 0x88
24058bf4:	f5b0 7f80 	cmp.w	r0, #256	@ 0x100
24058bf8:	f000 813d 	beq.w	24058e76 <HAL_RCCEx_PeriphCLKConfig+0x952>
24058bfc:	f200 812a 	bhi.w	24058e54 <HAL_RCCEx_PeriphCLKConfig+0x930>
24058c00:	2800      	cmp	r0, #0
24058c02:	f000 812d 	beq.w	24058e60 <HAL_RCCEx_PeriphCLKConfig+0x93c>
24058c06:	2401      	movs	r4, #1
24058c08:	02df      	lsls	r7, r3, #11
24058c0a:	d506      	bpl.n	24058c1a <HAL_RCCEx_PeriphCLKConfig+0x6f6>
24058c0c:	4840      	ldr	r0, [pc, #256]	@ (24058d10 <HAL_RCCEx_PeriphCLKConfig+0x7ec>)
24058c0e:	6fee      	ldr	r6, [r5, #124]	@ 0x7c
24058c10:	6d02      	ldr	r2, [r0, #80]	@ 0x50
24058c12:	f022 4200 	bic.w	r2, r2, #2147483648	@ 0x80000000
24058c16:	4332      	orrs	r2, r6
24058c18:	6502      	str	r2, [r0, #80]	@ 0x50
24058c1a:	029e      	lsls	r6, r3, #10
24058c1c:	d506      	bpl.n	24058c2c <HAL_RCCEx_PeriphCLKConfig+0x708>
24058c1e:	483c      	ldr	r0, [pc, #240]	@ (24058d10 <HAL_RCCEx_PeriphCLKConfig+0x7ec>)
24058c20:	6f2e      	ldr	r6, [r5, #112]	@ 0x70
24058c22:	6d02      	ldr	r2, [r0, #80]	@ 0x50
24058c24:	f022 7280 	bic.w	r2, r2, #16777216	@ 0x1000000
24058c28:	4332      	orrs	r2, r6
24058c2a:	6502      	str	r2, [r0, #80]	@ 0x50
24058c2c:	0518      	lsls	r0, r3, #20
24058c2e:	d506      	bpl.n	24058c3e <HAL_RCCEx_PeriphCLKConfig+0x71a>
24058c30:	4837      	ldr	r0, [pc, #220]	@ (24058d10 <HAL_RCCEx_PeriphCLKConfig+0x7ec>)
24058c32:	6f6e      	ldr	r6, [r5, #116]	@ 0x74
24058c34:	6d82      	ldr	r2, [r0, #88]	@ 0x58
24058c36:	f022 6200 	bic.w	r2, r2, #134217728	@ 0x8000000
24058c3a:	4332      	orrs	r2, r6
24058c3c:	6582      	str	r2, [r0, #88]	@ 0x58
24058c3e:	005a      	lsls	r2, r3, #1
24058c40:	d509      	bpl.n	24058c56 <HAL_RCCEx_PeriphCLKConfig+0x732>
24058c42:	4a33      	ldr	r2, [pc, #204]	@ (24058d10 <HAL_RCCEx_PeriphCLKConfig+0x7ec>)
24058c44:	6910      	ldr	r0, [r2, #16]
24058c46:	f420 4000 	bic.w	r0, r0, #32768	@ 0x8000
24058c4a:	6110      	str	r0, [r2, #16]
24058c4c:	6910      	ldr	r0, [r2, #16]
24058c4e:	f8d5 60b8 	ldr.w	r6, [r5, #184]	@ 0xb8
24058c52:	4330      	orrs	r0, r6
24058c54:	6110      	str	r0, [r2, #16]
24058c56:	2b00      	cmp	r3, #0
24058c58:	da06      	bge.n	24058c68 <HAL_RCCEx_PeriphCLKConfig+0x744>
24058c5a:	482d      	ldr	r0, [pc, #180]	@ (24058d10 <HAL_RCCEx_PeriphCLKConfig+0x7ec>)
24058c5c:	6d6e      	ldr	r6, [r5, #84]	@ 0x54
24058c5e:	6cc2      	ldr	r2, [r0, #76]	@ 0x4c
24058c60:	f022 5240 	bic.w	r2, r2, #805306368	@ 0x30000000
24058c64:	4332      	orrs	r2, r6
24058c66:	64c2      	str	r2, [r0, #76]	@ 0x4c
24058c68:	021f      	lsls	r7, r3, #8
24058c6a:	d507      	bpl.n	24058c7c <HAL_RCCEx_PeriphCLKConfig+0x758>
24058c6c:	4a28      	ldr	r2, [pc, #160]	@ (24058d10 <HAL_RCCEx_PeriphCLKConfig+0x7ec>)
24058c6e:	f8d5 0094 	ldr.w	r0, [r5, #148]	@ 0x94
24058c72:	6d53      	ldr	r3, [r2, #84]	@ 0x54
24058c74:	f423 0340 	bic.w	r3, r3, #12582912	@ 0xc00000
24058c78:	4303      	orrs	r3, r0
24058c7a:	6553      	str	r3, [r2, #84]	@ 0x54
24058c7c:	07ce      	lsls	r6, r1, #31
24058c7e:	d506      	bpl.n	24058c8e <HAL_RCCEx_PeriphCLKConfig+0x76a>
24058c80:	2100      	movs	r1, #0
24058c82:	f105 0008 	add.w	r0, r5, #8
24058c86:	f7ff fb5d 	bl	24058344 <RCCEx_PLL2_Config>
24058c8a:	4607      	mov	r7, r0
24058c8c:	b900      	cbnz	r0, 24058c90 <HAL_RCCEx_PeriphCLKConfig+0x76c>
24058c8e:	4627      	mov	r7, r4
24058c90:	686b      	ldr	r3, [r5, #4]
24058c92:	079c      	lsls	r4, r3, #30
24058c94:	d506      	bpl.n	24058ca4 <HAL_RCCEx_PeriphCLKConfig+0x780>
24058c96:	2101      	movs	r1, #1
24058c98:	f105 0008 	add.w	r0, r5, #8
24058c9c:	f7ff fb52 	bl	24058344 <RCCEx_PLL2_Config>
24058ca0:	4606      	mov	r6, r0
24058ca2:	b900      	cbnz	r0, 24058ca6 <HAL_RCCEx_PeriphCLKConfig+0x782>
24058ca4:	463e      	mov	r6, r7
24058ca6:	686b      	ldr	r3, [r5, #4]
24058ca8:	0758      	lsls	r0, r3, #29
24058caa:	d506      	bpl.n	24058cba <HAL_RCCEx_PeriphCLKConfig+0x796>
24058cac:	2102      	movs	r1, #2
24058cae:	f105 0008 	add.w	r0, r5, #8
24058cb2:	f7ff fb47 	bl	24058344 <RCCEx_PLL2_Config>
24058cb6:	4604      	mov	r4, r0
24058cb8:	b900      	cbnz	r0, 24058cbc <HAL_RCCEx_PeriphCLKConfig+0x798>
24058cba:	4634      	mov	r4, r6
24058cbc:	686b      	ldr	r3, [r5, #4]
24058cbe:	0719      	lsls	r1, r3, #28
24058cc0:	d506      	bpl.n	24058cd0 <HAL_RCCEx_PeriphCLKConfig+0x7ac>
24058cc2:	2100      	movs	r1, #0
24058cc4:	f105 0028 	add.w	r0, r5, #40	@ 0x28
24058cc8:	f7ff fbb4 	bl	24058434 <RCCEx_PLL3_Config>
24058ccc:	4606      	mov	r6, r0
24058cce:	b900      	cbnz	r0, 24058cd2 <HAL_RCCEx_PeriphCLKConfig+0x7ae>
24058cd0:	4626      	mov	r6, r4
24058cd2:	686b      	ldr	r3, [r5, #4]
24058cd4:	06da      	lsls	r2, r3, #27
24058cd6:	d506      	bpl.n	24058ce6 <HAL_RCCEx_PeriphCLKConfig+0x7c2>
24058cd8:	2101      	movs	r1, #1
24058cda:	f105 0028 	add.w	r0, r5, #40	@ 0x28
24058cde:	f7ff fba9 	bl	24058434 <RCCEx_PLL3_Config>
24058ce2:	4604      	mov	r4, r0
24058ce4:	b900      	cbnz	r0, 24058ce8 <HAL_RCCEx_PeriphCLKConfig+0x7c4>
24058ce6:	4634      	mov	r4, r6
24058ce8:	686b      	ldr	r3, [r5, #4]
24058cea:	069b      	lsls	r3, r3, #26
24058cec:	f100 80c9 	bmi.w	24058e82 <HAL_RCCEx_PeriphCLKConfig+0x95e>
24058cf0:	1e20      	subs	r0, r4, #0
24058cf2:	bf18      	it	ne
24058cf4:	2001      	movne	r0, #1
24058cf6:	e8bd 83f8 	ldmia.w	sp!, {r3, r4, r5, r6, r7, r8, r9, pc}
24058cfa:	2101      	movs	r1, #1
24058cfc:	f105 0028 	add.w	r0, r5, #40	@ 0x28
24058d00:	f7ff fb98 	bl	24058434 <RCCEx_PLL3_Config>
24058d04:	e6ad      	b.n	24058a62 <HAL_RCCEx_PeriphCLKConfig+0x53e>
24058d06:	2601      	movs	r6, #1
24058d08:	4634      	mov	r4, r6
24058d0a:	e6b6      	b.n	24058a7a <HAL_RCCEx_PeriphCLKConfig+0x556>
24058d0c:	4626      	mov	r6, r4
24058d0e:	e6b4      	b.n	24058a7a <HAL_RCCEx_PeriphCLKConfig+0x556>
24058d10:	58024400 	.word	0x58024400
24058d14:	f023 5280 	bic.w	r2, r3, #268435456	@ 0x10000000
24058d18:	f1b2 4f80 	cmp.w	r2, #1073741824	@ 0x40000000
24058d1c:	d003      	beq.n	24058d26 <HAL_RCCEx_PeriphCLKConfig+0x802>
24058d1e:	f1b3 5f40 	cmp.w	r3, #805306368	@ 0x30000000
24058d22:	f47f aebc 	bne.w	24058a9e <HAL_RCCEx_PeriphCLKConfig+0x57a>
24058d26:	b9ac      	cbnz	r4, 24058d54 <HAL_RCCEx_PeriphCLKConfig+0x830>
24058d28:	4a5b      	ldr	r2, [pc, #364]	@ (24058e98 <HAL_RCCEx_PeriphCLKConfig+0x974>)
24058d2a:	f8d5 1098 	ldr.w	r1, [r5, #152]	@ 0x98
24058d2e:	6d53      	ldr	r3, [r2, #84]	@ 0x54
24058d30:	f023 43e0 	bic.w	r3, r3, #1879048192	@ 0x70000000
24058d34:	430b      	orrs	r3, r1
24058d36:	6553      	str	r3, [r2, #84]	@ 0x54
24058d38:	e6b3      	b.n	24058aa2 <HAL_RCCEx_PeriphCLKConfig+0x57e>
24058d3a:	2100      	movs	r1, #0
24058d3c:	f105 0008 	add.w	r0, r5, #8
24058d40:	f7ff fb00 	bl	24058344 <RCCEx_PLL2_Config>
24058d44:	4604      	mov	r4, r0
24058d46:	e7ee      	b.n	24058d26 <HAL_RCCEx_PeriphCLKConfig+0x802>
24058d48:	2102      	movs	r1, #2
24058d4a:	f105 0028 	add.w	r0, r5, #40	@ 0x28
24058d4e:	f7ff fb71 	bl	24058434 <RCCEx_PLL3_Config>
24058d52:	e7f7      	b.n	24058d44 <HAL_RCCEx_PeriphCLKConfig+0x820>
24058d54:	4626      	mov	r6, r4
24058d56:	e6a4      	b.n	24058aa2 <HAL_RCCEx_PeriphCLKConfig+0x57e>
24058d58:	f423 6280 	bic.w	r2, r3, #1024	@ 0x400
24058d5c:	f5b2 5f80 	cmp.w	r2, #4096	@ 0x1000
24058d60:	d003      	beq.n	24058d6a <HAL_RCCEx_PeriphCLKConfig+0x846>
24058d62:	f5b3 6f40 	cmp.w	r3, #3072	@ 0xc00
24058d66:	f47f aeae 	bne.w	24058ac6 <HAL_RCCEx_PeriphCLKConfig+0x5a2>
24058d6a:	b9ac      	cbnz	r4, 24058d98 <HAL_RCCEx_PeriphCLKConfig+0x874>
24058d6c:	4a4a      	ldr	r2, [pc, #296]	@ (24058e98 <HAL_RCCEx_PeriphCLKConfig+0x974>)
24058d6e:	f8d5 10a4 	ldr.w	r1, [r5, #164]	@ 0xa4
24058d72:	6d93      	ldr	r3, [r2, #88]	@ 0x58
24058d74:	f423 53e0 	bic.w	r3, r3, #7168	@ 0x1c00
24058d78:	430b      	orrs	r3, r1
24058d7a:	6593      	str	r3, [r2, #88]	@ 0x58
24058d7c:	e6a5      	b.n	24058aca <HAL_RCCEx_PeriphCLKConfig+0x5a6>
24058d7e:	2100      	movs	r1, #0
24058d80:	f105 0008 	add.w	r0, r5, #8
24058d84:	f7ff fade 	bl	24058344 <RCCEx_PLL2_Config>
24058d88:	4604      	mov	r4, r0
24058d8a:	e7ee      	b.n	24058d6a <HAL_RCCEx_PeriphCLKConfig+0x846>
24058d8c:	2102      	movs	r1, #2
24058d8e:	f105 0028 	add.w	r0, r5, #40	@ 0x28
24058d92:	f7ff fb4f 	bl	24058434 <RCCEx_PLL3_Config>
24058d96:	e7f7      	b.n	24058d88 <HAL_RCCEx_PeriphCLKConfig+0x864>
24058d98:	4626      	mov	r6, r4
24058d9a:	e696      	b.n	24058aca <HAL_RCCEx_PeriphCLKConfig+0x5a6>
24058d9c:	f423 5200 	bic.w	r2, r3, #8192	@ 0x2000
24058da0:	f5b2 4f00 	cmp.w	r2, #32768	@ 0x8000
24058da4:	d003      	beq.n	24058dae <HAL_RCCEx_PeriphCLKConfig+0x88a>
24058da6:	f5b3 4fc0 	cmp.w	r3, #24576	@ 0x6000
24058daa:	f47f aea0 	bne.w	24058aee <HAL_RCCEx_PeriphCLKConfig+0x5ca>
24058dae:	b9ac      	cbnz	r4, 24058ddc <HAL_RCCEx_PeriphCLKConfig+0x8b8>
24058db0:	4a39      	ldr	r2, [pc, #228]	@ (24058e98 <HAL_RCCEx_PeriphCLKConfig+0x974>)
24058db2:	f8d5 10a8 	ldr.w	r1, [r5, #168]	@ 0xa8
24058db6:	6d93      	ldr	r3, [r2, #88]	@ 0x58
24058db8:	f423 4360 	bic.w	r3, r3, #57344	@ 0xe000
24058dbc:	430b      	orrs	r3, r1
24058dbe:	6593      	str	r3, [r2, #88]	@ 0x58
24058dc0:	e697      	b.n	24058af2 <HAL_RCCEx_PeriphCLKConfig+0x5ce>
24058dc2:	2100      	movs	r1, #0
24058dc4:	f105 0008 	add.w	r0, r5, #8
24058dc8:	f7ff fabc 	bl	24058344 <RCCEx_PLL2_Config>
24058dcc:	4604      	mov	r4, r0
24058dce:	e7ee      	b.n	24058dae <HAL_RCCEx_PeriphCLKConfig+0x88a>
24058dd0:	2102      	movs	r1, #2
24058dd2:	f105 0028 	add.w	r0, r5, #40	@ 0x28
24058dd6:	f7ff fb2d 	bl	24058434 <RCCEx_PLL3_Config>
24058dda:	e7f7      	b.n	24058dcc <HAL_RCCEx_PeriphCLKConfig+0x8a8>
24058ddc:	4626      	mov	r6, r4
24058dde:	e688      	b.n	24058af2 <HAL_RCCEx_PeriphCLKConfig+0x5ce>
24058de0:	2102      	movs	r1, #2
24058de2:	f105 0028 	add.w	r0, r5, #40	@ 0x28
24058de6:	f7ff fb25 	bl	24058434 <RCCEx_PLL3_Config>
24058dea:	e6c5      	b.n	24058b78 <HAL_RCCEx_PeriphCLKConfig+0x654>
24058dec:	2601      	movs	r6, #1
24058dee:	4634      	mov	r4, r6
24058df0:	e6ce      	b.n	24058b90 <HAL_RCCEx_PeriphCLKConfig+0x66c>
24058df2:	4626      	mov	r6, r4
24058df4:	e6cc      	b.n	24058b90 <HAL_RCCEx_PeriphCLKConfig+0x66c>
24058df6:	4a28      	ldr	r2, [pc, #160]	@ (24058e98 <HAL_RCCEx_PeriphCLKConfig+0x974>)
24058df8:	6ad3      	ldr	r3, [r2, #44]	@ 0x2c
24058dfa:	f443 3300 	orr.w	r3, r3, #131072	@ 0x20000
24058dfe:	62d3      	str	r3, [r2, #44]	@ 0x2c
24058e00:	b97c      	cbnz	r4, 24058e22 <HAL_RCCEx_PeriphCLKConfig+0x8fe>
24058e02:	4a25      	ldr	r2, [pc, #148]	@ (24058e98 <HAL_RCCEx_PeriphCLKConfig+0x974>)
24058e04:	f8d5 1090 	ldr.w	r1, [r5, #144]	@ 0x90
24058e08:	6d53      	ldr	r3, [r2, #84]	@ 0x54
24058e0a:	f423 1340 	bic.w	r3, r3, #3145728	@ 0x300000
24058e0e:	430b      	orrs	r3, r1
24058e10:	6553      	str	r3, [r2, #84]	@ 0x54
24058e12:	e6d0      	b.n	24058bb6 <HAL_RCCEx_PeriphCLKConfig+0x692>
24058e14:	2101      	movs	r1, #1
24058e16:	f105 0028 	add.w	r0, r5, #40	@ 0x28
24058e1a:	f7ff fb0b 	bl	24058434 <RCCEx_PLL3_Config>
24058e1e:	4604      	mov	r4, r0
24058e20:	e7ee      	b.n	24058e00 <HAL_RCCEx_PeriphCLKConfig+0x8dc>
24058e22:	4626      	mov	r6, r4
24058e24:	e6c7      	b.n	24058bb6 <HAL_RCCEx_PeriphCLKConfig+0x692>
24058e26:	4a1c      	ldr	r2, [pc, #112]	@ (24058e98 <HAL_RCCEx_PeriphCLKConfig+0x974>)
24058e28:	6ad3      	ldr	r3, [r2, #44]	@ 0x2c
24058e2a:	f443 3300 	orr.w	r3, r3, #131072	@ 0x20000
24058e2e:	62d3      	str	r3, [r2, #44]	@ 0x2c
24058e30:	b974      	cbnz	r4, 24058e50 <HAL_RCCEx_PeriphCLKConfig+0x92c>
24058e32:	4a19      	ldr	r2, [pc, #100]	@ (24058e98 <HAL_RCCEx_PeriphCLKConfig+0x974>)
24058e34:	6d29      	ldr	r1, [r5, #80]	@ 0x50
24058e36:	6cd3      	ldr	r3, [r2, #76]	@ 0x4c
24058e38:	f423 3380 	bic.w	r3, r3, #65536	@ 0x10000
24058e3c:	430b      	orrs	r3, r1
24058e3e:	64d3      	str	r3, [r2, #76]	@ 0x4c
24058e40:	e6c6      	b.n	24058bd0 <HAL_RCCEx_PeriphCLKConfig+0x6ac>
24058e42:	2102      	movs	r1, #2
24058e44:	f105 0008 	add.w	r0, r5, #8
24058e48:	f7ff fa7c 	bl	24058344 <RCCEx_PLL2_Config>
24058e4c:	4604      	mov	r4, r0
24058e4e:	e7ef      	b.n	24058e30 <HAL_RCCEx_PeriphCLKConfig+0x90c>
24058e50:	4626      	mov	r6, r4
24058e52:	e6bd      	b.n	24058bd0 <HAL_RCCEx_PeriphCLKConfig+0x6ac>
24058e54:	f420 7280 	bic.w	r2, r0, #256	@ 0x100
24058e58:	f5b2 7f00 	cmp.w	r2, #512	@ 0x200
24058e5c:	f47f aed3 	bne.w	24058c06 <HAL_RCCEx_PeriphCLKConfig+0x6e2>
24058e60:	2c00      	cmp	r4, #0
24058e62:	f47f aed1 	bne.w	24058c08 <HAL_RCCEx_PeriphCLKConfig+0x6e4>
24058e66:	4c0c      	ldr	r4, [pc, #48]	@ (24058e98 <HAL_RCCEx_PeriphCLKConfig+0x974>)
24058e68:	6d62      	ldr	r2, [r4, #84]	@ 0x54
24058e6a:	f422 7240 	bic.w	r2, r2, #768	@ 0x300
24058e6e:	4302      	orrs	r2, r0
24058e70:	6562      	str	r2, [r4, #84]	@ 0x54
24058e72:	4634      	mov	r4, r6
24058e74:	e6c8      	b.n	24058c08 <HAL_RCCEx_PeriphCLKConfig+0x6e4>
24058e76:	4f08      	ldr	r7, [pc, #32]	@ (24058e98 <HAL_RCCEx_PeriphCLKConfig+0x974>)
24058e78:	6afa      	ldr	r2, [r7, #44]	@ 0x2c
24058e7a:	f442 3200 	orr.w	r2, r2, #131072	@ 0x20000
24058e7e:	62fa      	str	r2, [r7, #44]	@ 0x2c
24058e80:	e7ee      	b.n	24058e60 <HAL_RCCEx_PeriphCLKConfig+0x93c>
24058e82:	2102      	movs	r1, #2
24058e84:	f105 0028 	add.w	r0, r5, #40	@ 0x28
24058e88:	f7ff fad4 	bl	24058434 <RCCEx_PLL3_Config>
24058e8c:	2800      	cmp	r0, #0
24058e8e:	f43f af2f 	beq.w	24058cf0 <HAL_RCCEx_PeriphCLKConfig+0x7cc>
24058e92:	2001      	movs	r0, #1
24058e94:	e72f      	b.n	24058cf6 <HAL_RCCEx_PeriphCLKConfig+0x7d2>
24058e96:	bf00      	nop
24058e98:	58024400 	.word	0x58024400

24058e9c <HAL_RCCEx_GetD3PCLK1Freq>:
24058e9c:	b508      	push	{r3, lr}
24058e9e:	f7ff fa1d 	bl	240582dc <HAL_RCC_GetHCLKFreq>
24058ea2:	4b05      	ldr	r3, [pc, #20]	@ (24058eb8 <HAL_RCCEx_GetD3PCLK1Freq+0x1c>)
24058ea4:	4a05      	ldr	r2, [pc, #20]	@ (24058ebc <HAL_RCCEx_GetD3PCLK1Freq+0x20>)
24058ea6:	6a1b      	ldr	r3, [r3, #32]
24058ea8:	f3c3 1302 	ubfx	r3, r3, #4, #3
24058eac:	5cd3      	ldrb	r3, [r2, r3]
24058eae:	f003 031f 	and.w	r3, r3, #31
24058eb2:	40d8      	lsrs	r0, r3
24058eb4:	bd08      	pop	{r3, pc}
24058eb6:	bf00      	nop
24058eb8:	58024400 	.word	0x58024400
24058ebc:	24060236 	.word	0x24060236

24058ec0 <HAL_RCCEx_GetPLL2ClockFreq>:
24058ec0:	494f      	ldr	r1, [pc, #316]	@ (24059000 <HAL_RCCEx_GetPLL2ClockFreq+0x140>)
24058ec2:	b570      	push	{r4, r5, r6, lr}
24058ec4:	6a8c      	ldr	r4, [r1, #40]	@ 0x28
24058ec6:	6a8e      	ldr	r6, [r1, #40]	@ 0x28
24058ec8:	6acd      	ldr	r5, [r1, #44]	@ 0x2c
24058eca:	f416 3f7c 	tst.w	r6, #258048	@ 0x3f000
24058ece:	f3c6 3305 	ubfx	r3, r6, #12, #6
24058ed2:	6bca      	ldr	r2, [r1, #60]	@ 0x3c
24058ed4:	f000 8090 	beq.w	24058ff8 <HAL_RCCEx_GetPLL2ClockFreq+0x138>
24058ed8:	ee07 3a90 	vmov	s15, r3
24058edc:	f3c2 03cc 	ubfx	r3, r2, #3, #13
24058ee0:	f3c5 1200 	ubfx	r2, r5, #4, #1
24058ee4:	f004 0403 	and.w	r4, r4, #3
24058ee8:	eeb8 7ae7 	vcvt.f32.s32	s14, s15
24058eec:	4353      	muls	r3, r2
24058eee:	2c01      	cmp	r4, #1
24058ef0:	eeb7 6a00 	vmov.f32	s12, #112	@ 0x3f800000  1.0
24058ef4:	ee06 3a90 	vmov	s13, r3
24058ef8:	eefa 6ae9 	vcvt.f32.s32	s13, s13, #13
24058efc:	d06e      	beq.n	24058fdc <HAL_RCCEx_GetPLL2ClockFreq+0x11c>
24058efe:	2c02      	cmp	r4, #2
24058f00:	d05e      	beq.n	24058fc0 <HAL_RCCEx_GetPLL2ClockFreq+0x100>
24058f02:	2c00      	cmp	r4, #0
24058f04:	d16a      	bne.n	24058fdc <HAL_RCCEx_GetPLL2ClockFreq+0x11c>
24058f06:	680b      	ldr	r3, [r1, #0]
24058f08:	069b      	lsls	r3, r3, #26
24058f0a:	d547      	bpl.n	24058f9c <HAL_RCCEx_GetPLL2ClockFreq+0xdc>
24058f0c:	680a      	ldr	r2, [r1, #0]
24058f0e:	6b8b      	ldr	r3, [r1, #56]	@ 0x38
24058f10:	f3c2 01c1 	ubfx	r1, r2, #3, #2
24058f14:	4a3b      	ldr	r2, [pc, #236]	@ (24059004 <HAL_RCCEx_GetPLL2ClockFreq+0x144>)
24058f16:	f3c3 0308 	ubfx	r3, r3, #0, #9
24058f1a:	40ca      	lsrs	r2, r1
24058f1c:	ee07 2a90 	vmov	s15, r2
24058f20:	eef8 5ae7 	vcvt.f32.s32	s11, s15
24058f24:	eec5 7a87 	vdiv.f32	s15, s11, s14
24058f28:	ee07 3a10 	vmov	s14, r3
24058f2c:	eeb8 7ac7 	vcvt.f32.s32	s14, s14
24058f30:	ee37 7a26 	vadd.f32	s14, s14, s13
24058f34:	ee37 7a06 	vadd.f32	s14, s14, s12
24058f38:	ee67 7a87 	vmul.f32	s15, s15, s14
24058f3c:	4a30      	ldr	r2, [pc, #192]	@ (24059000 <HAL_RCCEx_GetPLL2ClockFreq+0x140>)
24058f3e:	6b93      	ldr	r3, [r2, #56]	@ 0x38
24058f40:	f3c3 2346 	ubfx	r3, r3, #9, #7
24058f44:	ee07 3a10 	vmov	s14, r3
24058f48:	eeb8 7ac7 	vcvt.f32.s32	s14, s14
24058f4c:	ee37 7a06 	vadd.f32	s14, s14, s12
24058f50:	eec7 6a87 	vdiv.f32	s13, s15, s14
24058f54:	eefc 6ae6 	vcvt.u32.f32	s13, s13
24058f58:	edc0 6a00 	vstr	s13, [r0]
24058f5c:	6b93      	ldr	r3, [r2, #56]	@ 0x38
24058f5e:	f3c3 4306 	ubfx	r3, r3, #16, #7
24058f62:	ee07 3a10 	vmov	s14, r3
24058f66:	eeb8 7ac7 	vcvt.f32.s32	s14, s14
24058f6a:	ee37 7a06 	vadd.f32	s14, s14, s12
24058f6e:	eec7 6a87 	vdiv.f32	s13, s15, s14
24058f72:	eefc 6ae6 	vcvt.u32.f32	s13, s13
24058f76:	edc0 6a01 	vstr	s13, [r0, #4]
24058f7a:	6b93      	ldr	r3, [r2, #56]	@ 0x38
24058f7c:	f3c3 6306 	ubfx	r3, r3, #24, #7
24058f80:	ee06 3a90 	vmov	s13, r3
24058f84:	eef8 6ae6 	vcvt.f32.s32	s13, s13
24058f88:	ee76 6a86 	vadd.f32	s13, s13, s12
24058f8c:	ee87 7aa6 	vdiv.f32	s14, s15, s13
24058f90:	eefc 7ac7 	vcvt.u32.f32	s15, s14
24058f94:	ee17 3a90 	vmov	r3, s15
24058f98:	6083      	str	r3, [r0, #8]
24058f9a:	bd70      	pop	{r4, r5, r6, pc}
24058f9c:	6b8b      	ldr	r3, [r1, #56]	@ 0x38
24058f9e:	eddf 5a1a 	vldr	s11, [pc, #104]	@ 24059008 <HAL_RCCEx_GetPLL2ClockFreq+0x148>
24058fa2:	f3c3 0308 	ubfx	r3, r3, #0, #9
24058fa6:	ee07 3a90 	vmov	s15, r3
24058faa:	eef8 7ae7 	vcvt.f32.s32	s15, s15
24058fae:	ee77 7aa6 	vadd.f32	s15, s15, s13
24058fb2:	ee77 7a86 	vadd.f32	s15, s15, s12
24058fb6:	eec5 6a87 	vdiv.f32	s13, s11, s14
24058fba:	ee67 7aa6 	vmul.f32	s15, s15, s13
24058fbe:	e7bd      	b.n	24058f3c <HAL_RCCEx_GetPLL2ClockFreq+0x7c>
24058fc0:	6b8b      	ldr	r3, [r1, #56]	@ 0x38
24058fc2:	eddf 5a12 	vldr	s11, [pc, #72]	@ 2405900c <HAL_RCCEx_GetPLL2ClockFreq+0x14c>
24058fc6:	f3c3 0308 	ubfx	r3, r3, #0, #9
24058fca:	ee07 3a90 	vmov	s15, r3
24058fce:	eef8 7ae7 	vcvt.f32.s32	s15, s15
24058fd2:	ee77 7aa6 	vadd.f32	s15, s15, s13
24058fd6:	ee77 7a86 	vadd.f32	s15, s15, s12
24058fda:	e7ec      	b.n	24058fb6 <HAL_RCCEx_GetPLL2ClockFreq+0xf6>
24058fdc:	6b8b      	ldr	r3, [r1, #56]	@ 0x38
24058fde:	eddf 5a0c 	vldr	s11, [pc, #48]	@ 24059010 <HAL_RCCEx_GetPLL2ClockFreq+0x150>
24058fe2:	f3c3 0308 	ubfx	r3, r3, #0, #9
24058fe6:	ee07 3a90 	vmov	s15, r3
24058fea:	eef8 7ae7 	vcvt.f32.s32	s15, s15
24058fee:	ee77 7aa6 	vadd.f32	s15, s15, s13
24058ff2:	ee77 7a86 	vadd.f32	s15, s15, s12
24058ff6:	e7de      	b.n	24058fb6 <HAL_RCCEx_GetPLL2ClockFreq+0xf6>
24058ff8:	e9c0 3300 	strd	r3, r3, [r0]
24058ffc:	e7cc      	b.n	24058f98 <HAL_RCCEx_GetPLL2ClockFreq+0xd8>
24058ffe:	bf00      	nop
24059000:	58024400 	.word	0x58024400
24059004:	03d09000 	.word	0x03d09000
24059008:	4c742400 	.word	0x4c742400
2405900c:	4bb71b00 	.word	0x4bb71b00
24059010:	4a742400 	.word	0x4a742400

24059014 <HAL_RCCEx_GetPLL3ClockFreq>:
24059014:	494f      	ldr	r1, [pc, #316]	@ (24059154 <HAL_RCCEx_GetPLL3ClockFreq+0x140>)
24059016:	b570      	push	{r4, r5, r6, lr}
24059018:	6a8c      	ldr	r4, [r1, #40]	@ 0x28
2405901a:	6a8e      	ldr	r6, [r1, #40]	@ 0x28
2405901c:	6acd      	ldr	r5, [r1, #44]	@ 0x2c
2405901e:	f016 7f7c 	tst.w	r6, #66060288	@ 0x3f00000
24059022:	f3c6 5305 	ubfx	r3, r6, #20, #6
24059026:	6c4a      	ldr	r2, [r1, #68]	@ 0x44
24059028:	f000 8090 	beq.w	2405914c <HAL_RCCEx_GetPLL3ClockFreq+0x138>
2405902c:	ee07 3a90 	vmov	s15, r3
24059030:	f3c2 03cc 	ubfx	r3, r2, #3, #13
24059034:	f3c5 2200 	ubfx	r2, r5, #8, #1
24059038:	f004 0403 	and.w	r4, r4, #3
2405903c:	eeb8 7ae7 	vcvt.f32.s32	s14, s15
24059040:	4353      	muls	r3, r2
24059042:	2c01      	cmp	r4, #1
24059044:	eeb7 6a00 	vmov.f32	s12, #112	@ 0x3f800000  1.0
24059048:	ee06 3a90 	vmov	s13, r3
2405904c:	eefa 6ae9 	vcvt.f32.s32	s13, s13, #13
24059050:	d06e      	beq.n	24059130 <HAL_RCCEx_GetPLL3ClockFreq+0x11c>
24059052:	2c02      	cmp	r4, #2
24059054:	d05e      	beq.n	24059114 <HAL_RCCEx_GetPLL3ClockFreq+0x100>
24059056:	2c00      	cmp	r4, #0
24059058:	d16a      	bne.n	24059130 <HAL_RCCEx_GetPLL3ClockFreq+0x11c>
2405905a:	680b      	ldr	r3, [r1, #0]
2405905c:	069b      	lsls	r3, r3, #26
2405905e:	d547      	bpl.n	240590f0 <HAL_RCCEx_GetPLL3ClockFreq+0xdc>
24059060:	680a      	ldr	r2, [r1, #0]
24059062:	6c0b      	ldr	r3, [r1, #64]	@ 0x40
24059064:	f3c2 01c1 	ubfx	r1, r2, #3, #2
24059068:	4a3b      	ldr	r2, [pc, #236]	@ (24059158 <HAL_RCCEx_GetPLL3ClockFreq+0x144>)
2405906a:	f3c3 0308 	ubfx	r3, r3, #0, #9
2405906e:	40ca      	lsrs	r2, r1
24059070:	ee07 2a90 	vmov	s15, r2
24059074:	eef8 5ae7 	vcvt.f32.s32	s11, s15
24059078:	eec5 7a87 	vdiv.f32	s15, s11, s14
2405907c:	ee07 3a10 	vmov	s14, r3
24059080:	eeb8 7ac7 	vcvt.f32.s32	s14, s14
24059084:	ee37 7a26 	vadd.f32	s14, s14, s13
24059088:	ee37 7a06 	vadd.f32	s14, s14, s12
2405908c:	ee67 7a87 	vmul.f32	s15, s15, s14
24059090:	4a30      	ldr	r2, [pc, #192]	@ (24059154 <HAL_RCCEx_GetPLL3ClockFreq+0x140>)
24059092:	6c13      	ldr	r3, [r2, #64]	@ 0x40
24059094:	f3c3 2346 	ubfx	r3, r3, #9, #7
24059098:	ee07 3a10 	vmov	s14, r3
2405909c:	eeb8 7ac7 	vcvt.f32.s32	s14, s14
240590a0:	ee37 7a06 	vadd.f32	s14, s14, s12
240590a4:	eec7 6a87 	vdiv.f32	s13, s15, s14
240590a8:	eefc 6ae6 	vcvt.u32.f32	s13, s13
240590ac:	edc0 6a00 	vstr	s13, [r0]
240590b0:	6c13      	ldr	r3, [r2, #64]	@ 0x40
240590b2:	f3c3 4306 	ubfx	r3, r3, #16, #7
240590b6:	ee07 3a10 	vmov	s14, r3
240590ba:	eeb8 7ac7 	vcvt.f32.s32	s14, s14
240590be:	ee37 7a06 	vadd.f32	s14, s14, s12
240590c2:	eec7 6a87 	vdiv.f32	s13, s15, s14
240590c6:	eefc 6ae6 	vcvt.u32.f32	s13, s13
240590ca:	edc0 6a01 	vstr	s13, [r0, #4]
240590ce:	6c13      	ldr	r3, [r2, #64]	@ 0x40
240590d0:	f3c3 6306 	ubfx	r3, r3, #24, #7
240590d4:	ee06 3a90 	vmov	s13, r3
240590d8:	eef8 6ae6 	vcvt.f32.s32	s13, s13
240590dc:	ee76 6a86 	vadd.f32	s13, s13, s12
240590e0:	ee87 7aa6 	vdiv.f32	s14, s15, s13
240590e4:	eefc 7ac7 	vcvt.u32.f32	s15, s14
240590e8:	ee17 3a90 	vmov	r3, s15
240590ec:	6083      	str	r3, [r0, #8]
240590ee:	bd70      	pop	{r4, r5, r6, pc}
240590f0:	6c0b      	ldr	r3, [r1, #64]	@ 0x40
240590f2:	eddf 5a1a 	vldr	s11, [pc, #104]	@ 2405915c <HAL_RCCEx_GetPLL3ClockFreq+0x148>
240590f6:	f3c3 0308 	ubfx	r3, r3, #0, #9
240590fa:	ee07 3a90 	vmov	s15, r3
240590fe:	eef8 7ae7 	vcvt.f32.s32	s15, s15
24059102:	ee77 7aa6 	vadd.f32	s15, s15, s13
24059106:	ee77 7a86 	vadd.f32	s15, s15, s12
2405910a:	eec5 6a87 	vdiv.f32	s13, s11, s14
2405910e:	ee67 7aa6 	vmul.f32	s15, s15, s13
24059112:	e7bd      	b.n	24059090 <HAL_RCCEx_GetPLL3ClockFreq+0x7c>
24059114:	6c0b      	ldr	r3, [r1, #64]	@ 0x40
24059116:	eddf 5a12 	vldr	s11, [pc, #72]	@ 24059160 <HAL_RCCEx_GetPLL3ClockFreq+0x14c>
2405911a:	f3c3 0308 	ubfx	r3, r3, #0, #9
2405911e:	ee07 3a90 	vmov	s15, r3
24059122:	eef8 7ae7 	vcvt.f32.s32	s15, s15
24059126:	ee77 7aa6 	vadd.f32	s15, s15, s13
2405912a:	ee77 7a86 	vadd.f32	s15, s15, s12
2405912e:	e7ec      	b.n	2405910a <HAL_RCCEx_GetPLL3ClockFreq+0xf6>
24059130:	6c0b      	ldr	r3, [r1, #64]	@ 0x40
24059132:	eddf 5a0c 	vldr	s11, [pc, #48]	@ 24059164 <HAL_RCCEx_GetPLL3ClockFreq+0x150>
24059136:	f3c3 0308 	ubfx	r3, r3, #0, #9
2405913a:	ee07 3a90 	vmov	s15, r3
2405913e:	eef8 7ae7 	vcvt.f32.s32	s15, s15
24059142:	ee77 7aa6 	vadd.f32	s15, s15, s13
24059146:	ee77 7a86 	vadd.f32	s15, s15, s12
2405914a:	e7de      	b.n	2405910a <HAL_RCCEx_GetPLL3ClockFreq+0xf6>
2405914c:	e9c0 3300 	strd	r3, r3, [r0]
24059150:	e7cc      	b.n	240590ec <HAL_RCCEx_GetPLL3ClockFreq+0xd8>
24059152:	bf00      	nop
24059154:	58024400 	.word	0x58024400
24059158:	03d09000 	.word	0x03d09000
2405915c:	4c742400 	.word	0x4c742400
24059160:	4bb71b00 	.word	0x4bb71b00
24059164:	4a742400 	.word	0x4a742400

24059168 <HAL_RCCEx_GetPLL1ClockFreq>:
24059168:	494f      	ldr	r1, [pc, #316]	@ (240592a8 <HAL_RCCEx_GetPLL1ClockFreq+0x140>)
2405916a:	b570      	push	{r4, r5, r6, lr}
2405916c:	6a8c      	ldr	r4, [r1, #40]	@ 0x28
2405916e:	6a8e      	ldr	r6, [r1, #40]	@ 0x28
24059170:	6acd      	ldr	r5, [r1, #44]	@ 0x2c
24059172:	f416 7f7c 	tst.w	r6, #1008	@ 0x3f0
24059176:	f3c6 1305 	ubfx	r3, r6, #4, #6
2405917a:	6b4a      	ldr	r2, [r1, #52]	@ 0x34
2405917c:	f000 8090 	beq.w	240592a0 <HAL_RCCEx_GetPLL1ClockFreq+0x138>
24059180:	ee07 3a90 	vmov	s15, r3
24059184:	f3c2 03cc 	ubfx	r3, r2, #3, #13
24059188:	f005 0201 	and.w	r2, r5, #1
2405918c:	f004 0403 	and.w	r4, r4, #3
24059190:	eeb8 7ae7 	vcvt.f32.s32	s14, s15
24059194:	4353      	muls	r3, r2
24059196:	2c01      	cmp	r4, #1
24059198:	eeb7 6a00 	vmov.f32	s12, #112	@ 0x3f800000  1.0
2405919c:	ee06 3a90 	vmov	s13, r3
240591a0:	eefa 6ae9 	vcvt.f32.s32	s13, s13, #13
240591a4:	d04e      	beq.n	24059244 <HAL_RCCEx_GetPLL1ClockFreq+0xdc>
240591a6:	2c02      	cmp	r4, #2
240591a8:	d05e      	beq.n	24059268 <HAL_RCCEx_GetPLL1ClockFreq+0x100>
240591aa:	2c00      	cmp	r4, #0
240591ac:	d16a      	bne.n	24059284 <HAL_RCCEx_GetPLL1ClockFreq+0x11c>
240591ae:	680b      	ldr	r3, [r1, #0]
240591b0:	069b      	lsls	r3, r3, #26
240591b2:	d567      	bpl.n	24059284 <HAL_RCCEx_GetPLL1ClockFreq+0x11c>
240591b4:	680a      	ldr	r2, [r1, #0]
240591b6:	6b0b      	ldr	r3, [r1, #48]	@ 0x30
240591b8:	f3c2 01c1 	ubfx	r1, r2, #3, #2
240591bc:	4a3b      	ldr	r2, [pc, #236]	@ (240592ac <HAL_RCCEx_GetPLL1ClockFreq+0x144>)
240591be:	f3c3 0308 	ubfx	r3, r3, #0, #9
240591c2:	40ca      	lsrs	r2, r1
240591c4:	ee07 2a90 	vmov	s15, r2
240591c8:	eef8 5ae7 	vcvt.f32.s32	s11, s15
240591cc:	eec5 7a87 	vdiv.f32	s15, s11, s14
240591d0:	ee07 3a10 	vmov	s14, r3
240591d4:	eeb8 7ac7 	vcvt.f32.s32	s14, s14
240591d8:	ee37 7a26 	vadd.f32	s14, s14, s13
240591dc:	ee37 7a06 	vadd.f32	s14, s14, s12
240591e0:	ee67 7a87 	vmul.f32	s15, s15, s14
240591e4:	4a30      	ldr	r2, [pc, #192]	@ (240592a8 <HAL_RCCEx_GetPLL1ClockFreq+0x140>)
240591e6:	6b13      	ldr	r3, [r2, #48]	@ 0x30
240591e8:	f3c3 2346 	ubfx	r3, r3, #9, #7
240591ec:	ee07 3a10 	vmov	s14, r3
240591f0:	eeb8 7ac7 	vcvt.f32.s32	s14, s14
240591f4:	ee37 7a06 	vadd.f32	s14, s14, s12
240591f8:	eec7 6a87 	vdiv.f32	s13, s15, s14
240591fc:	eefc 6ae6 	vcvt.u32.f32	s13, s13
24059200:	edc0 6a00 	vstr	s13, [r0]
24059204:	6b13      	ldr	r3, [r2, #48]	@ 0x30
24059206:	f3c3 4306 	ubfx	r3, r3, #16, #7
2405920a:	ee07 3a10 	vmov	s14, r3
2405920e:	eeb8 7ac7 	vcvt.f32.s32	s14, s14
24059212:	ee37 7a06 	vadd.f32	s14, s14, s12
24059216:	eec7 6a87 	vdiv.f32	s13, s15, s14
2405921a:	eefc 6ae6 	vcvt.u32.f32	s13, s13
2405921e:	edc0 6a01 	vstr	s13, [r0, #4]
24059222:	6b13      	ldr	r3, [r2, #48]	@ 0x30
24059224:	f3c3 6306 	ubfx	r3, r3, #24, #7
24059228:	ee06 3a90 	vmov	s13, r3
2405922c:	eef8 6ae6 	vcvt.f32.s32	s13, s13
24059230:	ee76 6a86 	vadd.f32	s13, s13, s12
24059234:	ee87 7aa6 	vdiv.f32	s14, s15, s13
24059238:	eefc 7ac7 	vcvt.u32.f32	s15, s14
2405923c:	ee17 3a90 	vmov	r3, s15
24059240:	6083      	str	r3, [r0, #8]
24059242:	bd70      	pop	{r4, r5, r6, pc}
24059244:	6b0b      	ldr	r3, [r1, #48]	@ 0x30
24059246:	eddf 5a1a 	vldr	s11, [pc, #104]	@ 240592b0 <HAL_RCCEx_GetPLL1ClockFreq+0x148>
2405924a:	f3c3 0308 	ubfx	r3, r3, #0, #9
2405924e:	ee07 3a90 	vmov	s15, r3
24059252:	eef8 7ae7 	vcvt.f32.s32	s15, s15
24059256:	ee77 7aa6 	vadd.f32	s15, s15, s13
2405925a:	ee77 7a86 	vadd.f32	s15, s15, s12
2405925e:	eec5 6a87 	vdiv.f32	s13, s11, s14
24059262:	ee67 7aa6 	vmul.f32	s15, s15, s13
24059266:	e7bd      	b.n	240591e4 <HAL_RCCEx_GetPLL1ClockFreq+0x7c>
24059268:	6b0b      	ldr	r3, [r1, #48]	@ 0x30
2405926a:	eddf 5a12 	vldr	s11, [pc, #72]	@ 240592b4 <HAL_RCCEx_GetPLL1ClockFreq+0x14c>
2405926e:	f3c3 0308 	ubfx	r3, r3, #0, #9
24059272:	ee07 3a90 	vmov	s15, r3
24059276:	eef8 7ae7 	vcvt.f32.s32	s15, s15
2405927a:	ee77 7aa6 	vadd.f32	s15, s15, s13
2405927e:	ee77 7a86 	vadd.f32	s15, s15, s12
24059282:	e7ec      	b.n	2405925e <HAL_RCCEx_GetPLL1ClockFreq+0xf6>
24059284:	6b0b      	ldr	r3, [r1, #48]	@ 0x30
24059286:	eddf 5a0c 	vldr	s11, [pc, #48]	@ 240592b8 <HAL_RCCEx_GetPLL1ClockFreq+0x150>
2405928a:	f3c3 0308 	ubfx	r3, r3, #0, #9
2405928e:	ee07 3a90 	vmov	s15, r3
24059292:	eef8 7ae7 	vcvt.f32.s32	s15, s15
24059296:	ee77 7aa6 	vadd.f32	s15, s15, s13
2405929a:	ee77 7a86 	vadd.f32	s15, s15, s12
2405929e:	e7de      	b.n	2405925e <HAL_RCCEx_GetPLL1ClockFreq+0xf6>
240592a0:	e9c0 3300 	strd	r3, r3, [r0]
240592a4:	e7cc      	b.n	24059240 <HAL_RCCEx_GetPLL1ClockFreq+0xd8>
240592a6:	bf00      	nop
240592a8:	58024400 	.word	0x58024400
240592ac:	03d09000 	.word	0x03d09000
240592b0:	4a742400 	.word	0x4a742400
240592b4:	4bb71b00 	.word	0x4bb71b00
240592b8:	4c742400 	.word	0x4c742400

240592bc <HAL_RCCEx_GetPeriphCLKFreq>:
240592bc:	b51f      	push	{r0, r1, r2, r3, r4, lr}
240592be:	f5a0 7380 	sub.w	r3, r0, #256	@ 0x100
240592c2:	430b      	orrs	r3, r1
240592c4:	d114      	bne.n	240592f0 <HAL_RCCEx_GetPeriphCLKFreq+0x34>
240592c6:	4b9d      	ldr	r3, [pc, #628]	@ (2405953c <HAL_RCCEx_GetPeriphCLKFreq+0x280>)
240592c8:	6d1a      	ldr	r2, [r3, #80]	@ 0x50
240592ca:	f002 0207 	and.w	r2, r2, #7
240592ce:	2a04      	cmp	r2, #4
240592d0:	d82f      	bhi.n	24059332 <HAL_RCCEx_GetPeriphCLKFreq+0x76>
240592d2:	e8df f012 	tbh	[pc, r2, lsl #1]
240592d6:	00ed      	.short	0x00ed
240592d8:	0005001d 	.word	0x0005001d
240592dc:	00490153 	.word	0x00490153
240592e0:	6818      	ldr	r0, [r3, #0]
240592e2:	f010 5000 	ands.w	r0, r0, #536870912	@ 0x20000000
240592e6:	d01b      	beq.n	24059320 <HAL_RCCEx_GetPeriphCLKFreq+0x64>
240592e8:	a801      	add	r0, sp, #4
240592ea:	f7ff fe93 	bl	24059014 <HAL_RCCEx_GetPLL3ClockFreq>
240592ee:	e016      	b.n	2405931e <HAL_RCCEx_GetPeriphCLKFreq+0x62>
240592f0:	f5a0 7300 	sub.w	r3, r0, #512	@ 0x200
240592f4:	430b      	orrs	r3, r1
240592f6:	d11e      	bne.n	24059336 <HAL_RCCEx_GetPeriphCLKFreq+0x7a>
240592f8:	4b90      	ldr	r3, [pc, #576]	@ (2405953c <HAL_RCCEx_GetPeriphCLKFreq+0x280>)
240592fa:	6d1a      	ldr	r2, [r3, #80]	@ 0x50
240592fc:	f402 72e0 	and.w	r2, r2, #448	@ 0x1c0
24059300:	2a80      	cmp	r2, #128	@ 0x80
24059302:	d0ed      	beq.n	240592e0 <HAL_RCCEx_GetPeriphCLKFreq+0x24>
24059304:	d80f      	bhi.n	24059326 <HAL_RCCEx_GetPeriphCLKFreq+0x6a>
24059306:	2a00      	cmp	r2, #0
24059308:	f000 80d2 	beq.w	240594b0 <HAL_RCCEx_GetPeriphCLKFreq+0x1f4>
2405930c:	2a40      	cmp	r2, #64	@ 0x40
2405930e:	d110      	bne.n	24059332 <HAL_RCCEx_GetPeriphCLKFreq+0x76>
24059310:	6818      	ldr	r0, [r3, #0]
24059312:	f010 6000 	ands.w	r0, r0, #134217728	@ 0x8000000
24059316:	d003      	beq.n	24059320 <HAL_RCCEx_GetPeriphCLKFreq+0x64>
24059318:	a801      	add	r0, sp, #4
2405931a:	f7ff fdd1 	bl	24058ec0 <HAL_RCCEx_GetPLL2ClockFreq>
2405931e:	9801      	ldr	r0, [sp, #4]
24059320:	b005      	add	sp, #20
24059322:	f85d fb04 	ldr.w	pc, [sp], #4
24059326:	2ac0      	cmp	r2, #192	@ 0xc0
24059328:	f000 8128 	beq.w	2405957c <HAL_RCCEx_GetPeriphCLKFreq+0x2c0>
2405932c:	f5b2 7f80 	cmp.w	r2, #256	@ 0x100
24059330:	d01a      	beq.n	24059368 <HAL_RCCEx_GetPeriphCLKFreq+0xac>
24059332:	2000      	movs	r0, #0
24059334:	e7f4      	b.n	24059320 <HAL_RCCEx_GetPeriphCLKFreq+0x64>
24059336:	f5a0 6380 	sub.w	r3, r0, #1024	@ 0x400
2405933a:	430b      	orrs	r3, r1
2405933c:	d133      	bne.n	240593a6 <HAL_RCCEx_GetPeriphCLKFreq+0xea>
2405933e:	4b7f      	ldr	r3, [pc, #508]	@ (2405953c <HAL_RCCEx_GetPeriphCLKFreq+0x280>)
24059340:	6d1a      	ldr	r2, [r3, #80]	@ 0x50
24059342:	f402 6260 	and.w	r2, r2, #3584	@ 0xe00
24059346:	f5b2 6f80 	cmp.w	r2, #1024	@ 0x400
2405934a:	d0c9      	beq.n	240592e0 <HAL_RCCEx_GetPeriphCLKFreq+0x24>
2405934c:	d805      	bhi.n	2405935a <HAL_RCCEx_GetPeriphCLKFreq+0x9e>
2405934e:	2a00      	cmp	r2, #0
24059350:	f000 80ae 	beq.w	240594b0 <HAL_RCCEx_GetPeriphCLKFreq+0x1f4>
24059354:	f5b2 7f00 	cmp.w	r2, #512	@ 0x200
24059358:	e7d9      	b.n	2405930e <HAL_RCCEx_GetPeriphCLKFreq+0x52>
2405935a:	f5b2 6fc0 	cmp.w	r2, #1536	@ 0x600
2405935e:	f000 810d 	beq.w	2405957c <HAL_RCCEx_GetPeriphCLKFreq+0x2c0>
24059362:	f5b2 6f00 	cmp.w	r2, #2048	@ 0x800
24059366:	e7e3      	b.n	24059330 <HAL_RCCEx_GetPeriphCLKFreq+0x74>
24059368:	6cda      	ldr	r2, [r3, #76]	@ 0x4c
2405936a:	6819      	ldr	r1, [r3, #0]
2405936c:	f002 5240 	and.w	r2, r2, #805306368	@ 0x30000000
24059370:	0748      	lsls	r0, r1, #29
24059372:	d506      	bpl.n	24059382 <HAL_RCCEx_GetPeriphCLKFreq+0xc6>
24059374:	b92a      	cbnz	r2, 24059382 <HAL_RCCEx_GetPeriphCLKFreq+0xc6>
24059376:	681b      	ldr	r3, [r3, #0]
24059378:	f3c3 03c1 	ubfx	r3, r3, #3, #2
2405937c:	4870      	ldr	r0, [pc, #448]	@ (24059540 <HAL_RCCEx_GetPeriphCLKFreq+0x284>)
2405937e:	40d8      	lsrs	r0, r3
24059380:	e7ce      	b.n	24059320 <HAL_RCCEx_GetPeriphCLKFreq+0x64>
24059382:	4b6e      	ldr	r3, [pc, #440]	@ (2405953c <HAL_RCCEx_GetPeriphCLKFreq+0x280>)
24059384:	6819      	ldr	r1, [r3, #0]
24059386:	05c9      	lsls	r1, r1, #23
24059388:	d503      	bpl.n	24059392 <HAL_RCCEx_GetPeriphCLKFreq+0xd6>
2405938a:	f1b2 5f80 	cmp.w	r2, #268435456	@ 0x10000000
2405938e:	f000 80f3 	beq.w	24059578 <HAL_RCCEx_GetPeriphCLKFreq+0x2bc>
24059392:	6818      	ldr	r0, [r3, #0]
24059394:	f410 3000 	ands.w	r0, r0, #131072	@ 0x20000
24059398:	d0c2      	beq.n	24059320 <HAL_RCCEx_GetPeriphCLKFreq+0x64>
2405939a:	f1b2 5f00 	cmp.w	r2, #536870912	@ 0x20000000
2405939e:	4869      	ldr	r0, [pc, #420]	@ (24059544 <HAL_RCCEx_GetPeriphCLKFreq+0x288>)
240593a0:	bf18      	it	ne
240593a2:	2000      	movne	r0, #0
240593a4:	e7bc      	b.n	24059320 <HAL_RCCEx_GetPeriphCLKFreq+0x64>
240593a6:	f5a0 5380 	sub.w	r3, r0, #4096	@ 0x1000
240593aa:	430b      	orrs	r3, r1
240593ac:	d124      	bne.n	240593f8 <HAL_RCCEx_GetPeriphCLKFreq+0x13c>
240593ae:	4b63      	ldr	r3, [pc, #396]	@ (2405953c <HAL_RCCEx_GetPeriphCLKFreq+0x280>)
240593b0:	6d1a      	ldr	r2, [r3, #80]	@ 0x50
240593b2:	f402 42e0 	and.w	r2, r2, #28672	@ 0x7000
240593b6:	f5b2 5f00 	cmp.w	r2, #8192	@ 0x2000
240593ba:	d091      	beq.n	240592e0 <HAL_RCCEx_GetPeriphCLKFreq+0x24>
240593bc:	d804      	bhi.n	240593c8 <HAL_RCCEx_GetPeriphCLKFreq+0x10c>
240593be:	2a00      	cmp	r2, #0
240593c0:	d076      	beq.n	240594b0 <HAL_RCCEx_GetPeriphCLKFreq+0x1f4>
240593c2:	f5b2 5f80 	cmp.w	r2, #4096	@ 0x1000
240593c6:	e7a2      	b.n	2405930e <HAL_RCCEx_GetPeriphCLKFreq+0x52>
240593c8:	f5b2 5f40 	cmp.w	r2, #12288	@ 0x3000
240593cc:	f000 80d6 	beq.w	2405957c <HAL_RCCEx_GetPeriphCLKFreq+0x2c0>
240593d0:	f5b2 4f80 	cmp.w	r2, #16384	@ 0x4000
240593d4:	d1ad      	bne.n	24059332 <HAL_RCCEx_GetPeriphCLKFreq+0x76>
240593d6:	6cda      	ldr	r2, [r3, #76]	@ 0x4c
240593d8:	6819      	ldr	r1, [r3, #0]
240593da:	f002 5240 	and.w	r2, r2, #805306368	@ 0x30000000
240593de:	681b      	ldr	r3, [r3, #0]
240593e0:	0748      	lsls	r0, r1, #29
240593e2:	d501      	bpl.n	240593e8 <HAL_RCCEx_GetPeriphCLKFreq+0x12c>
240593e4:	2a00      	cmp	r2, #0
240593e6:	d0c7      	beq.n	24059378 <HAL_RCCEx_GetPeriphCLKFreq+0xbc>
240593e8:	05d9      	lsls	r1, r3, #23
240593ea:	d503      	bpl.n	240593f4 <HAL_RCCEx_GetPeriphCLKFreq+0x138>
240593ec:	f1b2 5f80 	cmp.w	r2, #268435456	@ 0x10000000
240593f0:	f000 80c2 	beq.w	24059578 <HAL_RCCEx_GetPeriphCLKFreq+0x2bc>
240593f4:	4b51      	ldr	r3, [pc, #324]	@ (2405953c <HAL_RCCEx_GetPeriphCLKFreq+0x280>)
240593f6:	e7cc      	b.n	24059392 <HAL_RCCEx_GetPeriphCLKFreq+0xd6>
240593f8:	f5a0 5300 	sub.w	r3, r0, #8192	@ 0x2000
240593fc:	430b      	orrs	r3, r1
240593fe:	d133      	bne.n	24059468 <HAL_RCCEx_GetPeriphCLKFreq+0x1ac>
24059400:	4a4e      	ldr	r2, [pc, #312]	@ (2405953c <HAL_RCCEx_GetPeriphCLKFreq+0x280>)
24059402:	6d13      	ldr	r3, [r2, #80]	@ 0x50
24059404:	f403 23e0 	and.w	r3, r3, #458752	@ 0x70000
24059408:	f5b3 3f40 	cmp.w	r3, #196608	@ 0x30000
2405940c:	f000 808e 	beq.w	2405952c <HAL_RCCEx_GetPeriphCLKFreq+0x270>
24059410:	d80c      	bhi.n	2405942c <HAL_RCCEx_GetPeriphCLKFreq+0x170>
24059412:	f5b3 3f80 	cmp.w	r3, #65536	@ 0x10000
24059416:	d015      	beq.n	24059444 <HAL_RCCEx_GetPeriphCLKFreq+0x188>
24059418:	f5b3 3f00 	cmp.w	r3, #131072	@ 0x20000
2405941c:	d01b      	beq.n	24059456 <HAL_RCCEx_GetPeriphCLKFreq+0x19a>
2405941e:	2b00      	cmp	r3, #0
24059420:	d187      	bne.n	24059332 <HAL_RCCEx_GetPeriphCLKFreq+0x76>
24059422:	b005      	add	sp, #20
24059424:	f85d eb04 	ldr.w	lr, [sp], #4
24059428:	f7fe bf7a 	b.w	24058320 <HAL_RCC_GetPCLK1Freq>
2405942c:	f5b3 2f80 	cmp.w	r3, #262144	@ 0x40000
24059430:	d075      	beq.n	2405951e <HAL_RCCEx_GetPeriphCLKFreq+0x262>
24059432:	f5b3 2fa0 	cmp.w	r3, #327680	@ 0x50000
24059436:	f47f af7c 	bne.w	24059332 <HAL_RCCEx_GetPeriphCLKFreq+0x76>
2405943a:	6810      	ldr	r0, [r2, #0]
2405943c:	4b41      	ldr	r3, [pc, #260]	@ (24059544 <HAL_RCCEx_GetPeriphCLKFreq+0x288>)
2405943e:	f410 3000 	ands.w	r0, r0, #131072	@ 0x20000
24059442:	e070      	b.n	24059526 <HAL_RCCEx_GetPeriphCLKFreq+0x26a>
24059444:	6810      	ldr	r0, [r2, #0]
24059446:	f010 6000 	ands.w	r0, r0, #134217728	@ 0x8000000
2405944a:	f43f af69 	beq.w	24059320 <HAL_RCCEx_GetPeriphCLKFreq+0x64>
2405944e:	a801      	add	r0, sp, #4
24059450:	f7ff fd36 	bl	24058ec0 <HAL_RCCEx_GetPLL2ClockFreq>
24059454:	e034      	b.n	240594c0 <HAL_RCCEx_GetPeriphCLKFreq+0x204>
24059456:	6810      	ldr	r0, [r2, #0]
24059458:	f010 5000 	ands.w	r0, r0, #536870912	@ 0x20000000
2405945c:	f43f af60 	beq.w	24059320 <HAL_RCCEx_GetPeriphCLKFreq+0x64>
24059460:	a801      	add	r0, sp, #4
24059462:	f7ff fdd7 	bl	24059014 <HAL_RCCEx_GetPLL3ClockFreq>
24059466:	e02b      	b.n	240594c0 <HAL_RCCEx_GetPeriphCLKFreq+0x204>
24059468:	f5a0 2300 	sub.w	r3, r0, #524288	@ 0x80000
2405946c:	430b      	orrs	r3, r1
2405946e:	d117      	bne.n	240594a0 <HAL_RCCEx_GetPeriphCLKFreq+0x1e4>
24059470:	4b32      	ldr	r3, [pc, #200]	@ (2405953c <HAL_RCCEx_GetPeriphCLKFreq+0x280>)
24059472:	6d9a      	ldr	r2, [r3, #88]	@ 0x58
24059474:	f402 3240 	and.w	r2, r2, #196608	@ 0x30000
24059478:	f5b2 3f80 	cmp.w	r2, #65536	@ 0x10000
2405947c:	d006      	beq.n	2405948c <HAL_RCCEx_GetPeriphCLKFreq+0x1d0>
2405947e:	f5b2 3f00 	cmp.w	r2, #131072	@ 0x20000
24059482:	d0a8      	beq.n	240593d6 <HAL_RCCEx_GetPeriphCLKFreq+0x11a>
24059484:	2a00      	cmp	r2, #0
24059486:	f47f af54 	bne.w	24059332 <HAL_RCCEx_GetPeriphCLKFreq+0x76>
2405948a:	e741      	b.n	24059310 <HAL_RCCEx_GetPeriphCLKFreq+0x54>
2405948c:	6818      	ldr	r0, [r3, #0]
2405948e:	f010 5000 	ands.w	r0, r0, #536870912	@ 0x20000000
24059492:	f43f af45 	beq.w	24059320 <HAL_RCCEx_GetPeriphCLKFreq+0x64>
24059496:	a801      	add	r0, sp, #4
24059498:	f7ff fdbc 	bl	24059014 <HAL_RCCEx_GetPLL3ClockFreq>
2405949c:	9803      	ldr	r0, [sp, #12]
2405949e:	e73f      	b.n	24059320 <HAL_RCCEx_GetPeriphCLKFreq+0x64>
240594a0:	f5a0 3380 	sub.w	r3, r0, #65536	@ 0x10000
240594a4:	430b      	orrs	r3, r1
240594a6:	d116      	bne.n	240594d6 <HAL_RCCEx_GetPeriphCLKFreq+0x21a>
240594a8:	4b24      	ldr	r3, [pc, #144]	@ (2405953c <HAL_RCCEx_GetPeriphCLKFreq+0x280>)
240594aa:	6cda      	ldr	r2, [r3, #76]	@ 0x4c
240594ac:	03d2      	lsls	r2, r2, #15
240594ae:	d409      	bmi.n	240594c4 <HAL_RCCEx_GetPeriphCLKFreq+0x208>
240594b0:	6818      	ldr	r0, [r3, #0]
240594b2:	f010 7000 	ands.w	r0, r0, #33554432	@ 0x2000000
240594b6:	f43f af33 	beq.w	24059320 <HAL_RCCEx_GetPeriphCLKFreq+0x64>
240594ba:	a801      	add	r0, sp, #4
240594bc:	f7ff fe54 	bl	24059168 <HAL_RCCEx_GetPLL1ClockFreq>
240594c0:	9802      	ldr	r0, [sp, #8]
240594c2:	e72d      	b.n	24059320 <HAL_RCCEx_GetPeriphCLKFreq+0x64>
240594c4:	6818      	ldr	r0, [r3, #0]
240594c6:	f010 6000 	ands.w	r0, r0, #134217728	@ 0x8000000
240594ca:	f43f af29 	beq.w	24059320 <HAL_RCCEx_GetPeriphCLKFreq+0x64>
240594ce:	a801      	add	r0, sp, #4
240594d0:	f7ff fcf6 	bl	24058ec0 <HAL_RCCEx_GetPLL2ClockFreq>
240594d4:	e7e2      	b.n	2405949c <HAL_RCCEx_GetPeriphCLKFreq+0x1e0>
240594d6:	f5a0 4380 	sub.w	r3, r0, #16384	@ 0x4000
240594da:	430b      	orrs	r3, r1
240594dc:	d136      	bne.n	2405954c <HAL_RCCEx_GetPeriphCLKFreq+0x290>
240594de:	4a17      	ldr	r2, [pc, #92]	@ (2405953c <HAL_RCCEx_GetPeriphCLKFreq+0x280>)
240594e0:	6d93      	ldr	r3, [r2, #88]	@ 0x58
240594e2:	f003 43e0 	and.w	r3, r3, #1879048192	@ 0x70000000
240594e6:	f1b3 5f40 	cmp.w	r3, #805306368	@ 0x30000000
240594ea:	d01f      	beq.n	2405952c <HAL_RCCEx_GetPeriphCLKFreq+0x270>
240594ec:	d80d      	bhi.n	2405950a <HAL_RCCEx_GetPeriphCLKFreq+0x24e>
240594ee:	f1b3 5f80 	cmp.w	r3, #268435456	@ 0x10000000
240594f2:	d0a7      	beq.n	24059444 <HAL_RCCEx_GetPeriphCLKFreq+0x188>
240594f4:	f1b3 5f00 	cmp.w	r3, #536870912	@ 0x20000000
240594f8:	d0ad      	beq.n	24059456 <HAL_RCCEx_GetPeriphCLKFreq+0x19a>
240594fa:	2b00      	cmp	r3, #0
240594fc:	f47f af19 	bne.w	24059332 <HAL_RCCEx_GetPeriphCLKFreq+0x76>
24059500:	b005      	add	sp, #20
24059502:	f85d eb04 	ldr.w	lr, [sp], #4
24059506:	f7ff bcc9 	b.w	24058e9c <HAL_RCCEx_GetD3PCLK1Freq>
2405950a:	f1b3 4fa0 	cmp.w	r3, #1342177280	@ 0x50000000
2405950e:	d094      	beq.n	2405943a <HAL_RCCEx_GetPeriphCLKFreq+0x17e>
24059510:	f1b3 4fc0 	cmp.w	r3, #1610612736	@ 0x60000000
24059514:	d032      	beq.n	2405957c <HAL_RCCEx_GetPeriphCLKFreq+0x2c0>
24059516:	f1b3 4f80 	cmp.w	r3, #1073741824	@ 0x40000000
2405951a:	f47f af0a 	bne.w	24059332 <HAL_RCCEx_GetPeriphCLKFreq+0x76>
2405951e:	6810      	ldr	r0, [r2, #0]
24059520:	4b09      	ldr	r3, [pc, #36]	@ (24059548 <HAL_RCCEx_GetPeriphCLKFreq+0x28c>)
24059522:	f410 7080 	ands.w	r0, r0, #256	@ 0x100
24059526:	bf18      	it	ne
24059528:	4618      	movne	r0, r3
2405952a:	e6f9      	b.n	24059320 <HAL_RCCEx_GetPeriphCLKFreq+0x64>
2405952c:	6810      	ldr	r0, [r2, #0]
2405952e:	f010 0004 	ands.w	r0, r0, #4
24059532:	f43f aef5 	beq.w	24059320 <HAL_RCCEx_GetPeriphCLKFreq+0x64>
24059536:	6813      	ldr	r3, [r2, #0]
24059538:	e71e      	b.n	24059378 <HAL_RCCEx_GetPeriphCLKFreq+0xbc>
2405953a:	bf00      	nop
2405953c:	58024400 	.word	0x58024400
24059540:	03d09000 	.word	0x03d09000
24059544:	016e3600 	.word	0x016e3600
24059548:	003d0900 	.word	0x003d0900
2405954c:	f5a0 4000 	sub.w	r0, r0, #32768	@ 0x8000
24059550:	4308      	orrs	r0, r1
24059552:	f47f aeee 	bne.w	24059332 <HAL_RCCEx_GetPeriphCLKFreq+0x76>
24059556:	4a0a      	ldr	r2, [pc, #40]	@ (24059580 <HAL_RCCEx_GetPeriphCLKFreq+0x2c4>)
24059558:	6d13      	ldr	r3, [r2, #80]	@ 0x50
2405955a:	f003 5340 	and.w	r3, r3, #805306368	@ 0x30000000
2405955e:	f1b3 5f80 	cmp.w	r3, #268435456	@ 0x10000000
24059562:	d007      	beq.n	24059574 <HAL_RCCEx_GetPeriphCLKFreq+0x2b8>
24059564:	f1b3 5f00 	cmp.w	r3, #536870912	@ 0x20000000
24059568:	f43f af6c 	beq.w	24059444 <HAL_RCCEx_GetPeriphCLKFreq+0x188>
2405956c:	2b00      	cmp	r3, #0
2405956e:	f47f aee0 	bne.w	24059332 <HAL_RCCEx_GetPeriphCLKFreq+0x76>
24059572:	e762      	b.n	2405943a <HAL_RCCEx_GetPeriphCLKFreq+0x17e>
24059574:	6810      	ldr	r0, [r2, #0]
24059576:	e79c      	b.n	240594b2 <HAL_RCCEx_GetPeriphCLKFreq+0x1f6>
24059578:	4802      	ldr	r0, [pc, #8]	@ (24059584 <HAL_RCCEx_GetPeriphCLKFreq+0x2c8>)
2405957a:	e6d1      	b.n	24059320 <HAL_RCCEx_GetPeriphCLKFreq+0x64>
2405957c:	4802      	ldr	r0, [pc, #8]	@ (24059588 <HAL_RCCEx_GetPeriphCLKFreq+0x2cc>)
2405957e:	e6cf      	b.n	24059320 <HAL_RCCEx_GetPeriphCLKFreq+0x64>
24059580:	58024400 	.word	0x58024400
24059584:	003d0900 	.word	0x003d0900
24059588:	00bb8000 	.word	0x00bb8000

2405958c <HAL_RTC_WaitForSynchro>:
2405958c:	b538      	push	{r3, r4, r5, lr}
2405958e:	4a0a      	ldr	r2, [pc, #40]	@ (240595b8 <HAL_RTC_WaitForSynchro+0x2c>)
24059590:	4604      	mov	r4, r0
24059592:	6803      	ldr	r3, [r0, #0]
24059594:	60da      	str	r2, [r3, #12]
24059596:	f7fa feb3 	bl	24054300 <HAL_GetTick>
2405959a:	4605      	mov	r5, r0
2405959c:	6823      	ldr	r3, [r4, #0]
2405959e:	68db      	ldr	r3, [r3, #12]
240595a0:	069b      	lsls	r3, r3, #26
240595a2:	d501      	bpl.n	240595a8 <HAL_RTC_WaitForSynchro+0x1c>
240595a4:	2000      	movs	r0, #0
240595a6:	bd38      	pop	{r3, r4, r5, pc}
240595a8:	f7fa feaa 	bl	24054300 <HAL_GetTick>
240595ac:	1b40      	subs	r0, r0, r5
240595ae:	f5b0 7f7a 	cmp.w	r0, #1000	@ 0x3e8
240595b2:	d9f3      	bls.n	2405959c <HAL_RTC_WaitForSynchro+0x10>
240595b4:	2003      	movs	r0, #3
240595b6:	e7f6      	b.n	240595a6 <HAL_RTC_WaitForSynchro+0x1a>
240595b8:	0001005f 	.word	0x0001005f

240595bc <RTC_EnterInitMode>:
240595bc:	6802      	ldr	r2, [r0, #0]
240595be:	b570      	push	{r4, r5, r6, lr}
240595c0:	68d4      	ldr	r4, [r2, #12]
240595c2:	4605      	mov	r5, r0
240595c4:	f014 0440 	ands.w	r4, r4, #64	@ 0x40
240595c8:	d11b      	bne.n	24059602 <RTC_EnterInitMode+0x46>
240595ca:	68d3      	ldr	r3, [r2, #12]
240595cc:	f043 0380 	orr.w	r3, r3, #128	@ 0x80
240595d0:	60d3      	str	r3, [r2, #12]
240595d2:	f7fa fe95 	bl	24054300 <HAL_GetTick>
240595d6:	4623      	mov	r3, r4
240595d8:	4606      	mov	r6, r0
240595da:	682a      	ldr	r2, [r5, #0]
240595dc:	68d4      	ldr	r4, [r2, #12]
240595de:	f014 0440 	ands.w	r4, r4, #64	@ 0x40
240595e2:	d101      	bne.n	240595e8 <RTC_EnterInitMode+0x2c>
240595e4:	2b03      	cmp	r3, #3
240595e6:	d101      	bne.n	240595ec <RTC_EnterInitMode+0x30>
240595e8:	4618      	mov	r0, r3
240595ea:	bd70      	pop	{r4, r5, r6, pc}
240595ec:	f7fa fe88 	bl	24054300 <HAL_GetTick>
240595f0:	1b80      	subs	r0, r0, r6
240595f2:	4623      	mov	r3, r4
240595f4:	f5b0 7f7a 	cmp.w	r0, #1000	@ 0x3e8
240595f8:	d9ef      	bls.n	240595da <RTC_EnterInitMode+0x1e>
240595fa:	2303      	movs	r3, #3
240595fc:	f885 3025 	strb.w	r3, [r5, #37]	@ 0x25
24059600:	e7eb      	b.n	240595da <RTC_EnterInitMode+0x1e>
24059602:	2300      	movs	r3, #0
24059604:	e7f0      	b.n	240595e8 <RTC_EnterInitMode+0x2c>
	...

24059608 <RTC_ExitInitMode>:
24059608:	b538      	push	{r3, r4, r5, lr}
2405960a:	4c0f      	ldr	r4, [pc, #60]	@ (24059648 <RTC_ExitInitMode+0x40>)
2405960c:	4605      	mov	r5, r0
2405960e:	68e3      	ldr	r3, [r4, #12]
24059610:	f023 0380 	bic.w	r3, r3, #128	@ 0x80
24059614:	60e3      	str	r3, [r4, #12]
24059616:	69a3      	ldr	r3, [r4, #24]
24059618:	069b      	lsls	r3, r3, #26
2405961a:	d406      	bmi.n	2405962a <RTC_ExitInitMode+0x22>
2405961c:	f7ff ffb6 	bl	2405958c <HAL_RTC_WaitForSynchro>
24059620:	b110      	cbz	r0, 24059628 <RTC_ExitInitMode+0x20>
24059622:	2003      	movs	r0, #3
24059624:	f885 0025 	strb.w	r0, [r5, #37]	@ 0x25
24059628:	bd38      	pop	{r3, r4, r5, pc}
2405962a:	69a3      	ldr	r3, [r4, #24]
2405962c:	f023 0320 	bic.w	r3, r3, #32
24059630:	61a3      	str	r3, [r4, #24]
24059632:	f7ff ffab 	bl	2405958c <HAL_RTC_WaitForSynchro>
24059636:	b110      	cbz	r0, 2405963e <RTC_ExitInitMode+0x36>
24059638:	2003      	movs	r0, #3
2405963a:	f885 0025 	strb.w	r0, [r5, #37]	@ 0x25
2405963e:	69a3      	ldr	r3, [r4, #24]
24059640:	f043 0320 	orr.w	r3, r3, #32
24059644:	61a3      	str	r3, [r4, #24]
24059646:	e7ef      	b.n	24059628 <RTC_ExitInitMode+0x20>
24059648:	58004000 	.word	0x58004000

2405964c <HAL_RTC_Init>:
2405964c:	b538      	push	{r3, r4, r5, lr}
2405964e:	4604      	mov	r4, r0
24059650:	2800      	cmp	r0, #0
24059652:	d047      	beq.n	240596e4 <HAL_RTC_Init+0x98>
24059654:	f890 3025 	ldrb.w	r3, [r0, #37]	@ 0x25
24059658:	f003 02ff 	and.w	r2, r3, #255	@ 0xff
2405965c:	b91b      	cbnz	r3, 24059666 <HAL_RTC_Init+0x1a>
2405965e:	f880 2024 	strb.w	r2, [r0, #36]	@ 0x24
24059662:	f7fa fbad 	bl	24053dc0 <HAL_RTC_MspInit>
24059666:	2302      	movs	r3, #2
24059668:	f884 3025 	strb.w	r3, [r4, #37]	@ 0x25
2405966c:	6823      	ldr	r3, [r4, #0]
2405966e:	68da      	ldr	r2, [r3, #12]
24059670:	06d2      	lsls	r2, r2, #27
24059672:	d504      	bpl.n	2405967e <HAL_RTC_Init+0x32>
24059674:	2301      	movs	r3, #1
24059676:	2000      	movs	r0, #0
24059678:	f884 3025 	strb.w	r3, [r4, #37]	@ 0x25
2405967c:	bd38      	pop	{r3, r4, r5, pc}
2405967e:	22ca      	movs	r2, #202	@ 0xca
24059680:	4620      	mov	r0, r4
24059682:	625a      	str	r2, [r3, #36]	@ 0x24
24059684:	2253      	movs	r2, #83	@ 0x53
24059686:	625a      	str	r2, [r3, #36]	@ 0x24
24059688:	f7ff ff98 	bl	240595bc <RTC_EnterInitMode>
2405968c:	bb20      	cbnz	r0, 240596d8 <HAL_RTC_Init+0x8c>
2405968e:	6822      	ldr	r2, [r4, #0]
24059690:	6920      	ldr	r0, [r4, #16]
24059692:	6993      	ldr	r3, [r2, #24]
24059694:	f023 638e 	bic.w	r3, r3, #74448896	@ 0x4700000
24059698:	f023 0340 	bic.w	r3, r3, #64	@ 0x40
2405969c:	6193      	str	r3, [r2, #24]
2405969e:	6863      	ldr	r3, [r4, #4]
240596a0:	6991      	ldr	r1, [r2, #24]
240596a2:	4303      	orrs	r3, r0
240596a4:	69a0      	ldr	r0, [r4, #24]
240596a6:	4303      	orrs	r3, r0
240596a8:	4620      	mov	r0, r4
240596aa:	430b      	orrs	r3, r1
240596ac:	6193      	str	r3, [r2, #24]
240596ae:	e9d4 1302 	ldrd	r1, r3, [r4, #8]
240596b2:	ea43 4301 	orr.w	r3, r3, r1, lsl #16
240596b6:	6113      	str	r3, [r2, #16]
240596b8:	f7ff ffa6 	bl	24059608 <RTC_ExitInitMode>
240596bc:	b960      	cbnz	r0, 240596d8 <HAL_RTC_Init+0x8c>
240596be:	6822      	ldr	r2, [r4, #0]
240596c0:	6993      	ldr	r3, [r2, #24]
240596c2:	f023 4360 	bic.w	r3, r3, #3758096384	@ 0xe0000000
240596c6:	6193      	str	r3, [r2, #24]
240596c8:	6991      	ldr	r1, [r2, #24]
240596ca:	e9d4 5307 	ldrd	r5, r3, [r4, #28]
240596ce:	432b      	orrs	r3, r5
240596d0:	6965      	ldr	r5, [r4, #20]
240596d2:	432b      	orrs	r3, r5
240596d4:	430b      	orrs	r3, r1
240596d6:	6193      	str	r3, [r2, #24]
240596d8:	6823      	ldr	r3, [r4, #0]
240596da:	22ff      	movs	r2, #255	@ 0xff
240596dc:	625a      	str	r2, [r3, #36]	@ 0x24
240596de:	2800      	cmp	r0, #0
240596e0:	d0c8      	beq.n	24059674 <HAL_RTC_Init+0x28>
240596e2:	e7cb      	b.n	2405967c <HAL_RTC_Init+0x30>
240596e4:	2001      	movs	r0, #1
240596e6:	e7c9      	b.n	2405967c <HAL_RTC_Init+0x30>

240596e8 <RTC_ByteToBcd2>:
240596e8:	2300      	movs	r3, #0
240596ea:	2809      	cmp	r0, #9
240596ec:	d803      	bhi.n	240596f6 <RTC_ByteToBcd2+0xe>
240596ee:	ea40 1003 	orr.w	r0, r0, r3, lsl #4
240596f2:	b2c0      	uxtb	r0, r0
240596f4:	4770      	bx	lr
240596f6:	380a      	subs	r0, #10
240596f8:	3301      	adds	r3, #1
240596fa:	b2c0      	uxtb	r0, r0
240596fc:	e7f5      	b.n	240596ea <RTC_ByteToBcd2+0x2>

240596fe <HAL_RTC_SetTime>:
240596fe:	e92d 41f0 	stmdb	sp!, {r4, r5, r6, r7, r8, lr}
24059702:	f890 3024 	ldrb.w	r3, [r0, #36]	@ 0x24
24059706:	4605      	mov	r5, r0
24059708:	460e      	mov	r6, r1
2405970a:	4690      	mov	r8, r2
2405970c:	2b01      	cmp	r3, #1
2405970e:	f04f 0302 	mov.w	r3, #2
24059712:	d054      	beq.n	240597be <HAL_RTC_SetTime+0xc0>
24059714:	2201      	movs	r2, #1
24059716:	f880 3025 	strb.w	r3, [r0, #37]	@ 0x25
2405971a:	6803      	ldr	r3, [r0, #0]
2405971c:	f880 2024 	strb.w	r2, [r0, #36]	@ 0x24
24059720:	22ca      	movs	r2, #202	@ 0xca
24059722:	625a      	str	r2, [r3, #36]	@ 0x24
24059724:	2253      	movs	r2, #83	@ 0x53
24059726:	625a      	str	r2, [r3, #36]	@ 0x24
24059728:	f7ff ff48 	bl	240595bc <RTC_EnterInitMode>
2405972c:	bb70      	cbnz	r0, 2405978c <HAL_RTC_SetTime+0x8e>
2405972e:	6829      	ldr	r1, [r5, #0]
24059730:	7830      	ldrb	r0, [r6, #0]
24059732:	7874      	ldrb	r4, [r6, #1]
24059734:	78b7      	ldrb	r7, [r6, #2]
24059736:	698b      	ldr	r3, [r1, #24]
24059738:	f1b8 0f00 	cmp.w	r8, #0
2405973c:	d132      	bne.n	240597a4 <HAL_RTC_SetTime+0xa6>
2405973e:	f013 0340 	ands.w	r3, r3, #64	@ 0x40
24059742:	bf08      	it	eq
24059744:	70f3      	strbeq	r3, [r6, #3]
24059746:	f7ff ffcf 	bl	240596e8 <RTC_ByteToBcd2>
2405974a:	4680      	mov	r8, r0
2405974c:	4620      	mov	r0, r4
2405974e:	f7ff ffcb 	bl	240596e8 <RTC_ByteToBcd2>
24059752:	4602      	mov	r2, r0
24059754:	4638      	mov	r0, r7
24059756:	f7ff ffc7 	bl	240596e8 <RTC_ByteToBcd2>
2405975a:	78f3      	ldrb	r3, [r6, #3]
2405975c:	ea40 5383 	orr.w	r3, r0, r3, lsl #22
24059760:	ea43 4308 	orr.w	r3, r3, r8, lsl #16
24059764:	ea43 2302 	orr.w	r3, r3, r2, lsl #8
24059768:	f003 337f 	and.w	r3, r3, #2139062143	@ 0x7f7f7f7f
2405976c:	f023 43fe 	bic.w	r3, r3, #2130706432	@ 0x7f000000
24059770:	600b      	str	r3, [r1, #0]
24059772:	698b      	ldr	r3, [r1, #24]
24059774:	f423 2380 	bic.w	r3, r3, #262144	@ 0x40000
24059778:	618b      	str	r3, [r1, #24]
2405977a:	698a      	ldr	r2, [r1, #24]
2405977c:	e9d6 3003 	ldrd	r3, r0, [r6, #12]
24059780:	4303      	orrs	r3, r0
24059782:	4628      	mov	r0, r5
24059784:	4313      	orrs	r3, r2
24059786:	618b      	str	r3, [r1, #24]
24059788:	f7ff ff3e 	bl	24059608 <RTC_ExitInitMode>
2405978c:	682b      	ldr	r3, [r5, #0]
2405978e:	22ff      	movs	r2, #255	@ 0xff
24059790:	625a      	str	r2, [r3, #36]	@ 0x24
24059792:	b910      	cbnz	r0, 2405979a <HAL_RTC_SetTime+0x9c>
24059794:	2301      	movs	r3, #1
24059796:	f885 3025 	strb.w	r3, [r5, #37]	@ 0x25
2405979a:	2300      	movs	r3, #0
2405979c:	f885 3024 	strb.w	r3, [r5, #36]	@ 0x24
240597a0:	e8bd 81f0 	ldmia.w	sp!, {r4, r5, r6, r7, r8, pc}
240597a4:	f013 0340 	ands.w	r3, r3, #64	@ 0x40
240597a8:	ea4f 2404 	mov.w	r4, r4, lsl #8
240597ac:	bf08      	it	eq
240597ae:	70f3      	strbeq	r3, [r6, #3]
240597b0:	ea44 4300 	orr.w	r3, r4, r0, lsl #16
240597b4:	78f2      	ldrb	r2, [r6, #3]
240597b6:	433b      	orrs	r3, r7
240597b8:	ea43 5382 	orr.w	r3, r3, r2, lsl #22
240597bc:	e7d4      	b.n	24059768 <HAL_RTC_SetTime+0x6a>
240597be:	4618      	mov	r0, r3
240597c0:	e7ee      	b.n	240597a0 <HAL_RTC_SetTime+0xa2>

240597c2 <HAL_RTC_SetDate>:
240597c2:	b5f8      	push	{r3, r4, r5, r6, r7, lr}
240597c4:	f890 3024 	ldrb.w	r3, [r0, #36]	@ 0x24
240597c8:	4605      	mov	r5, r0
240597ca:	2002      	movs	r0, #2
240597cc:	2b01      	cmp	r3, #1
240597ce:	d02b      	beq.n	24059828 <HAL_RTC_SetDate+0x66>
240597d0:	2301      	movs	r3, #1
240597d2:	f885 0025 	strb.w	r0, [r5, #37]	@ 0x25
240597d6:	f885 3024 	strb.w	r3, [r5, #36]	@ 0x24
240597da:	780e      	ldrb	r6, [r1, #0]
240597dc:	78c8      	ldrb	r0, [r1, #3]
240597de:	784c      	ldrb	r4, [r1, #1]
240597e0:	0376      	lsls	r6, r6, #13
240597e2:	788f      	ldrb	r7, [r1, #2]
240597e4:	b30a      	cbz	r2, 2405982a <HAL_RTC_SetDate+0x68>
240597e6:	ea46 4300 	orr.w	r3, r6, r0, lsl #16
240597ea:	433b      	orrs	r3, r7
240597ec:	ea43 2404 	orr.w	r4, r3, r4, lsl #8
240597f0:	682b      	ldr	r3, [r5, #0]
240597f2:	22ca      	movs	r2, #202	@ 0xca
240597f4:	4628      	mov	r0, r5
240597f6:	625a      	str	r2, [r3, #36]	@ 0x24
240597f8:	2253      	movs	r2, #83	@ 0x53
240597fa:	625a      	str	r2, [r3, #36]	@ 0x24
240597fc:	f7ff fede 	bl	240595bc <RTC_EnterInitMode>
24059800:	b940      	cbnz	r0, 24059814 <HAL_RTC_SetDate+0x52>
24059802:	f024 447f 	bic.w	r4, r4, #4278190080	@ 0xff000000
24059806:	682a      	ldr	r2, [r5, #0]
24059808:	4628      	mov	r0, r5
2405980a:	f024 04c0 	bic.w	r4, r4, #192	@ 0xc0
2405980e:	6054      	str	r4, [r2, #4]
24059810:	f7ff fefa 	bl	24059608 <RTC_ExitInitMode>
24059814:	682b      	ldr	r3, [r5, #0]
24059816:	22ff      	movs	r2, #255	@ 0xff
24059818:	625a      	str	r2, [r3, #36]	@ 0x24
2405981a:	b910      	cbnz	r0, 24059822 <HAL_RTC_SetDate+0x60>
2405981c:	2301      	movs	r3, #1
2405981e:	f885 3025 	strb.w	r3, [r5, #37]	@ 0x25
24059822:	2300      	movs	r3, #0
24059824:	f885 3024 	strb.w	r3, [r5, #36]	@ 0x24
24059828:	bdf8      	pop	{r3, r4, r5, r6, r7, pc}
2405982a:	06e3      	lsls	r3, r4, #27
2405982c:	bf42      	ittt	mi
2405982e:	f024 0410 	bicmi.w	r4, r4, #16
24059832:	340a      	addmi	r4, #10
24059834:	704c      	strbmi	r4, [r1, #1]
24059836:	f7ff ff57 	bl	240596e8 <RTC_ByteToBcd2>
2405983a:	4604      	mov	r4, r0
2405983c:	7848      	ldrb	r0, [r1, #1]
2405983e:	f7ff ff53 	bl	240596e8 <RTC_ByteToBcd2>
24059842:	4602      	mov	r2, r0
24059844:	4638      	mov	r0, r7
24059846:	f7ff ff4f 	bl	240596e8 <RTC_ByteToBcd2>
2405984a:	ea40 0306 	orr.w	r3, r0, r6
2405984e:	ea43 4304 	orr.w	r3, r3, r4, lsl #16
24059852:	ea43 2402 	orr.w	r4, r3, r2, lsl #8
24059856:	e7cb      	b.n	240597f0 <HAL_RTC_SetDate+0x2e>

24059858 <RTC_Bcd2ToByte>:
24059858:	0903      	lsrs	r3, r0, #4
2405985a:	f000 000f 	and.w	r0, r0, #15
2405985e:	eb03 0383 	add.w	r3, r3, r3, lsl #2
24059862:	eb00 0043 	add.w	r0, r0, r3, lsl #1
24059866:	b2c0      	uxtb	r0, r0
24059868:	4770      	bx	lr

2405986a <HAL_RTC_GetTime>:
2405986a:	b538      	push	{r3, r4, r5, lr}
2405986c:	6803      	ldr	r3, [r0, #0]
2405986e:	6898      	ldr	r0, [r3, #8]
24059870:	6048      	str	r0, [r1, #4]
24059872:	6918      	ldr	r0, [r3, #16]
24059874:	681b      	ldr	r3, [r3, #0]
24059876:	f3c0 000e 	ubfx	r0, r0, #0, #15
2405987a:	f3c3 2506 	ubfx	r5, r3, #8, #7
2405987e:	f003 047f 	and.w	r4, r3, #127	@ 0x7f
24059882:	6088      	str	r0, [r1, #8]
24059884:	f3c3 4005 	ubfx	r0, r3, #16, #6
24059888:	f3c3 5380 	ubfx	r3, r3, #22, #1
2405988c:	704d      	strb	r5, [r1, #1]
2405988e:	7008      	strb	r0, [r1, #0]
24059890:	708c      	strb	r4, [r1, #2]
24059892:	70cb      	strb	r3, [r1, #3]
24059894:	b952      	cbnz	r2, 240598ac <HAL_RTC_GetTime+0x42>
24059896:	f7ff ffdf 	bl	24059858 <RTC_Bcd2ToByte>
2405989a:	7008      	strb	r0, [r1, #0]
2405989c:	4628      	mov	r0, r5
2405989e:	f7ff ffdb 	bl	24059858 <RTC_Bcd2ToByte>
240598a2:	7048      	strb	r0, [r1, #1]
240598a4:	4620      	mov	r0, r4
240598a6:	f7ff ffd7 	bl	24059858 <RTC_Bcd2ToByte>
240598aa:	7088      	strb	r0, [r1, #2]
240598ac:	2000      	movs	r0, #0
240598ae:	bd38      	pop	{r3, r4, r5, pc}

240598b0 <HAL_RTC_GetDate>:
240598b0:	b538      	push	{r3, r4, r5, lr}
240598b2:	6803      	ldr	r3, [r0, #0]
240598b4:	685b      	ldr	r3, [r3, #4]
240598b6:	f3c3 4007 	ubfx	r0, r3, #16, #8
240598ba:	f3c3 2504 	ubfx	r5, r3, #8, #5
240598be:	f003 043f 	and.w	r4, r3, #63	@ 0x3f
240598c2:	f3c3 3342 	ubfx	r3, r3, #13, #3
240598c6:	70c8      	strb	r0, [r1, #3]
240598c8:	704d      	strb	r5, [r1, #1]
240598ca:	708c      	strb	r4, [r1, #2]
240598cc:	700b      	strb	r3, [r1, #0]
240598ce:	b952      	cbnz	r2, 240598e6 <HAL_RTC_GetDate+0x36>
240598d0:	f7ff ffc2 	bl	24059858 <RTC_Bcd2ToByte>
240598d4:	70c8      	strb	r0, [r1, #3]
240598d6:	4628      	mov	r0, r5
240598d8:	f7ff ffbe 	bl	24059858 <RTC_Bcd2ToByte>
240598dc:	7048      	strb	r0, [r1, #1]
240598de:	4620      	mov	r0, r4
240598e0:	f7ff ffba 	bl	24059858 <RTC_Bcd2ToByte>
240598e4:	7088      	strb	r0, [r1, #2]
240598e6:	2000      	movs	r0, #0
240598e8:	bd38      	pop	{r3, r4, r5, pc}

240598ea <SAI_InterruptFlag>:
240598ea:	2901      	cmp	r1, #1
240598ec:	6c41      	ldr	r1, [r0, #68]	@ 0x44
240598ee:	6842      	ldr	r2, [r0, #4]
240598f0:	bf0c      	ite	eq
240598f2:	2309      	moveq	r3, #9
240598f4:	2301      	movne	r3, #1
240598f6:	2908      	cmp	r1, #8
240598f8:	d105      	bne.n	24059906 <SAI_InterruptFlag+0x1c>
240598fa:	f022 0102 	bic.w	r1, r2, #2
240598fe:	2901      	cmp	r1, #1
24059900:	bf08      	it	eq
24059902:	f043 0310 	orreq.w	r3, r3, #16
24059906:	3a02      	subs	r2, #2
24059908:	2a01      	cmp	r2, #1
2405990a:	bf94      	ite	ls
2405990c:	f043 0060 	orrls.w	r0, r3, #96	@ 0x60
24059910:	f043 0004 	orrhi.w	r0, r3, #4
24059914:	4770      	bx	lr
	...

24059918 <SAI_Disable>:
24059918:	4b0e      	ldr	r3, [pc, #56]	@ (24059954 <SAI_Disable+0x3c>)
2405991a:	4601      	mov	r1, r0
2405991c:	681a      	ldr	r2, [r3, #0]
2405991e:	f641 3358 	movw	r3, #7000	@ 0x1b58
24059922:	b510      	push	{r4, lr}
24059924:	fbb2 f2f3 	udiv	r2, r2, r3
24059928:	6804      	ldr	r4, [r0, #0]
2405992a:	0092      	lsls	r2, r2, #2
2405992c:	6823      	ldr	r3, [r4, #0]
2405992e:	f423 3380 	bic.w	r3, r3, #65536	@ 0x10000
24059932:	6023      	str	r3, [r4, #0]
24059934:	b93a      	cbnz	r2, 24059946 <SAI_Disable+0x2e>
24059936:	f8d1 3094 	ldr.w	r3, [r1, #148]	@ 0x94
2405993a:	2003      	movs	r0, #3
2405993c:	f043 0340 	orr.w	r3, r3, #64	@ 0x40
24059940:	f8c1 3094 	str.w	r3, [r1, #148]	@ 0x94
24059944:	bd10      	pop	{r4, pc}
24059946:	6820      	ldr	r0, [r4, #0]
24059948:	3a01      	subs	r2, #1
2405994a:	f410 3080 	ands.w	r0, r0, #65536	@ 0x10000
2405994e:	d1f1      	bne.n	24059934 <SAI_Disable+0x1c>
24059950:	e7f8      	b.n	24059944 <SAI_Disable+0x2c>
24059952:	bf00      	nop
24059954:	200000ac 	.word	0x200000ac

24059958 <HAL_SAI_Init>:
24059958:	e92d 41f0 	stmdb	sp!, {r4, r5, r6, r7, r8, lr}
2405995c:	4604      	mov	r4, r0
2405995e:	b918      	cbnz	r0, 24059968 <HAL_SAI_Init+0x10>
24059960:	2701      	movs	r7, #1
24059962:	4638      	mov	r0, r7
24059964:	e8bd 81f0 	ldmia.w	sp!, {r4, r5, r6, r7, r8, pc}
24059968:	f890 2038 	ldrb.w	r2, [r0, #56]	@ 0x38
2405996c:	6803      	ldr	r3, [r0, #0]
2405996e:	2a01      	cmp	r2, #1
24059970:	f8df 8298 	ldr.w	r8, [pc, #664]	@ 24059c0c <HAL_SAI_Init+0x2b4>
24059974:	f040 8109 	bne.w	24059b8a <HAL_SAI_Init+0x232>
24059978:	4543      	cmp	r3, r8
2405997a:	d1f1      	bne.n	24059960 <HAL_SAI_Init+0x8>
2405997c:	6843      	ldr	r3, [r0, #4]
2405997e:	2b01      	cmp	r3, #1
24059980:	d1ee      	bne.n	24059960 <HAL_SAI_Init+0x8>
24059982:	6c43      	ldr	r3, [r0, #68]	@ 0x44
24059984:	2b00      	cmp	r3, #0
24059986:	d1eb      	bne.n	24059960 <HAL_SAI_Init+0x8>
24059988:	4d99      	ldr	r5, [pc, #612]	@ (24059bf0 <HAL_SAI_Init+0x298>)
2405998a:	f894 3091 	ldrb.w	r3, [r4, #145]	@ 0x91
2405998e:	f003 02ff 	and.w	r2, r3, #255	@ 0xff
24059992:	b923      	cbnz	r3, 2405999e <HAL_SAI_Init+0x46>
24059994:	4620      	mov	r0, r4
24059996:	f884 2090 	strb.w	r2, [r4, #144]	@ 0x90
2405999a:	f7fa faa9 	bl	24053ef0 <HAL_SAI_MspInit>
2405999e:	4620      	mov	r0, r4
240599a0:	f7ff ffba 	bl	24059918 <SAI_Disable>
240599a4:	4607      	mov	r7, r0
240599a6:	2800      	cmp	r0, #0
240599a8:	d1da      	bne.n	24059960 <HAL_SAI_Init+0x8>
240599aa:	2302      	movs	r3, #2
240599ac:	f884 3091 	strb.w	r3, [r4, #145]	@ 0x91
240599b0:	68e3      	ldr	r3, [r4, #12]
240599b2:	2b01      	cmp	r3, #1
240599b4:	f000 80fa 	beq.w	24059bac <HAL_SAI_Init+0x254>
240599b8:	1e99      	subs	r1, r3, #2
240599ba:	424b      	negs	r3, r1
240599bc:	414b      	adcs	r3, r1
240599be:	015b      	lsls	r3, r3, #5
240599c0:	68a6      	ldr	r6, [r4, #8]
240599c2:	2e02      	cmp	r6, #2
240599c4:	f000 80f6 	beq.w	24059bb4 <HAL_SAI_Init+0x25c>
240599c8:	2e03      	cmp	r6, #3
240599ca:	f000 80f1 	beq.w	24059bb0 <HAL_SAI_Init+0x258>
240599ce:	1e72      	subs	r2, r6, #1
240599d0:	4256      	negs	r6, r2
240599d2:	4156      	adcs	r6, r2
240599d4:	02b6      	lsls	r6, r6, #10
240599d6:	6a22      	ldr	r2, [r4, #32]
240599d8:	602b      	str	r3, [r5, #0]
240599da:	6823      	ldr	r3, [r4, #0]
240599dc:	2a00      	cmp	r2, #0
240599de:	d03e      	beq.n	24059a5e <HAL_SAI_Init+0x106>
240599e0:	4543      	cmp	r3, r8
240599e2:	d003      	beq.n	240599ec <HAL_SAI_Init+0x94>
240599e4:	4a83      	ldr	r2, [pc, #524]	@ (24059bf4 <HAL_SAI_Init+0x29c>)
240599e6:	4293      	cmp	r3, r2
240599e8:	f040 80e7 	bne.w	24059bba <HAL_SAI_Init+0x262>
240599ec:	f44f 7080 	mov.w	r0, #256	@ 0x100
240599f0:	2100      	movs	r1, #0
240599f2:	f7ff fc63 	bl	240592bc <HAL_RCCEx_GetPeriphCLKFreq>
240599f6:	6822      	ldr	r2, [r4, #0]
240599f8:	4b7f      	ldr	r3, [pc, #508]	@ (24059bf8 <HAL_SAI_Init+0x2a0>)
240599fa:	429a      	cmp	r2, r3
240599fc:	d104      	bne.n	24059a08 <HAL_SAI_Init+0xb0>
240599fe:	f44f 7000 	mov.w	r0, #512	@ 0x200
24059a02:	2100      	movs	r1, #0
24059a04:	f7ff fc5a 	bl	240592bc <HAL_RCCEx_GetPeriphCLKFreq>
24059a08:	6822      	ldr	r2, [r4, #0]
24059a0a:	4b7c      	ldr	r3, [pc, #496]	@ (24059bfc <HAL_SAI_Init+0x2a4>)
24059a0c:	429a      	cmp	r2, r3
24059a0e:	d104      	bne.n	24059a1a <HAL_SAI_Init+0xc2>
24059a10:	f44f 6080 	mov.w	r0, #1024	@ 0x400
24059a14:	2100      	movs	r1, #0
24059a16:	f7ff fc51 	bl	240592bc <HAL_RCCEx_GetPeriphCLKFreq>
24059a1a:	69a3      	ldr	r3, [r4, #24]
24059a1c:	6c62      	ldr	r2, [r4, #68]	@ 0x44
24059a1e:	f5b3 2f00 	cmp.w	r3, #524288	@ 0x80000
24059a22:	f8d4 c020 	ldr.w	ip, [r4, #32]
24059a26:	f040 80cf 	bne.w	24059bc8 <HAL_SAI_Init+0x270>
24059a2a:	2a04      	cmp	r2, #4
24059a2c:	f000 80c7 	beq.w	24059bbe <HAL_SAI_Init+0x266>
24059a30:	2a08      	cmp	r2, #8
24059a32:	f000 80c6 	beq.w	24059bc2 <HAL_SAI_Init+0x26a>
24059a36:	6d63      	ldr	r3, [r4, #84]	@ 0x54
24059a38:	210a      	movs	r1, #10
24059a3a:	fb0c f303 	mul.w	r3, ip, r3
24059a3e:	4341      	muls	r1, r0
24059a40:	fbb1 f0f3 	udiv	r0, r1, r3
24059a44:	210a      	movs	r1, #10
24059a46:	fbb0 f3f1 	udiv	r3, r0, r1
24059a4a:	fb01 0013 	mls	r0, r1, r3, r0
24059a4e:	2809      	cmp	r0, #9
24059a50:	bf08      	it	eq
24059a52:	3301      	addeq	r3, #1
24059a54:	2a04      	cmp	r2, #4
24059a56:	6263      	str	r3, [r4, #36]	@ 0x24
24059a58:	bf04      	itt	eq
24059a5a:	085b      	lsreq	r3, r3, #1
24059a5c:	6263      	streq	r3, [r4, #36]	@ 0x24
24059a5e:	f8d4 c004 	ldr.w	ip, [r4, #4]
24059a62:	6d22      	ldr	r2, [r4, #80]	@ 0x50
24059a64:	f03c 0302 	bics.w	r3, ip, #2
24059a68:	f040 80bd 	bne.w	24059be6 <HAL_SAI_Init+0x28e>
24059a6c:	3a01      	subs	r2, #1
24059a6e:	bf18      	it	ne
24059a70:	2201      	movne	r2, #1
24059a72:	6823      	ldr	r3, [r4, #0]
24059a74:	0252      	lsls	r2, r2, #9
24059a76:	4962      	ldr	r1, [pc, #392]	@ (24059c00 <HAL_SAI_Init+0x2a8>)
24059a78:	6818      	ldr	r0, [r3, #0]
24059a7a:	4543      	cmp	r3, r8
24059a7c:	ea01 0100 	and.w	r1, r1, r0
24059a80:	6019      	str	r1, [r3, #0]
24059a82:	6c61      	ldr	r1, [r4, #68]	@ 0x44
24059a84:	6818      	ldr	r0, [r3, #0]
24059a86:	ea4c 0c01 	orr.w	ip, ip, r1
24059a8a:	6ca1      	ldr	r1, [r4, #72]	@ 0x48
24059a8c:	ea4c 0c01 	orr.w	ip, ip, r1
24059a90:	6ce1      	ldr	r1, [r4, #76]	@ 0x4c
24059a92:	ea4c 0c01 	orr.w	ip, ip, r1
24059a96:	6ae1      	ldr	r1, [r4, #44]	@ 0x2c
24059a98:	ea4c 0c01 	orr.w	ip, ip, r1
24059a9c:	6961      	ldr	r1, [r4, #20]
24059a9e:	ea4c 0c01 	orr.w	ip, ip, r1
24059aa2:	69a1      	ldr	r1, [r4, #24]
24059aa4:	ea4c 0c01 	orr.w	ip, ip, r1
24059aa8:	6aa1      	ldr	r1, [r4, #40]	@ 0x28
24059aaa:	ea4c 0c01 	orr.w	ip, ip, r1
24059aae:	6921      	ldr	r1, [r4, #16]
24059ab0:	ea4c 0101 	orr.w	r1, ip, r1
24059ab4:	ea41 0100 	orr.w	r1, r1, r0
24059ab8:	6a60      	ldr	r0, [r4, #36]	@ 0x24
24059aba:	ea41 5100 	orr.w	r1, r1, r0, lsl #20
24059abe:	6b20      	ldr	r0, [r4, #48]	@ 0x30
24059ac0:	ea41 0106 	orr.w	r1, r1, r6
24059ac4:	ea42 0201 	orr.w	r2, r2, r1
24059ac8:	601a      	str	r2, [r3, #0]
24059aca:	685a      	ldr	r2, [r3, #4]
24059acc:	f422 4260 	bic.w	r2, r2, #57344	@ 0xe000
24059ad0:	f022 020f 	bic.w	r2, r2, #15
24059ad4:	605a      	str	r2, [r3, #4]
24059ad6:	69e2      	ldr	r2, [r4, #28]
24059ad8:	6859      	ldr	r1, [r3, #4]
24059ada:	ea42 0200 	orr.w	r2, r2, r0
24059ade:	6b60      	ldr	r0, [r4, #52]	@ 0x34
24059ae0:	ea42 0200 	orr.w	r2, r2, r0
24059ae4:	6de0      	ldr	r0, [r4, #92]	@ 0x5c
24059ae6:	ea42 0201 	orr.w	r2, r2, r1
24059aea:	605a      	str	r2, [r3, #4]
24059aec:	4a45      	ldr	r2, [pc, #276]	@ (24059c04 <HAL_SAI_Init+0x2ac>)
24059aee:	6899      	ldr	r1, [r3, #8]
24059af0:	ea02 0201 	and.w	r2, r2, r1
24059af4:	609a      	str	r2, [r3, #8]
24059af6:	6e62      	ldr	r2, [r4, #100]	@ 0x64
24059af8:	6899      	ldr	r1, [r3, #8]
24059afa:	ea42 0200 	orr.w	r2, r2, r0
24059afe:	6e20      	ldr	r0, [r4, #96]	@ 0x60
24059b00:	ea42 0200 	orr.w	r2, r2, r0
24059b04:	ea42 0201 	orr.w	r2, r2, r1
24059b08:	6d61      	ldr	r1, [r4, #84]	@ 0x54
24059b0a:	f101 31ff 	add.w	r1, r1, #4294967295
24059b0e:	ea42 0201 	orr.w	r2, r2, r1
24059b12:	6da1      	ldr	r1, [r4, #88]	@ 0x58
24059b14:	f101 31ff 	add.w	r1, r1, #4294967295
24059b18:	ea42 2201 	orr.w	r2, r2, r1, lsl #8
24059b1c:	609a      	str	r2, [r3, #8]
24059b1e:	68da      	ldr	r2, [r3, #12]
24059b20:	f422 627d 	bic.w	r2, r2, #4048	@ 0xfd0
24059b24:	f022 020f 	bic.w	r2, r2, #15
24059b28:	ea4f 4202 	mov.w	r2, r2, lsl #16
24059b2c:	ea4f 4212 	mov.w	r2, r2, lsr #16
24059b30:	60da      	str	r2, [r3, #12]
24059b32:	68d9      	ldr	r1, [r3, #12]
24059b34:	e9d4 201a 	ldrd	r2, r0, [r4, #104]	@ 0x68
24059b38:	ea42 0200 	orr.w	r2, r2, r0
24059b3c:	ea42 0201 	orr.w	r2, r2, r1
24059b40:	6f61      	ldr	r1, [r4, #116]	@ 0x74
24059b42:	ea42 4201 	orr.w	r2, r2, r1, lsl #16
24059b46:	6f21      	ldr	r1, [r4, #112]	@ 0x70
24059b48:	f101 31ff 	add.w	r1, r1, #4294967295
24059b4c:	ea42 2201 	orr.w	r2, r2, r1, lsl #8
24059b50:	60da      	str	r2, [r3, #12]
24059b52:	d111      	bne.n	24059b78 <HAL_SAI_Init+0x220>
24059b54:	6c6b      	ldr	r3, [r5, #68]	@ 0x44
24059b56:	f023 0301 	bic.w	r3, r3, #1
24059b5a:	646b      	str	r3, [r5, #68]	@ 0x44
24059b5c:	f894 3038 	ldrb.w	r3, [r4, #56]	@ 0x38
24059b60:	2b01      	cmp	r3, #1
24059b62:	d109      	bne.n	24059b78 <HAL_SAI_Init+0x220>
24059b64:	6be3      	ldr	r3, [r4, #60]	@ 0x3c
24059b66:	1e5a      	subs	r2, r3, #1
24059b68:	6c23      	ldr	r3, [r4, #64]	@ 0x40
24059b6a:	ea43 1302 	orr.w	r3, r3, r2, lsl #4
24059b6e:	646b      	str	r3, [r5, #68]	@ 0x44
24059b70:	6c6b      	ldr	r3, [r5, #68]	@ 0x44
24059b72:	f043 0301 	orr.w	r3, r3, #1
24059b76:	646b      	str	r3, [r5, #68]	@ 0x44
24059b78:	2300      	movs	r3, #0
24059b7a:	2201      	movs	r2, #1
24059b7c:	f8c4 3094 	str.w	r3, [r4, #148]	@ 0x94
24059b80:	f884 3090 	strb.w	r3, [r4, #144]	@ 0x90
24059b84:	f884 2091 	strb.w	r2, [r4, #145]	@ 0x91
24059b88:	e6eb      	b.n	24059962 <HAL_SAI_Init+0xa>
24059b8a:	4543      	cmp	r3, r8
24059b8c:	f43f aefc 	beq.w	24059988 <HAL_SAI_Init+0x30>
24059b90:	4a18      	ldr	r2, [pc, #96]	@ (24059bf4 <HAL_SAI_Init+0x29c>)
24059b92:	4293      	cmp	r3, r2
24059b94:	f43f aef8 	beq.w	24059988 <HAL_SAI_Init+0x30>
24059b98:	f502 7278 	add.w	r2, r2, #992	@ 0x3e0
24059b9c:	4293      	cmp	r3, r2
24059b9e:	d003      	beq.n	24059ba8 <HAL_SAI_Init+0x250>
24059ba0:	3220      	adds	r2, #32
24059ba2:	4293      	cmp	r3, r2
24059ba4:	f47f aedc 	bne.w	24059960 <HAL_SAI_Init+0x8>
24059ba8:	4d17      	ldr	r5, [pc, #92]	@ (24059c08 <HAL_SAI_Init+0x2b0>)
24059baa:	e6ee      	b.n	2405998a <HAL_SAI_Init+0x32>
24059bac:	2310      	movs	r3, #16
24059bae:	e707      	b.n	240599c0 <HAL_SAI_Init+0x68>
24059bb0:	f043 0301 	orr.w	r3, r3, #1
24059bb4:	f44f 6600 	mov.w	r6, #2048	@ 0x800
24059bb8:	e70d      	b.n	240599d6 <HAL_SAI_Init+0x7e>
24059bba:	2000      	movs	r0, #0
24059bbc:	e71b      	b.n	240599f6 <HAL_SAI_Init+0x9e>
24059bbe:	2340      	movs	r3, #64	@ 0x40
24059bc0:	e73a      	b.n	24059a38 <HAL_SAI_Init+0xe0>
24059bc2:	f44f 7380 	mov.w	r3, #256	@ 0x100
24059bc6:	e737      	b.n	24059a38 <HAL_SAI_Init+0xe0>
24059bc8:	6aa3      	ldr	r3, [r4, #40]	@ 0x28
24059bca:	210a      	movs	r1, #10
24059bcc:	f1b3 6f80 	cmp.w	r3, #67108864	@ 0x4000000
24059bd0:	fb01 f000 	mul.w	r0, r1, r0
24059bd4:	bf14      	ite	ne
24059bd6:	2301      	movne	r3, #1
24059bd8:	2302      	moveq	r3, #2
24059bda:	fb0c f303 	mul.w	r3, ip, r3
24059bde:	021b      	lsls	r3, r3, #8
24059be0:	fbb0 f0f3 	udiv	r0, r0, r3
24059be4:	e72e      	b.n	24059a44 <HAL_SAI_Init+0xec>
24059be6:	1e53      	subs	r3, r2, #1
24059be8:	425a      	negs	r2, r3
24059bea:	415a      	adcs	r2, r3
24059bec:	e741      	b.n	24059a72 <HAL_SAI_Init+0x11a>
24059bee:	bf00      	nop
24059bf0:	40015800 	.word	0x40015800
24059bf4:	40015824 	.word	0x40015824
24059bf8:	40015c04 	.word	0x40015c04
24059bfc:	40015c24 	.word	0x40015c24
24059c00:	f005c010 	.word	0xf005c010
24059c04:	fff88000 	.word	0xfff88000
24059c08:	40015c00 	.word	0x40015c00
24059c0c:	40015804 	.word	0x40015804

24059c10 <HAL_SAI_InitProtocol>:
24059c10:	2902      	cmp	r1, #2
24059c12:	b470      	push	{r4, r5, r6}
24059c14:	d905      	bls.n	24059c22 <HAL_SAI_InitProtocol+0x12>
24059c16:	1ecc      	subs	r4, r1, #3
24059c18:	2c01      	cmp	r4, #1
24059c1a:	d970      	bls.n	24059cfe <HAL_SAI_InitProtocol+0xee>
24059c1c:	2001      	movs	r0, #1
24059c1e:	bc70      	pop	{r4, r5, r6}
24059c20:	4770      	bx	lr
24059c22:	6845      	ldr	r5, [r0, #4]
24059c24:	2400      	movs	r4, #0
24059c26:	6703      	str	r3, [r0, #112]	@ 0x70
24059c28:	f035 0502 	bics.w	r5, r5, #2
24059c2c:	6444      	str	r4, [r0, #68]	@ 0x44
24059c2e:	64c4      	str	r4, [r0, #76]	@ 0x4c
24059c30:	bf14      	ite	ne
24059c32:	2501      	movne	r5, #1
24059c34:	4625      	moveq	r5, r4
24059c36:	6684      	str	r4, [r0, #104]	@ 0x68
24059c38:	f013 0401 	ands.w	r4, r3, #1
24059c3c:	6505      	str	r5, [r0, #80]	@ 0x50
24059c3e:	f44f 3580 	mov.w	r5, #65536	@ 0x10000
24059c42:	65c5      	str	r5, [r0, #92]	@ 0x5c
24059c44:	f64f 75ff 	movw	r5, #65535	@ 0xffff
24059c48:	6745      	str	r5, [r0, #116]	@ 0x74
24059c4a:	d1e7      	bne.n	24059c1c <HAL_SAI_InitProtocol+0xc>
24059c4c:	b9c1      	cbnz	r1, 24059c80 <HAL_SAI_InitProtocol+0x70>
24059c4e:	f44f 2480 	mov.w	r4, #262144	@ 0x40000
24059c52:	6601      	str	r1, [r0, #96]	@ 0x60
24059c54:	6644      	str	r4, [r0, #100]	@ 0x64
24059c56:	2a03      	cmp	r2, #3
24059c58:	d8e0      	bhi.n	24059c1c <HAL_SAI_InitProtocol+0xc>
24059c5a:	e8df f002 	tbb	[pc, r2]
24059c5e:	2302      	.short	0x2302
24059c60:	3b28      	.short	0x3b28
24059c62:	085b      	lsrs	r3, r3, #1
24059c64:	2440      	movs	r4, #64	@ 0x40
24059c66:	015d      	lsls	r5, r3, #5
24059c68:	011b      	lsls	r3, r3, #4
24059c6a:	2680      	movs	r6, #128	@ 0x80
24059c6c:	2902      	cmp	r1, #2
24059c6e:	66c4      	str	r4, [r0, #108]	@ 0x6c
24059c70:	6486      	str	r6, [r0, #72]	@ 0x48
24059c72:	e9c0 5315 	strd	r5, r3, [r0, #84]	@ 0x54
24059c76:	d12a      	bne.n	24059cce <HAL_SAI_InitProtocol+0xbe>
24059c78:	2a01      	cmp	r2, #1
24059c7a:	d13e      	bne.n	24059cfa <HAL_SAI_InitProtocol+0xea>
24059c7c:	2310      	movs	r3, #16
24059c7e:	e025      	b.n	24059ccc <HAL_SAI_InitProtocol+0xbc>
24059c80:	f44f 3500 	mov.w	r5, #131072	@ 0x20000
24059c84:	e9c0 5418 	strd	r5, r4, [r0, #96]	@ 0x60
24059c88:	2a03      	cmp	r2, #3
24059c8a:	d82c      	bhi.n	24059ce6 <HAL_SAI_InitProtocol+0xd6>
24059c8c:	a401      	add	r4, pc, #4	@ (adr r4, 24059c94 <HAL_SAI_InitProtocol+0x84>)
24059c8e:	f854 f022 	ldr.w	pc, [r4, r2, lsl #2]
24059c92:	bf00      	nop
24059c94:	24059c63 	.word	0x24059c63
24059c98:	24059ca5 	.word	0x24059ca5
24059c9c:	24059caf 	.word	0x24059caf
24059ca0:	24059cd5 	.word	0x24059cd5
24059ca4:	085b      	lsrs	r3, r3, #1
24059ca6:	2480      	movs	r4, #128	@ 0x80
24059ca8:	019d      	lsls	r5, r3, #6
24059caa:	015b      	lsls	r3, r3, #5
24059cac:	e7dd      	b.n	24059c6a <HAL_SAI_InitProtocol+0x5a>
24059cae:	22c0      	movs	r2, #192	@ 0xc0
24059cb0:	085b      	lsrs	r3, r3, #1
24059cb2:	2902      	cmp	r1, #2
24059cb4:	6482      	str	r2, [r0, #72]	@ 0x48
24059cb6:	ea4f 1283 	mov.w	r2, r3, lsl #6
24059cba:	ea4f 1343 	mov.w	r3, r3, lsl #5
24059cbe:	6542      	str	r2, [r0, #84]	@ 0x54
24059cc0:	6583      	str	r3, [r0, #88]	@ 0x58
24059cc2:	f04f 0380 	mov.w	r3, #128	@ 0x80
24059cc6:	66c3      	str	r3, [r0, #108]	@ 0x6c
24059cc8:	d101      	bne.n	24059cce <HAL_SAI_InitProtocol+0xbe>
24059cca:	2308      	movs	r3, #8
24059ccc:	6683      	str	r3, [r0, #104]	@ 0x68
24059cce:	bc70      	pop	{r4, r5, r6}
24059cd0:	f7ff be42 	b.w	24059958 <HAL_SAI_Init>
24059cd4:	22e0      	movs	r2, #224	@ 0xe0
24059cd6:	085b      	lsrs	r3, r3, #1
24059cd8:	6482      	str	r2, [r0, #72]	@ 0x48
24059cda:	019a      	lsls	r2, r3, #6
24059cdc:	015b      	lsls	r3, r3, #5
24059cde:	6542      	str	r2, [r0, #84]	@ 0x54
24059ce0:	6583      	str	r3, [r0, #88]	@ 0x58
24059ce2:	2380      	movs	r3, #128	@ 0x80
24059ce4:	e032      	b.n	24059d4c <HAL_SAI_InitProtocol+0x13c>
24059ce6:	2902      	cmp	r1, #2
24059ce8:	d198      	bne.n	24059c1c <HAL_SAI_InitProtocol+0xc>
24059cea:	2301      	movs	r3, #1
24059cec:	2a02      	cmp	r2, #2
24059cee:	d101      	bne.n	24059cf4 <HAL_SAI_InitProtocol+0xe4>
24059cf0:	2208      	movs	r2, #8
24059cf2:	6682      	str	r2, [r0, #104]	@ 0x68
24059cf4:	2b00      	cmp	r3, #0
24059cf6:	d191      	bne.n	24059c1c <HAL_SAI_InitProtocol+0xc>
24059cf8:	e7e9      	b.n	24059cce <HAL_SAI_InitProtocol+0xbe>
24059cfa:	2300      	movs	r3, #0
24059cfc:	e7f6      	b.n	24059cec <HAL_SAI_InitProtocol+0xdc>
24059cfe:	6845      	ldr	r5, [r0, #4]
24059d00:	2400      	movs	r4, #0
24059d02:	f44f 3600 	mov.w	r6, #131072	@ 0x20000
24059d06:	6703      	str	r3, [r0, #112]	@ 0x70
24059d08:	f035 0502 	bics.w	r5, r5, #2
24059d0c:	6444      	str	r4, [r0, #68]	@ 0x44
24059d0e:	64c4      	str	r4, [r0, #76]	@ 0x4c
24059d10:	bf14      	ite	ne
24059d12:	4625      	movne	r5, r4
24059d14:	2501      	moveq	r5, #1
24059d16:	2904      	cmp	r1, #4
24059d18:	65c4      	str	r4, [r0, #92]	@ 0x5c
24059d1a:	6505      	str	r5, [r0, #80]	@ 0x50
24059d1c:	f44f 2580 	mov.w	r5, #262144	@ 0x40000
24059d20:	bf14      	ite	ne
24059d22:	210d      	movne	r1, #13
24059d24:	2101      	moveq	r1, #1
24059d26:	6684      	str	r4, [r0, #104]	@ 0x68
24059d28:	f64f 74ff 	movw	r4, #65535	@ 0xffff
24059d2c:	6581      	str	r1, [r0, #88]	@ 0x58
24059d2e:	6744      	str	r4, [r0, #116]	@ 0x74
24059d30:	e9c0 6518 	strd	r6, r5, [r0, #96]	@ 0x60
24059d34:	2a03      	cmp	r2, #3
24059d36:	f63f af71 	bhi.w	24059c1c <HAL_SAI_InitProtocol+0xc>
24059d3a:	e8df f002 	tbb	[pc, r2]
24059d3e:	0902      	.short	0x0902
24059d40:	140f      	.short	0x140f
24059d42:	011b      	lsls	r3, r3, #4
24059d44:	2280      	movs	r2, #128	@ 0x80
24059d46:	6543      	str	r3, [r0, #84]	@ 0x54
24059d48:	2340      	movs	r3, #64	@ 0x40
24059d4a:	6482      	str	r2, [r0, #72]	@ 0x48
24059d4c:	66c3      	str	r3, [r0, #108]	@ 0x6c
24059d4e:	e7be      	b.n	24059cce <HAL_SAI_InitProtocol+0xbe>
24059d50:	2280      	movs	r2, #128	@ 0x80
24059d52:	015b      	lsls	r3, r3, #5
24059d54:	6482      	str	r2, [r0, #72]	@ 0x48
24059d56:	6543      	str	r3, [r0, #84]	@ 0x54
24059d58:	66c2      	str	r2, [r0, #108]	@ 0x6c
24059d5a:	e7b8      	b.n	24059cce <HAL_SAI_InitProtocol+0xbe>
24059d5c:	22c0      	movs	r2, #192	@ 0xc0
24059d5e:	015b      	lsls	r3, r3, #5
24059d60:	6482      	str	r2, [r0, #72]	@ 0x48
24059d62:	6543      	str	r3, [r0, #84]	@ 0x54
24059d64:	e7bd      	b.n	24059ce2 <HAL_SAI_InitProtocol+0xd2>
24059d66:	22e0      	movs	r2, #224	@ 0xe0
24059d68:	e7f9      	b.n	24059d5e <HAL_SAI_InitProtocol+0x14e>
24059d6a:	bf00      	nop

24059d6c <HAL_SAI_Abort>:
24059d6c:	b570      	push	{r4, r5, r6, lr}
24059d6e:	f890 3090 	ldrb.w	r3, [r0, #144]	@ 0x90
24059d72:	4604      	mov	r4, r0
24059d74:	2b01      	cmp	r3, #1
24059d76:	d04c      	beq.n	24059e12 <HAL_SAI_Abort+0xa6>
24059d78:	2601      	movs	r6, #1
24059d7a:	f880 6090 	strb.w	r6, [r0, #144]	@ 0x90
24059d7e:	f7ff fdcb 	bl	24059918 <SAI_Disable>
24059d82:	6823      	ldr	r3, [r4, #0]
24059d84:	1e05      	subs	r5, r0, #0
24059d86:	681a      	ldr	r2, [r3, #0]
24059d88:	bf18      	it	ne
24059d8a:	2501      	movne	r5, #1
24059d8c:	0392      	lsls	r2, r2, #14
24059d8e:	d52f      	bpl.n	24059df0 <HAL_SAI_Abort+0x84>
24059d90:	681a      	ldr	r2, [r3, #0]
24059d92:	f422 3200 	bic.w	r2, r2, #131072	@ 0x20000
24059d96:	601a      	str	r2, [r3, #0]
24059d98:	f894 3091 	ldrb.w	r3, [r4, #145]	@ 0x91
24059d9c:	2b12      	cmp	r3, #18
24059d9e:	d111      	bne.n	24059dc4 <HAL_SAI_Abort+0x58>
24059da0:	f8d4 0080 	ldr.w	r0, [r4, #128]	@ 0x80
24059da4:	b170      	cbz	r0, 24059dc4 <HAL_SAI_Abort+0x58>
24059da6:	f7fc f821 	bl	24055dec <HAL_DMA_Abort>
24059daa:	b158      	cbz	r0, 24059dc4 <HAL_SAI_Abort+0x58>
24059dac:	f8d4 3080 	ldr.w	r3, [r4, #128]	@ 0x80
24059db0:	6d5b      	ldr	r3, [r3, #84]	@ 0x54
24059db2:	2b80      	cmp	r3, #128	@ 0x80
24059db4:	d006      	beq.n	24059dc4 <HAL_SAI_Abort+0x58>
24059db6:	f8d4 3094 	ldr.w	r3, [r4, #148]	@ 0x94
24059dba:	4635      	mov	r5, r6
24059dbc:	f043 0380 	orr.w	r3, r3, #128	@ 0x80
24059dc0:	f8c4 3094 	str.w	r3, [r4, #148]	@ 0x94
24059dc4:	f894 3091 	ldrb.w	r3, [r4, #145]	@ 0x91
24059dc8:	2b22      	cmp	r3, #34	@ 0x22
24059dca:	d111      	bne.n	24059df0 <HAL_SAI_Abort+0x84>
24059dcc:	f8d4 0084 	ldr.w	r0, [r4, #132]	@ 0x84
24059dd0:	b170      	cbz	r0, 24059df0 <HAL_SAI_Abort+0x84>
24059dd2:	f7fc f80b 	bl	24055dec <HAL_DMA_Abort>
24059dd6:	b158      	cbz	r0, 24059df0 <HAL_SAI_Abort+0x84>
24059dd8:	f8d4 3084 	ldr.w	r3, [r4, #132]	@ 0x84
24059ddc:	6d5b      	ldr	r3, [r3, #84]	@ 0x54
24059dde:	2b80      	cmp	r3, #128	@ 0x80
24059de0:	d006      	beq.n	24059df0 <HAL_SAI_Abort+0x84>
24059de2:	f8d4 3094 	ldr.w	r3, [r4, #148]	@ 0x94
24059de6:	2501      	movs	r5, #1
24059de8:	f043 0380 	orr.w	r3, r3, #128	@ 0x80
24059dec:	f8c4 3094 	str.w	r3, [r4, #148]	@ 0x94
24059df0:	6823      	ldr	r3, [r4, #0]
24059df2:	2100      	movs	r1, #0
24059df4:	f04f 32ff 	mov.w	r2, #4294967295
24059df8:	6119      	str	r1, [r3, #16]
24059dfa:	619a      	str	r2, [r3, #24]
24059dfc:	685a      	ldr	r2, [r3, #4]
24059dfe:	f042 0208 	orr.w	r2, r2, #8
24059e02:	605a      	str	r2, [r3, #4]
24059e04:	2301      	movs	r3, #1
24059e06:	f884 1090 	strb.w	r1, [r4, #144]	@ 0x90
24059e0a:	f884 3091 	strb.w	r3, [r4, #145]	@ 0x91
24059e0e:	4628      	mov	r0, r5
24059e10:	bd70      	pop	{r4, r5, r6, pc}
24059e12:	2502      	movs	r5, #2
24059e14:	e7fb      	b.n	24059e0e <HAL_SAI_Abort+0xa2>
	...

24059e18 <HAL_SAI_Transmit_DMA>:
24059e18:	e92d 41f0 	stmdb	sp!, {r4, r5, r6, r7, r8, lr}
24059e1c:	460e      	mov	r6, r1
24059e1e:	4604      	mov	r4, r0
24059e20:	4615      	mov	r5, r2
24059e22:	f7fa fa6d 	bl	24054300 <HAL_GetTick>
24059e26:	4607      	mov	r7, r0
24059e28:	b356      	cbz	r6, 24059e80 <HAL_SAI_Transmit_DMA+0x68>
24059e2a:	b34d      	cbz	r5, 24059e80 <HAL_SAI_Transmit_DMA+0x68>
24059e2c:	f894 3091 	ldrb.w	r3, [r4, #145]	@ 0x91
24059e30:	2b01      	cmp	r3, #1
24059e32:	b2da      	uxtb	r2, r3
24059e34:	d154      	bne.n	24059ee0 <HAL_SAI_Transmit_DMA+0xc8>
24059e36:	f894 3090 	ldrb.w	r3, [r4, #144]	@ 0x90
24059e3a:	2b01      	cmp	r3, #1
24059e3c:	d050      	beq.n	24059ee0 <HAL_SAI_Transmit_DMA+0xc8>
24059e3e:	f04f 0800 	mov.w	r8, #0
24059e42:	2312      	movs	r3, #18
24059e44:	f8d4 0080 	ldr.w	r0, [r4, #128]	@ 0x80
24059e48:	4631      	mov	r1, r6
24059e4a:	f8c4 8094 	str.w	r8, [r4, #148]	@ 0x94
24059e4e:	f884 3091 	strb.w	r3, [r4, #145]	@ 0x91
24059e52:	4b24      	ldr	r3, [pc, #144]	@ (24059ee4 <HAL_SAI_Transmit_DMA+0xcc>)
24059e54:	f884 2090 	strb.w	r2, [r4, #144]	@ 0x90
24059e58:	f8a4 507c 	strh.w	r5, [r4, #124]	@ 0x7c
24059e5c:	f8a4 507e 	strh.w	r5, [r4, #126]	@ 0x7e
24059e60:	67a6      	str	r6, [r4, #120]	@ 0x78
24059e62:	6403      	str	r3, [r0, #64]	@ 0x40
24059e64:	4b20      	ldr	r3, [pc, #128]	@ (24059ee8 <HAL_SAI_Transmit_DMA+0xd0>)
24059e66:	6822      	ldr	r2, [r4, #0]
24059e68:	63c3      	str	r3, [r0, #60]	@ 0x3c
24059e6a:	4b20      	ldr	r3, [pc, #128]	@ (24059eec <HAL_SAI_Transmit_DMA+0xd4>)
24059e6c:	321c      	adds	r2, #28
24059e6e:	e9c0 3813 	strd	r3, r8, [r0, #76]	@ 0x4c
24059e72:	462b      	mov	r3, r5
24059e74:	f7fb fea0 	bl	24055bb8 <HAL_DMA_Start_IT>
24059e78:	4605      	mov	r5, r0
24059e7a:	b128      	cbz	r0, 24059e88 <HAL_SAI_Transmit_DMA+0x70>
24059e7c:	f884 8090 	strb.w	r8, [r4, #144]	@ 0x90
24059e80:	2501      	movs	r5, #1
24059e82:	4628      	mov	r0, r5
24059e84:	e8bd 81f0 	ldmia.w	sp!, {r4, r5, r6, r7, r8, pc}
24059e88:	4601      	mov	r1, r0
24059e8a:	4620      	mov	r0, r4
24059e8c:	f7ff fd2d 	bl	240598ea <SAI_InterruptFlag>
24059e90:	6823      	ldr	r3, [r4, #0]
24059e92:	691a      	ldr	r2, [r3, #16]
24059e94:	4302      	orrs	r2, r0
24059e96:	611a      	str	r2, [r3, #16]
24059e98:	681a      	ldr	r2, [r3, #0]
24059e9a:	f442 3200 	orr.w	r2, r2, #131072	@ 0x20000
24059e9e:	601a      	str	r2, [r3, #0]
24059ea0:	6823      	ldr	r3, [r4, #0]
24059ea2:	695e      	ldr	r6, [r3, #20]
24059ea4:	f416 26e0 	ands.w	r6, r6, #458752	@ 0x70000
24059ea8:	d00a      	beq.n	24059ec0 <HAL_SAI_Transmit_DMA+0xa8>
24059eaa:	681a      	ldr	r2, [r3, #0]
24059eac:	03d2      	lsls	r2, r2, #15
24059eae:	d403      	bmi.n	24059eb8 <HAL_SAI_Transmit_DMA+0xa0>
24059eb0:	681a      	ldr	r2, [r3, #0]
24059eb2:	f442 3280 	orr.w	r2, r2, #65536	@ 0x10000
24059eb6:	601a      	str	r2, [r3, #0]
24059eb8:	2300      	movs	r3, #0
24059eba:	f884 3090 	strb.w	r3, [r4, #144]	@ 0x90
24059ebe:	e7e0      	b.n	24059e82 <HAL_SAI_Transmit_DMA+0x6a>
24059ec0:	f7fa fa1e 	bl	24054300 <HAL_GetTick>
24059ec4:	1bc0      	subs	r0, r0, r7
24059ec6:	f5b0 7f7a 	cmp.w	r0, #1000	@ 0x3e8
24059eca:	d9e9      	bls.n	24059ea0 <HAL_SAI_Transmit_DMA+0x88>
24059ecc:	f8d4 3094 	ldr.w	r3, [r4, #148]	@ 0x94
24059ed0:	2503      	movs	r5, #3
24059ed2:	f884 6090 	strb.w	r6, [r4, #144]	@ 0x90
24059ed6:	f043 0340 	orr.w	r3, r3, #64	@ 0x40
24059eda:	f8c4 3094 	str.w	r3, [r4, #148]	@ 0x94
24059ede:	e7d0      	b.n	24059e82 <HAL_SAI_Transmit_DMA+0x6a>
24059ee0:	2502      	movs	r5, #2
24059ee2:	e7ce      	b.n	24059e82 <HAL_SAI_Transmit_DMA+0x6a>
24059ee4:	24059f29 	.word	0x24059f29
24059ee8:	24059ef1 	.word	0x24059ef1
24059eec:	24059f35 	.word	0x24059f35

24059ef0 <SAI_DMATxCplt>:
24059ef0:	b538      	push	{r3, r4, r5, lr}
24059ef2:	69c3      	ldr	r3, [r0, #28]
24059ef4:	6b84      	ldr	r4, [r0, #56]	@ 0x38
24059ef6:	f5b3 7f80 	cmp.w	r3, #256	@ 0x100
24059efa:	d011      	beq.n	24059f20 <SAI_DMATxCplt+0x30>
24059efc:	6825      	ldr	r5, [r4, #0]
24059efe:	2100      	movs	r1, #0
24059f00:	4620      	mov	r0, r4
24059f02:	682b      	ldr	r3, [r5, #0]
24059f04:	f8a4 107e 	strh.w	r1, [r4, #126]	@ 0x7e
24059f08:	f423 3300 	bic.w	r3, r3, #131072	@ 0x20000
24059f0c:	602b      	str	r3, [r5, #0]
24059f0e:	f7ff fcec 	bl	240598ea <SAI_InterruptFlag>
24059f12:	692b      	ldr	r3, [r5, #16]
24059f14:	ea23 0300 	bic.w	r3, r3, r0
24059f18:	612b      	str	r3, [r5, #16]
24059f1a:	2301      	movs	r3, #1
24059f1c:	f884 3091 	strb.w	r3, [r4, #145]	@ 0x91
24059f20:	4620      	mov	r0, r4
24059f22:	f7f7 fcff 	bl	24051924 <HAL_SAI_TxCpltCallback>
24059f26:	bd38      	pop	{r3, r4, r5, pc}

24059f28 <SAI_DMATxHalfCplt>:
24059f28:	6b80      	ldr	r0, [r0, #56]	@ 0x38
24059f2a:	b508      	push	{r3, lr}
24059f2c:	f7f7 fd56 	bl	240519dc <HAL_SAI_TxHalfCpltCallback>
24059f30:	bd08      	pop	{r3, pc}

24059f32 <HAL_SAI_ErrorCallback>:
24059f32:	4770      	bx	lr

24059f34 <SAI_DMAError>:
24059f34:	b510      	push	{r4, lr}
24059f36:	6b84      	ldr	r4, [r0, #56]	@ 0x38
24059f38:	f7fc fc54 	bl	240567e4 <HAL_DMA_GetError>
24059f3c:	2802      	cmp	r0, #2
24059f3e:	d016      	beq.n	24059f6e <SAI_DMAError+0x3a>
24059f40:	f8d4 3094 	ldr.w	r3, [r4, #148]	@ 0x94
24059f44:	4620      	mov	r0, r4
24059f46:	6822      	ldr	r2, [r4, #0]
24059f48:	f043 0380 	orr.w	r3, r3, #128	@ 0x80
24059f4c:	f8c4 3094 	str.w	r3, [r4, #148]	@ 0x94
24059f50:	6813      	ldr	r3, [r2, #0]
24059f52:	f423 3300 	bic.w	r3, r3, #131072	@ 0x20000
24059f56:	6013      	str	r3, [r2, #0]
24059f58:	f7ff fcde 	bl	24059918 <SAI_Disable>
24059f5c:	2301      	movs	r3, #1
24059f5e:	4620      	mov	r0, r4
24059f60:	f884 3091 	strb.w	r3, [r4, #145]	@ 0x91
24059f64:	2300      	movs	r3, #0
24059f66:	f8a4 307e 	strh.w	r3, [r4, #126]	@ 0x7e
24059f6a:	f7ff ffe2 	bl	24059f32 <HAL_SAI_ErrorCallback>
24059f6e:	bd10      	pop	{r4, pc}

24059f70 <HAL_SAI_IRQHandler>:
24059f70:	b570      	push	{r4, r5, r6, lr}
24059f72:	f890 3091 	ldrb.w	r3, [r0, #145]	@ 0x91
24059f76:	4604      	mov	r4, r0
24059f78:	2b00      	cmp	r3, #0
24059f7a:	d05c      	beq.n	2405a036 <HAL_SAI_IRQHandler+0xc6>
24059f7c:	6803      	ldr	r3, [r0, #0]
24059f7e:	6959      	ldr	r1, [r3, #20]
24059f80:	691a      	ldr	r2, [r3, #16]
24059f82:	070e      	lsls	r6, r1, #28
24059f84:	681d      	ldr	r5, [r3, #0]
24059f86:	d506      	bpl.n	24059f96 <HAL_SAI_IRQHandler+0x26>
24059f88:	0716      	lsls	r6, r2, #28
24059f8a:	d504      	bpl.n	24059f96 <HAL_SAI_IRQHandler+0x26>
24059f8c:	f8d0 308c 	ldr.w	r3, [r0, #140]	@ 0x8c
24059f90:	e8bd 4070 	ldmia.w	sp!, {r4, r5, r6, lr}
24059f94:	4718      	bx	r3
24059f96:	07c8      	lsls	r0, r1, #31
24059f98:	d50f      	bpl.n	24059fba <HAL_SAI_IRQHandler+0x4a>
24059f9a:	f012 0001 	ands.w	r0, r2, #1
24059f9e:	d00c      	beq.n	24059fba <HAL_SAI_IRQHandler+0x4a>
24059fa0:	2201      	movs	r2, #1
24059fa2:	619a      	str	r2, [r3, #24]
24059fa4:	f894 3091 	ldrb.w	r3, [r4, #145]	@ 0x91
24059fa8:	2b22      	cmp	r3, #34	@ 0x22
24059faa:	f8d4 3094 	ldr.w	r3, [r4, #148]	@ 0x94
24059fae:	bf18      	it	ne
24059fb0:	2002      	movne	r0, #2
24059fb2:	4303      	orrs	r3, r0
24059fb4:	f8c4 3094 	str.w	r3, [r4, #148]	@ 0x94
24059fb8:	e03a      	b.n	2405a030 <HAL_SAI_IRQHandler+0xc0>
24059fba:	078e      	lsls	r6, r1, #30
24059fbc:	d509      	bpl.n	24059fd2 <HAL_SAI_IRQHandler+0x62>
24059fbe:	0790      	lsls	r0, r2, #30
24059fc0:	d507      	bpl.n	24059fd2 <HAL_SAI_IRQHandler+0x62>
24059fc2:	2202      	movs	r2, #2
24059fc4:	619a      	str	r2, [r3, #24]
24059fc6:	f8d4 3088 	ldr.w	r3, [r4, #136]	@ 0x88
24059fca:	b3a3      	cbz	r3, 2405a036 <HAL_SAI_IRQHandler+0xc6>
24059fcc:	e8bd 4070 	ldmia.w	sp!, {r4, r5, r6, lr}
24059fd0:	4718      	bx	r3
24059fd2:	068e      	lsls	r6, r1, #26
24059fd4:	d530      	bpl.n	2405a038 <HAL_SAI_IRQHandler+0xc8>
24059fd6:	0690      	lsls	r0, r2, #26
24059fd8:	d52e      	bpl.n	2405a038 <HAL_SAI_IRQHandler+0xc8>
24059fda:	2220      	movs	r2, #32
24059fdc:	619a      	str	r2, [r3, #24]
24059fde:	f8d4 3094 	ldr.w	r3, [r4, #148]	@ 0x94
24059fe2:	f043 0304 	orr.w	r3, r3, #4
24059fe6:	f8c4 3094 	str.w	r3, [r4, #148]	@ 0x94
24059fea:	03ab      	lsls	r3, r5, #14
24059fec:	d51d      	bpl.n	2405a02a <HAL_SAI_IRQHandler+0xba>
24059fee:	f8d4 0080 	ldr.w	r0, [r4, #128]	@ 0x80
24059ff2:	b168      	cbz	r0, 2405a010 <HAL_SAI_IRQHandler+0xa0>
24059ff4:	4b27      	ldr	r3, [pc, #156]	@ (2405a094 <HAL_SAI_IRQHandler+0x124>)
24059ff6:	6503      	str	r3, [r0, #80]	@ 0x50
24059ff8:	f7fc f89e 	bl	24056138 <HAL_DMA_Abort_IT>
24059ffc:	b140      	cbz	r0, 2405a010 <HAL_SAI_IRQHandler+0xa0>
24059ffe:	f8d4 3094 	ldr.w	r3, [r4, #148]	@ 0x94
2405a002:	4620      	mov	r0, r4
2405a004:	f043 0380 	orr.w	r3, r3, #128	@ 0x80
2405a008:	f8c4 3094 	str.w	r3, [r4, #148]	@ 0x94
2405a00c:	f7ff ff91 	bl	24059f32 <HAL_SAI_ErrorCallback>
2405a010:	f8d4 0084 	ldr.w	r0, [r4, #132]	@ 0x84
2405a014:	b178      	cbz	r0, 2405a036 <HAL_SAI_IRQHandler+0xc6>
2405a016:	4b1f      	ldr	r3, [pc, #124]	@ (2405a094 <HAL_SAI_IRQHandler+0x124>)
2405a018:	6503      	str	r3, [r0, #80]	@ 0x50
2405a01a:	f7fc f88d 	bl	24056138 <HAL_DMA_Abort_IT>
2405a01e:	b150      	cbz	r0, 2405a036 <HAL_SAI_IRQHandler+0xc6>
2405a020:	f8d4 3094 	ldr.w	r3, [r4, #148]	@ 0x94
2405a024:	f043 0380 	orr.w	r3, r3, #128	@ 0x80
2405a028:	e7c4      	b.n	24059fb4 <HAL_SAI_IRQHandler+0x44>
2405a02a:	4620      	mov	r0, r4
2405a02c:	f7ff fe9e 	bl	24059d6c <HAL_SAI_Abort>
2405a030:	4620      	mov	r0, r4
2405a032:	f7ff ff7e 	bl	24059f32 <HAL_SAI_ErrorCallback>
2405a036:	bd70      	pop	{r4, r5, r6, pc}
2405a038:	064e      	lsls	r6, r1, #25
2405a03a:	d508      	bpl.n	2405a04e <HAL_SAI_IRQHandler+0xde>
2405a03c:	0650      	lsls	r0, r2, #25
2405a03e:	d506      	bpl.n	2405a04e <HAL_SAI_IRQHandler+0xde>
2405a040:	2240      	movs	r2, #64	@ 0x40
2405a042:	619a      	str	r2, [r3, #24]
2405a044:	f8d4 3094 	ldr.w	r3, [r4, #148]	@ 0x94
2405a048:	f043 0308 	orr.w	r3, r3, #8
2405a04c:	e7cb      	b.n	24059fe6 <HAL_SAI_IRQHandler+0x76>
2405a04e:	074e      	lsls	r6, r1, #29
2405a050:	d516      	bpl.n	2405a080 <HAL_SAI_IRQHandler+0x110>
2405a052:	0750      	lsls	r0, r2, #29
2405a054:	d514      	bpl.n	2405a080 <HAL_SAI_IRQHandler+0x110>
2405a056:	2204      	movs	r2, #4
2405a058:	f415 3500 	ands.w	r5, r5, #131072	@ 0x20000
2405a05c:	619a      	str	r2, [r3, #24]
2405a05e:	f8d4 2094 	ldr.w	r2, [r4, #148]	@ 0x94
2405a062:	f042 0220 	orr.w	r2, r2, #32
2405a066:	f8c4 2094 	str.w	r2, [r4, #148]	@ 0x94
2405a06a:	d1c0      	bne.n	24059fee <HAL_SAI_IRQHandler+0x7e>
2405a06c:	f04f 32ff 	mov.w	r2, #4294967295
2405a070:	611d      	str	r5, [r3, #16]
2405a072:	619a      	str	r2, [r3, #24]
2405a074:	2301      	movs	r3, #1
2405a076:	f8a4 507e 	strh.w	r5, [r4, #126]	@ 0x7e
2405a07a:	f884 3091 	strb.w	r3, [r4, #145]	@ 0x91
2405a07e:	e7d7      	b.n	2405a030 <HAL_SAI_IRQHandler+0xc0>
2405a080:	06c9      	lsls	r1, r1, #27
2405a082:	d5d8      	bpl.n	2405a036 <HAL_SAI_IRQHandler+0xc6>
2405a084:	06d2      	lsls	r2, r2, #27
2405a086:	d5d6      	bpl.n	2405a036 <HAL_SAI_IRQHandler+0xc6>
2405a088:	2210      	movs	r2, #16
2405a08a:	619a      	str	r2, [r3, #24]
2405a08c:	f8d4 3094 	ldr.w	r3, [r4, #148]	@ 0x94
2405a090:	4313      	orrs	r3, r2
2405a092:	e78f      	b.n	24059fb4 <HAL_SAI_IRQHandler+0x44>
2405a094:	2405a099 	.word	0x2405a099

2405a098 <SAI_DMAAbort>:
2405a098:	b538      	push	{r3, r4, r5, lr}
2405a09a:	6b84      	ldr	r4, [r0, #56]	@ 0x38
2405a09c:	6825      	ldr	r5, [r4, #0]
2405a09e:	682b      	ldr	r3, [r5, #0]
2405a0a0:	f423 3300 	bic.w	r3, r3, #131072	@ 0x20000
2405a0a4:	602b      	str	r3, [r5, #0]
2405a0a6:	2300      	movs	r3, #0
2405a0a8:	612b      	str	r3, [r5, #16]
2405a0aa:	f04f 33ff 	mov.w	r3, #4294967295
2405a0ae:	61ab      	str	r3, [r5, #24]
2405a0b0:	f8d4 3094 	ldr.w	r3, [r4, #148]	@ 0x94
2405a0b4:	2b20      	cmp	r3, #32
2405a0b6:	d006      	beq.n	2405a0c6 <SAI_DMAAbort+0x2e>
2405a0b8:	4620      	mov	r0, r4
2405a0ba:	f7ff fc2d 	bl	24059918 <SAI_Disable>
2405a0be:	686b      	ldr	r3, [r5, #4]
2405a0c0:	f043 0308 	orr.w	r3, r3, #8
2405a0c4:	606b      	str	r3, [r5, #4]
2405a0c6:	2301      	movs	r3, #1
2405a0c8:	4620      	mov	r0, r4
2405a0ca:	f884 3091 	strb.w	r3, [r4, #145]	@ 0x91
2405a0ce:	2300      	movs	r3, #0
2405a0d0:	f8a4 307e 	strh.w	r3, [r4, #126]	@ 0x7e
2405a0d4:	f7ff ff2d 	bl	24059f32 <HAL_SAI_ErrorCallback>
2405a0d8:	bd38      	pop	{r3, r4, r5, pc}

2405a0da <SPI_CloseTransfer>:
2405a0da:	6803      	ldr	r3, [r0, #0]
2405a0dc:	6959      	ldr	r1, [r3, #20]
2405a0de:	699a      	ldr	r2, [r3, #24]
2405a0e0:	f042 0208 	orr.w	r2, r2, #8
2405a0e4:	619a      	str	r2, [r3, #24]
2405a0e6:	699a      	ldr	r2, [r3, #24]
2405a0e8:	f042 0210 	orr.w	r2, r2, #16
2405a0ec:	619a      	str	r2, [r3, #24]
2405a0ee:	681a      	ldr	r2, [r3, #0]
2405a0f0:	f022 0201 	bic.w	r2, r2, #1
2405a0f4:	601a      	str	r2, [r3, #0]
2405a0f6:	691a      	ldr	r2, [r3, #16]
2405a0f8:	f422 725b 	bic.w	r2, r2, #876	@ 0x36c
2405a0fc:	f022 0203 	bic.w	r2, r2, #3
2405a100:	611a      	str	r2, [r3, #16]
2405a102:	689a      	ldr	r2, [r3, #8]
2405a104:	f422 4240 	bic.w	r2, r2, #49152	@ 0xc000
2405a108:	609a      	str	r2, [r3, #8]
2405a10a:	f890 2081 	ldrb.w	r2, [r0, #129]	@ 0x81
2405a10e:	2a04      	cmp	r2, #4
2405a110:	d00b      	beq.n	2405a12a <SPI_CloseTransfer+0x50>
2405a112:	068a      	lsls	r2, r1, #26
2405a114:	d509      	bpl.n	2405a12a <SPI_CloseTransfer+0x50>
2405a116:	f8d0 2084 	ldr.w	r2, [r0, #132]	@ 0x84
2405a11a:	f042 0280 	orr.w	r2, r2, #128	@ 0x80
2405a11e:	f8c0 2084 	str.w	r2, [r0, #132]	@ 0x84
2405a122:	699a      	ldr	r2, [r3, #24]
2405a124:	f042 0220 	orr.w	r2, r2, #32
2405a128:	619a      	str	r2, [r3, #24]
2405a12a:	f890 2081 	ldrb.w	r2, [r0, #129]	@ 0x81
2405a12e:	2a03      	cmp	r2, #3
2405a130:	d00b      	beq.n	2405a14a <SPI_CloseTransfer+0x70>
2405a132:	064a      	lsls	r2, r1, #25
2405a134:	d509      	bpl.n	2405a14a <SPI_CloseTransfer+0x70>
2405a136:	f8d0 2084 	ldr.w	r2, [r0, #132]	@ 0x84
2405a13a:	f042 0204 	orr.w	r2, r2, #4
2405a13e:	f8c0 2084 	str.w	r2, [r0, #132]	@ 0x84
2405a142:	699a      	ldr	r2, [r3, #24]
2405a144:	f042 0240 	orr.w	r2, r2, #64	@ 0x40
2405a148:	619a      	str	r2, [r3, #24]
2405a14a:	058a      	lsls	r2, r1, #22
2405a14c:	d509      	bpl.n	2405a162 <SPI_CloseTransfer+0x88>
2405a14e:	f8d0 2084 	ldr.w	r2, [r0, #132]	@ 0x84
2405a152:	f042 0201 	orr.w	r2, r2, #1
2405a156:	f8c0 2084 	str.w	r2, [r0, #132]	@ 0x84
2405a15a:	699a      	ldr	r2, [r3, #24]
2405a15c:	f442 7200 	orr.w	r2, r2, #512	@ 0x200
2405a160:	619a      	str	r2, [r3, #24]
2405a162:	05ca      	lsls	r2, r1, #23
2405a164:	d509      	bpl.n	2405a17a <SPI_CloseTransfer+0xa0>
2405a166:	f8d0 2084 	ldr.w	r2, [r0, #132]	@ 0x84
2405a16a:	f042 0208 	orr.w	r2, r2, #8
2405a16e:	f8c0 2084 	str.w	r2, [r0, #132]	@ 0x84
2405a172:	699a      	ldr	r2, [r3, #24]
2405a174:	f442 7280 	orr.w	r2, r2, #256	@ 0x100
2405a178:	619a      	str	r2, [r3, #24]
2405a17a:	2300      	movs	r3, #0
2405a17c:	f8a0 3062 	strh.w	r3, [r0, #98]	@ 0x62
2405a180:	f8a0 306a 	strh.w	r3, [r0, #106]	@ 0x6a
2405a184:	4770      	bx	lr
	...

2405a188 <HAL_SPI_Init>:
2405a188:	b5f8      	push	{r3, r4, r5, r6, r7, lr}
2405a18a:	4604      	mov	r4, r0
2405a18c:	b908      	cbnz	r0, 2405a192 <HAL_SPI_Init+0xa>
2405a18e:	2001      	movs	r0, #1
2405a190:	bdf8      	pop	{r3, r4, r5, r6, r7, pc}
2405a192:	6802      	ldr	r2, [r0, #0]
2405a194:	2300      	movs	r3, #0
2405a196:	494d      	ldr	r1, [pc, #308]	@ (2405a2cc <HAL_SPI_Init+0x144>)
2405a198:	6283      	str	r3, [r0, #40]	@ 0x28
2405a19a:	428a      	cmp	r2, r1
2405a19c:	68c3      	ldr	r3, [r0, #12]
2405a19e:	d009      	beq.n	2405a1b4 <HAL_SPI_Init+0x2c>
2405a1a0:	f5a1 4178 	sub.w	r1, r1, #63488	@ 0xf800
2405a1a4:	428a      	cmp	r2, r1
2405a1a6:	d005      	beq.n	2405a1b4 <HAL_SPI_Init+0x2c>
2405a1a8:	f501 6180 	add.w	r1, r1, #1024	@ 0x400
2405a1ac:	428a      	cmp	r2, r1
2405a1ae:	d001      	beq.n	2405a1b4 <HAL_SPI_Init+0x2c>
2405a1b0:	2b0f      	cmp	r3, #15
2405a1b2:	d8ec      	bhi.n	2405a18e <HAL_SPI_Init+0x6>
2405a1b4:	6be1      	ldr	r1, [r4, #60]	@ 0x3c
2405a1b6:	3308      	adds	r3, #8
2405a1b8:	0949      	lsrs	r1, r1, #5
2405a1ba:	08db      	lsrs	r3, r3, #3
2405a1bc:	fb01 3303 	mla	r3, r1, r3, r3
2405a1c0:	4942      	ldr	r1, [pc, #264]	@ (2405a2cc <HAL_SPI_Init+0x144>)
2405a1c2:	428a      	cmp	r2, r1
2405a1c4:	d073      	beq.n	2405a2ae <HAL_SPI_Init+0x126>
2405a1c6:	f5a1 4178 	sub.w	r1, r1, #63488	@ 0xf800
2405a1ca:	428a      	cmp	r2, r1
2405a1cc:	d06f      	beq.n	2405a2ae <HAL_SPI_Init+0x126>
2405a1ce:	f501 6180 	add.w	r1, r1, #1024	@ 0x400
2405a1d2:	428a      	cmp	r2, r1
2405a1d4:	d06b      	beq.n	2405a2ae <HAL_SPI_Init+0x126>
2405a1d6:	2b08      	cmp	r3, #8
2405a1d8:	d8d9      	bhi.n	2405a18e <HAL_SPI_Init+0x6>
2405a1da:	f894 3081 	ldrb.w	r3, [r4, #129]	@ 0x81
2405a1de:	f003 02ff 	and.w	r2, r3, #255	@ 0xff
2405a1e2:	b923      	cbnz	r3, 2405a1ee <HAL_SPI_Init+0x66>
2405a1e4:	4620      	mov	r0, r4
2405a1e6:	f884 2080 	strb.w	r2, [r4, #128]	@ 0x80
2405a1ea:	f7f9 fe0f 	bl	24053e0c <HAL_SPI_MspInit>
2405a1ee:	6822      	ldr	r2, [r4, #0]
2405a1f0:	2302      	movs	r3, #2
2405a1f2:	6861      	ldr	r1, [r4, #4]
2405a1f4:	f884 3081 	strb.w	r3, [r4, #129]	@ 0x81
2405a1f8:	6813      	ldr	r3, [r2, #0]
2405a1fa:	6ba6      	ldr	r6, [r4, #56]	@ 0x38
2405a1fc:	f023 0301 	bic.w	r3, r3, #1
2405a200:	6013      	str	r3, [r2, #0]
2405a202:	6893      	ldr	r3, [r2, #8]
2405a204:	f403 1cf8 	and.w	ip, r3, #2031616	@ 0x1f0000
2405a208:	69a3      	ldr	r3, [r4, #24]
2405a20a:	f1b3 6f80 	cmp.w	r3, #67108864	@ 0x4000000
2405a20e:	d104      	bne.n	2405a21a <HAL_SPI_Init+0x92>
2405a210:	f5b1 0f80 	cmp.w	r1, #4194304	@ 0x400000
2405a214:	d14d      	bne.n	2405a2b2 <HAL_SPI_Init+0x12a>
2405a216:	2e00      	cmp	r6, #0
2405a218:	d050      	beq.n	2405a2bc <HAL_SPI_Init+0x134>
2405a21a:	f411 0080 	ands.w	r0, r1, #4194304	@ 0x400000
2405a21e:	68e5      	ldr	r5, [r4, #12]
2405a220:	6817      	ldr	r7, [r2, #0]
2405a222:	d050      	beq.n	2405a2c6 <HAL_SPI_Init+0x13e>
2405a224:	2d06      	cmp	r5, #6
2405a226:	d94e      	bls.n	2405a2c6 <HAL_SPI_Init+0x13e>
2405a228:	f427 7e80 	bic.w	lr, r7, #256	@ 0x100
2405a22c:	6d27      	ldr	r7, [r4, #80]	@ 0x50
2405a22e:	ea4e 0707 	orr.w	r7, lr, r7
2405a232:	6017      	str	r7, [r2, #0]
2405a234:	430b      	orrs	r3, r1
2405a236:	69e7      	ldr	r7, [r4, #28]
2405a238:	4333      	orrs	r3, r6
2405a23a:	433d      	orrs	r5, r7
2405a23c:	6aa7      	ldr	r7, [r4, #40]	@ 0x28
2405a23e:	433d      	orrs	r5, r7
2405a240:	6be7      	ldr	r7, [r4, #60]	@ 0x3c
2405a242:	433d      	orrs	r5, r7
2405a244:	ea45 050c 	orr.w	r5, r5, ip
2405a248:	6095      	str	r5, [r2, #8]
2405a24a:	6b65      	ldr	r5, [r4, #52]	@ 0x34
2405a24c:	432b      	orrs	r3, r5
2405a24e:	6a65      	ldr	r5, [r4, #36]	@ 0x24
2405a250:	432b      	orrs	r3, r5
2405a252:	6925      	ldr	r5, [r4, #16]
2405a254:	432b      	orrs	r3, r5
2405a256:	6965      	ldr	r5, [r4, #20]
2405a258:	432b      	orrs	r3, r5
2405a25a:	6a25      	ldr	r5, [r4, #32]
2405a25c:	432b      	orrs	r3, r5
2405a25e:	6ce5      	ldr	r5, [r4, #76]	@ 0x4c
2405a260:	432b      	orrs	r3, r5
2405a262:	68a5      	ldr	r5, [r4, #8]
2405a264:	432b      	orrs	r3, r5
2405a266:	6ca5      	ldr	r5, [r4, #72]	@ 0x48
2405a268:	432b      	orrs	r3, r5
2405a26a:	6da5      	ldr	r5, [r4, #88]	@ 0x58
2405a26c:	432b      	orrs	r3, r5
2405a26e:	60d3      	str	r3, [r2, #12]
2405a270:	b959      	cbnz	r1, 2405a28a <HAL_SPI_Init+0x102>
2405a272:	6893      	ldr	r3, [r2, #8]
2405a274:	f423 53c0 	bic.w	r3, r3, #6144	@ 0x1800
2405a278:	f443 6300 	orr.w	r3, r3, #2048	@ 0x800
2405a27c:	6093      	str	r3, [r2, #8]
2405a27e:	6893      	ldr	r3, [r2, #8]
2405a280:	f423 63c0 	bic.w	r3, r3, #1536	@ 0x600
2405a284:	f443 6380 	orr.w	r3, r3, #1024	@ 0x400
2405a288:	6093      	str	r3, [r2, #8]
2405a28a:	6d13      	ldr	r3, [r2, #80]	@ 0x50
2405a28c:	f023 0301 	bic.w	r3, r3, #1
2405a290:	6513      	str	r3, [r2, #80]	@ 0x50
2405a292:	b128      	cbz	r0, 2405a2a0 <HAL_SPI_Init+0x118>
2405a294:	68d3      	ldr	r3, [r2, #12]
2405a296:	6d61      	ldr	r1, [r4, #84]	@ 0x54
2405a298:	f023 4300 	bic.w	r3, r3, #2147483648	@ 0x80000000
2405a29c:	430b      	orrs	r3, r1
2405a29e:	60d3      	str	r3, [r2, #12]
2405a2a0:	2000      	movs	r0, #0
2405a2a2:	2301      	movs	r3, #1
2405a2a4:	f8c4 0084 	str.w	r0, [r4, #132]	@ 0x84
2405a2a8:	f884 3081 	strb.w	r3, [r4, #129]	@ 0x81
2405a2ac:	e770      	b.n	2405a190 <HAL_SPI_Init+0x8>
2405a2ae:	2b10      	cmp	r3, #16
2405a2b0:	e792      	b.n	2405a1d8 <HAL_SPI_Init+0x50>
2405a2b2:	2900      	cmp	r1, #0
2405a2b4:	d1b1      	bne.n	2405a21a <HAL_SPI_Init+0x92>
2405a2b6:	f1b6 5f80 	cmp.w	r6, #268435456	@ 0x10000000
2405a2ba:	d1ae      	bne.n	2405a21a <HAL_SPI_Init+0x92>
2405a2bc:	6810      	ldr	r0, [r2, #0]
2405a2be:	f440 5080 	orr.w	r0, r0, #4096	@ 0x1000
2405a2c2:	6010      	str	r0, [r2, #0]
2405a2c4:	e7a9      	b.n	2405a21a <HAL_SPI_Init+0x92>
2405a2c6:	f427 7780 	bic.w	r7, r7, #256	@ 0x100
2405a2ca:	e7b2      	b.n	2405a232 <HAL_SPI_Init+0xaa>
2405a2cc:	40013000 	.word	0x40013000

2405a2d0 <HAL_SPI_Transmit>:
2405a2d0:	e92d 43f8 	stmdb	sp!, {r3, r4, r5, r6, r7, r8, r9, lr}
2405a2d4:	4604      	mov	r4, r0
2405a2d6:	461d      	mov	r5, r3
2405a2d8:	4689      	mov	r9, r1
2405a2da:	4690      	mov	r8, r2
2405a2dc:	6807      	ldr	r7, [r0, #0]
2405a2de:	f7fa f80f 	bl	24054300 <HAL_GetTick>
2405a2e2:	f894 3081 	ldrb.w	r3, [r4, #129]	@ 0x81
2405a2e6:	4606      	mov	r6, r0
2405a2e8:	2b01      	cmp	r3, #1
2405a2ea:	b2d8      	uxtb	r0, r3
2405a2ec:	f040 8108 	bne.w	2405a500 <HAL_SPI_Transmit+0x230>
2405a2f0:	f1b9 0f00 	cmp.w	r9, #0
2405a2f4:	f000 80a3 	beq.w	2405a43e <HAL_SPI_Transmit+0x16e>
2405a2f8:	f1b8 0f00 	cmp.w	r8, #0
2405a2fc:	f000 809f 	beq.w	2405a43e <HAL_SPI_Transmit+0x16e>
2405a300:	f894 3080 	ldrb.w	r3, [r4, #128]	@ 0x80
2405a304:	2b01      	cmp	r3, #1
2405a306:	f000 80fb 	beq.w	2405a500 <HAL_SPI_Transmit+0x230>
2405a30a:	2303      	movs	r3, #3
2405a30c:	68a2      	ldr	r2, [r4, #8]
2405a30e:	f884 0080 	strb.w	r0, [r4, #128]	@ 0x80
2405a312:	f884 3081 	strb.w	r3, [r4, #129]	@ 0x81
2405a316:	f5b2 2fc0 	cmp.w	r2, #393216	@ 0x60000
2405a31a:	f04f 0300 	mov.w	r3, #0
2405a31e:	f8c4 905c 	str.w	r9, [r4, #92]	@ 0x5c
2405a322:	f8a4 8060 	strh.w	r8, [r4, #96]	@ 0x60
2405a326:	f8c4 3084 	str.w	r3, [r4, #132]	@ 0x84
2405a32a:	6663      	str	r3, [r4, #100]	@ 0x64
2405a32c:	f8a4 8062 	strh.w	r8, [r4, #98]	@ 0x62
2405a330:	f8a4 3068 	strh.w	r3, [r4, #104]	@ 0x68
2405a334:	f8a4 306a 	strh.w	r3, [r4, #106]	@ 0x6a
2405a338:	e9c4 331c 	strd	r3, r3, [r4, #112]	@ 0x70
2405a33c:	6823      	ldr	r3, [r4, #0]
2405a33e:	d139      	bne.n	2405a3b4 <HAL_SPI_Transmit+0xe4>
2405a340:	681a      	ldr	r2, [r3, #0]
2405a342:	f442 6200 	orr.w	r2, r2, #2048	@ 0x800
2405a346:	601a      	str	r2, [r3, #0]
2405a348:	6859      	ldr	r1, [r3, #4]
2405a34a:	0c09      	lsrs	r1, r1, #16
2405a34c:	0409      	lsls	r1, r1, #16
2405a34e:	ea41 0108 	orr.w	r1, r1, r8
2405a352:	6059      	str	r1, [r3, #4]
2405a354:	681a      	ldr	r2, [r3, #0]
2405a356:	f042 0201 	orr.w	r2, r2, #1
2405a35a:	601a      	str	r2, [r3, #0]
2405a35c:	6862      	ldr	r2, [r4, #4]
2405a35e:	f5b2 0f80 	cmp.w	r2, #4194304	@ 0x400000
2405a362:	d103      	bne.n	2405a36c <HAL_SPI_Transmit+0x9c>
2405a364:	681a      	ldr	r2, [r3, #0]
2405a366:	f442 7200 	orr.w	r2, r2, #512	@ 0x200
2405a36a:	601a      	str	r2, [r3, #0]
2405a36c:	68e3      	ldr	r3, [r4, #12]
2405a36e:	2b0f      	cmp	r3, #15
2405a370:	d835      	bhi.n	2405a3de <HAL_SPI_Transmit+0x10e>
2405a372:	2b07      	cmp	r3, #7
2405a374:	d87a      	bhi.n	2405a46c <HAL_SPI_Transmit+0x19c>
2405a376:	f8b4 3062 	ldrh.w	r3, [r4, #98]	@ 0x62
2405a37a:	6821      	ldr	r1, [r4, #0]
2405a37c:	b29b      	uxth	r3, r3
2405a37e:	2b00      	cmp	r3, #0
2405a380:	d033      	beq.n	2405a3ea <HAL_SPI_Transmit+0x11a>
2405a382:	694b      	ldr	r3, [r1, #20]
2405a384:	0798      	lsls	r0, r3, #30
2405a386:	f140 80a1 	bpl.w	2405a4cc <HAL_SPI_Transmit+0x1fc>
2405a38a:	f8b4 3062 	ldrh.w	r3, [r4, #98]	@ 0x62
2405a38e:	6de2      	ldr	r2, [r4, #92]	@ 0x5c
2405a390:	b29b      	uxth	r3, r3
2405a392:	2b03      	cmp	r3, #3
2405a394:	f240 8081 	bls.w	2405a49a <HAL_SPI_Transmit+0x1ca>
2405a398:	6be3      	ldr	r3, [r4, #60]	@ 0x3c
2405a39a:	2b40      	cmp	r3, #64	@ 0x40
2405a39c:	d97d      	bls.n	2405a49a <HAL_SPI_Transmit+0x1ca>
2405a39e:	f852 3b04 	ldr.w	r3, [r2], #4
2405a3a2:	620b      	str	r3, [r1, #32]
2405a3a4:	f8b4 3062 	ldrh.w	r3, [r4, #98]	@ 0x62
2405a3a8:	65e2      	str	r2, [r4, #92]	@ 0x5c
2405a3aa:	3b04      	subs	r3, #4
2405a3ac:	b29b      	uxth	r3, r3
2405a3ae:	f8a4 3062 	strh.w	r3, [r4, #98]	@ 0x62
2405a3b2:	e7e0      	b.n	2405a376 <HAL_SPI_Transmit+0xa6>
2405a3b4:	68da      	ldr	r2, [r3, #12]
2405a3b6:	f422 22c0 	bic.w	r2, r2, #393216	@ 0x60000
2405a3ba:	f442 3200 	orr.w	r2, r2, #131072	@ 0x20000
2405a3be:	60da      	str	r2, [r3, #12]
2405a3c0:	e7c2      	b.n	2405a348 <HAL_SPI_Transmit+0x78>
2405a3c2:	6953      	ldr	r3, [r2, #20]
2405a3c4:	0798      	lsls	r0, r3, #30
2405a3c6:	d523      	bpl.n	2405a410 <HAL_SPI_Transmit+0x140>
2405a3c8:	6de3      	ldr	r3, [r4, #92]	@ 0x5c
2405a3ca:	f853 1b04 	ldr.w	r1, [r3], #4
2405a3ce:	6211      	str	r1, [r2, #32]
2405a3d0:	65e3      	str	r3, [r4, #92]	@ 0x5c
2405a3d2:	f8b4 3062 	ldrh.w	r3, [r4, #98]	@ 0x62
2405a3d6:	3b01      	subs	r3, #1
2405a3d8:	b29b      	uxth	r3, r3
2405a3da:	f8a4 3062 	strh.w	r3, [r4, #98]	@ 0x62
2405a3de:	f8b4 3062 	ldrh.w	r3, [r4, #98]	@ 0x62
2405a3e2:	6822      	ldr	r2, [r4, #0]
2405a3e4:	b29b      	uxth	r3, r3
2405a3e6:	2b00      	cmp	r3, #0
2405a3e8:	d1eb      	bne.n	2405a3c2 <HAL_SPI_Transmit+0xf2>
2405a3ea:	6823      	ldr	r3, [r4, #0]
2405a3ec:	695b      	ldr	r3, [r3, #20]
2405a3ee:	071b      	lsls	r3, r3, #28
2405a3f0:	d576      	bpl.n	2405a4e0 <HAL_SPI_Transmit+0x210>
2405a3f2:	4620      	mov	r0, r4
2405a3f4:	f7ff fe71 	bl	2405a0da <SPI_CloseTransfer>
2405a3f8:	2301      	movs	r3, #1
2405a3fa:	f884 3081 	strb.w	r3, [r4, #129]	@ 0x81
2405a3fe:	2300      	movs	r3, #0
2405a400:	f8d4 0084 	ldr.w	r0, [r4, #132]	@ 0x84
2405a404:	f884 3080 	strb.w	r3, [r4, #128]	@ 0x80
2405a408:	1ac0      	subs	r0, r0, r3
2405a40a:	bf18      	it	ne
2405a40c:	2001      	movne	r0, #1
2405a40e:	e016      	b.n	2405a43e <HAL_SPI_Transmit+0x16e>
2405a410:	f7f9 ff76 	bl	24054300 <HAL_GetTick>
2405a414:	1b80      	subs	r0, r0, r6
2405a416:	42a8      	cmp	r0, r5
2405a418:	d3e1      	bcc.n	2405a3de <HAL_SPI_Transmit+0x10e>
2405a41a:	1c69      	adds	r1, r5, #1
2405a41c:	d0df      	beq.n	2405a3de <HAL_SPI_Transmit+0x10e>
2405a41e:	4620      	mov	r0, r4
2405a420:	f7ff fe5b 	bl	2405a0da <SPI_CloseTransfer>
2405a424:	f8d4 3084 	ldr.w	r3, [r4, #132]	@ 0x84
2405a428:	2003      	movs	r0, #3
2405a42a:	f443 7380 	orr.w	r3, r3, #256	@ 0x100
2405a42e:	f8c4 3084 	str.w	r3, [r4, #132]	@ 0x84
2405a432:	2301      	movs	r3, #1
2405a434:	f884 3081 	strb.w	r3, [r4, #129]	@ 0x81
2405a438:	2300      	movs	r3, #0
2405a43a:	f884 3080 	strb.w	r3, [r4, #128]	@ 0x80
2405a43e:	e8bd 83f8 	ldmia.w	sp!, {r3, r4, r5, r6, r7, r8, r9, pc}
2405a442:	694b      	ldr	r3, [r1, #20]
2405a444:	079a      	lsls	r2, r3, #30
2405a446:	d520      	bpl.n	2405a48a <HAL_SPI_Transmit+0x1ba>
2405a448:	f8b4 2062 	ldrh.w	r2, [r4, #98]	@ 0x62
2405a44c:	6de3      	ldr	r3, [r4, #92]	@ 0x5c
2405a44e:	b292      	uxth	r2, r2
2405a450:	2a01      	cmp	r2, #1
2405a452:	d912      	bls.n	2405a47a <HAL_SPI_Transmit+0x1aa>
2405a454:	6be2      	ldr	r2, [r4, #60]	@ 0x3c
2405a456:	b182      	cbz	r2, 2405a47a <HAL_SPI_Transmit+0x1aa>
2405a458:	f853 2b04 	ldr.w	r2, [r3], #4
2405a45c:	620a      	str	r2, [r1, #32]
2405a45e:	65e3      	str	r3, [r4, #92]	@ 0x5c
2405a460:	f8b4 3062 	ldrh.w	r3, [r4, #98]	@ 0x62
2405a464:	3b02      	subs	r3, #2
2405a466:	b29b      	uxth	r3, r3
2405a468:	f8a4 3062 	strh.w	r3, [r4, #98]	@ 0x62
2405a46c:	f8b4 3062 	ldrh.w	r3, [r4, #98]	@ 0x62
2405a470:	6821      	ldr	r1, [r4, #0]
2405a472:	b29b      	uxth	r3, r3
2405a474:	2b00      	cmp	r3, #0
2405a476:	d1e4      	bne.n	2405a442 <HAL_SPI_Transmit+0x172>
2405a478:	e7b7      	b.n	2405a3ea <HAL_SPI_Transmit+0x11a>
2405a47a:	f833 2b02 	ldrh.w	r2, [r3], #2
2405a47e:	843a      	strh	r2, [r7, #32]
2405a480:	65e3      	str	r3, [r4, #92]	@ 0x5c
2405a482:	f8b4 3062 	ldrh.w	r3, [r4, #98]	@ 0x62
2405a486:	3b01      	subs	r3, #1
2405a488:	e7ed      	b.n	2405a466 <HAL_SPI_Transmit+0x196>
2405a48a:	f7f9 ff39 	bl	24054300 <HAL_GetTick>
2405a48e:	1b80      	subs	r0, r0, r6
2405a490:	42a8      	cmp	r0, r5
2405a492:	d3eb      	bcc.n	2405a46c <HAL_SPI_Transmit+0x19c>
2405a494:	1c6b      	adds	r3, r5, #1
2405a496:	d0e9      	beq.n	2405a46c <HAL_SPI_Transmit+0x19c>
2405a498:	e7c1      	b.n	2405a41e <HAL_SPI_Transmit+0x14e>
2405a49a:	f8b4 3062 	ldrh.w	r3, [r4, #98]	@ 0x62
2405a49e:	b29b      	uxth	r3, r3
2405a4a0:	2b01      	cmp	r3, #1
2405a4a2:	d909      	bls.n	2405a4b8 <HAL_SPI_Transmit+0x1e8>
2405a4a4:	6be3      	ldr	r3, [r4, #60]	@ 0x3c
2405a4a6:	b13b      	cbz	r3, 2405a4b8 <HAL_SPI_Transmit+0x1e8>
2405a4a8:	f832 3b02 	ldrh.w	r3, [r2], #2
2405a4ac:	843b      	strh	r3, [r7, #32]
2405a4ae:	f8b4 3062 	ldrh.w	r3, [r4, #98]	@ 0x62
2405a4b2:	65e2      	str	r2, [r4, #92]	@ 0x5c
2405a4b4:	3b02      	subs	r3, #2
2405a4b6:	e779      	b.n	2405a3ac <HAL_SPI_Transmit+0xdc>
2405a4b8:	7813      	ldrb	r3, [r2, #0]
2405a4ba:	f881 3020 	strb.w	r3, [r1, #32]
2405a4be:	6de3      	ldr	r3, [r4, #92]	@ 0x5c
2405a4c0:	3301      	adds	r3, #1
2405a4c2:	65e3      	str	r3, [r4, #92]	@ 0x5c
2405a4c4:	f8b4 3062 	ldrh.w	r3, [r4, #98]	@ 0x62
2405a4c8:	3b01      	subs	r3, #1
2405a4ca:	e76f      	b.n	2405a3ac <HAL_SPI_Transmit+0xdc>
2405a4cc:	f7f9 ff18 	bl	24054300 <HAL_GetTick>
2405a4d0:	1b80      	subs	r0, r0, r6
2405a4d2:	42a8      	cmp	r0, r5
2405a4d4:	f4ff af4f 	bcc.w	2405a376 <HAL_SPI_Transmit+0xa6>
2405a4d8:	1c69      	adds	r1, r5, #1
2405a4da:	f43f af4c 	beq.w	2405a376 <HAL_SPI_Transmit+0xa6>
2405a4de:	e79e      	b.n	2405a41e <HAL_SPI_Transmit+0x14e>
2405a4e0:	f7f9 ff0e 	bl	24054300 <HAL_GetTick>
2405a4e4:	1b80      	subs	r0, r0, r6
2405a4e6:	4285      	cmp	r5, r0
2405a4e8:	f63f af7f 	bhi.w	2405a3ea <HAL_SPI_Transmit+0x11a>
2405a4ec:	1c6a      	adds	r2, r5, #1
2405a4ee:	f43f af7c 	beq.w	2405a3ea <HAL_SPI_Transmit+0x11a>
2405a4f2:	f8d4 3084 	ldr.w	r3, [r4, #132]	@ 0x84
2405a4f6:	f043 0320 	orr.w	r3, r3, #32
2405a4fa:	f8c4 3084 	str.w	r3, [r4, #132]	@ 0x84
2405a4fe:	e778      	b.n	2405a3f2 <HAL_SPI_Transmit+0x122>
2405a500:	2002      	movs	r0, #2
2405a502:	e79c      	b.n	2405a43e <HAL_SPI_Transmit+0x16e>

2405a504 <HAL_TIM_Base_Start_IT>:
2405a504:	f890 303d 	ldrb.w	r3, [r0, #61]	@ 0x3d
2405a508:	2b01      	cmp	r3, #1
2405a50a:	d133      	bne.n	2405a574 <HAL_TIM_Base_Start_IT+0x70>
2405a50c:	2302      	movs	r3, #2
2405a50e:	f880 303d 	strb.w	r3, [r0, #61]	@ 0x3d
2405a512:	6803      	ldr	r3, [r0, #0]
2405a514:	68da      	ldr	r2, [r3, #12]
2405a516:	f042 0201 	orr.w	r2, r2, #1
2405a51a:	60da      	str	r2, [r3, #12]
2405a51c:	4a16      	ldr	r2, [pc, #88]	@ (2405a578 <HAL_TIM_Base_Start_IT+0x74>)
2405a51e:	4293      	cmp	r3, r2
2405a520:	d01a      	beq.n	2405a558 <HAL_TIM_Base_Start_IT+0x54>
2405a522:	f1b3 4f80 	cmp.w	r3, #1073741824	@ 0x40000000
2405a526:	d017      	beq.n	2405a558 <HAL_TIM_Base_Start_IT+0x54>
2405a528:	f5a2 427c 	sub.w	r2, r2, #64512	@ 0xfc00
2405a52c:	4293      	cmp	r3, r2
2405a52e:	d013      	beq.n	2405a558 <HAL_TIM_Base_Start_IT+0x54>
2405a530:	f502 6280 	add.w	r2, r2, #1024	@ 0x400
2405a534:	4293      	cmp	r3, r2
2405a536:	d00f      	beq.n	2405a558 <HAL_TIM_Base_Start_IT+0x54>
2405a538:	f502 6280 	add.w	r2, r2, #1024	@ 0x400
2405a53c:	4293      	cmp	r3, r2
2405a53e:	d00b      	beq.n	2405a558 <HAL_TIM_Base_Start_IT+0x54>
2405a540:	f502 4278 	add.w	r2, r2, #63488	@ 0xf800
2405a544:	4293      	cmp	r3, r2
2405a546:	d007      	beq.n	2405a558 <HAL_TIM_Base_Start_IT+0x54>
2405a548:	f5a2 426c 	sub.w	r2, r2, #60416	@ 0xec00
2405a54c:	4293      	cmp	r3, r2
2405a54e:	d003      	beq.n	2405a558 <HAL_TIM_Base_Start_IT+0x54>
2405a550:	f502 3294 	add.w	r2, r2, #75776	@ 0x12800
2405a554:	4293      	cmp	r3, r2
2405a556:	d107      	bne.n	2405a568 <HAL_TIM_Base_Start_IT+0x64>
2405a558:	6899      	ldr	r1, [r3, #8]
2405a55a:	4a08      	ldr	r2, [pc, #32]	@ (2405a57c <HAL_TIM_Base_Start_IT+0x78>)
2405a55c:	400a      	ands	r2, r1
2405a55e:	2a06      	cmp	r2, #6
2405a560:	d006      	beq.n	2405a570 <HAL_TIM_Base_Start_IT+0x6c>
2405a562:	f5b2 3f80 	cmp.w	r2, #65536	@ 0x10000
2405a566:	d003      	beq.n	2405a570 <HAL_TIM_Base_Start_IT+0x6c>
2405a568:	681a      	ldr	r2, [r3, #0]
2405a56a:	f042 0201 	orr.w	r2, r2, #1
2405a56e:	601a      	str	r2, [r3, #0]
2405a570:	2000      	movs	r0, #0
2405a572:	4770      	bx	lr
2405a574:	2001      	movs	r0, #1
2405a576:	4770      	bx	lr
2405a578:	40010000 	.word	0x40010000
2405a57c:	00010007 	.word	0x00010007

2405a580 <HAL_TIM_PeriodElapsedCallback>:
2405a580:	4770      	bx	lr

2405a582 <HAL_TIM_OC_DelayElapsedCallback>:
2405a582:	4770      	bx	lr

2405a584 <HAL_TIM_IC_CaptureCallback>:
2405a584:	4770      	bx	lr

2405a586 <HAL_TIM_PWM_PulseFinishedCallback>:
2405a586:	4770      	bx	lr

2405a588 <HAL_TIM_TriggerCallback>:
2405a588:	4770      	bx	lr

2405a58a <HAL_TIM_IRQHandler>:
2405a58a:	6803      	ldr	r3, [r0, #0]
2405a58c:	b570      	push	{r4, r5, r6, lr}
2405a58e:	68dd      	ldr	r5, [r3, #12]
2405a590:	4604      	mov	r4, r0
2405a592:	691e      	ldr	r6, [r3, #16]
2405a594:	07b2      	lsls	r2, r6, #30
2405a596:	d50d      	bpl.n	2405a5b4 <HAL_TIM_IRQHandler+0x2a>
2405a598:	07a9      	lsls	r1, r5, #30
2405a59a:	d50b      	bpl.n	2405a5b4 <HAL_TIM_IRQHandler+0x2a>
2405a59c:	f06f 0202 	mvn.w	r2, #2
2405a5a0:	611a      	str	r2, [r3, #16]
2405a5a2:	2201      	movs	r2, #1
2405a5a4:	7702      	strb	r2, [r0, #28]
2405a5a6:	699b      	ldr	r3, [r3, #24]
2405a5a8:	079a      	lsls	r2, r3, #30
2405a5aa:	d075      	beq.n	2405a698 <HAL_TIM_IRQHandler+0x10e>
2405a5ac:	f7ff ffea 	bl	2405a584 <HAL_TIM_IC_CaptureCallback>
2405a5b0:	2300      	movs	r3, #0
2405a5b2:	7723      	strb	r3, [r4, #28]
2405a5b4:	0773      	lsls	r3, r6, #29
2405a5b6:	d510      	bpl.n	2405a5da <HAL_TIM_IRQHandler+0x50>
2405a5b8:	0768      	lsls	r0, r5, #29
2405a5ba:	d50e      	bpl.n	2405a5da <HAL_TIM_IRQHandler+0x50>
2405a5bc:	6823      	ldr	r3, [r4, #0]
2405a5be:	f06f 0204 	mvn.w	r2, #4
2405a5c2:	4620      	mov	r0, r4
2405a5c4:	611a      	str	r2, [r3, #16]
2405a5c6:	2202      	movs	r2, #2
2405a5c8:	7722      	strb	r2, [r4, #28]
2405a5ca:	699b      	ldr	r3, [r3, #24]
2405a5cc:	f413 7f40 	tst.w	r3, #768	@ 0x300
2405a5d0:	d068      	beq.n	2405a6a4 <HAL_TIM_IRQHandler+0x11a>
2405a5d2:	f7ff ffd7 	bl	2405a584 <HAL_TIM_IC_CaptureCallback>
2405a5d6:	2300      	movs	r3, #0
2405a5d8:	7723      	strb	r3, [r4, #28]
2405a5da:	0731      	lsls	r1, r6, #28
2405a5dc:	d50f      	bpl.n	2405a5fe <HAL_TIM_IRQHandler+0x74>
2405a5de:	072a      	lsls	r2, r5, #28
2405a5e0:	d50d      	bpl.n	2405a5fe <HAL_TIM_IRQHandler+0x74>
2405a5e2:	6823      	ldr	r3, [r4, #0]
2405a5e4:	f06f 0208 	mvn.w	r2, #8
2405a5e8:	4620      	mov	r0, r4
2405a5ea:	611a      	str	r2, [r3, #16]
2405a5ec:	2204      	movs	r2, #4
2405a5ee:	7722      	strb	r2, [r4, #28]
2405a5f0:	69db      	ldr	r3, [r3, #28]
2405a5f2:	079b      	lsls	r3, r3, #30
2405a5f4:	d05c      	beq.n	2405a6b0 <HAL_TIM_IRQHandler+0x126>
2405a5f6:	f7ff ffc5 	bl	2405a584 <HAL_TIM_IC_CaptureCallback>
2405a5fa:	2300      	movs	r3, #0
2405a5fc:	7723      	strb	r3, [r4, #28]
2405a5fe:	06f1      	lsls	r1, r6, #27
2405a600:	d510      	bpl.n	2405a624 <HAL_TIM_IRQHandler+0x9a>
2405a602:	06ea      	lsls	r2, r5, #27
2405a604:	d50e      	bpl.n	2405a624 <HAL_TIM_IRQHandler+0x9a>
2405a606:	6823      	ldr	r3, [r4, #0]
2405a608:	f06f 0210 	mvn.w	r2, #16
2405a60c:	4620      	mov	r0, r4
2405a60e:	611a      	str	r2, [r3, #16]
2405a610:	2208      	movs	r2, #8
2405a612:	7722      	strb	r2, [r4, #28]
2405a614:	69db      	ldr	r3, [r3, #28]
2405a616:	f413 7f40 	tst.w	r3, #768	@ 0x300
2405a61a:	d04f      	beq.n	2405a6bc <HAL_TIM_IRQHandler+0x132>
2405a61c:	f7ff ffb2 	bl	2405a584 <HAL_TIM_IC_CaptureCallback>
2405a620:	2300      	movs	r3, #0
2405a622:	7723      	strb	r3, [r4, #28]
2405a624:	07f3      	lsls	r3, r6, #31
2405a626:	d508      	bpl.n	2405a63a <HAL_TIM_IRQHandler+0xb0>
2405a628:	07e8      	lsls	r0, r5, #31
2405a62a:	d506      	bpl.n	2405a63a <HAL_TIM_IRQHandler+0xb0>
2405a62c:	6823      	ldr	r3, [r4, #0]
2405a62e:	f06f 0201 	mvn.w	r2, #1
2405a632:	4620      	mov	r0, r4
2405a634:	611a      	str	r2, [r3, #16]
2405a636:	f7ff ffa3 	bl	2405a580 <HAL_TIM_PeriodElapsedCallback>
2405a63a:	f416 5f02 	tst.w	r6, #8320	@ 0x2080
2405a63e:	d008      	beq.n	2405a652 <HAL_TIM_IRQHandler+0xc8>
2405a640:	0629      	lsls	r1, r5, #24
2405a642:	d506      	bpl.n	2405a652 <HAL_TIM_IRQHandler+0xc8>
2405a644:	6823      	ldr	r3, [r4, #0]
2405a646:	f46f 5202 	mvn.w	r2, #8320	@ 0x2080
2405a64a:	4620      	mov	r0, r4
2405a64c:	611a      	str	r2, [r3, #16]
2405a64e:	f000 f9e8 	bl	2405aa22 <HAL_TIMEx_BreakCallback>
2405a652:	05f2      	lsls	r2, r6, #23
2405a654:	d508      	bpl.n	2405a668 <HAL_TIM_IRQHandler+0xde>
2405a656:	062b      	lsls	r3, r5, #24
2405a658:	d506      	bpl.n	2405a668 <HAL_TIM_IRQHandler+0xde>
2405a65a:	6823      	ldr	r3, [r4, #0]
2405a65c:	f46f 7280 	mvn.w	r2, #256	@ 0x100
2405a660:	4620      	mov	r0, r4
2405a662:	611a      	str	r2, [r3, #16]
2405a664:	f000 f9de 	bl	2405aa24 <HAL_TIMEx_Break2Callback>
2405a668:	0670      	lsls	r0, r6, #25
2405a66a:	d508      	bpl.n	2405a67e <HAL_TIM_IRQHandler+0xf4>
2405a66c:	0669      	lsls	r1, r5, #25
2405a66e:	d506      	bpl.n	2405a67e <HAL_TIM_IRQHandler+0xf4>
2405a670:	6823      	ldr	r3, [r4, #0]
2405a672:	f06f 0240 	mvn.w	r2, #64	@ 0x40
2405a676:	4620      	mov	r0, r4
2405a678:	611a      	str	r2, [r3, #16]
2405a67a:	f7ff ff85 	bl	2405a588 <HAL_TIM_TriggerCallback>
2405a67e:	06b2      	lsls	r2, r6, #26
2405a680:	d522      	bpl.n	2405a6c8 <HAL_TIM_IRQHandler+0x13e>
2405a682:	06ab      	lsls	r3, r5, #26
2405a684:	d520      	bpl.n	2405a6c8 <HAL_TIM_IRQHandler+0x13e>
2405a686:	6823      	ldr	r3, [r4, #0]
2405a688:	f06f 0220 	mvn.w	r2, #32
2405a68c:	4620      	mov	r0, r4
2405a68e:	611a      	str	r2, [r3, #16]
2405a690:	e8bd 4070 	ldmia.w	sp!, {r4, r5, r6, lr}
2405a694:	f000 b9c4 	b.w	2405aa20 <HAL_TIMEx_CommutCallback>
2405a698:	f7ff ff73 	bl	2405a582 <HAL_TIM_OC_DelayElapsedCallback>
2405a69c:	4620      	mov	r0, r4
2405a69e:	f7ff ff72 	bl	2405a586 <HAL_TIM_PWM_PulseFinishedCallback>
2405a6a2:	e785      	b.n	2405a5b0 <HAL_TIM_IRQHandler+0x26>
2405a6a4:	f7ff ff6d 	bl	2405a582 <HAL_TIM_OC_DelayElapsedCallback>
2405a6a8:	4620      	mov	r0, r4
2405a6aa:	f7ff ff6c 	bl	2405a586 <HAL_TIM_PWM_PulseFinishedCallback>
2405a6ae:	e792      	b.n	2405a5d6 <HAL_TIM_IRQHandler+0x4c>
2405a6b0:	f7ff ff67 	bl	2405a582 <HAL_TIM_OC_DelayElapsedCallback>
2405a6b4:	4620      	mov	r0, r4
2405a6b6:	f7ff ff66 	bl	2405a586 <HAL_TIM_PWM_PulseFinishedCallback>
2405a6ba:	e79e      	b.n	2405a5fa <HAL_TIM_IRQHandler+0x70>
2405a6bc:	f7ff ff61 	bl	2405a582 <HAL_TIM_OC_DelayElapsedCallback>
2405a6c0:	4620      	mov	r0, r4
2405a6c2:	f7ff ff60 	bl	2405a586 <HAL_TIM_PWM_PulseFinishedCallback>
2405a6c6:	e7ab      	b.n	2405a620 <HAL_TIM_IRQHandler+0x96>
2405a6c8:	bd70      	pop	{r4, r5, r6, pc}
	...

2405a6cc <TIM_Base_SetConfig>:
2405a6cc:	4a33      	ldr	r2, [pc, #204]	@ (2405a79c <TIM_Base_SetConfig+0xd0>)
2405a6ce:	6803      	ldr	r3, [r0, #0]
2405a6d0:	4290      	cmp	r0, r2
2405a6d2:	d012      	beq.n	2405a6fa <TIM_Base_SetConfig+0x2e>
2405a6d4:	f1b0 4f80 	cmp.w	r0, #1073741824	@ 0x40000000
2405a6d8:	d00f      	beq.n	2405a6fa <TIM_Base_SetConfig+0x2e>
2405a6da:	f5a2 427c 	sub.w	r2, r2, #64512	@ 0xfc00
2405a6de:	4290      	cmp	r0, r2
2405a6e0:	d00b      	beq.n	2405a6fa <TIM_Base_SetConfig+0x2e>
2405a6e2:	f502 6280 	add.w	r2, r2, #1024	@ 0x400
2405a6e6:	4290      	cmp	r0, r2
2405a6e8:	d007      	beq.n	2405a6fa <TIM_Base_SetConfig+0x2e>
2405a6ea:	f502 6280 	add.w	r2, r2, #1024	@ 0x400
2405a6ee:	4290      	cmp	r0, r2
2405a6f0:	d003      	beq.n	2405a6fa <TIM_Base_SetConfig+0x2e>
2405a6f2:	f502 4278 	add.w	r2, r2, #63488	@ 0xf800
2405a6f6:	4290      	cmp	r0, r2
2405a6f8:	d119      	bne.n	2405a72e <TIM_Base_SetConfig+0x62>
2405a6fa:	684a      	ldr	r2, [r1, #4]
2405a6fc:	f023 0370 	bic.w	r3, r3, #112	@ 0x70
2405a700:	4313      	orrs	r3, r2
2405a702:	4a26      	ldr	r2, [pc, #152]	@ (2405a79c <TIM_Base_SetConfig+0xd0>)
2405a704:	4290      	cmp	r0, r2
2405a706:	d01d      	beq.n	2405a744 <TIM_Base_SetConfig+0x78>
2405a708:	f1b0 4f80 	cmp.w	r0, #1073741824	@ 0x40000000
2405a70c:	d01a      	beq.n	2405a744 <TIM_Base_SetConfig+0x78>
2405a70e:	f5a2 427c 	sub.w	r2, r2, #64512	@ 0xfc00
2405a712:	4290      	cmp	r0, r2
2405a714:	d016      	beq.n	2405a744 <TIM_Base_SetConfig+0x78>
2405a716:	f502 6280 	add.w	r2, r2, #1024	@ 0x400
2405a71a:	4290      	cmp	r0, r2
2405a71c:	d012      	beq.n	2405a744 <TIM_Base_SetConfig+0x78>
2405a71e:	f502 6280 	add.w	r2, r2, #1024	@ 0x400
2405a722:	4290      	cmp	r0, r2
2405a724:	d00e      	beq.n	2405a744 <TIM_Base_SetConfig+0x78>
2405a726:	f502 4278 	add.w	r2, r2, #63488	@ 0xf800
2405a72a:	4290      	cmp	r0, r2
2405a72c:	d00a      	beq.n	2405a744 <TIM_Base_SetConfig+0x78>
2405a72e:	4a1c      	ldr	r2, [pc, #112]	@ (2405a7a0 <TIM_Base_SetConfig+0xd4>)
2405a730:	4290      	cmp	r0, r2
2405a732:	d007      	beq.n	2405a744 <TIM_Base_SetConfig+0x78>
2405a734:	f502 6280 	add.w	r2, r2, #1024	@ 0x400
2405a738:	4290      	cmp	r0, r2
2405a73a:	d003      	beq.n	2405a744 <TIM_Base_SetConfig+0x78>
2405a73c:	f502 6280 	add.w	r2, r2, #1024	@ 0x400
2405a740:	4290      	cmp	r0, r2
2405a742:	d103      	bne.n	2405a74c <TIM_Base_SetConfig+0x80>
2405a744:	f423 7340 	bic.w	r3, r3, #768	@ 0x300
2405a748:	68ca      	ldr	r2, [r1, #12]
2405a74a:	4313      	orrs	r3, r2
2405a74c:	694a      	ldr	r2, [r1, #20]
2405a74e:	f023 0380 	bic.w	r3, r3, #128	@ 0x80
2405a752:	4313      	orrs	r3, r2
2405a754:	6003      	str	r3, [r0, #0]
2405a756:	688b      	ldr	r3, [r1, #8]
2405a758:	62c3      	str	r3, [r0, #44]	@ 0x2c
2405a75a:	680b      	ldr	r3, [r1, #0]
2405a75c:	6283      	str	r3, [r0, #40]	@ 0x28
2405a75e:	4b0f      	ldr	r3, [pc, #60]	@ (2405a79c <TIM_Base_SetConfig+0xd0>)
2405a760:	4298      	cmp	r0, r3
2405a762:	d00f      	beq.n	2405a784 <TIM_Base_SetConfig+0xb8>
2405a764:	f503 6380 	add.w	r3, r3, #1024	@ 0x400
2405a768:	4298      	cmp	r0, r3
2405a76a:	d00b      	beq.n	2405a784 <TIM_Base_SetConfig+0xb8>
2405a76c:	f503 5370 	add.w	r3, r3, #15360	@ 0x3c00
2405a770:	4298      	cmp	r0, r3
2405a772:	d007      	beq.n	2405a784 <TIM_Base_SetConfig+0xb8>
2405a774:	f503 6380 	add.w	r3, r3, #1024	@ 0x400
2405a778:	4298      	cmp	r0, r3
2405a77a:	d003      	beq.n	2405a784 <TIM_Base_SetConfig+0xb8>
2405a77c:	f503 6380 	add.w	r3, r3, #1024	@ 0x400
2405a780:	4298      	cmp	r0, r3
2405a782:	d101      	bne.n	2405a788 <TIM_Base_SetConfig+0xbc>
2405a784:	690b      	ldr	r3, [r1, #16]
2405a786:	6303      	str	r3, [r0, #48]	@ 0x30
2405a788:	2301      	movs	r3, #1
2405a78a:	6143      	str	r3, [r0, #20]
2405a78c:	6903      	ldr	r3, [r0, #16]
2405a78e:	07db      	lsls	r3, r3, #31
2405a790:	d503      	bpl.n	2405a79a <TIM_Base_SetConfig+0xce>
2405a792:	6903      	ldr	r3, [r0, #16]
2405a794:	f023 0301 	bic.w	r3, r3, #1
2405a798:	6103      	str	r3, [r0, #16]
2405a79a:	4770      	bx	lr
2405a79c:	40010000 	.word	0x40010000
2405a7a0:	40014000 	.word	0x40014000

2405a7a4 <HAL_TIM_Base_Init>:
2405a7a4:	b510      	push	{r4, lr}
2405a7a6:	4604      	mov	r4, r0
2405a7a8:	b350      	cbz	r0, 2405a800 <HAL_TIM_Base_Init+0x5c>
2405a7aa:	f890 303d 	ldrb.w	r3, [r0, #61]	@ 0x3d
2405a7ae:	f003 02ff 	and.w	r2, r3, #255	@ 0xff
2405a7b2:	b91b      	cbnz	r3, 2405a7bc <HAL_TIM_Base_Init+0x18>
2405a7b4:	f880 203c 	strb.w	r2, [r0, #60]	@ 0x3c
2405a7b8:	f7f9 fb76 	bl	24053ea8 <HAL_TIM_Base_MspInit>
2405a7bc:	2302      	movs	r3, #2
2405a7be:	6820      	ldr	r0, [r4, #0]
2405a7c0:	1d21      	adds	r1, r4, #4
2405a7c2:	f884 303d 	strb.w	r3, [r4, #61]	@ 0x3d
2405a7c6:	f7ff ff81 	bl	2405a6cc <TIM_Base_SetConfig>
2405a7ca:	2301      	movs	r3, #1
2405a7cc:	2000      	movs	r0, #0
2405a7ce:	f884 3048 	strb.w	r3, [r4, #72]	@ 0x48
2405a7d2:	f884 303e 	strb.w	r3, [r4, #62]	@ 0x3e
2405a7d6:	f884 303f 	strb.w	r3, [r4, #63]	@ 0x3f
2405a7da:	f884 3040 	strb.w	r3, [r4, #64]	@ 0x40
2405a7de:	f884 3041 	strb.w	r3, [r4, #65]	@ 0x41
2405a7e2:	f884 3042 	strb.w	r3, [r4, #66]	@ 0x42
2405a7e6:	f884 3043 	strb.w	r3, [r4, #67]	@ 0x43
2405a7ea:	f884 3044 	strb.w	r3, [r4, #68]	@ 0x44
2405a7ee:	f884 3045 	strb.w	r3, [r4, #69]	@ 0x45
2405a7f2:	f884 3046 	strb.w	r3, [r4, #70]	@ 0x46
2405a7f6:	f884 3047 	strb.w	r3, [r4, #71]	@ 0x47
2405a7fa:	f884 303d 	strb.w	r3, [r4, #61]	@ 0x3d
2405a7fe:	bd10      	pop	{r4, pc}
2405a800:	2001      	movs	r0, #1
2405a802:	e7fc      	b.n	2405a7fe <HAL_TIM_Base_Init+0x5a>

2405a804 <TIM_ETR_SetConfig>:
2405a804:	430a      	orrs	r2, r1
2405a806:	b510      	push	{r4, lr}
2405a808:	6884      	ldr	r4, [r0, #8]
2405a80a:	ea42 2203 	orr.w	r2, r2, r3, lsl #8
2405a80e:	f424 447f 	bic.w	r4, r4, #65280	@ 0xff00
2405a812:	4322      	orrs	r2, r4
2405a814:	6082      	str	r2, [r0, #8]
2405a816:	bd10      	pop	{r4, pc}

2405a818 <HAL_TIM_ConfigClockSource>:
2405a818:	b538      	push	{r3, r4, r5, lr}
2405a81a:	f890 303c 	ldrb.w	r3, [r0, #60]	@ 0x3c
2405a81e:	4604      	mov	r4, r0
2405a820:	2002      	movs	r0, #2
2405a822:	2b01      	cmp	r3, #1
2405a824:	f000 80a9 	beq.w	2405a97a <HAL_TIM_ConfigClockSource+0x162>
2405a828:	f884 003d 	strb.w	r0, [r4, #61]	@ 0x3d
2405a82c:	2201      	movs	r2, #1
2405a82e:	6820      	ldr	r0, [r4, #0]
2405a830:	f884 203c 	strb.w	r2, [r4, #60]	@ 0x3c
2405a834:	4b52      	ldr	r3, [pc, #328]	@ (2405a980 <HAL_TIM_ConfigClockSource+0x168>)
2405a836:	6885      	ldr	r5, [r0, #8]
2405a838:	402b      	ands	r3, r5
2405a83a:	6083      	str	r3, [r0, #8]
2405a83c:	680b      	ldr	r3, [r1, #0]
2405a83e:	2b70      	cmp	r3, #112	@ 0x70
2405a840:	d056      	beq.n	2405a8f0 <HAL_TIM_ConfigClockSource+0xd8>
2405a842:	d83c      	bhi.n	2405a8be <HAL_TIM_ConfigClockSource+0xa6>
2405a844:	2b50      	cmp	r3, #80	@ 0x50
2405a846:	d066      	beq.n	2405a916 <HAL_TIM_ConfigClockSource+0xfe>
2405a848:	d81d      	bhi.n	2405a886 <HAL_TIM_ConfigClockSource+0x6e>
2405a84a:	2b40      	cmp	r3, #64	@ 0x40
2405a84c:	d07c      	beq.n	2405a948 <HAL_TIM_ConfigClockSource+0x130>
2405a84e:	d806      	bhi.n	2405a85e <HAL_TIM_ConfigClockSource+0x46>
2405a850:	2b20      	cmp	r3, #32
2405a852:	d00e      	beq.n	2405a872 <HAL_TIM_ConfigClockSource+0x5a>
2405a854:	d80b      	bhi.n	2405a86e <HAL_TIM_ConfigClockSource+0x56>
2405a856:	f033 0210 	bics.w	r2, r3, #16
2405a85a:	d00a      	beq.n	2405a872 <HAL_TIM_ConfigClockSource+0x5a>
2405a85c:	2201      	movs	r2, #1
2405a85e:	2301      	movs	r3, #1
2405a860:	f884 303d 	strb.w	r3, [r4, #61]	@ 0x3d
2405a864:	2300      	movs	r3, #0
2405a866:	f884 303c 	strb.w	r3, [r4, #60]	@ 0x3c
2405a86a:	4610      	mov	r0, r2
2405a86c:	bd38      	pop	{r3, r4, r5, pc}
2405a86e:	2b30      	cmp	r3, #48	@ 0x30
2405a870:	d1f4      	bne.n	2405a85c <HAL_TIM_ConfigClockSource+0x44>
2405a872:	6882      	ldr	r2, [r0, #8]
2405a874:	f422 1240 	bic.w	r2, r2, #3145728	@ 0x300000
2405a878:	f022 0270 	bic.w	r2, r2, #112	@ 0x70
2405a87c:	431a      	orrs	r2, r3
2405a87e:	f042 0207 	orr.w	r2, r2, #7
2405a882:	6082      	str	r2, [r0, #8]
2405a884:	e022      	b.n	2405a8cc <HAL_TIM_ConfigClockSource+0xb4>
2405a886:	2b60      	cmp	r3, #96	@ 0x60
2405a888:	d1e9      	bne.n	2405a85e <HAL_TIM_ConfigClockSource+0x46>
2405a88a:	6a03      	ldr	r3, [r0, #32]
2405a88c:	6a02      	ldr	r2, [r0, #32]
2405a88e:	684d      	ldr	r5, [r1, #4]
2405a890:	f023 03a0 	bic.w	r3, r3, #160	@ 0xa0
2405a894:	f022 0210 	bic.w	r2, r2, #16
2405a898:	68c9      	ldr	r1, [r1, #12]
2405a89a:	ea43 1305 	orr.w	r3, r3, r5, lsl #4
2405a89e:	6202      	str	r2, [r0, #32]
2405a8a0:	6982      	ldr	r2, [r0, #24]
2405a8a2:	f422 4270 	bic.w	r2, r2, #61440	@ 0xf000
2405a8a6:	ea42 3201 	orr.w	r2, r2, r1, lsl #12
2405a8aa:	6182      	str	r2, [r0, #24]
2405a8ac:	6203      	str	r3, [r0, #32]
2405a8ae:	6883      	ldr	r3, [r0, #8]
2405a8b0:	f423 1340 	bic.w	r3, r3, #3145728	@ 0x300000
2405a8b4:	f023 0370 	bic.w	r3, r3, #112	@ 0x70
2405a8b8:	f043 0367 	orr.w	r3, r3, #103	@ 0x67
2405a8bc:	e020      	b.n	2405a900 <HAL_TIM_ConfigClockSource+0xe8>
2405a8be:	f5b3 5f00 	cmp.w	r3, #8192	@ 0x2000
2405a8c2:	d01f      	beq.n	2405a904 <HAL_TIM_ConfigClockSource+0xec>
2405a8c4:	d804      	bhi.n	2405a8d0 <HAL_TIM_ConfigClockSource+0xb8>
2405a8c6:	f5b3 5f80 	cmp.w	r3, #4096	@ 0x1000
2405a8ca:	d1c8      	bne.n	2405a85e <HAL_TIM_ConfigClockSource+0x46>
2405a8cc:	2200      	movs	r2, #0
2405a8ce:	e7c6      	b.n	2405a85e <HAL_TIM_ConfigClockSource+0x46>
2405a8d0:	492c      	ldr	r1, [pc, #176]	@ (2405a984 <HAL_TIM_ConfigClockSource+0x16c>)
2405a8d2:	428b      	cmp	r3, r1
2405a8d4:	d0cd      	beq.n	2405a872 <HAL_TIM_ConfigClockSource+0x5a>
2405a8d6:	d805      	bhi.n	2405a8e4 <HAL_TIM_ConfigClockSource+0xcc>
2405a8d8:	f023 0110 	bic.w	r1, r3, #16
2405a8dc:	f5b1 1f80 	cmp.w	r1, #1048576	@ 0x100000
2405a8e0:	d0c7      	beq.n	2405a872 <HAL_TIM_ConfigClockSource+0x5a>
2405a8e2:	e7bc      	b.n	2405a85e <HAL_TIM_ConfigClockSource+0x46>
2405a8e4:	4928      	ldr	r1, [pc, #160]	@ (2405a988 <HAL_TIM_ConfigClockSource+0x170>)
2405a8e6:	428b      	cmp	r3, r1
2405a8e8:	d0c3      	beq.n	2405a872 <HAL_TIM_ConfigClockSource+0x5a>
2405a8ea:	3110      	adds	r1, #16
2405a8ec:	428b      	cmp	r3, r1
2405a8ee:	e7f7      	b.n	2405a8e0 <HAL_TIM_ConfigClockSource+0xc8>
2405a8f0:	68cb      	ldr	r3, [r1, #12]
2405a8f2:	e9d1 2101 	ldrd	r2, r1, [r1, #4]
2405a8f6:	f7ff ff85 	bl	2405a804 <TIM_ETR_SetConfig>
2405a8fa:	6883      	ldr	r3, [r0, #8]
2405a8fc:	f043 0377 	orr.w	r3, r3, #119	@ 0x77
2405a900:	6083      	str	r3, [r0, #8]
2405a902:	e7e3      	b.n	2405a8cc <HAL_TIM_ConfigClockSource+0xb4>
2405a904:	68cb      	ldr	r3, [r1, #12]
2405a906:	e9d1 2101 	ldrd	r2, r1, [r1, #4]
2405a90a:	f7ff ff7b 	bl	2405a804 <TIM_ETR_SetConfig>
2405a90e:	6883      	ldr	r3, [r0, #8]
2405a910:	f443 4380 	orr.w	r3, r3, #16384	@ 0x4000
2405a914:	e7f4      	b.n	2405a900 <HAL_TIM_ConfigClockSource+0xe8>
2405a916:	684a      	ldr	r2, [r1, #4]
2405a918:	68cd      	ldr	r5, [r1, #12]
2405a91a:	6a01      	ldr	r1, [r0, #32]
2405a91c:	6a03      	ldr	r3, [r0, #32]
2405a91e:	f021 010a 	bic.w	r1, r1, #10
2405a922:	f023 0301 	bic.w	r3, r3, #1
2405a926:	430a      	orrs	r2, r1
2405a928:	6203      	str	r3, [r0, #32]
2405a92a:	6983      	ldr	r3, [r0, #24]
2405a92c:	f023 03f0 	bic.w	r3, r3, #240	@ 0xf0
2405a930:	ea43 1305 	orr.w	r3, r3, r5, lsl #4
2405a934:	6183      	str	r3, [r0, #24]
2405a936:	6202      	str	r2, [r0, #32]
2405a938:	6883      	ldr	r3, [r0, #8]
2405a93a:	f423 1340 	bic.w	r3, r3, #3145728	@ 0x300000
2405a93e:	f023 0370 	bic.w	r3, r3, #112	@ 0x70
2405a942:	f043 0357 	orr.w	r3, r3, #87	@ 0x57
2405a946:	e7db      	b.n	2405a900 <HAL_TIM_ConfigClockSource+0xe8>
2405a948:	684a      	ldr	r2, [r1, #4]
2405a94a:	68cd      	ldr	r5, [r1, #12]
2405a94c:	6a01      	ldr	r1, [r0, #32]
2405a94e:	6a03      	ldr	r3, [r0, #32]
2405a950:	f021 010a 	bic.w	r1, r1, #10
2405a954:	f023 0301 	bic.w	r3, r3, #1
2405a958:	430a      	orrs	r2, r1
2405a95a:	6203      	str	r3, [r0, #32]
2405a95c:	6983      	ldr	r3, [r0, #24]
2405a95e:	f023 03f0 	bic.w	r3, r3, #240	@ 0xf0
2405a962:	ea43 1305 	orr.w	r3, r3, r5, lsl #4
2405a966:	6183      	str	r3, [r0, #24]
2405a968:	6202      	str	r2, [r0, #32]
2405a96a:	6883      	ldr	r3, [r0, #8]
2405a96c:	f423 1340 	bic.w	r3, r3, #3145728	@ 0x300000
2405a970:	f023 0370 	bic.w	r3, r3, #112	@ 0x70
2405a974:	f043 0347 	orr.w	r3, r3, #71	@ 0x47
2405a978:	e7c2      	b.n	2405a900 <HAL_TIM_ConfigClockSource+0xe8>
2405a97a:	4602      	mov	r2, r0
2405a97c:	e775      	b.n	2405a86a <HAL_TIM_ConfigClockSource+0x52>
2405a97e:	bf00      	nop
2405a980:	ffce0088 	.word	0xffce0088
2405a984:	00100020 	.word	0x00100020
2405a988:	00100030 	.word	0x00100030

2405a98c <HAL_TIMEx_MasterConfigSynchronization>:
2405a98c:	b570      	push	{r4, r5, r6, lr}
2405a98e:	f890 303c 	ldrb.w	r3, [r0, #60]	@ 0x3c
2405a992:	4604      	mov	r4, r0
2405a994:	2002      	movs	r0, #2
2405a996:	2b01      	cmp	r3, #1
2405a998:	d03b      	beq.n	2405aa12 <HAL_TIMEx_MasterConfigSynchronization+0x86>
2405a99a:	6823      	ldr	r3, [r4, #0]
2405a99c:	4d1d      	ldr	r5, [pc, #116]	@ (2405aa14 <HAL_TIMEx_MasterConfigSynchronization+0x88>)
2405a99e:	f884 003d 	strb.w	r0, [r4, #61]	@ 0x3d
2405a9a2:	42ab      	cmp	r3, r5
2405a9a4:	685a      	ldr	r2, [r3, #4]
2405a9a6:	6898      	ldr	r0, [r3, #8]
2405a9a8:	d002      	beq.n	2405a9b0 <HAL_TIMEx_MasterConfigSynchronization+0x24>
2405a9aa:	4e1b      	ldr	r6, [pc, #108]	@ (2405aa18 <HAL_TIMEx_MasterConfigSynchronization+0x8c>)
2405a9ac:	42b3      	cmp	r3, r6
2405a9ae:	d103      	bne.n	2405a9b8 <HAL_TIMEx_MasterConfigSynchronization+0x2c>
2405a9b0:	f422 0270 	bic.w	r2, r2, #15728640	@ 0xf00000
2405a9b4:	684e      	ldr	r6, [r1, #4]
2405a9b6:	4332      	orrs	r2, r6
2405a9b8:	680e      	ldr	r6, [r1, #0]
2405a9ba:	f022 0270 	bic.w	r2, r2, #112	@ 0x70
2405a9be:	42ab      	cmp	r3, r5
2405a9c0:	ea42 0206 	orr.w	r2, r2, r6
2405a9c4:	605a      	str	r2, [r3, #4]
2405a9c6:	d019      	beq.n	2405a9fc <HAL_TIMEx_MasterConfigSynchronization+0x70>
2405a9c8:	f1b3 4f80 	cmp.w	r3, #1073741824	@ 0x40000000
2405a9cc:	d016      	beq.n	2405a9fc <HAL_TIMEx_MasterConfigSynchronization+0x70>
2405a9ce:	4a13      	ldr	r2, [pc, #76]	@ (2405aa1c <HAL_TIMEx_MasterConfigSynchronization+0x90>)
2405a9d0:	4293      	cmp	r3, r2
2405a9d2:	d013      	beq.n	2405a9fc <HAL_TIMEx_MasterConfigSynchronization+0x70>
2405a9d4:	f502 6280 	add.w	r2, r2, #1024	@ 0x400
2405a9d8:	4293      	cmp	r3, r2
2405a9da:	d00f      	beq.n	2405a9fc <HAL_TIMEx_MasterConfigSynchronization+0x70>
2405a9dc:	f502 6280 	add.w	r2, r2, #1024	@ 0x400
2405a9e0:	4293      	cmp	r3, r2
2405a9e2:	d00b      	beq.n	2405a9fc <HAL_TIMEx_MasterConfigSynchronization+0x70>
2405a9e4:	f502 4278 	add.w	r2, r2, #63488	@ 0xf800
2405a9e8:	4293      	cmp	r3, r2
2405a9ea:	d007      	beq.n	2405a9fc <HAL_TIMEx_MasterConfigSynchronization+0x70>
2405a9ec:	f5a2 426c 	sub.w	r2, r2, #60416	@ 0xec00
2405a9f0:	4293      	cmp	r3, r2
2405a9f2:	d003      	beq.n	2405a9fc <HAL_TIMEx_MasterConfigSynchronization+0x70>
2405a9f4:	f502 3294 	add.w	r2, r2, #75776	@ 0x12800
2405a9f8:	4293      	cmp	r3, r2
2405a9fa:	d104      	bne.n	2405aa06 <HAL_TIMEx_MasterConfigSynchronization+0x7a>
2405a9fc:	6889      	ldr	r1, [r1, #8]
2405a9fe:	f020 0280 	bic.w	r2, r0, #128	@ 0x80
2405aa02:	430a      	orrs	r2, r1
2405aa04:	609a      	str	r2, [r3, #8]
2405aa06:	2301      	movs	r3, #1
2405aa08:	2000      	movs	r0, #0
2405aa0a:	f884 303d 	strb.w	r3, [r4, #61]	@ 0x3d
2405aa0e:	f884 003c 	strb.w	r0, [r4, #60]	@ 0x3c
2405aa12:	bd70      	pop	{r4, r5, r6, pc}
2405aa14:	40010000 	.word	0x40010000
2405aa18:	40010400 	.word	0x40010400
2405aa1c:	40000400 	.word	0x40000400

2405aa20 <HAL_TIMEx_CommutCallback>:
2405aa20:	4770      	bx	lr

2405aa22 <HAL_TIMEx_BreakCallback>:
2405aa22:	4770      	bx	lr

2405aa24 <HAL_TIMEx_Break2Callback>:
2405aa24:	4770      	bx	lr
	...

2405aa28 <__assert_func>:
2405aa28:	b51f      	push	{r0, r1, r2, r3, r4, lr}
2405aa2a:	4614      	mov	r4, r2
2405aa2c:	461a      	mov	r2, r3
2405aa2e:	4b09      	ldr	r3, [pc, #36]	@ (2405aa54 <__assert_func+0x2c>)
2405aa30:	681b      	ldr	r3, [r3, #0]
2405aa32:	4605      	mov	r5, r0
2405aa34:	68d8      	ldr	r0, [r3, #12]
2405aa36:	b954      	cbnz	r4, 2405aa4e <__assert_func+0x26>
2405aa38:	4b07      	ldr	r3, [pc, #28]	@ (2405aa58 <__assert_func+0x30>)
2405aa3a:	461c      	mov	r4, r3
2405aa3c:	e9cd 3401 	strd	r3, r4, [sp, #4]
2405aa40:	9100      	str	r1, [sp, #0]
2405aa42:	462b      	mov	r3, r5
2405aa44:	4905      	ldr	r1, [pc, #20]	@ (2405aa5c <__assert_func+0x34>)
2405aa46:	f000 fa09 	bl	2405ae5c <fiprintf>
2405aa4a:	f000 fc52 	bl	2405b2f2 <abort>
2405aa4e:	4b04      	ldr	r3, [pc, #16]	@ (2405aa60 <__assert_func+0x38>)
2405aa50:	e7f4      	b.n	2405aa3c <__assert_func+0x14>
2405aa52:	bf00      	nop
2405aa54:	200000c4 	.word	0x200000c4
2405aa58:	240601fc 	.word	0x240601fc
2405aa5c:	2406025b 	.word	0x2406025b
2405aa60:	2406024e 	.word	0x2406024e

2405aa64 <malloc>:
2405aa64:	4b02      	ldr	r3, [pc, #8]	@ (2405aa70 <malloc+0xc>)
2405aa66:	4601      	mov	r1, r0
2405aa68:	6818      	ldr	r0, [r3, #0]
2405aa6a:	f000 b82d 	b.w	2405aac8 <_malloc_r>
2405aa6e:	bf00      	nop
2405aa70:	200000c4 	.word	0x200000c4

2405aa74 <free>:
2405aa74:	4b02      	ldr	r3, [pc, #8]	@ (2405aa80 <free+0xc>)
2405aa76:	4601      	mov	r1, r0
2405aa78:	6818      	ldr	r0, [r3, #0]
2405aa7a:	f000 bc41 	b.w	2405b300 <_free_r>
2405aa7e:	bf00      	nop
2405aa80:	200000c4 	.word	0x200000c4

2405aa84 <sbrk_aligned>:
2405aa84:	b570      	push	{r4, r5, r6, lr}
2405aa86:	4e0f      	ldr	r6, [pc, #60]	@ (2405aac4 <sbrk_aligned+0x40>)
2405aa88:	460c      	mov	r4, r1
2405aa8a:	6831      	ldr	r1, [r6, #0]
2405aa8c:	4605      	mov	r5, r0
2405aa8e:	b911      	cbnz	r1, 2405aa96 <sbrk_aligned+0x12>
2405aa90:	f000 fbd2 	bl	2405b238 <_sbrk_r>
2405aa94:	6030      	str	r0, [r6, #0]
2405aa96:	4621      	mov	r1, r4
2405aa98:	4628      	mov	r0, r5
2405aa9a:	f000 fbcd 	bl	2405b238 <_sbrk_r>
2405aa9e:	1c43      	adds	r3, r0, #1
2405aaa0:	d103      	bne.n	2405aaaa <sbrk_aligned+0x26>
2405aaa2:	f04f 34ff 	mov.w	r4, #4294967295
2405aaa6:	4620      	mov	r0, r4
2405aaa8:	bd70      	pop	{r4, r5, r6, pc}
2405aaaa:	1cc4      	adds	r4, r0, #3
2405aaac:	f024 0403 	bic.w	r4, r4, #3
2405aab0:	42a0      	cmp	r0, r4
2405aab2:	d0f8      	beq.n	2405aaa6 <sbrk_aligned+0x22>
2405aab4:	1a21      	subs	r1, r4, r0
2405aab6:	4628      	mov	r0, r5
2405aab8:	f000 fbbe 	bl	2405b238 <_sbrk_r>
2405aabc:	3001      	adds	r0, #1
2405aabe:	d1f2      	bne.n	2405aaa6 <sbrk_aligned+0x22>
2405aac0:	e7ef      	b.n	2405aaa2 <sbrk_aligned+0x1e>
2405aac2:	bf00      	nop
2405aac4:	20000648 	.word	0x20000648

2405aac8 <_malloc_r>:
2405aac8:	e92d 43f8 	stmdb	sp!, {r3, r4, r5, r6, r7, r8, r9, lr}
2405aacc:	1ccd      	adds	r5, r1, #3
2405aace:	f025 0503 	bic.w	r5, r5, #3
2405aad2:	3508      	adds	r5, #8
2405aad4:	2d0c      	cmp	r5, #12
2405aad6:	bf38      	it	cc
2405aad8:	250c      	movcc	r5, #12
2405aada:	2d00      	cmp	r5, #0
2405aadc:	4606      	mov	r6, r0
2405aade:	db01      	blt.n	2405aae4 <_malloc_r+0x1c>
2405aae0:	42a9      	cmp	r1, r5
2405aae2:	d904      	bls.n	2405aaee <_malloc_r+0x26>
2405aae4:	230c      	movs	r3, #12
2405aae6:	6033      	str	r3, [r6, #0]
2405aae8:	2000      	movs	r0, #0
2405aaea:	e8bd 83f8 	ldmia.w	sp!, {r3, r4, r5, r6, r7, r8, r9, pc}
2405aaee:	f8df 80d4 	ldr.w	r8, [pc, #212]	@ 2405abc4 <_malloc_r+0xfc>
2405aaf2:	f000 f869 	bl	2405abc8 <__malloc_lock>
2405aaf6:	f8d8 3000 	ldr.w	r3, [r8]
2405aafa:	461c      	mov	r4, r3
2405aafc:	bb44      	cbnz	r4, 2405ab50 <_malloc_r+0x88>
2405aafe:	4629      	mov	r1, r5
2405ab00:	4630      	mov	r0, r6
2405ab02:	f7ff ffbf 	bl	2405aa84 <sbrk_aligned>
2405ab06:	1c43      	adds	r3, r0, #1
2405ab08:	4604      	mov	r4, r0
2405ab0a:	d158      	bne.n	2405abbe <_malloc_r+0xf6>
2405ab0c:	f8d8 4000 	ldr.w	r4, [r8]
2405ab10:	4627      	mov	r7, r4
2405ab12:	2f00      	cmp	r7, #0
2405ab14:	d143      	bne.n	2405ab9e <_malloc_r+0xd6>
2405ab16:	2c00      	cmp	r4, #0
2405ab18:	d04b      	beq.n	2405abb2 <_malloc_r+0xea>
2405ab1a:	6823      	ldr	r3, [r4, #0]
2405ab1c:	4639      	mov	r1, r7
2405ab1e:	4630      	mov	r0, r6
2405ab20:	eb04 0903 	add.w	r9, r4, r3
2405ab24:	f000 fb88 	bl	2405b238 <_sbrk_r>
2405ab28:	4581      	cmp	r9, r0
2405ab2a:	d142      	bne.n	2405abb2 <_malloc_r+0xea>
2405ab2c:	6821      	ldr	r1, [r4, #0]
2405ab2e:	1a6d      	subs	r5, r5, r1
2405ab30:	4629      	mov	r1, r5
2405ab32:	4630      	mov	r0, r6
2405ab34:	f7ff ffa6 	bl	2405aa84 <sbrk_aligned>
2405ab38:	3001      	adds	r0, #1
2405ab3a:	d03a      	beq.n	2405abb2 <_malloc_r+0xea>
2405ab3c:	6823      	ldr	r3, [r4, #0]
2405ab3e:	442b      	add	r3, r5
2405ab40:	6023      	str	r3, [r4, #0]
2405ab42:	f8d8 3000 	ldr.w	r3, [r8]
2405ab46:	685a      	ldr	r2, [r3, #4]
2405ab48:	bb62      	cbnz	r2, 2405aba4 <_malloc_r+0xdc>
2405ab4a:	f8c8 7000 	str.w	r7, [r8]
2405ab4e:	e00f      	b.n	2405ab70 <_malloc_r+0xa8>
2405ab50:	6822      	ldr	r2, [r4, #0]
2405ab52:	1b52      	subs	r2, r2, r5
2405ab54:	d420      	bmi.n	2405ab98 <_malloc_r+0xd0>
2405ab56:	2a0b      	cmp	r2, #11
2405ab58:	d917      	bls.n	2405ab8a <_malloc_r+0xc2>
2405ab5a:	1961      	adds	r1, r4, r5
2405ab5c:	42a3      	cmp	r3, r4
2405ab5e:	6025      	str	r5, [r4, #0]
2405ab60:	bf18      	it	ne
2405ab62:	6059      	strne	r1, [r3, #4]
2405ab64:	6863      	ldr	r3, [r4, #4]
2405ab66:	bf08      	it	eq
2405ab68:	f8c8 1000 	streq.w	r1, [r8]
2405ab6c:	5162      	str	r2, [r4, r5]
2405ab6e:	604b      	str	r3, [r1, #4]
2405ab70:	4630      	mov	r0, r6
2405ab72:	f000 f82f 	bl	2405abd4 <__malloc_unlock>
2405ab76:	f104 000b 	add.w	r0, r4, #11
2405ab7a:	1d23      	adds	r3, r4, #4
2405ab7c:	f020 0007 	bic.w	r0, r0, #7
2405ab80:	1ac2      	subs	r2, r0, r3
2405ab82:	bf1c      	itt	ne
2405ab84:	1a1b      	subne	r3, r3, r0
2405ab86:	50a3      	strne	r3, [r4, r2]
2405ab88:	e7af      	b.n	2405aaea <_malloc_r+0x22>
2405ab8a:	6862      	ldr	r2, [r4, #4]
2405ab8c:	42a3      	cmp	r3, r4
2405ab8e:	bf0c      	ite	eq
2405ab90:	f8c8 2000 	streq.w	r2, [r8]
2405ab94:	605a      	strne	r2, [r3, #4]
2405ab96:	e7eb      	b.n	2405ab70 <_malloc_r+0xa8>
2405ab98:	4623      	mov	r3, r4
2405ab9a:	6864      	ldr	r4, [r4, #4]
2405ab9c:	e7ae      	b.n	2405aafc <_malloc_r+0x34>
2405ab9e:	463c      	mov	r4, r7
2405aba0:	687f      	ldr	r7, [r7, #4]
2405aba2:	e7b6      	b.n	2405ab12 <_malloc_r+0x4a>
2405aba4:	461a      	mov	r2, r3
2405aba6:	685b      	ldr	r3, [r3, #4]
2405aba8:	42a3      	cmp	r3, r4
2405abaa:	d1fb      	bne.n	2405aba4 <_malloc_r+0xdc>
2405abac:	2300      	movs	r3, #0
2405abae:	6053      	str	r3, [r2, #4]
2405abb0:	e7de      	b.n	2405ab70 <_malloc_r+0xa8>
2405abb2:	230c      	movs	r3, #12
2405abb4:	6033      	str	r3, [r6, #0]
2405abb6:	4630      	mov	r0, r6
2405abb8:	f000 f80c 	bl	2405abd4 <__malloc_unlock>
2405abbc:	e794      	b.n	2405aae8 <_malloc_r+0x20>
2405abbe:	6005      	str	r5, [r0, #0]
2405abc0:	e7d6      	b.n	2405ab70 <_malloc_r+0xa8>
2405abc2:	bf00      	nop
2405abc4:	2000064c 	.word	0x2000064c

2405abc8 <__malloc_lock>:
2405abc8:	4801      	ldr	r0, [pc, #4]	@ (2405abd0 <__malloc_lock+0x8>)
2405abca:	f000 bb82 	b.w	2405b2d2 <__retarget_lock_acquire_recursive>
2405abce:	bf00      	nop
2405abd0:	20000790 	.word	0x20000790

2405abd4 <__malloc_unlock>:
2405abd4:	4801      	ldr	r0, [pc, #4]	@ (2405abdc <__malloc_unlock+0x8>)
2405abd6:	f000 bb7d 	b.w	2405b2d4 <__retarget_lock_release_recursive>
2405abda:	bf00      	nop
2405abdc:	20000790 	.word	0x20000790

2405abe0 <srand>:
2405abe0:	b538      	push	{r3, r4, r5, lr}
2405abe2:	4b10      	ldr	r3, [pc, #64]	@ (2405ac24 <srand+0x44>)
2405abe4:	681d      	ldr	r5, [r3, #0]
2405abe6:	6b2b      	ldr	r3, [r5, #48]	@ 0x30
2405abe8:	4604      	mov	r4, r0
2405abea:	b9b3      	cbnz	r3, 2405ac1a <srand+0x3a>
2405abec:	2018      	movs	r0, #24
2405abee:	f7ff ff39 	bl	2405aa64 <malloc>
2405abf2:	4602      	mov	r2, r0
2405abf4:	6328      	str	r0, [r5, #48]	@ 0x30
2405abf6:	b920      	cbnz	r0, 2405ac02 <srand+0x22>
2405abf8:	4b0b      	ldr	r3, [pc, #44]	@ (2405ac28 <srand+0x48>)
2405abfa:	480c      	ldr	r0, [pc, #48]	@ (2405ac2c <srand+0x4c>)
2405abfc:	2146      	movs	r1, #70	@ 0x46
2405abfe:	f7ff ff13 	bl	2405aa28 <__assert_func>
2405ac02:	490b      	ldr	r1, [pc, #44]	@ (2405ac30 <srand+0x50>)
2405ac04:	4b0b      	ldr	r3, [pc, #44]	@ (2405ac34 <srand+0x54>)
2405ac06:	e9c0 1300 	strd	r1, r3, [r0]
2405ac0a:	4b0b      	ldr	r3, [pc, #44]	@ (2405ac38 <srand+0x58>)
2405ac0c:	6083      	str	r3, [r0, #8]
2405ac0e:	230b      	movs	r3, #11
2405ac10:	8183      	strh	r3, [r0, #12]
2405ac12:	2100      	movs	r1, #0
2405ac14:	2001      	movs	r0, #1
2405ac16:	e9c2 0104 	strd	r0, r1, [r2, #16]
2405ac1a:	6b2b      	ldr	r3, [r5, #48]	@ 0x30
2405ac1c:	2200      	movs	r2, #0
2405ac1e:	611c      	str	r4, [r3, #16]
2405ac20:	615a      	str	r2, [r3, #20]
2405ac22:	bd38      	pop	{r3, r4, r5, pc}
2405ac24:	200000c4 	.word	0x200000c4
2405ac28:	2406028a 	.word	0x2406028a
2405ac2c:	240602a1 	.word	0x240602a1
2405ac30:	abcd330e 	.word	0xabcd330e
2405ac34:	e66d1234 	.word	0xe66d1234
2405ac38:	0005deec 	.word	0x0005deec

2405ac3c <rand>:
2405ac3c:	4b16      	ldr	r3, [pc, #88]	@ (2405ac98 <rand+0x5c>)
2405ac3e:	b510      	push	{r4, lr}
2405ac40:	681c      	ldr	r4, [r3, #0]
2405ac42:	6b23      	ldr	r3, [r4, #48]	@ 0x30
2405ac44:	b9b3      	cbnz	r3, 2405ac74 <rand+0x38>
2405ac46:	2018      	movs	r0, #24
2405ac48:	f7ff ff0c 	bl	2405aa64 <malloc>
2405ac4c:	4602      	mov	r2, r0
2405ac4e:	6320      	str	r0, [r4, #48]	@ 0x30
2405ac50:	b920      	cbnz	r0, 2405ac5c <rand+0x20>
2405ac52:	4b12      	ldr	r3, [pc, #72]	@ (2405ac9c <rand+0x60>)
2405ac54:	4812      	ldr	r0, [pc, #72]	@ (2405aca0 <rand+0x64>)
2405ac56:	2152      	movs	r1, #82	@ 0x52
2405ac58:	f7ff fee6 	bl	2405aa28 <__assert_func>
2405ac5c:	4911      	ldr	r1, [pc, #68]	@ (2405aca4 <rand+0x68>)
2405ac5e:	4b12      	ldr	r3, [pc, #72]	@ (2405aca8 <rand+0x6c>)
2405ac60:	e9c0 1300 	strd	r1, r3, [r0]
2405ac64:	4b11      	ldr	r3, [pc, #68]	@ (2405acac <rand+0x70>)
2405ac66:	6083      	str	r3, [r0, #8]
2405ac68:	230b      	movs	r3, #11
2405ac6a:	8183      	strh	r3, [r0, #12]
2405ac6c:	2100      	movs	r1, #0
2405ac6e:	2001      	movs	r0, #1
2405ac70:	e9c2 0104 	strd	r0, r1, [r2, #16]
2405ac74:	6b21      	ldr	r1, [r4, #48]	@ 0x30
2405ac76:	480e      	ldr	r0, [pc, #56]	@ (2405acb0 <rand+0x74>)
2405ac78:	690b      	ldr	r3, [r1, #16]
2405ac7a:	694c      	ldr	r4, [r1, #20]
2405ac7c:	4a0d      	ldr	r2, [pc, #52]	@ (2405acb4 <rand+0x78>)
2405ac7e:	4358      	muls	r0, r3
2405ac80:	fb02 0004 	mla	r0, r2, r4, r0
2405ac84:	fba3 3202 	umull	r3, r2, r3, r2
2405ac88:	3301      	adds	r3, #1
2405ac8a:	eb40 0002 	adc.w	r0, r0, r2
2405ac8e:	e9c1 3004 	strd	r3, r0, [r1, #16]
2405ac92:	f020 4000 	bic.w	r0, r0, #2147483648	@ 0x80000000
2405ac96:	bd10      	pop	{r4, pc}
2405ac98:	200000c4 	.word	0x200000c4
2405ac9c:	2406028a 	.word	0x2406028a
2405aca0:	240602a1 	.word	0x240602a1
2405aca4:	abcd330e 	.word	0xabcd330e
2405aca8:	e66d1234 	.word	0xe66d1234
2405acac:	0005deec 	.word	0x0005deec
2405acb0:	5851f42d 	.word	0x5851f42d
2405acb4:	4c957f2d 	.word	0x4c957f2d

2405acb8 <_realloc_r>:
2405acb8:	e92d 41f0 	stmdb	sp!, {r4, r5, r6, r7, r8, lr}
2405acbc:	4680      	mov	r8, r0
2405acbe:	4615      	mov	r5, r2
2405acc0:	460c      	mov	r4, r1
2405acc2:	b921      	cbnz	r1, 2405acce <_realloc_r+0x16>
2405acc4:	e8bd 41f0 	ldmia.w	sp!, {r4, r5, r6, r7, r8, lr}
2405acc8:	4611      	mov	r1, r2
2405acca:	f7ff befd 	b.w	2405aac8 <_malloc_r>
2405acce:	b92a      	cbnz	r2, 2405acdc <_realloc_r+0x24>
2405acd0:	f000 fb16 	bl	2405b300 <_free_r>
2405acd4:	2400      	movs	r4, #0
2405acd6:	4620      	mov	r0, r4
2405acd8:	e8bd 81f0 	ldmia.w	sp!, {r4, r5, r6, r7, r8, pc}
2405acdc:	f000 fb5a 	bl	2405b394 <_malloc_usable_size_r>
2405ace0:	4285      	cmp	r5, r0
2405ace2:	4606      	mov	r6, r0
2405ace4:	d802      	bhi.n	2405acec <_realloc_r+0x34>
2405ace6:	ebb5 0f50 	cmp.w	r5, r0, lsr #1
2405acea:	d8f4      	bhi.n	2405acd6 <_realloc_r+0x1e>
2405acec:	4629      	mov	r1, r5
2405acee:	4640      	mov	r0, r8
2405acf0:	f7ff feea 	bl	2405aac8 <_malloc_r>
2405acf4:	4607      	mov	r7, r0
2405acf6:	2800      	cmp	r0, #0
2405acf8:	d0ec      	beq.n	2405acd4 <_realloc_r+0x1c>
2405acfa:	42b5      	cmp	r5, r6
2405acfc:	462a      	mov	r2, r5
2405acfe:	4621      	mov	r1, r4
2405ad00:	bf28      	it	cs
2405ad02:	4632      	movcs	r2, r6
2405ad04:	f000 fae7 	bl	2405b2d6 <memcpy>
2405ad08:	4621      	mov	r1, r4
2405ad0a:	4640      	mov	r0, r8
2405ad0c:	f000 faf8 	bl	2405b300 <_free_r>
2405ad10:	463c      	mov	r4, r7
2405ad12:	e7e0      	b.n	2405acd6 <_realloc_r+0x1e>

2405ad14 <std>:
2405ad14:	2300      	movs	r3, #0
2405ad16:	b510      	push	{r4, lr}
2405ad18:	4604      	mov	r4, r0
2405ad1a:	e9c0 3300 	strd	r3, r3, [r0]
2405ad1e:	e9c0 3304 	strd	r3, r3, [r0, #16]
2405ad22:	6083      	str	r3, [r0, #8]
2405ad24:	8181      	strh	r1, [r0, #12]
2405ad26:	6643      	str	r3, [r0, #100]	@ 0x64
2405ad28:	81c2      	strh	r2, [r0, #14]
2405ad2a:	6183      	str	r3, [r0, #24]
2405ad2c:	4619      	mov	r1, r3
2405ad2e:	2208      	movs	r2, #8
2405ad30:	305c      	adds	r0, #92	@ 0x5c
2405ad32:	f000 fa45 	bl	2405b1c0 <memset>
2405ad36:	4b0d      	ldr	r3, [pc, #52]	@ (2405ad6c <std+0x58>)
2405ad38:	6263      	str	r3, [r4, #36]	@ 0x24
2405ad3a:	4b0d      	ldr	r3, [pc, #52]	@ (2405ad70 <std+0x5c>)
2405ad3c:	62a3      	str	r3, [r4, #40]	@ 0x28
2405ad3e:	4b0d      	ldr	r3, [pc, #52]	@ (2405ad74 <std+0x60>)
2405ad40:	62e3      	str	r3, [r4, #44]	@ 0x2c
2405ad42:	4b0d      	ldr	r3, [pc, #52]	@ (2405ad78 <std+0x64>)
2405ad44:	6323      	str	r3, [r4, #48]	@ 0x30
2405ad46:	4b0d      	ldr	r3, [pc, #52]	@ (2405ad7c <std+0x68>)
2405ad48:	6224      	str	r4, [r4, #32]
2405ad4a:	429c      	cmp	r4, r3
2405ad4c:	d006      	beq.n	2405ad5c <std+0x48>
2405ad4e:	f103 0268 	add.w	r2, r3, #104	@ 0x68
2405ad52:	4294      	cmp	r4, r2
2405ad54:	d002      	beq.n	2405ad5c <std+0x48>
2405ad56:	33d0      	adds	r3, #208	@ 0xd0
2405ad58:	429c      	cmp	r4, r3
2405ad5a:	d105      	bne.n	2405ad68 <std+0x54>
2405ad5c:	f104 0058 	add.w	r0, r4, #88	@ 0x58
2405ad60:	e8bd 4010 	ldmia.w	sp!, {r4, lr}
2405ad64:	f000 bab4 	b.w	2405b2d0 <__retarget_lock_init_recursive>
2405ad68:	bd10      	pop	{r4, pc}
2405ad6a:	bf00      	nop
2405ad6c:	2405afdd 	.word	0x2405afdd
2405ad70:	2405afff 	.word	0x2405afff
2405ad74:	2405b037 	.word	0x2405b037
2405ad78:	2405b05b 	.word	0x2405b05b
2405ad7c:	20000650 	.word	0x20000650

2405ad80 <stdio_exit_handler>:
2405ad80:	4a02      	ldr	r2, [pc, #8]	@ (2405ad8c <stdio_exit_handler+0xc>)
2405ad82:	4903      	ldr	r1, [pc, #12]	@ (2405ad90 <stdio_exit_handler+0x10>)
2405ad84:	4803      	ldr	r0, [pc, #12]	@ (2405ad94 <stdio_exit_handler+0x14>)
2405ad86:	f000 b87b 	b.w	2405ae80 <_fwalk_sglue>
2405ad8a:	bf00      	nop
2405ad8c:	200000b8 	.word	0x200000b8
2405ad90:	2405bcfd 	.word	0x2405bcfd
2405ad94:	200000c8 	.word	0x200000c8

2405ad98 <cleanup_stdio>:
2405ad98:	6841      	ldr	r1, [r0, #4]
2405ad9a:	4b0c      	ldr	r3, [pc, #48]	@ (2405adcc <cleanup_stdio+0x34>)
2405ad9c:	4299      	cmp	r1, r3
2405ad9e:	b510      	push	{r4, lr}
2405ada0:	4604      	mov	r4, r0
2405ada2:	d001      	beq.n	2405ada8 <cleanup_stdio+0x10>
2405ada4:	f000 ffaa 	bl	2405bcfc <_fflush_r>
2405ada8:	68a1      	ldr	r1, [r4, #8]
2405adaa:	4b09      	ldr	r3, [pc, #36]	@ (2405add0 <cleanup_stdio+0x38>)
2405adac:	4299      	cmp	r1, r3
2405adae:	d002      	beq.n	2405adb6 <cleanup_stdio+0x1e>
2405adb0:	4620      	mov	r0, r4
2405adb2:	f000 ffa3 	bl	2405bcfc <_fflush_r>
2405adb6:	68e1      	ldr	r1, [r4, #12]
2405adb8:	4b06      	ldr	r3, [pc, #24]	@ (2405add4 <cleanup_stdio+0x3c>)
2405adba:	4299      	cmp	r1, r3
2405adbc:	d004      	beq.n	2405adc8 <cleanup_stdio+0x30>
2405adbe:	4620      	mov	r0, r4
2405adc0:	e8bd 4010 	ldmia.w	sp!, {r4, lr}
2405adc4:	f000 bf9a 	b.w	2405bcfc <_fflush_r>
2405adc8:	bd10      	pop	{r4, pc}
2405adca:	bf00      	nop
2405adcc:	20000650 	.word	0x20000650
2405add0:	200006b8 	.word	0x200006b8
2405add4:	20000720 	.word	0x20000720

2405add8 <global_stdio_init.part.0>:
2405add8:	b510      	push	{r4, lr}
2405adda:	4b0b      	ldr	r3, [pc, #44]	@ (2405ae08 <global_stdio_init.part.0+0x30>)
2405addc:	4c0b      	ldr	r4, [pc, #44]	@ (2405ae0c <global_stdio_init.part.0+0x34>)
2405adde:	4a0c      	ldr	r2, [pc, #48]	@ (2405ae10 <global_stdio_init.part.0+0x38>)
2405ade0:	601a      	str	r2, [r3, #0]
2405ade2:	4620      	mov	r0, r4
2405ade4:	2200      	movs	r2, #0
2405ade6:	2104      	movs	r1, #4
2405ade8:	f7ff ff94 	bl	2405ad14 <std>
2405adec:	f104 0068 	add.w	r0, r4, #104	@ 0x68
2405adf0:	2201      	movs	r2, #1
2405adf2:	2109      	movs	r1, #9
2405adf4:	f7ff ff8e 	bl	2405ad14 <std>
2405adf8:	f104 00d0 	add.w	r0, r4, #208	@ 0xd0
2405adfc:	2202      	movs	r2, #2
2405adfe:	e8bd 4010 	ldmia.w	sp!, {r4, lr}
2405ae02:	2112      	movs	r1, #18
2405ae04:	f7ff bf86 	b.w	2405ad14 <std>
2405ae08:	20000788 	.word	0x20000788
2405ae0c:	20000650 	.word	0x20000650
2405ae10:	2405ad81 	.word	0x2405ad81

2405ae14 <__sfp_lock_acquire>:
2405ae14:	4801      	ldr	r0, [pc, #4]	@ (2405ae1c <__sfp_lock_acquire+0x8>)
2405ae16:	f000 ba5c 	b.w	2405b2d2 <__retarget_lock_acquire_recursive>
2405ae1a:	bf00      	nop
2405ae1c:	20000791 	.word	0x20000791

2405ae20 <__sfp_lock_release>:
2405ae20:	4801      	ldr	r0, [pc, #4]	@ (2405ae28 <__sfp_lock_release+0x8>)
2405ae22:	f000 ba57 	b.w	2405b2d4 <__retarget_lock_release_recursive>
2405ae26:	bf00      	nop
2405ae28:	20000791 	.word	0x20000791

2405ae2c <__sinit>:
2405ae2c:	b510      	push	{r4, lr}
2405ae2e:	4604      	mov	r4, r0
2405ae30:	f7ff fff0 	bl	2405ae14 <__sfp_lock_acquire>
2405ae34:	6a23      	ldr	r3, [r4, #32]
2405ae36:	b11b      	cbz	r3, 2405ae40 <__sinit+0x14>
2405ae38:	e8bd 4010 	ldmia.w	sp!, {r4, lr}
2405ae3c:	f7ff bff0 	b.w	2405ae20 <__sfp_lock_release>
2405ae40:	4b04      	ldr	r3, [pc, #16]	@ (2405ae54 <__sinit+0x28>)
2405ae42:	6223      	str	r3, [r4, #32]
2405ae44:	4b04      	ldr	r3, [pc, #16]	@ (2405ae58 <__sinit+0x2c>)
2405ae46:	681b      	ldr	r3, [r3, #0]
2405ae48:	2b00      	cmp	r3, #0
2405ae4a:	d1f5      	bne.n	2405ae38 <__sinit+0xc>
2405ae4c:	f7ff ffc4 	bl	2405add8 <global_stdio_init.part.0>
2405ae50:	e7f2      	b.n	2405ae38 <__sinit+0xc>
2405ae52:	bf00      	nop
2405ae54:	2405ad99 	.word	0x2405ad99
2405ae58:	20000788 	.word	0x20000788

2405ae5c <fiprintf>:
2405ae5c:	b40e      	push	{r1, r2, r3}
2405ae5e:	b503      	push	{r0, r1, lr}
2405ae60:	4601      	mov	r1, r0
2405ae62:	ab03      	add	r3, sp, #12
2405ae64:	4805      	ldr	r0, [pc, #20]	@ (2405ae7c <fiprintf+0x20>)
2405ae66:	f853 2b04 	ldr.w	r2, [r3], #4
2405ae6a:	6800      	ldr	r0, [r0, #0]
2405ae6c:	9301      	str	r3, [sp, #4]
2405ae6e:	f000 fc1b 	bl	2405b6a8 <_vfiprintf_r>
2405ae72:	b002      	add	sp, #8
2405ae74:	f85d eb04 	ldr.w	lr, [sp], #4
2405ae78:	b003      	add	sp, #12
2405ae7a:	4770      	bx	lr
2405ae7c:	200000c4 	.word	0x200000c4

2405ae80 <_fwalk_sglue>:
2405ae80:	e92d 43f8 	stmdb	sp!, {r3, r4, r5, r6, r7, r8, r9, lr}
2405ae84:	4607      	mov	r7, r0
2405ae86:	4688      	mov	r8, r1
2405ae88:	4614      	mov	r4, r2
2405ae8a:	2600      	movs	r6, #0
2405ae8c:	e9d4 9501 	ldrd	r9, r5, [r4, #4]
2405ae90:	f1b9 0901 	subs.w	r9, r9, #1
2405ae94:	d505      	bpl.n	2405aea2 <_fwalk_sglue+0x22>
2405ae96:	6824      	ldr	r4, [r4, #0]
2405ae98:	2c00      	cmp	r4, #0
2405ae9a:	d1f7      	bne.n	2405ae8c <_fwalk_sglue+0xc>
2405ae9c:	4630      	mov	r0, r6
2405ae9e:	e8bd 83f8 	ldmia.w	sp!, {r3, r4, r5, r6, r7, r8, r9, pc}
2405aea2:	89ab      	ldrh	r3, [r5, #12]
2405aea4:	2b01      	cmp	r3, #1
2405aea6:	d907      	bls.n	2405aeb8 <_fwalk_sglue+0x38>
2405aea8:	f9b5 300e 	ldrsh.w	r3, [r5, #14]
2405aeac:	3301      	adds	r3, #1
2405aeae:	d003      	beq.n	2405aeb8 <_fwalk_sglue+0x38>
2405aeb0:	4629      	mov	r1, r5
2405aeb2:	4638      	mov	r0, r7
2405aeb4:	47c0      	blx	r8
2405aeb6:	4306      	orrs	r6, r0
2405aeb8:	3568      	adds	r5, #104	@ 0x68
2405aeba:	e7e9      	b.n	2405ae90 <_fwalk_sglue+0x10>

2405aebc <iprintf>:
2405aebc:	b40f      	push	{r0, r1, r2, r3}
2405aebe:	b507      	push	{r0, r1, r2, lr}
2405aec0:	4906      	ldr	r1, [pc, #24]	@ (2405aedc <iprintf+0x20>)
2405aec2:	ab04      	add	r3, sp, #16
2405aec4:	6808      	ldr	r0, [r1, #0]
2405aec6:	f853 2b04 	ldr.w	r2, [r3], #4
2405aeca:	6881      	ldr	r1, [r0, #8]
2405aecc:	9301      	str	r3, [sp, #4]
2405aece:	f000 fbeb 	bl	2405b6a8 <_vfiprintf_r>
2405aed2:	b003      	add	sp, #12
2405aed4:	f85d eb04 	ldr.w	lr, [sp], #4
2405aed8:	b004      	add	sp, #16
2405aeda:	4770      	bx	lr
2405aedc:	200000c4 	.word	0x200000c4

2405aee0 <_puts_r>:
2405aee0:	6a03      	ldr	r3, [r0, #32]
2405aee2:	b570      	push	{r4, r5, r6, lr}
2405aee4:	6884      	ldr	r4, [r0, #8]
2405aee6:	4605      	mov	r5, r0
2405aee8:	460e      	mov	r6, r1
2405aeea:	b90b      	cbnz	r3, 2405aef0 <_puts_r+0x10>
2405aeec:	f7ff ff9e 	bl	2405ae2c <__sinit>
2405aef0:	6e63      	ldr	r3, [r4, #100]	@ 0x64
2405aef2:	07db      	lsls	r3, r3, #31
2405aef4:	d405      	bmi.n	2405af02 <_puts_r+0x22>
2405aef6:	89a3      	ldrh	r3, [r4, #12]
2405aef8:	0598      	lsls	r0, r3, #22
2405aefa:	d402      	bmi.n	2405af02 <_puts_r+0x22>
2405aefc:	6da0      	ldr	r0, [r4, #88]	@ 0x58
2405aefe:	f000 f9e8 	bl	2405b2d2 <__retarget_lock_acquire_recursive>
2405af02:	89a3      	ldrh	r3, [r4, #12]
2405af04:	0719      	lsls	r1, r3, #28
2405af06:	d502      	bpl.n	2405af0e <_puts_r+0x2e>
2405af08:	6923      	ldr	r3, [r4, #16]
2405af0a:	2b00      	cmp	r3, #0
2405af0c:	d135      	bne.n	2405af7a <_puts_r+0x9a>
2405af0e:	4621      	mov	r1, r4
2405af10:	4628      	mov	r0, r5
2405af12:	f000 f8e5 	bl	2405b0e0 <__swsetup_r>
2405af16:	b380      	cbz	r0, 2405af7a <_puts_r+0x9a>
2405af18:	f04f 35ff 	mov.w	r5, #4294967295
2405af1c:	6e63      	ldr	r3, [r4, #100]	@ 0x64
2405af1e:	07da      	lsls	r2, r3, #31
2405af20:	d405      	bmi.n	2405af2e <_puts_r+0x4e>
2405af22:	89a3      	ldrh	r3, [r4, #12]
2405af24:	059b      	lsls	r3, r3, #22
2405af26:	d402      	bmi.n	2405af2e <_puts_r+0x4e>
2405af28:	6da0      	ldr	r0, [r4, #88]	@ 0x58
2405af2a:	f000 f9d3 	bl	2405b2d4 <__retarget_lock_release_recursive>
2405af2e:	4628      	mov	r0, r5
2405af30:	bd70      	pop	{r4, r5, r6, pc}
2405af32:	2b00      	cmp	r3, #0
2405af34:	da04      	bge.n	2405af40 <_puts_r+0x60>
2405af36:	69a2      	ldr	r2, [r4, #24]
2405af38:	429a      	cmp	r2, r3
2405af3a:	dc17      	bgt.n	2405af6c <_puts_r+0x8c>
2405af3c:	290a      	cmp	r1, #10
2405af3e:	d015      	beq.n	2405af6c <_puts_r+0x8c>
2405af40:	6823      	ldr	r3, [r4, #0]
2405af42:	1c5a      	adds	r2, r3, #1
2405af44:	6022      	str	r2, [r4, #0]
2405af46:	7019      	strb	r1, [r3, #0]
2405af48:	68a3      	ldr	r3, [r4, #8]
2405af4a:	f816 1f01 	ldrb.w	r1, [r6, #1]!
2405af4e:	3b01      	subs	r3, #1
2405af50:	60a3      	str	r3, [r4, #8]
2405af52:	2900      	cmp	r1, #0
2405af54:	d1ed      	bne.n	2405af32 <_puts_r+0x52>
2405af56:	2b00      	cmp	r3, #0
2405af58:	da11      	bge.n	2405af7e <_puts_r+0x9e>
2405af5a:	4622      	mov	r2, r4
2405af5c:	210a      	movs	r1, #10
2405af5e:	4628      	mov	r0, r5
2405af60:	f000 f87f 	bl	2405b062 <__swbuf_r>
2405af64:	3001      	adds	r0, #1
2405af66:	d0d7      	beq.n	2405af18 <_puts_r+0x38>
2405af68:	250a      	movs	r5, #10
2405af6a:	e7d7      	b.n	2405af1c <_puts_r+0x3c>
2405af6c:	4622      	mov	r2, r4
2405af6e:	4628      	mov	r0, r5
2405af70:	f000 f877 	bl	2405b062 <__swbuf_r>
2405af74:	3001      	adds	r0, #1
2405af76:	d1e7      	bne.n	2405af48 <_puts_r+0x68>
2405af78:	e7ce      	b.n	2405af18 <_puts_r+0x38>
2405af7a:	3e01      	subs	r6, #1
2405af7c:	e7e4      	b.n	2405af48 <_puts_r+0x68>
2405af7e:	6823      	ldr	r3, [r4, #0]
2405af80:	1c5a      	adds	r2, r3, #1
2405af82:	6022      	str	r2, [r4, #0]
2405af84:	220a      	movs	r2, #10
2405af86:	701a      	strb	r2, [r3, #0]
2405af88:	e7ee      	b.n	2405af68 <_puts_r+0x88>
	...

2405af8c <puts>:
2405af8c:	4b02      	ldr	r3, [pc, #8]	@ (2405af98 <puts+0xc>)
2405af8e:	4601      	mov	r1, r0
2405af90:	6818      	ldr	r0, [r3, #0]
2405af92:	f7ff bfa5 	b.w	2405aee0 <_puts_r>
2405af96:	bf00      	nop
2405af98:	200000c4 	.word	0x200000c4

2405af9c <siprintf>:
2405af9c:	b40e      	push	{r1, r2, r3}
2405af9e:	b500      	push	{lr}
2405afa0:	b09c      	sub	sp, #112	@ 0x70
2405afa2:	ab1d      	add	r3, sp, #116	@ 0x74
2405afa4:	9002      	str	r0, [sp, #8]
2405afa6:	9006      	str	r0, [sp, #24]
2405afa8:	f06f 4100 	mvn.w	r1, #2147483648	@ 0x80000000
2405afac:	4809      	ldr	r0, [pc, #36]	@ (2405afd4 <siprintf+0x38>)
2405afae:	9107      	str	r1, [sp, #28]
2405afb0:	9104      	str	r1, [sp, #16]
2405afb2:	4909      	ldr	r1, [pc, #36]	@ (2405afd8 <siprintf+0x3c>)
2405afb4:	f853 2b04 	ldr.w	r2, [r3], #4
2405afb8:	9105      	str	r1, [sp, #20]
2405afba:	6800      	ldr	r0, [r0, #0]
2405afbc:	9301      	str	r3, [sp, #4]
2405afbe:	a902      	add	r1, sp, #8
2405afc0:	f000 fa4c 	bl	2405b45c <_svfiprintf_r>
2405afc4:	9b02      	ldr	r3, [sp, #8]
2405afc6:	2200      	movs	r2, #0
2405afc8:	701a      	strb	r2, [r3, #0]
2405afca:	b01c      	add	sp, #112	@ 0x70
2405afcc:	f85d eb04 	ldr.w	lr, [sp], #4
2405afd0:	b003      	add	sp, #12
2405afd2:	4770      	bx	lr
2405afd4:	200000c4 	.word	0x200000c4
2405afd8:	ffff0208 	.word	0xffff0208

2405afdc <__sread>:
2405afdc:	b510      	push	{r4, lr}
2405afde:	460c      	mov	r4, r1
2405afe0:	f9b1 100e 	ldrsh.w	r1, [r1, #14]
2405afe4:	f000 f916 	bl	2405b214 <_read_r>
2405afe8:	2800      	cmp	r0, #0
2405afea:	bfab      	itete	ge
2405afec:	6d63      	ldrge	r3, [r4, #84]	@ 0x54
2405afee:	89a3      	ldrhlt	r3, [r4, #12]
2405aff0:	181b      	addge	r3, r3, r0
2405aff2:	f423 5380 	biclt.w	r3, r3, #4096	@ 0x1000
2405aff6:	bfac      	ite	ge
2405aff8:	6563      	strge	r3, [r4, #84]	@ 0x54
2405affa:	81a3      	strhlt	r3, [r4, #12]
2405affc:	bd10      	pop	{r4, pc}

2405affe <__swrite>:
2405affe:	e92d 41f0 	stmdb	sp!, {r4, r5, r6, r7, r8, lr}
2405b002:	461f      	mov	r7, r3
2405b004:	898b      	ldrh	r3, [r1, #12]
2405b006:	05db      	lsls	r3, r3, #23
2405b008:	4605      	mov	r5, r0
2405b00a:	460c      	mov	r4, r1
2405b00c:	4616      	mov	r6, r2
2405b00e:	d505      	bpl.n	2405b01c <__swrite+0x1e>
2405b010:	f9b1 100e 	ldrsh.w	r1, [r1, #14]
2405b014:	2302      	movs	r3, #2
2405b016:	2200      	movs	r2, #0
2405b018:	f000 f8ea 	bl	2405b1f0 <_lseek_r>
2405b01c:	89a3      	ldrh	r3, [r4, #12]
2405b01e:	f9b4 100e 	ldrsh.w	r1, [r4, #14]
2405b022:	f423 5380 	bic.w	r3, r3, #4096	@ 0x1000
2405b026:	81a3      	strh	r3, [r4, #12]
2405b028:	4632      	mov	r2, r6
2405b02a:	463b      	mov	r3, r7
2405b02c:	4628      	mov	r0, r5
2405b02e:	e8bd 41f0 	ldmia.w	sp!, {r4, r5, r6, r7, r8, lr}
2405b032:	f000 b911 	b.w	2405b258 <_write_r>

2405b036 <__sseek>:
2405b036:	b510      	push	{r4, lr}
2405b038:	460c      	mov	r4, r1
2405b03a:	f9b1 100e 	ldrsh.w	r1, [r1, #14]
2405b03e:	f000 f8d7 	bl	2405b1f0 <_lseek_r>
2405b042:	1c43      	adds	r3, r0, #1
2405b044:	89a3      	ldrh	r3, [r4, #12]
2405b046:	bf15      	itete	ne
2405b048:	6560      	strne	r0, [r4, #84]	@ 0x54
2405b04a:	f423 5380 	biceq.w	r3, r3, #4096	@ 0x1000
2405b04e:	f443 5380 	orrne.w	r3, r3, #4096	@ 0x1000
2405b052:	81a3      	strheq	r3, [r4, #12]
2405b054:	bf18      	it	ne
2405b056:	81a3      	strhne	r3, [r4, #12]
2405b058:	bd10      	pop	{r4, pc}

2405b05a <__sclose>:
2405b05a:	f9b1 100e 	ldrsh.w	r1, [r1, #14]
2405b05e:	f000 b8b7 	b.w	2405b1d0 <_close_r>

2405b062 <__swbuf_r>:
2405b062:	b5f8      	push	{r3, r4, r5, r6, r7, lr}
2405b064:	460e      	mov	r6, r1
2405b066:	4614      	mov	r4, r2
2405b068:	4605      	mov	r5, r0
2405b06a:	b118      	cbz	r0, 2405b074 <__swbuf_r+0x12>
2405b06c:	6a03      	ldr	r3, [r0, #32]
2405b06e:	b90b      	cbnz	r3, 2405b074 <__swbuf_r+0x12>
2405b070:	f7ff fedc 	bl	2405ae2c <__sinit>
2405b074:	69a3      	ldr	r3, [r4, #24]
2405b076:	60a3      	str	r3, [r4, #8]
2405b078:	89a3      	ldrh	r3, [r4, #12]
2405b07a:	071a      	lsls	r2, r3, #28
2405b07c:	d501      	bpl.n	2405b082 <__swbuf_r+0x20>
2405b07e:	6923      	ldr	r3, [r4, #16]
2405b080:	b943      	cbnz	r3, 2405b094 <__swbuf_r+0x32>
2405b082:	4621      	mov	r1, r4
2405b084:	4628      	mov	r0, r5
2405b086:	f000 f82b 	bl	2405b0e0 <__swsetup_r>
2405b08a:	b118      	cbz	r0, 2405b094 <__swbuf_r+0x32>
2405b08c:	f04f 37ff 	mov.w	r7, #4294967295
2405b090:	4638      	mov	r0, r7
2405b092:	bdf8      	pop	{r3, r4, r5, r6, r7, pc}
2405b094:	6823      	ldr	r3, [r4, #0]
2405b096:	6922      	ldr	r2, [r4, #16]
2405b098:	1a98      	subs	r0, r3, r2
2405b09a:	6963      	ldr	r3, [r4, #20]
2405b09c:	b2f6      	uxtb	r6, r6
2405b09e:	4283      	cmp	r3, r0
2405b0a0:	4637      	mov	r7, r6
2405b0a2:	dc05      	bgt.n	2405b0b0 <__swbuf_r+0x4e>
2405b0a4:	4621      	mov	r1, r4
2405b0a6:	4628      	mov	r0, r5
2405b0a8:	f000 fe28 	bl	2405bcfc <_fflush_r>
2405b0ac:	2800      	cmp	r0, #0
2405b0ae:	d1ed      	bne.n	2405b08c <__swbuf_r+0x2a>
2405b0b0:	68a3      	ldr	r3, [r4, #8]
2405b0b2:	3b01      	subs	r3, #1
2405b0b4:	60a3      	str	r3, [r4, #8]
2405b0b6:	6823      	ldr	r3, [r4, #0]
2405b0b8:	1c5a      	adds	r2, r3, #1
2405b0ba:	6022      	str	r2, [r4, #0]
2405b0bc:	701e      	strb	r6, [r3, #0]
2405b0be:	6962      	ldr	r2, [r4, #20]
2405b0c0:	1c43      	adds	r3, r0, #1
2405b0c2:	429a      	cmp	r2, r3
2405b0c4:	d004      	beq.n	2405b0d0 <__swbuf_r+0x6e>
2405b0c6:	89a3      	ldrh	r3, [r4, #12]
2405b0c8:	07db      	lsls	r3, r3, #31
2405b0ca:	d5e1      	bpl.n	2405b090 <__swbuf_r+0x2e>
2405b0cc:	2e0a      	cmp	r6, #10
2405b0ce:	d1df      	bne.n	2405b090 <__swbuf_r+0x2e>
2405b0d0:	4621      	mov	r1, r4
2405b0d2:	4628      	mov	r0, r5
2405b0d4:	f000 fe12 	bl	2405bcfc <_fflush_r>
2405b0d8:	2800      	cmp	r0, #0
2405b0da:	d0d9      	beq.n	2405b090 <__swbuf_r+0x2e>
2405b0dc:	e7d6      	b.n	2405b08c <__swbuf_r+0x2a>
	...

2405b0e0 <__swsetup_r>:
2405b0e0:	b538      	push	{r3, r4, r5, lr}
2405b0e2:	4b29      	ldr	r3, [pc, #164]	@ (2405b188 <__swsetup_r+0xa8>)
2405b0e4:	4605      	mov	r5, r0
2405b0e6:	6818      	ldr	r0, [r3, #0]
2405b0e8:	460c      	mov	r4, r1
2405b0ea:	b118      	cbz	r0, 2405b0f4 <__swsetup_r+0x14>
2405b0ec:	6a03      	ldr	r3, [r0, #32]
2405b0ee:	b90b      	cbnz	r3, 2405b0f4 <__swsetup_r+0x14>
2405b0f0:	f7ff fe9c 	bl	2405ae2c <__sinit>
2405b0f4:	f9b4 300c 	ldrsh.w	r3, [r4, #12]
2405b0f8:	0719      	lsls	r1, r3, #28
2405b0fa:	d422      	bmi.n	2405b142 <__swsetup_r+0x62>
2405b0fc:	06da      	lsls	r2, r3, #27
2405b0fe:	d407      	bmi.n	2405b110 <__swsetup_r+0x30>
2405b100:	2209      	movs	r2, #9
2405b102:	602a      	str	r2, [r5, #0]
2405b104:	f043 0340 	orr.w	r3, r3, #64	@ 0x40
2405b108:	81a3      	strh	r3, [r4, #12]
2405b10a:	f04f 30ff 	mov.w	r0, #4294967295
2405b10e:	e033      	b.n	2405b178 <__swsetup_r+0x98>
2405b110:	0758      	lsls	r0, r3, #29
2405b112:	d512      	bpl.n	2405b13a <__swsetup_r+0x5a>
2405b114:	6b61      	ldr	r1, [r4, #52]	@ 0x34
2405b116:	b141      	cbz	r1, 2405b12a <__swsetup_r+0x4a>
2405b118:	f104 0344 	add.w	r3, r4, #68	@ 0x44
2405b11c:	4299      	cmp	r1, r3
2405b11e:	d002      	beq.n	2405b126 <__swsetup_r+0x46>
2405b120:	4628      	mov	r0, r5
2405b122:	f000 f8ed 	bl	2405b300 <_free_r>
2405b126:	2300      	movs	r3, #0
2405b128:	6363      	str	r3, [r4, #52]	@ 0x34
2405b12a:	89a3      	ldrh	r3, [r4, #12]
2405b12c:	f023 0324 	bic.w	r3, r3, #36	@ 0x24
2405b130:	81a3      	strh	r3, [r4, #12]
2405b132:	2300      	movs	r3, #0
2405b134:	6063      	str	r3, [r4, #4]
2405b136:	6923      	ldr	r3, [r4, #16]
2405b138:	6023      	str	r3, [r4, #0]
2405b13a:	89a3      	ldrh	r3, [r4, #12]
2405b13c:	f043 0308 	orr.w	r3, r3, #8
2405b140:	81a3      	strh	r3, [r4, #12]
2405b142:	6923      	ldr	r3, [r4, #16]
2405b144:	b94b      	cbnz	r3, 2405b15a <__swsetup_r+0x7a>
2405b146:	89a3      	ldrh	r3, [r4, #12]
2405b148:	f403 7320 	and.w	r3, r3, #640	@ 0x280
2405b14c:	f5b3 7f00 	cmp.w	r3, #512	@ 0x200
2405b150:	d003      	beq.n	2405b15a <__swsetup_r+0x7a>
2405b152:	4621      	mov	r1, r4
2405b154:	4628      	mov	r0, r5
2405b156:	f000 fe1f 	bl	2405bd98 <__smakebuf_r>
2405b15a:	f9b4 300c 	ldrsh.w	r3, [r4, #12]
2405b15e:	f013 0201 	ands.w	r2, r3, #1
2405b162:	d00a      	beq.n	2405b17a <__swsetup_r+0x9a>
2405b164:	2200      	movs	r2, #0
2405b166:	60a2      	str	r2, [r4, #8]
2405b168:	6962      	ldr	r2, [r4, #20]
2405b16a:	4252      	negs	r2, r2
2405b16c:	61a2      	str	r2, [r4, #24]
2405b16e:	6922      	ldr	r2, [r4, #16]
2405b170:	b942      	cbnz	r2, 2405b184 <__swsetup_r+0xa4>
2405b172:	f013 0080 	ands.w	r0, r3, #128	@ 0x80
2405b176:	d1c5      	bne.n	2405b104 <__swsetup_r+0x24>
2405b178:	bd38      	pop	{r3, r4, r5, pc}
2405b17a:	0799      	lsls	r1, r3, #30
2405b17c:	bf58      	it	pl
2405b17e:	6962      	ldrpl	r2, [r4, #20]
2405b180:	60a2      	str	r2, [r4, #8]
2405b182:	e7f4      	b.n	2405b16e <__swsetup_r+0x8e>
2405b184:	2000      	movs	r0, #0
2405b186:	e7f7      	b.n	2405b178 <__swsetup_r+0x98>
2405b188:	200000c4 	.word	0x200000c4

2405b18c <memmove>:
2405b18c:	4288      	cmp	r0, r1
2405b18e:	b510      	push	{r4, lr}
2405b190:	eb01 0402 	add.w	r4, r1, r2
2405b194:	d902      	bls.n	2405b19c <memmove+0x10>
2405b196:	4284      	cmp	r4, r0
2405b198:	4623      	mov	r3, r4
2405b19a:	d807      	bhi.n	2405b1ac <memmove+0x20>
2405b19c:	1e43      	subs	r3, r0, #1
2405b19e:	42a1      	cmp	r1, r4
2405b1a0:	d008      	beq.n	2405b1b4 <memmove+0x28>
2405b1a2:	f811 2b01 	ldrb.w	r2, [r1], #1
2405b1a6:	f803 2f01 	strb.w	r2, [r3, #1]!
2405b1aa:	e7f8      	b.n	2405b19e <memmove+0x12>
2405b1ac:	4402      	add	r2, r0
2405b1ae:	4601      	mov	r1, r0
2405b1b0:	428a      	cmp	r2, r1
2405b1b2:	d100      	bne.n	2405b1b6 <memmove+0x2a>
2405b1b4:	bd10      	pop	{r4, pc}
2405b1b6:	f813 4d01 	ldrb.w	r4, [r3, #-1]!
2405b1ba:	f802 4d01 	strb.w	r4, [r2, #-1]!
2405b1be:	e7f7      	b.n	2405b1b0 <memmove+0x24>

2405b1c0 <memset>:
2405b1c0:	4402      	add	r2, r0
2405b1c2:	4603      	mov	r3, r0
2405b1c4:	4293      	cmp	r3, r2
2405b1c6:	d100      	bne.n	2405b1ca <memset+0xa>
2405b1c8:	4770      	bx	lr
2405b1ca:	f803 1b01 	strb.w	r1, [r3], #1
2405b1ce:	e7f9      	b.n	2405b1c4 <memset+0x4>

2405b1d0 <_close_r>:
2405b1d0:	b538      	push	{r3, r4, r5, lr}
2405b1d2:	4d06      	ldr	r5, [pc, #24]	@ (2405b1ec <_close_r+0x1c>)
2405b1d4:	2300      	movs	r3, #0
2405b1d6:	4604      	mov	r4, r0
2405b1d8:	4608      	mov	r0, r1
2405b1da:	602b      	str	r3, [r5, #0]
2405b1dc:	f7f8 ff84 	bl	240540e8 <_close>
2405b1e0:	1c43      	adds	r3, r0, #1
2405b1e2:	d102      	bne.n	2405b1ea <_close_r+0x1a>
2405b1e4:	682b      	ldr	r3, [r5, #0]
2405b1e6:	b103      	cbz	r3, 2405b1ea <_close_r+0x1a>
2405b1e8:	6023      	str	r3, [r4, #0]
2405b1ea:	bd38      	pop	{r3, r4, r5, pc}
2405b1ec:	2000078c 	.word	0x2000078c

2405b1f0 <_lseek_r>:
2405b1f0:	b538      	push	{r3, r4, r5, lr}
2405b1f2:	4d07      	ldr	r5, [pc, #28]	@ (2405b210 <_lseek_r+0x20>)
2405b1f4:	4604      	mov	r4, r0
2405b1f6:	4608      	mov	r0, r1
2405b1f8:	4611      	mov	r1, r2
2405b1fa:	2200      	movs	r2, #0
2405b1fc:	602a      	str	r2, [r5, #0]
2405b1fe:	461a      	mov	r2, r3
2405b200:	f7f8 ff7c 	bl	240540fc <_lseek>
2405b204:	1c43      	adds	r3, r0, #1
2405b206:	d102      	bne.n	2405b20e <_lseek_r+0x1e>
2405b208:	682b      	ldr	r3, [r5, #0]
2405b20a:	b103      	cbz	r3, 2405b20e <_lseek_r+0x1e>
2405b20c:	6023      	str	r3, [r4, #0]
2405b20e:	bd38      	pop	{r3, r4, r5, pc}
2405b210:	2000078c 	.word	0x2000078c

2405b214 <_read_r>:
2405b214:	b538      	push	{r3, r4, r5, lr}
2405b216:	4d07      	ldr	r5, [pc, #28]	@ (2405b234 <_read_r+0x20>)
2405b218:	4604      	mov	r4, r0
2405b21a:	4608      	mov	r0, r1
2405b21c:	4611      	mov	r1, r2
2405b21e:	2200      	movs	r2, #0
2405b220:	602a      	str	r2, [r5, #0]
2405b222:	461a      	mov	r2, r3
2405b224:	f7f8 ff44 	bl	240540b0 <_read>
2405b228:	1c43      	adds	r3, r0, #1
2405b22a:	d102      	bne.n	2405b232 <_read_r+0x1e>
2405b22c:	682b      	ldr	r3, [r5, #0]
2405b22e:	b103      	cbz	r3, 2405b232 <_read_r+0x1e>
2405b230:	6023      	str	r3, [r4, #0]
2405b232:	bd38      	pop	{r3, r4, r5, pc}
2405b234:	2000078c 	.word	0x2000078c

2405b238 <_sbrk_r>:
2405b238:	b538      	push	{r3, r4, r5, lr}
2405b23a:	4d06      	ldr	r5, [pc, #24]	@ (2405b254 <_sbrk_r+0x1c>)
2405b23c:	2300      	movs	r3, #0
2405b23e:	4604      	mov	r4, r0
2405b240:	4608      	mov	r0, r1
2405b242:	602b      	str	r3, [r5, #0]
2405b244:	f7f8 ff5c 	bl	24054100 <_sbrk>
2405b248:	1c43      	adds	r3, r0, #1
2405b24a:	d102      	bne.n	2405b252 <_sbrk_r+0x1a>
2405b24c:	682b      	ldr	r3, [r5, #0]
2405b24e:	b103      	cbz	r3, 2405b252 <_sbrk_r+0x1a>
2405b250:	6023      	str	r3, [r4, #0]
2405b252:	bd38      	pop	{r3, r4, r5, pc}
2405b254:	2000078c 	.word	0x2000078c

2405b258 <_write_r>:
2405b258:	b538      	push	{r3, r4, r5, lr}
2405b25a:	4d07      	ldr	r5, [pc, #28]	@ (2405b278 <_write_r+0x20>)
2405b25c:	4604      	mov	r4, r0
2405b25e:	4608      	mov	r0, r1
2405b260:	4611      	mov	r1, r2
2405b262:	2200      	movs	r2, #0
2405b264:	602a      	str	r2, [r5, #0]
2405b266:	461a      	mov	r2, r3
2405b268:	f7f8 ff30 	bl	240540cc <_write>
2405b26c:	1c43      	adds	r3, r0, #1
2405b26e:	d102      	bne.n	2405b276 <_write_r+0x1e>
2405b270:	682b      	ldr	r3, [r5, #0]
2405b272:	b103      	cbz	r3, 2405b276 <_write_r+0x1e>
2405b274:	6023      	str	r3, [r4, #0]
2405b276:	bd38      	pop	{r3, r4, r5, pc}
2405b278:	2000078c 	.word	0x2000078c

2405b27c <__errno>:
2405b27c:	4b01      	ldr	r3, [pc, #4]	@ (2405b284 <__errno+0x8>)
2405b27e:	6818      	ldr	r0, [r3, #0]
2405b280:	4770      	bx	lr
2405b282:	bf00      	nop
2405b284:	200000c4 	.word	0x200000c4

2405b288 <__libc_init_array>:
2405b288:	b570      	push	{r4, r5, r6, lr}
2405b28a:	4d0d      	ldr	r5, [pc, #52]	@ (2405b2c0 <__libc_init_array+0x38>)
2405b28c:	4c0d      	ldr	r4, [pc, #52]	@ (2405b2c4 <__libc_init_array+0x3c>)
2405b28e:	1b64      	subs	r4, r4, r5
2405b290:	10a4      	asrs	r4, r4, #2
2405b292:	2600      	movs	r6, #0
2405b294:	42a6      	cmp	r6, r4
2405b296:	d109      	bne.n	2405b2ac <__libc_init_array+0x24>
2405b298:	4d0b      	ldr	r5, [pc, #44]	@ (2405b2c8 <__libc_init_array+0x40>)
2405b29a:	4c0c      	ldr	r4, [pc, #48]	@ (2405b2cc <__libc_init_array+0x44>)
2405b29c:	f000 fe1e 	bl	2405bedc <_init>
2405b2a0:	1b64      	subs	r4, r4, r5
2405b2a2:	10a4      	asrs	r4, r4, #2
2405b2a4:	2600      	movs	r6, #0
2405b2a6:	42a6      	cmp	r6, r4
2405b2a8:	d105      	bne.n	2405b2b6 <__libc_init_array+0x2e>
2405b2aa:	bd70      	pop	{r4, r5, r6, pc}
2405b2ac:	f855 3b04 	ldr.w	r3, [r5], #4
2405b2b0:	4798      	blx	r3
2405b2b2:	3601      	adds	r6, #1
2405b2b4:	e7ee      	b.n	2405b294 <__libc_init_array+0xc>
2405b2b6:	f855 3b04 	ldr.w	r3, [r5], #4
2405b2ba:	4798      	blx	r3
2405b2bc:	3601      	adds	r6, #1
2405b2be:	e7f2      	b.n	2405b2a6 <__libc_init_array+0x1e>
2405b2c0:	24060334 	.word	0x24060334
2405b2c4:	24060334 	.word	0x24060334
2405b2c8:	24060334 	.word	0x24060334
2405b2cc:	24060338 	.word	0x24060338

2405b2d0 <__retarget_lock_init_recursive>:
2405b2d0:	4770      	bx	lr

2405b2d2 <__retarget_lock_acquire_recursive>:
2405b2d2:	4770      	bx	lr

2405b2d4 <__retarget_lock_release_recursive>:
2405b2d4:	4770      	bx	lr

2405b2d6 <memcpy>:
2405b2d6:	440a      	add	r2, r1
2405b2d8:	4291      	cmp	r1, r2
2405b2da:	f100 33ff 	add.w	r3, r0, #4294967295
2405b2de:	d100      	bne.n	2405b2e2 <memcpy+0xc>
2405b2e0:	4770      	bx	lr
2405b2e2:	b510      	push	{r4, lr}
2405b2e4:	f811 4b01 	ldrb.w	r4, [r1], #1
2405b2e8:	f803 4f01 	strb.w	r4, [r3, #1]!
2405b2ec:	4291      	cmp	r1, r2
2405b2ee:	d1f9      	bne.n	2405b2e4 <memcpy+0xe>
2405b2f0:	bd10      	pop	{r4, pc}

2405b2f2 <abort>:
2405b2f2:	b508      	push	{r3, lr}
2405b2f4:	2006      	movs	r0, #6
2405b2f6:	f000 fdb3 	bl	2405be60 <raise>
2405b2fa:	2001      	movs	r0, #1
2405b2fc:	f7f8 fed2 	bl	240540a4 <_exit>

2405b300 <_free_r>:
2405b300:	b538      	push	{r3, r4, r5, lr}
2405b302:	4605      	mov	r5, r0
2405b304:	2900      	cmp	r1, #0
2405b306:	d041      	beq.n	2405b38c <_free_r+0x8c>
2405b308:	f851 3c04 	ldr.w	r3, [r1, #-4]
2405b30c:	1f0c      	subs	r4, r1, #4
2405b30e:	2b00      	cmp	r3, #0
2405b310:	bfb8      	it	lt
2405b312:	18e4      	addlt	r4, r4, r3
2405b314:	f7ff fc58 	bl	2405abc8 <__malloc_lock>
2405b318:	4a1d      	ldr	r2, [pc, #116]	@ (2405b390 <_free_r+0x90>)
2405b31a:	6813      	ldr	r3, [r2, #0]
2405b31c:	b933      	cbnz	r3, 2405b32c <_free_r+0x2c>
2405b31e:	6063      	str	r3, [r4, #4]
2405b320:	6014      	str	r4, [r2, #0]
2405b322:	4628      	mov	r0, r5
2405b324:	e8bd 4038 	ldmia.w	sp!, {r3, r4, r5, lr}
2405b328:	f7ff bc54 	b.w	2405abd4 <__malloc_unlock>
2405b32c:	42a3      	cmp	r3, r4
2405b32e:	d908      	bls.n	2405b342 <_free_r+0x42>
2405b330:	6820      	ldr	r0, [r4, #0]
2405b332:	1821      	adds	r1, r4, r0
2405b334:	428b      	cmp	r3, r1
2405b336:	bf01      	itttt	eq
2405b338:	6819      	ldreq	r1, [r3, #0]
2405b33a:	685b      	ldreq	r3, [r3, #4]
2405b33c:	1809      	addeq	r1, r1, r0
2405b33e:	6021      	streq	r1, [r4, #0]
2405b340:	e7ed      	b.n	2405b31e <_free_r+0x1e>
2405b342:	461a      	mov	r2, r3
2405b344:	685b      	ldr	r3, [r3, #4]
2405b346:	b10b      	cbz	r3, 2405b34c <_free_r+0x4c>
2405b348:	42a3      	cmp	r3, r4
2405b34a:	d9fa      	bls.n	2405b342 <_free_r+0x42>
2405b34c:	6811      	ldr	r1, [r2, #0]
2405b34e:	1850      	adds	r0, r2, r1
2405b350:	42a0      	cmp	r0, r4
2405b352:	d10b      	bne.n	2405b36c <_free_r+0x6c>
2405b354:	6820      	ldr	r0, [r4, #0]
2405b356:	4401      	add	r1, r0
2405b358:	1850      	adds	r0, r2, r1
2405b35a:	4283      	cmp	r3, r0
2405b35c:	6011      	str	r1, [r2, #0]
2405b35e:	d1e0      	bne.n	2405b322 <_free_r+0x22>
2405b360:	6818      	ldr	r0, [r3, #0]
2405b362:	685b      	ldr	r3, [r3, #4]
2405b364:	6053      	str	r3, [r2, #4]
2405b366:	4408      	add	r0, r1
2405b368:	6010      	str	r0, [r2, #0]
2405b36a:	e7da      	b.n	2405b322 <_free_r+0x22>
2405b36c:	d902      	bls.n	2405b374 <_free_r+0x74>
2405b36e:	230c      	movs	r3, #12
2405b370:	602b      	str	r3, [r5, #0]
2405b372:	e7d6      	b.n	2405b322 <_free_r+0x22>
2405b374:	6820      	ldr	r0, [r4, #0]
2405b376:	1821      	adds	r1, r4, r0
2405b378:	428b      	cmp	r3, r1
2405b37a:	bf04      	itt	eq
2405b37c:	6819      	ldreq	r1, [r3, #0]
2405b37e:	685b      	ldreq	r3, [r3, #4]
2405b380:	6063      	str	r3, [r4, #4]
2405b382:	bf04      	itt	eq
2405b384:	1809      	addeq	r1, r1, r0
2405b386:	6021      	streq	r1, [r4, #0]
2405b388:	6054      	str	r4, [r2, #4]
2405b38a:	e7ca      	b.n	2405b322 <_free_r+0x22>
2405b38c:	bd38      	pop	{r3, r4, r5, pc}
2405b38e:	bf00      	nop
2405b390:	2000064c 	.word	0x2000064c

2405b394 <_malloc_usable_size_r>:
2405b394:	f851 3c04 	ldr.w	r3, [r1, #-4]
2405b398:	1f18      	subs	r0, r3, #4
2405b39a:	2b00      	cmp	r3, #0
2405b39c:	bfbc      	itt	lt
2405b39e:	580b      	ldrlt	r3, [r1, r0]
2405b3a0:	18c0      	addlt	r0, r0, r3
2405b3a2:	4770      	bx	lr

2405b3a4 <__ssputs_r>:
2405b3a4:	e92d 47f0 	stmdb	sp!, {r4, r5, r6, r7, r8, r9, sl, lr}
2405b3a8:	688e      	ldr	r6, [r1, #8]
2405b3aa:	461f      	mov	r7, r3
2405b3ac:	42be      	cmp	r6, r7
2405b3ae:	680b      	ldr	r3, [r1, #0]
2405b3b0:	4682      	mov	sl, r0
2405b3b2:	460c      	mov	r4, r1
2405b3b4:	4690      	mov	r8, r2
2405b3b6:	d82d      	bhi.n	2405b414 <__ssputs_r+0x70>
2405b3b8:	f9b1 200c 	ldrsh.w	r2, [r1, #12]
2405b3bc:	f412 6f90 	tst.w	r2, #1152	@ 0x480
2405b3c0:	d026      	beq.n	2405b410 <__ssputs_r+0x6c>
2405b3c2:	6965      	ldr	r5, [r4, #20]
2405b3c4:	6909      	ldr	r1, [r1, #16]
2405b3c6:	eb05 0545 	add.w	r5, r5, r5, lsl #1
2405b3ca:	eba3 0901 	sub.w	r9, r3, r1
2405b3ce:	eb05 75d5 	add.w	r5, r5, r5, lsr #31
2405b3d2:	1c7b      	adds	r3, r7, #1
2405b3d4:	444b      	add	r3, r9
2405b3d6:	106d      	asrs	r5, r5, #1
2405b3d8:	429d      	cmp	r5, r3
2405b3da:	bf38      	it	cc
2405b3dc:	461d      	movcc	r5, r3
2405b3de:	0553      	lsls	r3, r2, #21
2405b3e0:	d527      	bpl.n	2405b432 <__ssputs_r+0x8e>
2405b3e2:	4629      	mov	r1, r5
2405b3e4:	f7ff fb70 	bl	2405aac8 <_malloc_r>
2405b3e8:	4606      	mov	r6, r0
2405b3ea:	b360      	cbz	r0, 2405b446 <__ssputs_r+0xa2>
2405b3ec:	6921      	ldr	r1, [r4, #16]
2405b3ee:	464a      	mov	r2, r9
2405b3f0:	f7ff ff71 	bl	2405b2d6 <memcpy>
2405b3f4:	89a3      	ldrh	r3, [r4, #12]
2405b3f6:	f423 6390 	bic.w	r3, r3, #1152	@ 0x480
2405b3fa:	f043 0380 	orr.w	r3, r3, #128	@ 0x80
2405b3fe:	81a3      	strh	r3, [r4, #12]
2405b400:	6126      	str	r6, [r4, #16]
2405b402:	6165      	str	r5, [r4, #20]
2405b404:	444e      	add	r6, r9
2405b406:	eba5 0509 	sub.w	r5, r5, r9
2405b40a:	6026      	str	r6, [r4, #0]
2405b40c:	60a5      	str	r5, [r4, #8]
2405b40e:	463e      	mov	r6, r7
2405b410:	42be      	cmp	r6, r7
2405b412:	d900      	bls.n	2405b416 <__ssputs_r+0x72>
2405b414:	463e      	mov	r6, r7
2405b416:	6820      	ldr	r0, [r4, #0]
2405b418:	4632      	mov	r2, r6
2405b41a:	4641      	mov	r1, r8
2405b41c:	f7ff feb6 	bl	2405b18c <memmove>
2405b420:	68a3      	ldr	r3, [r4, #8]
2405b422:	1b9b      	subs	r3, r3, r6
2405b424:	60a3      	str	r3, [r4, #8]
2405b426:	6823      	ldr	r3, [r4, #0]
2405b428:	4433      	add	r3, r6
2405b42a:	6023      	str	r3, [r4, #0]
2405b42c:	2000      	movs	r0, #0
2405b42e:	e8bd 87f0 	ldmia.w	sp!, {r4, r5, r6, r7, r8, r9, sl, pc}
2405b432:	462a      	mov	r2, r5
2405b434:	f7ff fc40 	bl	2405acb8 <_realloc_r>
2405b438:	4606      	mov	r6, r0
2405b43a:	2800      	cmp	r0, #0
2405b43c:	d1e0      	bne.n	2405b400 <__ssputs_r+0x5c>
2405b43e:	6921      	ldr	r1, [r4, #16]
2405b440:	4650      	mov	r0, sl
2405b442:	f7ff ff5d 	bl	2405b300 <_free_r>
2405b446:	230c      	movs	r3, #12
2405b448:	f8ca 3000 	str.w	r3, [sl]
2405b44c:	89a3      	ldrh	r3, [r4, #12]
2405b44e:	f043 0340 	orr.w	r3, r3, #64	@ 0x40
2405b452:	81a3      	strh	r3, [r4, #12]
2405b454:	f04f 30ff 	mov.w	r0, #4294967295
2405b458:	e7e9      	b.n	2405b42e <__ssputs_r+0x8a>
	...

2405b45c <_svfiprintf_r>:
2405b45c:	e92d 4ff0 	stmdb	sp!, {r4, r5, r6, r7, r8, r9, sl, fp, lr}
2405b460:	4698      	mov	r8, r3
2405b462:	898b      	ldrh	r3, [r1, #12]
2405b464:	061b      	lsls	r3, r3, #24
2405b466:	b09d      	sub	sp, #116	@ 0x74
2405b468:	4607      	mov	r7, r0
2405b46a:	460d      	mov	r5, r1
2405b46c:	4614      	mov	r4, r2
2405b46e:	d510      	bpl.n	2405b492 <_svfiprintf_r+0x36>
2405b470:	690b      	ldr	r3, [r1, #16]
2405b472:	b973      	cbnz	r3, 2405b492 <_svfiprintf_r+0x36>
2405b474:	2140      	movs	r1, #64	@ 0x40
2405b476:	f7ff fb27 	bl	2405aac8 <_malloc_r>
2405b47a:	6028      	str	r0, [r5, #0]
2405b47c:	6128      	str	r0, [r5, #16]
2405b47e:	b930      	cbnz	r0, 2405b48e <_svfiprintf_r+0x32>
2405b480:	230c      	movs	r3, #12
2405b482:	603b      	str	r3, [r7, #0]
2405b484:	f04f 30ff 	mov.w	r0, #4294967295
2405b488:	b01d      	add	sp, #116	@ 0x74
2405b48a:	e8bd 8ff0 	ldmia.w	sp!, {r4, r5, r6, r7, r8, r9, sl, fp, pc}
2405b48e:	2340      	movs	r3, #64	@ 0x40
2405b490:	616b      	str	r3, [r5, #20]
2405b492:	2300      	movs	r3, #0
2405b494:	9309      	str	r3, [sp, #36]	@ 0x24
2405b496:	2320      	movs	r3, #32
2405b498:	f88d 3029 	strb.w	r3, [sp, #41]	@ 0x29
2405b49c:	f8cd 800c 	str.w	r8, [sp, #12]
2405b4a0:	2330      	movs	r3, #48	@ 0x30
2405b4a2:	f8df 819c 	ldr.w	r8, [pc, #412]	@ 2405b640 <_svfiprintf_r+0x1e4>
2405b4a6:	f88d 302a 	strb.w	r3, [sp, #42]	@ 0x2a
2405b4aa:	f04f 0901 	mov.w	r9, #1
2405b4ae:	4623      	mov	r3, r4
2405b4b0:	469a      	mov	sl, r3
2405b4b2:	f813 2b01 	ldrb.w	r2, [r3], #1
2405b4b6:	b10a      	cbz	r2, 2405b4bc <_svfiprintf_r+0x60>
2405b4b8:	2a25      	cmp	r2, #37	@ 0x25
2405b4ba:	d1f9      	bne.n	2405b4b0 <_svfiprintf_r+0x54>
2405b4bc:	ebba 0b04 	subs.w	fp, sl, r4
2405b4c0:	d00b      	beq.n	2405b4da <_svfiprintf_r+0x7e>
2405b4c2:	465b      	mov	r3, fp
2405b4c4:	4622      	mov	r2, r4
2405b4c6:	4629      	mov	r1, r5
2405b4c8:	4638      	mov	r0, r7
2405b4ca:	f7ff ff6b 	bl	2405b3a4 <__ssputs_r>
2405b4ce:	3001      	adds	r0, #1
2405b4d0:	f000 80a7 	beq.w	2405b622 <_svfiprintf_r+0x1c6>
2405b4d4:	9a09      	ldr	r2, [sp, #36]	@ 0x24
2405b4d6:	445a      	add	r2, fp
2405b4d8:	9209      	str	r2, [sp, #36]	@ 0x24
2405b4da:	f89a 3000 	ldrb.w	r3, [sl]
2405b4de:	2b00      	cmp	r3, #0
2405b4e0:	f000 809f 	beq.w	2405b622 <_svfiprintf_r+0x1c6>
2405b4e4:	2300      	movs	r3, #0
2405b4e6:	f04f 32ff 	mov.w	r2, #4294967295
2405b4ea:	e9cd 2305 	strd	r2, r3, [sp, #20]
2405b4ee:	f10a 0a01 	add.w	sl, sl, #1
2405b4f2:	9304      	str	r3, [sp, #16]
2405b4f4:	9307      	str	r3, [sp, #28]
2405b4f6:	f88d 3053 	strb.w	r3, [sp, #83]	@ 0x53
2405b4fa:	931a      	str	r3, [sp, #104]	@ 0x68
2405b4fc:	4654      	mov	r4, sl
2405b4fe:	2205      	movs	r2, #5
2405b500:	f814 1b01 	ldrb.w	r1, [r4], #1
2405b504:	484e      	ldr	r0, [pc, #312]	@ (2405b640 <_svfiprintf_r+0x1e4>)
2405b506:	f7f4 fda3 	bl	24050050 <memchr>
2405b50a:	9a04      	ldr	r2, [sp, #16]
2405b50c:	b9d8      	cbnz	r0, 2405b546 <_svfiprintf_r+0xea>
2405b50e:	06d0      	lsls	r0, r2, #27
2405b510:	bf44      	itt	mi
2405b512:	2320      	movmi	r3, #32
2405b514:	f88d 3053 	strbmi.w	r3, [sp, #83]	@ 0x53
2405b518:	0711      	lsls	r1, r2, #28
2405b51a:	bf44      	itt	mi
2405b51c:	232b      	movmi	r3, #43	@ 0x2b
2405b51e:	f88d 3053 	strbmi.w	r3, [sp, #83]	@ 0x53
2405b522:	f89a 3000 	ldrb.w	r3, [sl]
2405b526:	2b2a      	cmp	r3, #42	@ 0x2a
2405b528:	d015      	beq.n	2405b556 <_svfiprintf_r+0xfa>
2405b52a:	9a07      	ldr	r2, [sp, #28]
2405b52c:	4654      	mov	r4, sl
2405b52e:	2000      	movs	r0, #0
2405b530:	f04f 0c0a 	mov.w	ip, #10
2405b534:	4621      	mov	r1, r4
2405b536:	f811 3b01 	ldrb.w	r3, [r1], #1
2405b53a:	3b30      	subs	r3, #48	@ 0x30
2405b53c:	2b09      	cmp	r3, #9
2405b53e:	d94b      	bls.n	2405b5d8 <_svfiprintf_r+0x17c>
2405b540:	b1b0      	cbz	r0, 2405b570 <_svfiprintf_r+0x114>
2405b542:	9207      	str	r2, [sp, #28]
2405b544:	e014      	b.n	2405b570 <_svfiprintf_r+0x114>
2405b546:	eba0 0308 	sub.w	r3, r0, r8
2405b54a:	fa09 f303 	lsl.w	r3, r9, r3
2405b54e:	4313      	orrs	r3, r2
2405b550:	9304      	str	r3, [sp, #16]
2405b552:	46a2      	mov	sl, r4
2405b554:	e7d2      	b.n	2405b4fc <_svfiprintf_r+0xa0>
2405b556:	9b03      	ldr	r3, [sp, #12]
2405b558:	1d19      	adds	r1, r3, #4
2405b55a:	681b      	ldr	r3, [r3, #0]
2405b55c:	9103      	str	r1, [sp, #12]
2405b55e:	2b00      	cmp	r3, #0
2405b560:	bfbb      	ittet	lt
2405b562:	425b      	neglt	r3, r3
2405b564:	f042 0202 	orrlt.w	r2, r2, #2
2405b568:	9307      	strge	r3, [sp, #28]
2405b56a:	9307      	strlt	r3, [sp, #28]
2405b56c:	bfb8      	it	lt
2405b56e:	9204      	strlt	r2, [sp, #16]
2405b570:	7823      	ldrb	r3, [r4, #0]
2405b572:	2b2e      	cmp	r3, #46	@ 0x2e
2405b574:	d10a      	bne.n	2405b58c <_svfiprintf_r+0x130>
2405b576:	7863      	ldrb	r3, [r4, #1]
2405b578:	2b2a      	cmp	r3, #42	@ 0x2a
2405b57a:	d132      	bne.n	2405b5e2 <_svfiprintf_r+0x186>
2405b57c:	9b03      	ldr	r3, [sp, #12]
2405b57e:	1d1a      	adds	r2, r3, #4
2405b580:	681b      	ldr	r3, [r3, #0]
2405b582:	9203      	str	r2, [sp, #12]
2405b584:	ea43 73e3 	orr.w	r3, r3, r3, asr #31
2405b588:	3402      	adds	r4, #2
2405b58a:	9305      	str	r3, [sp, #20]
2405b58c:	f8df a0c0 	ldr.w	sl, [pc, #192]	@ 2405b650 <_svfiprintf_r+0x1f4>
2405b590:	7821      	ldrb	r1, [r4, #0]
2405b592:	2203      	movs	r2, #3
2405b594:	4650      	mov	r0, sl
2405b596:	f7f4 fd5b 	bl	24050050 <memchr>
2405b59a:	b138      	cbz	r0, 2405b5ac <_svfiprintf_r+0x150>
2405b59c:	9b04      	ldr	r3, [sp, #16]
2405b59e:	eba0 000a 	sub.w	r0, r0, sl
2405b5a2:	2240      	movs	r2, #64	@ 0x40
2405b5a4:	4082      	lsls	r2, r0
2405b5a6:	4313      	orrs	r3, r2
2405b5a8:	3401      	adds	r4, #1
2405b5aa:	9304      	str	r3, [sp, #16]
2405b5ac:	f814 1b01 	ldrb.w	r1, [r4], #1
2405b5b0:	4824      	ldr	r0, [pc, #144]	@ (2405b644 <_svfiprintf_r+0x1e8>)
2405b5b2:	f88d 1028 	strb.w	r1, [sp, #40]	@ 0x28
2405b5b6:	2206      	movs	r2, #6
2405b5b8:	f7f4 fd4a 	bl	24050050 <memchr>
2405b5bc:	2800      	cmp	r0, #0
2405b5be:	d036      	beq.n	2405b62e <_svfiprintf_r+0x1d2>
2405b5c0:	4b21      	ldr	r3, [pc, #132]	@ (2405b648 <_svfiprintf_r+0x1ec>)
2405b5c2:	bb1b      	cbnz	r3, 2405b60c <_svfiprintf_r+0x1b0>
2405b5c4:	9b03      	ldr	r3, [sp, #12]
2405b5c6:	3307      	adds	r3, #7
2405b5c8:	f023 0307 	bic.w	r3, r3, #7
2405b5cc:	3308      	adds	r3, #8
2405b5ce:	9303      	str	r3, [sp, #12]
2405b5d0:	9b09      	ldr	r3, [sp, #36]	@ 0x24
2405b5d2:	4433      	add	r3, r6
2405b5d4:	9309      	str	r3, [sp, #36]	@ 0x24
2405b5d6:	e76a      	b.n	2405b4ae <_svfiprintf_r+0x52>
2405b5d8:	fb0c 3202 	mla	r2, ip, r2, r3
2405b5dc:	460c      	mov	r4, r1
2405b5de:	2001      	movs	r0, #1
2405b5e0:	e7a8      	b.n	2405b534 <_svfiprintf_r+0xd8>
2405b5e2:	2300      	movs	r3, #0
2405b5e4:	3401      	adds	r4, #1
2405b5e6:	9305      	str	r3, [sp, #20]
2405b5e8:	4619      	mov	r1, r3
2405b5ea:	f04f 0c0a 	mov.w	ip, #10
2405b5ee:	4620      	mov	r0, r4
2405b5f0:	f810 2b01 	ldrb.w	r2, [r0], #1
2405b5f4:	3a30      	subs	r2, #48	@ 0x30
2405b5f6:	2a09      	cmp	r2, #9
2405b5f8:	d903      	bls.n	2405b602 <_svfiprintf_r+0x1a6>
2405b5fa:	2b00      	cmp	r3, #0
2405b5fc:	d0c6      	beq.n	2405b58c <_svfiprintf_r+0x130>
2405b5fe:	9105      	str	r1, [sp, #20]
2405b600:	e7c4      	b.n	2405b58c <_svfiprintf_r+0x130>
2405b602:	fb0c 2101 	mla	r1, ip, r1, r2
2405b606:	4604      	mov	r4, r0
2405b608:	2301      	movs	r3, #1
2405b60a:	e7f0      	b.n	2405b5ee <_svfiprintf_r+0x192>
2405b60c:	ab03      	add	r3, sp, #12
2405b60e:	9300      	str	r3, [sp, #0]
2405b610:	462a      	mov	r2, r5
2405b612:	4b0e      	ldr	r3, [pc, #56]	@ (2405b64c <_svfiprintf_r+0x1f0>)
2405b614:	a904      	add	r1, sp, #16
2405b616:	4638      	mov	r0, r7
2405b618:	f3af 8000 	nop.w
2405b61c:	1c42      	adds	r2, r0, #1
2405b61e:	4606      	mov	r6, r0
2405b620:	d1d6      	bne.n	2405b5d0 <_svfiprintf_r+0x174>
2405b622:	89ab      	ldrh	r3, [r5, #12]
2405b624:	065b      	lsls	r3, r3, #25
2405b626:	f53f af2d 	bmi.w	2405b484 <_svfiprintf_r+0x28>
2405b62a:	9809      	ldr	r0, [sp, #36]	@ 0x24
2405b62c:	e72c      	b.n	2405b488 <_svfiprintf_r+0x2c>
2405b62e:	ab03      	add	r3, sp, #12
2405b630:	9300      	str	r3, [sp, #0]
2405b632:	462a      	mov	r2, r5
2405b634:	4b05      	ldr	r3, [pc, #20]	@ (2405b64c <_svfiprintf_r+0x1f0>)
2405b636:	a904      	add	r1, sp, #16
2405b638:	4638      	mov	r0, r7
2405b63a:	f000 f9bb 	bl	2405b9b4 <_printf_i>
2405b63e:	e7ed      	b.n	2405b61c <_svfiprintf_r+0x1c0>
2405b640:	240602f9 	.word	0x240602f9
2405b644:	24060303 	.word	0x24060303
2405b648:	00000000 	.word	0x00000000
2405b64c:	2405b3a5 	.word	0x2405b3a5
2405b650:	240602ff 	.word	0x240602ff

2405b654 <__sfputc_r>:
2405b654:	6893      	ldr	r3, [r2, #8]
2405b656:	3b01      	subs	r3, #1
2405b658:	2b00      	cmp	r3, #0
2405b65a:	b410      	push	{r4}
2405b65c:	6093      	str	r3, [r2, #8]
2405b65e:	da08      	bge.n	2405b672 <__sfputc_r+0x1e>
2405b660:	6994      	ldr	r4, [r2, #24]
2405b662:	42a3      	cmp	r3, r4
2405b664:	db01      	blt.n	2405b66a <__sfputc_r+0x16>
2405b666:	290a      	cmp	r1, #10
2405b668:	d103      	bne.n	2405b672 <__sfputc_r+0x1e>
2405b66a:	f85d 4b04 	ldr.w	r4, [sp], #4
2405b66e:	f7ff bcf8 	b.w	2405b062 <__swbuf_r>
2405b672:	6813      	ldr	r3, [r2, #0]
2405b674:	1c58      	adds	r0, r3, #1
2405b676:	6010      	str	r0, [r2, #0]
2405b678:	7019      	strb	r1, [r3, #0]
2405b67a:	4608      	mov	r0, r1
2405b67c:	f85d 4b04 	ldr.w	r4, [sp], #4
2405b680:	4770      	bx	lr

2405b682 <__sfputs_r>:
2405b682:	b5f8      	push	{r3, r4, r5, r6, r7, lr}
2405b684:	4606      	mov	r6, r0
2405b686:	460f      	mov	r7, r1
2405b688:	4614      	mov	r4, r2
2405b68a:	18d5      	adds	r5, r2, r3
2405b68c:	42ac      	cmp	r4, r5
2405b68e:	d101      	bne.n	2405b694 <__sfputs_r+0x12>
2405b690:	2000      	movs	r0, #0
2405b692:	e007      	b.n	2405b6a4 <__sfputs_r+0x22>
2405b694:	f814 1b01 	ldrb.w	r1, [r4], #1
2405b698:	463a      	mov	r2, r7
2405b69a:	4630      	mov	r0, r6
2405b69c:	f7ff ffda 	bl	2405b654 <__sfputc_r>
2405b6a0:	1c43      	adds	r3, r0, #1
2405b6a2:	d1f3      	bne.n	2405b68c <__sfputs_r+0xa>
2405b6a4:	bdf8      	pop	{r3, r4, r5, r6, r7, pc}
	...

2405b6a8 <_vfiprintf_r>:
2405b6a8:	e92d 4ff0 	stmdb	sp!, {r4, r5, r6, r7, r8, r9, sl, fp, lr}
2405b6ac:	460d      	mov	r5, r1
2405b6ae:	b09d      	sub	sp, #116	@ 0x74
2405b6b0:	4614      	mov	r4, r2
2405b6b2:	4698      	mov	r8, r3
2405b6b4:	4606      	mov	r6, r0
2405b6b6:	b118      	cbz	r0, 2405b6c0 <_vfiprintf_r+0x18>
2405b6b8:	6a03      	ldr	r3, [r0, #32]
2405b6ba:	b90b      	cbnz	r3, 2405b6c0 <_vfiprintf_r+0x18>
2405b6bc:	f7ff fbb6 	bl	2405ae2c <__sinit>
2405b6c0:	6e6b      	ldr	r3, [r5, #100]	@ 0x64
2405b6c2:	07d9      	lsls	r1, r3, #31
2405b6c4:	d405      	bmi.n	2405b6d2 <_vfiprintf_r+0x2a>
2405b6c6:	89ab      	ldrh	r3, [r5, #12]
2405b6c8:	059a      	lsls	r2, r3, #22
2405b6ca:	d402      	bmi.n	2405b6d2 <_vfiprintf_r+0x2a>
2405b6cc:	6da8      	ldr	r0, [r5, #88]	@ 0x58
2405b6ce:	f7ff fe00 	bl	2405b2d2 <__retarget_lock_acquire_recursive>
2405b6d2:	89ab      	ldrh	r3, [r5, #12]
2405b6d4:	071b      	lsls	r3, r3, #28
2405b6d6:	d501      	bpl.n	2405b6dc <_vfiprintf_r+0x34>
2405b6d8:	692b      	ldr	r3, [r5, #16]
2405b6da:	b99b      	cbnz	r3, 2405b704 <_vfiprintf_r+0x5c>
2405b6dc:	4629      	mov	r1, r5
2405b6de:	4630      	mov	r0, r6
2405b6e0:	f7ff fcfe 	bl	2405b0e0 <__swsetup_r>
2405b6e4:	b170      	cbz	r0, 2405b704 <_vfiprintf_r+0x5c>
2405b6e6:	6e6b      	ldr	r3, [r5, #100]	@ 0x64
2405b6e8:	07dc      	lsls	r4, r3, #31
2405b6ea:	d504      	bpl.n	2405b6f6 <_vfiprintf_r+0x4e>
2405b6ec:	f04f 30ff 	mov.w	r0, #4294967295
2405b6f0:	b01d      	add	sp, #116	@ 0x74
2405b6f2:	e8bd 8ff0 	ldmia.w	sp!, {r4, r5, r6, r7, r8, r9, sl, fp, pc}
2405b6f6:	89ab      	ldrh	r3, [r5, #12]
2405b6f8:	0598      	lsls	r0, r3, #22
2405b6fa:	d4f7      	bmi.n	2405b6ec <_vfiprintf_r+0x44>
2405b6fc:	6da8      	ldr	r0, [r5, #88]	@ 0x58
2405b6fe:	f7ff fde9 	bl	2405b2d4 <__retarget_lock_release_recursive>
2405b702:	e7f3      	b.n	2405b6ec <_vfiprintf_r+0x44>
2405b704:	2300      	movs	r3, #0
2405b706:	9309      	str	r3, [sp, #36]	@ 0x24
2405b708:	2320      	movs	r3, #32
2405b70a:	f88d 3029 	strb.w	r3, [sp, #41]	@ 0x29
2405b70e:	f8cd 800c 	str.w	r8, [sp, #12]
2405b712:	2330      	movs	r3, #48	@ 0x30
2405b714:	f8df 81ac 	ldr.w	r8, [pc, #428]	@ 2405b8c4 <_vfiprintf_r+0x21c>
2405b718:	f88d 302a 	strb.w	r3, [sp, #42]	@ 0x2a
2405b71c:	f04f 0901 	mov.w	r9, #1
2405b720:	4623      	mov	r3, r4
2405b722:	469a      	mov	sl, r3
2405b724:	f813 2b01 	ldrb.w	r2, [r3], #1
2405b728:	b10a      	cbz	r2, 2405b72e <_vfiprintf_r+0x86>
2405b72a:	2a25      	cmp	r2, #37	@ 0x25
2405b72c:	d1f9      	bne.n	2405b722 <_vfiprintf_r+0x7a>
2405b72e:	ebba 0b04 	subs.w	fp, sl, r4
2405b732:	d00b      	beq.n	2405b74c <_vfiprintf_r+0xa4>
2405b734:	465b      	mov	r3, fp
2405b736:	4622      	mov	r2, r4
2405b738:	4629      	mov	r1, r5
2405b73a:	4630      	mov	r0, r6
2405b73c:	f7ff ffa1 	bl	2405b682 <__sfputs_r>
2405b740:	3001      	adds	r0, #1
2405b742:	f000 80a7 	beq.w	2405b894 <_vfiprintf_r+0x1ec>
2405b746:	9a09      	ldr	r2, [sp, #36]	@ 0x24
2405b748:	445a      	add	r2, fp
2405b74a:	9209      	str	r2, [sp, #36]	@ 0x24
2405b74c:	f89a 3000 	ldrb.w	r3, [sl]
2405b750:	2b00      	cmp	r3, #0
2405b752:	f000 809f 	beq.w	2405b894 <_vfiprintf_r+0x1ec>
2405b756:	2300      	movs	r3, #0
2405b758:	f04f 32ff 	mov.w	r2, #4294967295
2405b75c:	e9cd 2305 	strd	r2, r3, [sp, #20]
2405b760:	f10a 0a01 	add.w	sl, sl, #1
2405b764:	9304      	str	r3, [sp, #16]
2405b766:	9307      	str	r3, [sp, #28]
2405b768:	f88d 3053 	strb.w	r3, [sp, #83]	@ 0x53
2405b76c:	931a      	str	r3, [sp, #104]	@ 0x68
2405b76e:	4654      	mov	r4, sl
2405b770:	2205      	movs	r2, #5
2405b772:	f814 1b01 	ldrb.w	r1, [r4], #1
2405b776:	4853      	ldr	r0, [pc, #332]	@ (2405b8c4 <_vfiprintf_r+0x21c>)
2405b778:	f7f4 fc6a 	bl	24050050 <memchr>
2405b77c:	9a04      	ldr	r2, [sp, #16]
2405b77e:	b9d8      	cbnz	r0, 2405b7b8 <_vfiprintf_r+0x110>
2405b780:	06d1      	lsls	r1, r2, #27
2405b782:	bf44      	itt	mi
2405b784:	2320      	movmi	r3, #32
2405b786:	f88d 3053 	strbmi.w	r3, [sp, #83]	@ 0x53
2405b78a:	0713      	lsls	r3, r2, #28
2405b78c:	bf44      	itt	mi
2405b78e:	232b      	movmi	r3, #43	@ 0x2b
2405b790:	f88d 3053 	strbmi.w	r3, [sp, #83]	@ 0x53
2405b794:	f89a 3000 	ldrb.w	r3, [sl]
2405b798:	2b2a      	cmp	r3, #42	@ 0x2a
2405b79a:	d015      	beq.n	2405b7c8 <_vfiprintf_r+0x120>
2405b79c:	9a07      	ldr	r2, [sp, #28]
2405b79e:	4654      	mov	r4, sl
2405b7a0:	2000      	movs	r0, #0
2405b7a2:	f04f 0c0a 	mov.w	ip, #10
2405b7a6:	4621      	mov	r1, r4
2405b7a8:	f811 3b01 	ldrb.w	r3, [r1], #1
2405b7ac:	3b30      	subs	r3, #48	@ 0x30
2405b7ae:	2b09      	cmp	r3, #9
2405b7b0:	d94b      	bls.n	2405b84a <_vfiprintf_r+0x1a2>
2405b7b2:	b1b0      	cbz	r0, 2405b7e2 <_vfiprintf_r+0x13a>
2405b7b4:	9207      	str	r2, [sp, #28]
2405b7b6:	e014      	b.n	2405b7e2 <_vfiprintf_r+0x13a>
2405b7b8:	eba0 0308 	sub.w	r3, r0, r8
2405b7bc:	fa09 f303 	lsl.w	r3, r9, r3
2405b7c0:	4313      	orrs	r3, r2
2405b7c2:	9304      	str	r3, [sp, #16]
2405b7c4:	46a2      	mov	sl, r4
2405b7c6:	e7d2      	b.n	2405b76e <_vfiprintf_r+0xc6>
2405b7c8:	9b03      	ldr	r3, [sp, #12]
2405b7ca:	1d19      	adds	r1, r3, #4
2405b7cc:	681b      	ldr	r3, [r3, #0]
2405b7ce:	9103      	str	r1, [sp, #12]
2405b7d0:	2b00      	cmp	r3, #0
2405b7d2:	bfbb      	ittet	lt
2405b7d4:	425b      	neglt	r3, r3
2405b7d6:	f042 0202 	orrlt.w	r2, r2, #2
2405b7da:	9307      	strge	r3, [sp, #28]
2405b7dc:	9307      	strlt	r3, [sp, #28]
2405b7de:	bfb8      	it	lt
2405b7e0:	9204      	strlt	r2, [sp, #16]
2405b7e2:	7823      	ldrb	r3, [r4, #0]
2405b7e4:	2b2e      	cmp	r3, #46	@ 0x2e
2405b7e6:	d10a      	bne.n	2405b7fe <_vfiprintf_r+0x156>
2405b7e8:	7863      	ldrb	r3, [r4, #1]
2405b7ea:	2b2a      	cmp	r3, #42	@ 0x2a
2405b7ec:	d132      	bne.n	2405b854 <_vfiprintf_r+0x1ac>
2405b7ee:	9b03      	ldr	r3, [sp, #12]
2405b7f0:	1d1a      	adds	r2, r3, #4
2405b7f2:	681b      	ldr	r3, [r3, #0]
2405b7f4:	9203      	str	r2, [sp, #12]
2405b7f6:	ea43 73e3 	orr.w	r3, r3, r3, asr #31
2405b7fa:	3402      	adds	r4, #2
2405b7fc:	9305      	str	r3, [sp, #20]
2405b7fe:	f8df a0d4 	ldr.w	sl, [pc, #212]	@ 2405b8d4 <_vfiprintf_r+0x22c>
2405b802:	7821      	ldrb	r1, [r4, #0]
2405b804:	2203      	movs	r2, #3
2405b806:	4650      	mov	r0, sl
2405b808:	f7f4 fc22 	bl	24050050 <memchr>
2405b80c:	b138      	cbz	r0, 2405b81e <_vfiprintf_r+0x176>
2405b80e:	9b04      	ldr	r3, [sp, #16]
2405b810:	eba0 000a 	sub.w	r0, r0, sl
2405b814:	2240      	movs	r2, #64	@ 0x40
2405b816:	4082      	lsls	r2, r0
2405b818:	4313      	orrs	r3, r2
2405b81a:	3401      	adds	r4, #1
2405b81c:	9304      	str	r3, [sp, #16]
2405b81e:	f814 1b01 	ldrb.w	r1, [r4], #1
2405b822:	4829      	ldr	r0, [pc, #164]	@ (2405b8c8 <_vfiprintf_r+0x220>)
2405b824:	f88d 1028 	strb.w	r1, [sp, #40]	@ 0x28
2405b828:	2206      	movs	r2, #6
2405b82a:	f7f4 fc11 	bl	24050050 <memchr>
2405b82e:	2800      	cmp	r0, #0
2405b830:	d03f      	beq.n	2405b8b2 <_vfiprintf_r+0x20a>
2405b832:	4b26      	ldr	r3, [pc, #152]	@ (2405b8cc <_vfiprintf_r+0x224>)
2405b834:	bb1b      	cbnz	r3, 2405b87e <_vfiprintf_r+0x1d6>
2405b836:	9b03      	ldr	r3, [sp, #12]
2405b838:	3307      	adds	r3, #7
2405b83a:	f023 0307 	bic.w	r3, r3, #7
2405b83e:	3308      	adds	r3, #8
2405b840:	9303      	str	r3, [sp, #12]
2405b842:	9b09      	ldr	r3, [sp, #36]	@ 0x24
2405b844:	443b      	add	r3, r7
2405b846:	9309      	str	r3, [sp, #36]	@ 0x24
2405b848:	e76a      	b.n	2405b720 <_vfiprintf_r+0x78>
2405b84a:	fb0c 3202 	mla	r2, ip, r2, r3
2405b84e:	460c      	mov	r4, r1
2405b850:	2001      	movs	r0, #1
2405b852:	e7a8      	b.n	2405b7a6 <_vfiprintf_r+0xfe>
2405b854:	2300      	movs	r3, #0
2405b856:	3401      	adds	r4, #1
2405b858:	9305      	str	r3, [sp, #20]
2405b85a:	4619      	mov	r1, r3
2405b85c:	f04f 0c0a 	mov.w	ip, #10
2405b860:	4620      	mov	r0, r4
2405b862:	f810 2b01 	ldrb.w	r2, [r0], #1
2405b866:	3a30      	subs	r2, #48	@ 0x30
2405b868:	2a09      	cmp	r2, #9
2405b86a:	d903      	bls.n	2405b874 <_vfiprintf_r+0x1cc>
2405b86c:	2b00      	cmp	r3, #0
2405b86e:	d0c6      	beq.n	2405b7fe <_vfiprintf_r+0x156>
2405b870:	9105      	str	r1, [sp, #20]
2405b872:	e7c4      	b.n	2405b7fe <_vfiprintf_r+0x156>
2405b874:	fb0c 2101 	mla	r1, ip, r1, r2
2405b878:	4604      	mov	r4, r0
2405b87a:	2301      	movs	r3, #1
2405b87c:	e7f0      	b.n	2405b860 <_vfiprintf_r+0x1b8>
2405b87e:	ab03      	add	r3, sp, #12
2405b880:	9300      	str	r3, [sp, #0]
2405b882:	462a      	mov	r2, r5
2405b884:	4b12      	ldr	r3, [pc, #72]	@ (2405b8d0 <_vfiprintf_r+0x228>)
2405b886:	a904      	add	r1, sp, #16
2405b888:	4630      	mov	r0, r6
2405b88a:	f3af 8000 	nop.w
2405b88e:	4607      	mov	r7, r0
2405b890:	1c78      	adds	r0, r7, #1
2405b892:	d1d6      	bne.n	2405b842 <_vfiprintf_r+0x19a>
2405b894:	6e6b      	ldr	r3, [r5, #100]	@ 0x64
2405b896:	07d9      	lsls	r1, r3, #31
2405b898:	d405      	bmi.n	2405b8a6 <_vfiprintf_r+0x1fe>
2405b89a:	89ab      	ldrh	r3, [r5, #12]
2405b89c:	059a      	lsls	r2, r3, #22
2405b89e:	d402      	bmi.n	2405b8a6 <_vfiprintf_r+0x1fe>
2405b8a0:	6da8      	ldr	r0, [r5, #88]	@ 0x58
2405b8a2:	f7ff fd17 	bl	2405b2d4 <__retarget_lock_release_recursive>
2405b8a6:	89ab      	ldrh	r3, [r5, #12]
2405b8a8:	065b      	lsls	r3, r3, #25
2405b8aa:	f53f af1f 	bmi.w	2405b6ec <_vfiprintf_r+0x44>
2405b8ae:	9809      	ldr	r0, [sp, #36]	@ 0x24
2405b8b0:	e71e      	b.n	2405b6f0 <_vfiprintf_r+0x48>
2405b8b2:	ab03      	add	r3, sp, #12
2405b8b4:	9300      	str	r3, [sp, #0]
2405b8b6:	462a      	mov	r2, r5
2405b8b8:	4b05      	ldr	r3, [pc, #20]	@ (2405b8d0 <_vfiprintf_r+0x228>)
2405b8ba:	a904      	add	r1, sp, #16
2405b8bc:	4630      	mov	r0, r6
2405b8be:	f000 f879 	bl	2405b9b4 <_printf_i>
2405b8c2:	e7e4      	b.n	2405b88e <_vfiprintf_r+0x1e6>
2405b8c4:	240602f9 	.word	0x240602f9
2405b8c8:	24060303 	.word	0x24060303
2405b8cc:	00000000 	.word	0x00000000
2405b8d0:	2405b683 	.word	0x2405b683
2405b8d4:	240602ff 	.word	0x240602ff

2405b8d8 <_printf_common>:
2405b8d8:	e92d 47f0 	stmdb	sp!, {r4, r5, r6, r7, r8, r9, sl, lr}
2405b8dc:	4616      	mov	r6, r2
2405b8de:	4698      	mov	r8, r3
2405b8e0:	688a      	ldr	r2, [r1, #8]
2405b8e2:	690b      	ldr	r3, [r1, #16]
2405b8e4:	f8dd 9020 	ldr.w	r9, [sp, #32]
2405b8e8:	4293      	cmp	r3, r2
2405b8ea:	bfb8      	it	lt
2405b8ec:	4613      	movlt	r3, r2
2405b8ee:	6033      	str	r3, [r6, #0]
2405b8f0:	f891 2043 	ldrb.w	r2, [r1, #67]	@ 0x43
2405b8f4:	4607      	mov	r7, r0
2405b8f6:	460c      	mov	r4, r1
2405b8f8:	b10a      	cbz	r2, 2405b8fe <_printf_common+0x26>
2405b8fa:	3301      	adds	r3, #1
2405b8fc:	6033      	str	r3, [r6, #0]
2405b8fe:	6823      	ldr	r3, [r4, #0]
2405b900:	0699      	lsls	r1, r3, #26
2405b902:	bf42      	ittt	mi
2405b904:	6833      	ldrmi	r3, [r6, #0]
2405b906:	3302      	addmi	r3, #2
2405b908:	6033      	strmi	r3, [r6, #0]
2405b90a:	6825      	ldr	r5, [r4, #0]
2405b90c:	f015 0506 	ands.w	r5, r5, #6
2405b910:	d106      	bne.n	2405b920 <_printf_common+0x48>
2405b912:	f104 0a19 	add.w	sl, r4, #25
2405b916:	68e3      	ldr	r3, [r4, #12]
2405b918:	6832      	ldr	r2, [r6, #0]
2405b91a:	1a9b      	subs	r3, r3, r2
2405b91c:	42ab      	cmp	r3, r5
2405b91e:	dc26      	bgt.n	2405b96e <_printf_common+0x96>
2405b920:	f894 3043 	ldrb.w	r3, [r4, #67]	@ 0x43
2405b924:	6822      	ldr	r2, [r4, #0]
2405b926:	3b00      	subs	r3, #0
2405b928:	bf18      	it	ne
2405b92a:	2301      	movne	r3, #1
2405b92c:	0692      	lsls	r2, r2, #26
2405b92e:	d42b      	bmi.n	2405b988 <_printf_common+0xb0>
2405b930:	f104 0243 	add.w	r2, r4, #67	@ 0x43
2405b934:	4641      	mov	r1, r8
2405b936:	4638      	mov	r0, r7
2405b938:	47c8      	blx	r9
2405b93a:	3001      	adds	r0, #1
2405b93c:	d01e      	beq.n	2405b97c <_printf_common+0xa4>
2405b93e:	6823      	ldr	r3, [r4, #0]
2405b940:	6922      	ldr	r2, [r4, #16]
2405b942:	f003 0306 	and.w	r3, r3, #6
2405b946:	2b04      	cmp	r3, #4
2405b948:	bf02      	ittt	eq
2405b94a:	68e5      	ldreq	r5, [r4, #12]
2405b94c:	6833      	ldreq	r3, [r6, #0]
2405b94e:	1aed      	subeq	r5, r5, r3
2405b950:	68a3      	ldr	r3, [r4, #8]
2405b952:	bf0c      	ite	eq
2405b954:	ea25 75e5 	biceq.w	r5, r5, r5, asr #31
2405b958:	2500      	movne	r5, #0
2405b95a:	4293      	cmp	r3, r2
2405b95c:	bfc4      	itt	gt
2405b95e:	1a9b      	subgt	r3, r3, r2
2405b960:	18ed      	addgt	r5, r5, r3
2405b962:	2600      	movs	r6, #0
2405b964:	341a      	adds	r4, #26
2405b966:	42b5      	cmp	r5, r6
2405b968:	d11a      	bne.n	2405b9a0 <_printf_common+0xc8>
2405b96a:	2000      	movs	r0, #0
2405b96c:	e008      	b.n	2405b980 <_printf_common+0xa8>
2405b96e:	2301      	movs	r3, #1
2405b970:	4652      	mov	r2, sl
2405b972:	4641      	mov	r1, r8
2405b974:	4638      	mov	r0, r7
2405b976:	47c8      	blx	r9
2405b978:	3001      	adds	r0, #1
2405b97a:	d103      	bne.n	2405b984 <_printf_common+0xac>
2405b97c:	f04f 30ff 	mov.w	r0, #4294967295
2405b980:	e8bd 87f0 	ldmia.w	sp!, {r4, r5, r6, r7, r8, r9, sl, pc}
2405b984:	3501      	adds	r5, #1
2405b986:	e7c6      	b.n	2405b916 <_printf_common+0x3e>
2405b988:	18e1      	adds	r1, r4, r3
2405b98a:	1c5a      	adds	r2, r3, #1
2405b98c:	2030      	movs	r0, #48	@ 0x30
2405b98e:	f881 0043 	strb.w	r0, [r1, #67]	@ 0x43
2405b992:	4422      	add	r2, r4
2405b994:	f894 1045 	ldrb.w	r1, [r4, #69]	@ 0x45
2405b998:	f882 1043 	strb.w	r1, [r2, #67]	@ 0x43
2405b99c:	3302      	adds	r3, #2
2405b99e:	e7c7      	b.n	2405b930 <_printf_common+0x58>
2405b9a0:	2301      	movs	r3, #1
2405b9a2:	4622      	mov	r2, r4
2405b9a4:	4641      	mov	r1, r8
2405b9a6:	4638      	mov	r0, r7
2405b9a8:	47c8      	blx	r9
2405b9aa:	3001      	adds	r0, #1
2405b9ac:	d0e6      	beq.n	2405b97c <_printf_common+0xa4>
2405b9ae:	3601      	adds	r6, #1
2405b9b0:	e7d9      	b.n	2405b966 <_printf_common+0x8e>
	...

2405b9b4 <_printf_i>:
2405b9b4:	e92d 47ff 	stmdb	sp!, {r0, r1, r2, r3, r4, r5, r6, r7, r8, r9, sl, lr}
2405b9b8:	7e0f      	ldrb	r7, [r1, #24]
2405b9ba:	9e0c      	ldr	r6, [sp, #48]	@ 0x30
2405b9bc:	2f78      	cmp	r7, #120	@ 0x78
2405b9be:	4691      	mov	r9, r2
2405b9c0:	4680      	mov	r8, r0
2405b9c2:	460c      	mov	r4, r1
2405b9c4:	469a      	mov	sl, r3
2405b9c6:	f101 0243 	add.w	r2, r1, #67	@ 0x43
2405b9ca:	d807      	bhi.n	2405b9dc <_printf_i+0x28>
2405b9cc:	2f62      	cmp	r7, #98	@ 0x62
2405b9ce:	d80a      	bhi.n	2405b9e6 <_printf_i+0x32>
2405b9d0:	2f00      	cmp	r7, #0
2405b9d2:	f000 80d2 	beq.w	2405bb7a <_printf_i+0x1c6>
2405b9d6:	2f58      	cmp	r7, #88	@ 0x58
2405b9d8:	f000 80b9 	beq.w	2405bb4e <_printf_i+0x19a>
2405b9dc:	f104 0642 	add.w	r6, r4, #66	@ 0x42
2405b9e0:	f884 7042 	strb.w	r7, [r4, #66]	@ 0x42
2405b9e4:	e03a      	b.n	2405ba5c <_printf_i+0xa8>
2405b9e6:	f1a7 0363 	sub.w	r3, r7, #99	@ 0x63
2405b9ea:	2b15      	cmp	r3, #21
2405b9ec:	d8f6      	bhi.n	2405b9dc <_printf_i+0x28>
2405b9ee:	a101      	add	r1, pc, #4	@ (adr r1, 2405b9f4 <_printf_i+0x40>)
2405b9f0:	f851 f023 	ldr.w	pc, [r1, r3, lsl #2]
2405b9f4:	2405ba4d 	.word	0x2405ba4d
2405b9f8:	2405ba61 	.word	0x2405ba61
2405b9fc:	2405b9dd 	.word	0x2405b9dd
2405ba00:	2405b9dd 	.word	0x2405b9dd
2405ba04:	2405b9dd 	.word	0x2405b9dd
2405ba08:	2405b9dd 	.word	0x2405b9dd
2405ba0c:	2405ba61 	.word	0x2405ba61
2405ba10:	2405b9dd 	.word	0x2405b9dd
2405ba14:	2405b9dd 	.word	0x2405b9dd
2405ba18:	2405b9dd 	.word	0x2405b9dd
2405ba1c:	2405b9dd 	.word	0x2405b9dd
2405ba20:	2405bb61 	.word	0x2405bb61
2405ba24:	2405ba8b 	.word	0x2405ba8b
2405ba28:	2405bb1b 	.word	0x2405bb1b
2405ba2c:	2405b9dd 	.word	0x2405b9dd
2405ba30:	2405b9dd 	.word	0x2405b9dd
2405ba34:	2405bb83 	.word	0x2405bb83
2405ba38:	2405b9dd 	.word	0x2405b9dd
2405ba3c:	2405ba8b 	.word	0x2405ba8b
2405ba40:	2405b9dd 	.word	0x2405b9dd
2405ba44:	2405b9dd 	.word	0x2405b9dd
2405ba48:	2405bb23 	.word	0x2405bb23
2405ba4c:	6833      	ldr	r3, [r6, #0]
2405ba4e:	1d1a      	adds	r2, r3, #4
2405ba50:	681b      	ldr	r3, [r3, #0]
2405ba52:	6032      	str	r2, [r6, #0]
2405ba54:	f104 0642 	add.w	r6, r4, #66	@ 0x42
2405ba58:	f884 3042 	strb.w	r3, [r4, #66]	@ 0x42
2405ba5c:	2301      	movs	r3, #1
2405ba5e:	e09d      	b.n	2405bb9c <_printf_i+0x1e8>
2405ba60:	6833      	ldr	r3, [r6, #0]
2405ba62:	6820      	ldr	r0, [r4, #0]
2405ba64:	1d19      	adds	r1, r3, #4
2405ba66:	6031      	str	r1, [r6, #0]
2405ba68:	0606      	lsls	r6, r0, #24
2405ba6a:	d501      	bpl.n	2405ba70 <_printf_i+0xbc>
2405ba6c:	681d      	ldr	r5, [r3, #0]
2405ba6e:	e003      	b.n	2405ba78 <_printf_i+0xc4>
2405ba70:	0645      	lsls	r5, r0, #25
2405ba72:	d5fb      	bpl.n	2405ba6c <_printf_i+0xb8>
2405ba74:	f9b3 5000 	ldrsh.w	r5, [r3]
2405ba78:	2d00      	cmp	r5, #0
2405ba7a:	da03      	bge.n	2405ba84 <_printf_i+0xd0>
2405ba7c:	232d      	movs	r3, #45	@ 0x2d
2405ba7e:	426d      	negs	r5, r5
2405ba80:	f884 3043 	strb.w	r3, [r4, #67]	@ 0x43
2405ba84:	4859      	ldr	r0, [pc, #356]	@ (2405bbec <_printf_i+0x238>)
2405ba86:	230a      	movs	r3, #10
2405ba88:	e011      	b.n	2405baae <_printf_i+0xfa>
2405ba8a:	6821      	ldr	r1, [r4, #0]
2405ba8c:	6833      	ldr	r3, [r6, #0]
2405ba8e:	0608      	lsls	r0, r1, #24
2405ba90:	f853 5b04 	ldr.w	r5, [r3], #4
2405ba94:	d402      	bmi.n	2405ba9c <_printf_i+0xe8>
2405ba96:	0649      	lsls	r1, r1, #25
2405ba98:	bf48      	it	mi
2405ba9a:	b2ad      	uxthmi	r5, r5
2405ba9c:	2f6f      	cmp	r7, #111	@ 0x6f
2405ba9e:	4853      	ldr	r0, [pc, #332]	@ (2405bbec <_printf_i+0x238>)
2405baa0:	6033      	str	r3, [r6, #0]
2405baa2:	bf14      	ite	ne
2405baa4:	230a      	movne	r3, #10
2405baa6:	2308      	moveq	r3, #8
2405baa8:	2100      	movs	r1, #0
2405baaa:	f884 1043 	strb.w	r1, [r4, #67]	@ 0x43
2405baae:	6866      	ldr	r6, [r4, #4]
2405bab0:	60a6      	str	r6, [r4, #8]
2405bab2:	2e00      	cmp	r6, #0
2405bab4:	bfa2      	ittt	ge
2405bab6:	6821      	ldrge	r1, [r4, #0]
2405bab8:	f021 0104 	bicge.w	r1, r1, #4
2405babc:	6021      	strge	r1, [r4, #0]
2405babe:	b90d      	cbnz	r5, 2405bac4 <_printf_i+0x110>
2405bac0:	2e00      	cmp	r6, #0
2405bac2:	d04b      	beq.n	2405bb5c <_printf_i+0x1a8>
2405bac4:	4616      	mov	r6, r2
2405bac6:	fbb5 f1f3 	udiv	r1, r5, r3
2405baca:	fb03 5711 	mls	r7, r3, r1, r5
2405bace:	5dc7      	ldrb	r7, [r0, r7]
2405bad0:	f806 7d01 	strb.w	r7, [r6, #-1]!
2405bad4:	462f      	mov	r7, r5
2405bad6:	42bb      	cmp	r3, r7
2405bad8:	460d      	mov	r5, r1
2405bada:	d9f4      	bls.n	2405bac6 <_printf_i+0x112>
2405badc:	2b08      	cmp	r3, #8
2405bade:	d10b      	bne.n	2405baf8 <_printf_i+0x144>
2405bae0:	6823      	ldr	r3, [r4, #0]
2405bae2:	07df      	lsls	r7, r3, #31
2405bae4:	d508      	bpl.n	2405baf8 <_printf_i+0x144>
2405bae6:	6923      	ldr	r3, [r4, #16]
2405bae8:	6861      	ldr	r1, [r4, #4]
2405baea:	4299      	cmp	r1, r3
2405baec:	bfde      	ittt	le
2405baee:	2330      	movle	r3, #48	@ 0x30
2405baf0:	f806 3c01 	strble.w	r3, [r6, #-1]
2405baf4:	f106 36ff 	addle.w	r6, r6, #4294967295
2405baf8:	1b92      	subs	r2, r2, r6
2405bafa:	6122      	str	r2, [r4, #16]
2405bafc:	f8cd a000 	str.w	sl, [sp]
2405bb00:	464b      	mov	r3, r9
2405bb02:	aa03      	add	r2, sp, #12
2405bb04:	4621      	mov	r1, r4
2405bb06:	4640      	mov	r0, r8
2405bb08:	f7ff fee6 	bl	2405b8d8 <_printf_common>
2405bb0c:	3001      	adds	r0, #1
2405bb0e:	d14a      	bne.n	2405bba6 <_printf_i+0x1f2>
2405bb10:	f04f 30ff 	mov.w	r0, #4294967295
2405bb14:	b004      	add	sp, #16
2405bb16:	e8bd 87f0 	ldmia.w	sp!, {r4, r5, r6, r7, r8, r9, sl, pc}
2405bb1a:	6823      	ldr	r3, [r4, #0]
2405bb1c:	f043 0320 	orr.w	r3, r3, #32
2405bb20:	6023      	str	r3, [r4, #0]
2405bb22:	4833      	ldr	r0, [pc, #204]	@ (2405bbf0 <_printf_i+0x23c>)
2405bb24:	2778      	movs	r7, #120	@ 0x78
2405bb26:	f884 7045 	strb.w	r7, [r4, #69]	@ 0x45
2405bb2a:	6823      	ldr	r3, [r4, #0]
2405bb2c:	6831      	ldr	r1, [r6, #0]
2405bb2e:	061f      	lsls	r7, r3, #24
2405bb30:	f851 5b04 	ldr.w	r5, [r1], #4
2405bb34:	d402      	bmi.n	2405bb3c <_printf_i+0x188>
2405bb36:	065f      	lsls	r7, r3, #25
2405bb38:	bf48      	it	mi
2405bb3a:	b2ad      	uxthmi	r5, r5
2405bb3c:	6031      	str	r1, [r6, #0]
2405bb3e:	07d9      	lsls	r1, r3, #31
2405bb40:	bf44      	itt	mi
2405bb42:	f043 0320 	orrmi.w	r3, r3, #32
2405bb46:	6023      	strmi	r3, [r4, #0]
2405bb48:	b11d      	cbz	r5, 2405bb52 <_printf_i+0x19e>
2405bb4a:	2310      	movs	r3, #16
2405bb4c:	e7ac      	b.n	2405baa8 <_printf_i+0xf4>
2405bb4e:	4827      	ldr	r0, [pc, #156]	@ (2405bbec <_printf_i+0x238>)
2405bb50:	e7e9      	b.n	2405bb26 <_printf_i+0x172>
2405bb52:	6823      	ldr	r3, [r4, #0]
2405bb54:	f023 0320 	bic.w	r3, r3, #32
2405bb58:	6023      	str	r3, [r4, #0]
2405bb5a:	e7f6      	b.n	2405bb4a <_printf_i+0x196>
2405bb5c:	4616      	mov	r6, r2
2405bb5e:	e7bd      	b.n	2405badc <_printf_i+0x128>
2405bb60:	6833      	ldr	r3, [r6, #0]
2405bb62:	6825      	ldr	r5, [r4, #0]
2405bb64:	6961      	ldr	r1, [r4, #20]
2405bb66:	1d18      	adds	r0, r3, #4
2405bb68:	6030      	str	r0, [r6, #0]
2405bb6a:	062e      	lsls	r6, r5, #24
2405bb6c:	681b      	ldr	r3, [r3, #0]
2405bb6e:	d501      	bpl.n	2405bb74 <_printf_i+0x1c0>
2405bb70:	6019      	str	r1, [r3, #0]
2405bb72:	e002      	b.n	2405bb7a <_printf_i+0x1c6>
2405bb74:	0668      	lsls	r0, r5, #25
2405bb76:	d5fb      	bpl.n	2405bb70 <_printf_i+0x1bc>
2405bb78:	8019      	strh	r1, [r3, #0]
2405bb7a:	2300      	movs	r3, #0
2405bb7c:	6123      	str	r3, [r4, #16]
2405bb7e:	4616      	mov	r6, r2
2405bb80:	e7bc      	b.n	2405bafc <_printf_i+0x148>
2405bb82:	6833      	ldr	r3, [r6, #0]
2405bb84:	1d1a      	adds	r2, r3, #4
2405bb86:	6032      	str	r2, [r6, #0]
2405bb88:	681e      	ldr	r6, [r3, #0]
2405bb8a:	6862      	ldr	r2, [r4, #4]
2405bb8c:	2100      	movs	r1, #0
2405bb8e:	4630      	mov	r0, r6
2405bb90:	f7f4 fa5e 	bl	24050050 <memchr>
2405bb94:	b108      	cbz	r0, 2405bb9a <_printf_i+0x1e6>
2405bb96:	1b80      	subs	r0, r0, r6
2405bb98:	6060      	str	r0, [r4, #4]
2405bb9a:	6863      	ldr	r3, [r4, #4]
2405bb9c:	6123      	str	r3, [r4, #16]
2405bb9e:	2300      	movs	r3, #0
2405bba0:	f884 3043 	strb.w	r3, [r4, #67]	@ 0x43
2405bba4:	e7aa      	b.n	2405bafc <_printf_i+0x148>
2405bba6:	6923      	ldr	r3, [r4, #16]
2405bba8:	4632      	mov	r2, r6
2405bbaa:	4649      	mov	r1, r9
2405bbac:	4640      	mov	r0, r8
2405bbae:	47d0      	blx	sl
2405bbb0:	3001      	adds	r0, #1
2405bbb2:	d0ad      	beq.n	2405bb10 <_printf_i+0x15c>
2405bbb4:	6823      	ldr	r3, [r4, #0]
2405bbb6:	079b      	lsls	r3, r3, #30
2405bbb8:	d413      	bmi.n	2405bbe2 <_printf_i+0x22e>
2405bbba:	68e0      	ldr	r0, [r4, #12]
2405bbbc:	9b03      	ldr	r3, [sp, #12]
2405bbbe:	4298      	cmp	r0, r3
2405bbc0:	bfb8      	it	lt
2405bbc2:	4618      	movlt	r0, r3
2405bbc4:	e7a6      	b.n	2405bb14 <_printf_i+0x160>
2405bbc6:	2301      	movs	r3, #1
2405bbc8:	4632      	mov	r2, r6
2405bbca:	4649      	mov	r1, r9
2405bbcc:	4640      	mov	r0, r8
2405bbce:	47d0      	blx	sl
2405bbd0:	3001      	adds	r0, #1
2405bbd2:	d09d      	beq.n	2405bb10 <_printf_i+0x15c>
2405bbd4:	3501      	adds	r5, #1
2405bbd6:	68e3      	ldr	r3, [r4, #12]
2405bbd8:	9903      	ldr	r1, [sp, #12]
2405bbda:	1a5b      	subs	r3, r3, r1
2405bbdc:	42ab      	cmp	r3, r5
2405bbde:	dcf2      	bgt.n	2405bbc6 <_printf_i+0x212>
2405bbe0:	e7eb      	b.n	2405bbba <_printf_i+0x206>
2405bbe2:	2500      	movs	r5, #0
2405bbe4:	f104 0619 	add.w	r6, r4, #25
2405bbe8:	e7f5      	b.n	2405bbd6 <_printf_i+0x222>
2405bbea:	bf00      	nop
2405bbec:	2406030a 	.word	0x2406030a
2405bbf0:	2406031b 	.word	0x2406031b

2405bbf4 <__sflush_r>:
2405bbf4:	f9b1 200c 	ldrsh.w	r2, [r1, #12]
2405bbf8:	e92d 41f0 	stmdb	sp!, {r4, r5, r6, r7, r8, lr}
2405bbfc:	0716      	lsls	r6, r2, #28
2405bbfe:	4605      	mov	r5, r0
2405bc00:	460c      	mov	r4, r1
2405bc02:	d454      	bmi.n	2405bcae <__sflush_r+0xba>
2405bc04:	684b      	ldr	r3, [r1, #4]
2405bc06:	2b00      	cmp	r3, #0
2405bc08:	dc02      	bgt.n	2405bc10 <__sflush_r+0x1c>
2405bc0a:	6c0b      	ldr	r3, [r1, #64]	@ 0x40
2405bc0c:	2b00      	cmp	r3, #0
2405bc0e:	dd48      	ble.n	2405bca2 <__sflush_r+0xae>
2405bc10:	6ae6      	ldr	r6, [r4, #44]	@ 0x2c
2405bc12:	2e00      	cmp	r6, #0
2405bc14:	d045      	beq.n	2405bca2 <__sflush_r+0xae>
2405bc16:	2300      	movs	r3, #0
2405bc18:	f412 5280 	ands.w	r2, r2, #4096	@ 0x1000
2405bc1c:	682f      	ldr	r7, [r5, #0]
2405bc1e:	6a21      	ldr	r1, [r4, #32]
2405bc20:	602b      	str	r3, [r5, #0]
2405bc22:	d030      	beq.n	2405bc86 <__sflush_r+0x92>
2405bc24:	6d62      	ldr	r2, [r4, #84]	@ 0x54
2405bc26:	89a3      	ldrh	r3, [r4, #12]
2405bc28:	0759      	lsls	r1, r3, #29
2405bc2a:	d505      	bpl.n	2405bc38 <__sflush_r+0x44>
2405bc2c:	6863      	ldr	r3, [r4, #4]
2405bc2e:	1ad2      	subs	r2, r2, r3
2405bc30:	6b63      	ldr	r3, [r4, #52]	@ 0x34
2405bc32:	b10b      	cbz	r3, 2405bc38 <__sflush_r+0x44>
2405bc34:	6c23      	ldr	r3, [r4, #64]	@ 0x40
2405bc36:	1ad2      	subs	r2, r2, r3
2405bc38:	2300      	movs	r3, #0
2405bc3a:	6ae6      	ldr	r6, [r4, #44]	@ 0x2c
2405bc3c:	6a21      	ldr	r1, [r4, #32]
2405bc3e:	4628      	mov	r0, r5
2405bc40:	47b0      	blx	r6
2405bc42:	1c43      	adds	r3, r0, #1
2405bc44:	89a3      	ldrh	r3, [r4, #12]
2405bc46:	d106      	bne.n	2405bc56 <__sflush_r+0x62>
2405bc48:	6829      	ldr	r1, [r5, #0]
2405bc4a:	291d      	cmp	r1, #29
2405bc4c:	d82b      	bhi.n	2405bca6 <__sflush_r+0xb2>
2405bc4e:	4a2a      	ldr	r2, [pc, #168]	@ (2405bcf8 <__sflush_r+0x104>)
2405bc50:	410a      	asrs	r2, r1
2405bc52:	07d6      	lsls	r6, r2, #31
2405bc54:	d427      	bmi.n	2405bca6 <__sflush_r+0xb2>
2405bc56:	2200      	movs	r2, #0
2405bc58:	6062      	str	r2, [r4, #4]
2405bc5a:	04d9      	lsls	r1, r3, #19
2405bc5c:	6922      	ldr	r2, [r4, #16]
2405bc5e:	6022      	str	r2, [r4, #0]
2405bc60:	d504      	bpl.n	2405bc6c <__sflush_r+0x78>
2405bc62:	1c42      	adds	r2, r0, #1
2405bc64:	d101      	bne.n	2405bc6a <__sflush_r+0x76>
2405bc66:	682b      	ldr	r3, [r5, #0]
2405bc68:	b903      	cbnz	r3, 2405bc6c <__sflush_r+0x78>
2405bc6a:	6560      	str	r0, [r4, #84]	@ 0x54
2405bc6c:	6b61      	ldr	r1, [r4, #52]	@ 0x34
2405bc6e:	602f      	str	r7, [r5, #0]
2405bc70:	b1b9      	cbz	r1, 2405bca2 <__sflush_r+0xae>
2405bc72:	f104 0344 	add.w	r3, r4, #68	@ 0x44
2405bc76:	4299      	cmp	r1, r3
2405bc78:	d002      	beq.n	2405bc80 <__sflush_r+0x8c>
2405bc7a:	4628      	mov	r0, r5
2405bc7c:	f7ff fb40 	bl	2405b300 <_free_r>
2405bc80:	2300      	movs	r3, #0
2405bc82:	6363      	str	r3, [r4, #52]	@ 0x34
2405bc84:	e00d      	b.n	2405bca2 <__sflush_r+0xae>
2405bc86:	2301      	movs	r3, #1
2405bc88:	4628      	mov	r0, r5
2405bc8a:	47b0      	blx	r6
2405bc8c:	4602      	mov	r2, r0
2405bc8e:	1c50      	adds	r0, r2, #1
2405bc90:	d1c9      	bne.n	2405bc26 <__sflush_r+0x32>
2405bc92:	682b      	ldr	r3, [r5, #0]
2405bc94:	2b00      	cmp	r3, #0
2405bc96:	d0c6      	beq.n	2405bc26 <__sflush_r+0x32>
2405bc98:	2b1d      	cmp	r3, #29
2405bc9a:	d001      	beq.n	2405bca0 <__sflush_r+0xac>
2405bc9c:	2b16      	cmp	r3, #22
2405bc9e:	d11e      	bne.n	2405bcde <__sflush_r+0xea>
2405bca0:	602f      	str	r7, [r5, #0]
2405bca2:	2000      	movs	r0, #0
2405bca4:	e022      	b.n	2405bcec <__sflush_r+0xf8>
2405bca6:	f043 0340 	orr.w	r3, r3, #64	@ 0x40
2405bcaa:	b21b      	sxth	r3, r3
2405bcac:	e01b      	b.n	2405bce6 <__sflush_r+0xf2>
2405bcae:	690f      	ldr	r7, [r1, #16]
2405bcb0:	2f00      	cmp	r7, #0
2405bcb2:	d0f6      	beq.n	2405bca2 <__sflush_r+0xae>
2405bcb4:	0793      	lsls	r3, r2, #30
2405bcb6:	680e      	ldr	r6, [r1, #0]
2405bcb8:	bf08      	it	eq
2405bcba:	694b      	ldreq	r3, [r1, #20]
2405bcbc:	600f      	str	r7, [r1, #0]
2405bcbe:	bf18      	it	ne
2405bcc0:	2300      	movne	r3, #0
2405bcc2:	eba6 0807 	sub.w	r8, r6, r7
2405bcc6:	608b      	str	r3, [r1, #8]
2405bcc8:	f1b8 0f00 	cmp.w	r8, #0
2405bccc:	dde9      	ble.n	2405bca2 <__sflush_r+0xae>
2405bcce:	6a21      	ldr	r1, [r4, #32]
2405bcd0:	6aa6      	ldr	r6, [r4, #40]	@ 0x28
2405bcd2:	4643      	mov	r3, r8
2405bcd4:	463a      	mov	r2, r7
2405bcd6:	4628      	mov	r0, r5
2405bcd8:	47b0      	blx	r6
2405bcda:	2800      	cmp	r0, #0
2405bcdc:	dc08      	bgt.n	2405bcf0 <__sflush_r+0xfc>
2405bcde:	f9b4 300c 	ldrsh.w	r3, [r4, #12]
2405bce2:	f043 0340 	orr.w	r3, r3, #64	@ 0x40
2405bce6:	81a3      	strh	r3, [r4, #12]
2405bce8:	f04f 30ff 	mov.w	r0, #4294967295
2405bcec:	e8bd 81f0 	ldmia.w	sp!, {r4, r5, r6, r7, r8, pc}
2405bcf0:	4407      	add	r7, r0
2405bcf2:	eba8 0800 	sub.w	r8, r8, r0
2405bcf6:	e7e7      	b.n	2405bcc8 <__sflush_r+0xd4>
2405bcf8:	dfbffffe 	.word	0xdfbffffe

2405bcfc <_fflush_r>:
2405bcfc:	b538      	push	{r3, r4, r5, lr}
2405bcfe:	690b      	ldr	r3, [r1, #16]
2405bd00:	4605      	mov	r5, r0
2405bd02:	460c      	mov	r4, r1
2405bd04:	b913      	cbnz	r3, 2405bd0c <_fflush_r+0x10>
2405bd06:	2500      	movs	r5, #0
2405bd08:	4628      	mov	r0, r5
2405bd0a:	bd38      	pop	{r3, r4, r5, pc}
2405bd0c:	b118      	cbz	r0, 2405bd16 <_fflush_r+0x1a>
2405bd0e:	6a03      	ldr	r3, [r0, #32]
2405bd10:	b90b      	cbnz	r3, 2405bd16 <_fflush_r+0x1a>
2405bd12:	f7ff f88b 	bl	2405ae2c <__sinit>
2405bd16:	f9b4 300c 	ldrsh.w	r3, [r4, #12]
2405bd1a:	2b00      	cmp	r3, #0
2405bd1c:	d0f3      	beq.n	2405bd06 <_fflush_r+0xa>
2405bd1e:	6e62      	ldr	r2, [r4, #100]	@ 0x64
2405bd20:	07d0      	lsls	r0, r2, #31
2405bd22:	d404      	bmi.n	2405bd2e <_fflush_r+0x32>
2405bd24:	0599      	lsls	r1, r3, #22
2405bd26:	d402      	bmi.n	2405bd2e <_fflush_r+0x32>
2405bd28:	6da0      	ldr	r0, [r4, #88]	@ 0x58
2405bd2a:	f7ff fad2 	bl	2405b2d2 <__retarget_lock_acquire_recursive>
2405bd2e:	4628      	mov	r0, r5
2405bd30:	4621      	mov	r1, r4
2405bd32:	f7ff ff5f 	bl	2405bbf4 <__sflush_r>
2405bd36:	6e63      	ldr	r3, [r4, #100]	@ 0x64
2405bd38:	07da      	lsls	r2, r3, #31
2405bd3a:	4605      	mov	r5, r0
2405bd3c:	d4e4      	bmi.n	2405bd08 <_fflush_r+0xc>
2405bd3e:	89a3      	ldrh	r3, [r4, #12]
2405bd40:	059b      	lsls	r3, r3, #22
2405bd42:	d4e1      	bmi.n	2405bd08 <_fflush_r+0xc>
2405bd44:	6da0      	ldr	r0, [r4, #88]	@ 0x58
2405bd46:	f7ff fac5 	bl	2405b2d4 <__retarget_lock_release_recursive>
2405bd4a:	e7dd      	b.n	2405bd08 <_fflush_r+0xc>

2405bd4c <__swhatbuf_r>:
2405bd4c:	b570      	push	{r4, r5, r6, lr}
2405bd4e:	460c      	mov	r4, r1
2405bd50:	f9b1 100e 	ldrsh.w	r1, [r1, #14]
2405bd54:	2900      	cmp	r1, #0
2405bd56:	b096      	sub	sp, #88	@ 0x58
2405bd58:	4615      	mov	r5, r2
2405bd5a:	461e      	mov	r6, r3
2405bd5c:	da0d      	bge.n	2405bd7a <__swhatbuf_r+0x2e>
2405bd5e:	89a3      	ldrh	r3, [r4, #12]
2405bd60:	f013 0f80 	tst.w	r3, #128	@ 0x80
2405bd64:	f04f 0100 	mov.w	r1, #0
2405bd68:	bf14      	ite	ne
2405bd6a:	2340      	movne	r3, #64	@ 0x40
2405bd6c:	f44f 6380 	moveq.w	r3, #1024	@ 0x400
2405bd70:	2000      	movs	r0, #0
2405bd72:	6031      	str	r1, [r6, #0]
2405bd74:	602b      	str	r3, [r5, #0]
2405bd76:	b016      	add	sp, #88	@ 0x58
2405bd78:	bd70      	pop	{r4, r5, r6, pc}
2405bd7a:	466a      	mov	r2, sp
2405bd7c:	f000 f878 	bl	2405be70 <_fstat_r>
2405bd80:	2800      	cmp	r0, #0
2405bd82:	dbec      	blt.n	2405bd5e <__swhatbuf_r+0x12>
2405bd84:	9901      	ldr	r1, [sp, #4]
2405bd86:	f401 4170 	and.w	r1, r1, #61440	@ 0xf000
2405bd8a:	f5a1 5300 	sub.w	r3, r1, #8192	@ 0x2000
2405bd8e:	4259      	negs	r1, r3
2405bd90:	4159      	adcs	r1, r3
2405bd92:	f44f 6380 	mov.w	r3, #1024	@ 0x400
2405bd96:	e7eb      	b.n	2405bd70 <__swhatbuf_r+0x24>

2405bd98 <__smakebuf_r>:
2405bd98:	898b      	ldrh	r3, [r1, #12]
2405bd9a:	b5f7      	push	{r0, r1, r2, r4, r5, r6, r7, lr}
2405bd9c:	079d      	lsls	r5, r3, #30
2405bd9e:	4606      	mov	r6, r0
2405bda0:	460c      	mov	r4, r1
2405bda2:	d507      	bpl.n	2405bdb4 <__smakebuf_r+0x1c>
2405bda4:	f104 0347 	add.w	r3, r4, #71	@ 0x47
2405bda8:	6023      	str	r3, [r4, #0]
2405bdaa:	6123      	str	r3, [r4, #16]
2405bdac:	2301      	movs	r3, #1
2405bdae:	6163      	str	r3, [r4, #20]
2405bdb0:	b003      	add	sp, #12
2405bdb2:	bdf0      	pop	{r4, r5, r6, r7, pc}
2405bdb4:	ab01      	add	r3, sp, #4
2405bdb6:	466a      	mov	r2, sp
2405bdb8:	f7ff ffc8 	bl	2405bd4c <__swhatbuf_r>
2405bdbc:	9f00      	ldr	r7, [sp, #0]
2405bdbe:	4605      	mov	r5, r0
2405bdc0:	4639      	mov	r1, r7
2405bdc2:	4630      	mov	r0, r6
2405bdc4:	f7fe fe80 	bl	2405aac8 <_malloc_r>
2405bdc8:	b948      	cbnz	r0, 2405bdde <__smakebuf_r+0x46>
2405bdca:	f9b4 300c 	ldrsh.w	r3, [r4, #12]
2405bdce:	059a      	lsls	r2, r3, #22
2405bdd0:	d4ee      	bmi.n	2405bdb0 <__smakebuf_r+0x18>
2405bdd2:	f023 0303 	bic.w	r3, r3, #3
2405bdd6:	f043 0302 	orr.w	r3, r3, #2
2405bdda:	81a3      	strh	r3, [r4, #12]
2405bddc:	e7e2      	b.n	2405bda4 <__smakebuf_r+0xc>
2405bdde:	89a3      	ldrh	r3, [r4, #12]
2405bde0:	6020      	str	r0, [r4, #0]
2405bde2:	f043 0380 	orr.w	r3, r3, #128	@ 0x80
2405bde6:	81a3      	strh	r3, [r4, #12]
2405bde8:	9b01      	ldr	r3, [sp, #4]
2405bdea:	e9c4 0704 	strd	r0, r7, [r4, #16]
2405bdee:	b15b      	cbz	r3, 2405be08 <__smakebuf_r+0x70>
2405bdf0:	f9b4 100e 	ldrsh.w	r1, [r4, #14]
2405bdf4:	4630      	mov	r0, r6
2405bdf6:	f000 f84d 	bl	2405be94 <_isatty_r>
2405bdfa:	b128      	cbz	r0, 2405be08 <__smakebuf_r+0x70>
2405bdfc:	89a3      	ldrh	r3, [r4, #12]
2405bdfe:	f023 0303 	bic.w	r3, r3, #3
2405be02:	f043 0301 	orr.w	r3, r3, #1
2405be06:	81a3      	strh	r3, [r4, #12]
2405be08:	89a3      	ldrh	r3, [r4, #12]
2405be0a:	431d      	orrs	r5, r3
2405be0c:	81a5      	strh	r5, [r4, #12]
2405be0e:	e7cf      	b.n	2405bdb0 <__smakebuf_r+0x18>

2405be10 <_raise_r>:
2405be10:	291f      	cmp	r1, #31
2405be12:	b538      	push	{r3, r4, r5, lr}
2405be14:	4605      	mov	r5, r0
2405be16:	460c      	mov	r4, r1
2405be18:	d904      	bls.n	2405be24 <_raise_r+0x14>
2405be1a:	2316      	movs	r3, #22
2405be1c:	6003      	str	r3, [r0, #0]
2405be1e:	f04f 30ff 	mov.w	r0, #4294967295
2405be22:	bd38      	pop	{r3, r4, r5, pc}
2405be24:	6bc2      	ldr	r2, [r0, #60]	@ 0x3c
2405be26:	b112      	cbz	r2, 2405be2e <_raise_r+0x1e>
2405be28:	f852 3021 	ldr.w	r3, [r2, r1, lsl #2]
2405be2c:	b94b      	cbnz	r3, 2405be42 <_raise_r+0x32>
2405be2e:	4628      	mov	r0, r5
2405be30:	f000 f852 	bl	2405bed8 <_getpid_r>
2405be34:	4622      	mov	r2, r4
2405be36:	4601      	mov	r1, r0
2405be38:	4628      	mov	r0, r5
2405be3a:	e8bd 4038 	ldmia.w	sp!, {r3, r4, r5, lr}
2405be3e:	f000 b839 	b.w	2405beb4 <_kill_r>
2405be42:	2b01      	cmp	r3, #1
2405be44:	d00a      	beq.n	2405be5c <_raise_r+0x4c>
2405be46:	1c59      	adds	r1, r3, #1
2405be48:	d103      	bne.n	2405be52 <_raise_r+0x42>
2405be4a:	2316      	movs	r3, #22
2405be4c:	6003      	str	r3, [r0, #0]
2405be4e:	2001      	movs	r0, #1
2405be50:	e7e7      	b.n	2405be22 <_raise_r+0x12>
2405be52:	2100      	movs	r1, #0
2405be54:	f842 1024 	str.w	r1, [r2, r4, lsl #2]
2405be58:	4620      	mov	r0, r4
2405be5a:	4798      	blx	r3
2405be5c:	2000      	movs	r0, #0
2405be5e:	e7e0      	b.n	2405be22 <_raise_r+0x12>

2405be60 <raise>:
2405be60:	4b02      	ldr	r3, [pc, #8]	@ (2405be6c <raise+0xc>)
2405be62:	4601      	mov	r1, r0
2405be64:	6818      	ldr	r0, [r3, #0]
2405be66:	f7ff bfd3 	b.w	2405be10 <_raise_r>
2405be6a:	bf00      	nop
2405be6c:	200000c4 	.word	0x200000c4

2405be70 <_fstat_r>:
2405be70:	b538      	push	{r3, r4, r5, lr}
2405be72:	4d07      	ldr	r5, [pc, #28]	@ (2405be90 <_fstat_r+0x20>)
2405be74:	2300      	movs	r3, #0
2405be76:	4604      	mov	r4, r0
2405be78:	4608      	mov	r0, r1
2405be7a:	4611      	mov	r1, r2
2405be7c:	602b      	str	r3, [r5, #0]
2405be7e:	f7f8 f936 	bl	240540ee <_fstat>
2405be82:	1c43      	adds	r3, r0, #1
2405be84:	d102      	bne.n	2405be8c <_fstat_r+0x1c>
2405be86:	682b      	ldr	r3, [r5, #0]
2405be88:	b103      	cbz	r3, 2405be8c <_fstat_r+0x1c>
2405be8a:	6023      	str	r3, [r4, #0]
2405be8c:	bd38      	pop	{r3, r4, r5, pc}
2405be8e:	bf00      	nop
2405be90:	2000078c 	.word	0x2000078c

2405be94 <_isatty_r>:
2405be94:	b538      	push	{r3, r4, r5, lr}
2405be96:	4d06      	ldr	r5, [pc, #24]	@ (2405beb0 <_isatty_r+0x1c>)
2405be98:	2300      	movs	r3, #0
2405be9a:	4604      	mov	r4, r0
2405be9c:	4608      	mov	r0, r1
2405be9e:	602b      	str	r3, [r5, #0]
2405bea0:	f7f8 f92a 	bl	240540f8 <_isatty>
2405bea4:	1c43      	adds	r3, r0, #1
2405bea6:	d102      	bne.n	2405beae <_isatty_r+0x1a>
2405bea8:	682b      	ldr	r3, [r5, #0]
2405beaa:	b103      	cbz	r3, 2405beae <_isatty_r+0x1a>
2405beac:	6023      	str	r3, [r4, #0]
2405beae:	bd38      	pop	{r3, r4, r5, pc}
2405beb0:	2000078c 	.word	0x2000078c

2405beb4 <_kill_r>:
2405beb4:	b538      	push	{r3, r4, r5, lr}
2405beb6:	4d07      	ldr	r5, [pc, #28]	@ (2405bed4 <_kill_r+0x20>)
2405beb8:	2300      	movs	r3, #0
2405beba:	4604      	mov	r4, r0
2405bebc:	4608      	mov	r0, r1
2405bebe:	4611      	mov	r1, r2
2405bec0:	602b      	str	r3, [r5, #0]
2405bec2:	f7f8 f8e7 	bl	24054094 <_kill>
2405bec6:	1c43      	adds	r3, r0, #1
2405bec8:	d102      	bne.n	2405bed0 <_kill_r+0x1c>
2405beca:	682b      	ldr	r3, [r5, #0]
2405becc:	b103      	cbz	r3, 2405bed0 <_kill_r+0x1c>
2405bece:	6023      	str	r3, [r4, #0]
2405bed0:	bd38      	pop	{r3, r4, r5, pc}
2405bed2:	bf00      	nop
2405bed4:	2000078c 	.word	0x2000078c

2405bed8 <_getpid_r>:
2405bed8:	f7f8 b8da 	b.w	24054090 <_getpid>

2405bedc <_init>:
2405bedc:	b5f8      	push	{r3, r4, r5, r6, r7, lr}
2405bede:	bf00      	nop
2405bee0:	bcf8      	pop	{r3, r4, r5, r6, r7}
2405bee2:	bc08      	pop	{r3}
2405bee4:	469e      	mov	lr, r3
2405bee6:	4770      	bx	lr

2405bee8 <_fini>:
2405bee8:	b5f8      	push	{r3, r4, r5, r6, r7, lr}
2405beea:	bf00      	nop
2405beec:	bcf8      	pop	{r3, r4, r5, r6, r7}
2405beee:	bc08      	pop	{r3}
2405bef0:	469e      	mov	lr, r3
2405bef2:	4770      	bx	lr
