
GamePong.elf:     file format elf32-littlearm

Sections:
Idx Name          Size      VMA       LMA       File off  Algn
  0 .isr_vector   000002ac  24000000  24000000  00010000  2**0
                  CONTENTS, ALLOC, LOAD, READONLY, DATA
  1 ._itcram      00000000  00000100  00000100  000300a4  2**0
                  CONTENTS
  2 ._itcram_hot  00000000  00000100  00000100  000300a4  2**0
                  CONTENTS
  3 ._ram_uc      0004b000  240002b0  240002b0  000102ac  2**4
                  ALLOC
  4 ._ram_exec    00000000  24050000  24050000  000300a4  2**0
                  CONTENTS
  5 ._extflash    00000000  90000000  90000000  000300a4  2**0
                  CONTENTS
  6 ._configflash 00000000  900ff000  900ff000  000300a4  2**0
                  CONTENTS
  7 ._ram         00000000  24050000  24050000  000300a4  2**0
                  CONTENTS
  8 ._ahbram      00017700  30000000  30000000  00040000  2**1
                  ALLOC
  9 .text         00008fb0  24050000  24050000  00020000  2**4
                  CONTENTS, ALLOC, LOAD, READONLY, CODE
 10 .rodata       000011e0  24058fb0  24058fb0  00028fb0  2**2
                  CONTENTS, ALLOC, LOAD, READONLY, DATA
 11 .init_array   00000004  2405a190  2405a190  0002a190  2**2
                  CONTENTS, ALLOC, LOAD, DATA
 12 .fini_array   00000004  2405a194  2405a194  0002a194  2**2
                  CONTENTS, ALLOC, LOAD, DATA
 13 .data         000000a4  20000000  2405a198  00030000  2**2
                  CONTENTS, ALLOC, LOAD, DATA
 14 ._flash_end   00000000  2405a198  2405a198  000300a4  2**0
                  CONTENTS
 15 .bss          00000548  200000a4  200000a4  000100a4  2**2
                  ALLOC
 16 ._persistent  00000004  200005ec  200005ec  000100a4  2**0
                  ALLOC
 17 ._user_heap   00008000  200005f0  200005f0  000100a4  2**0
                  ALLOC
 18 ._user_stack  00017a10  200085f0  200085f0  000100a4  2**0
                  ALLOC
 19 .ARM.attributes 0000002e  00000000  00000000  000300a4  2**0
                  CONTENTS, READONLY
 20 .comment      00000053  00000000  00000000  000300d2  2**0
                  CONTENTS, READONLY
 21 .debug_frame  00000ba8  00000000  00000000  00030128  2**2
                  CONTENTS, READONLY, DEBUGGING, OCTETS

Disassembly of section .text:

24050000 <__do_global_dtors_aux>:
24050000:	b510      	push	{r4, lr}
24050002:	4c05      	ldr	r4, [pc, #20]	; (24050018 <__do_global_dtors_aux+0x18>)
24050004:	7823      	ldrb	r3, [r4, #0]
24050006:	b933      	cbnz	r3, 24050016 <__do_global_dtors_aux+0x16>
24050008:	4b04      	ldr	r3, [pc, #16]	; (2405001c <__do_global_dtors_aux+0x1c>)
2405000a:	b113      	cbz	r3, 24050012 <__do_global_dtors_aux+0x12>
2405000c:	4804      	ldr	r0, [pc, #16]	; (24050020 <__do_global_dtors_aux+0x20>)
2405000e:	f3af 8000 	nop.w
24050012:	2301      	movs	r3, #1
24050014:	7023      	strb	r3, [r4, #0]
24050016:	bd10      	pop	{r4, pc}
24050018:	200000a4 	.word	0x200000a4
2405001c:	00000000 	.word	0x00000000
24050020:	24058f98 	.word	0x24058f98

24050024 <frame_dummy>:
24050024:	b508      	push	{r3, lr}
24050026:	4b03      	ldr	r3, [pc, #12]	; (24050034 <frame_dummy+0x10>)
24050028:	b11b      	cbz	r3, 24050032 <frame_dummy+0xe>
2405002a:	4903      	ldr	r1, [pc, #12]	; (24050038 <frame_dummy+0x14>)
2405002c:	4803      	ldr	r0, [pc, #12]	; (2405003c <frame_dummy+0x18>)
2405002e:	f3af 8000 	nop.w
24050032:	bd08      	pop	{r3, pc}
24050034:	00000000 	.word	0x00000000
24050038:	200000a8 	.word	0x200000a8
2405003c:	24058f98 	.word	0x24058f98

24050040 <memchr>:
24050040:	f001 01ff 	and.w	r1, r1, #255	; 0xff
24050044:	2a10      	cmp	r2, #16
24050046:	db2b      	blt.n	240500a0 <memchr+0x60>
24050048:	f010 0f07 	tst.w	r0, #7
2405004c:	d008      	beq.n	24050060 <memchr+0x20>
2405004e:	f810 3b01 	ldrb.w	r3, [r0], #1
24050052:	3a01      	subs	r2, #1
24050054:	428b      	cmp	r3, r1
24050056:	d02d      	beq.n	240500b4 <memchr+0x74>
24050058:	f010 0f07 	tst.w	r0, #7
2405005c:	b342      	cbz	r2, 240500b0 <memchr+0x70>
2405005e:	d1f6      	bne.n	2405004e <memchr+0xe>
24050060:	b4f0      	push	{r4, r5, r6, r7}
24050062:	ea41 2101 	orr.w	r1, r1, r1, lsl #8
24050066:	ea41 4101 	orr.w	r1, r1, r1, lsl #16
2405006a:	f022 0407 	bic.w	r4, r2, #7
2405006e:	f07f 0700 	mvns.w	r7, #0
24050072:	2300      	movs	r3, #0
24050074:	e8f0 5602 	ldrd	r5, r6, [r0], #8
24050078:	3c08      	subs	r4, #8
2405007a:	ea85 0501 	eor.w	r5, r5, r1
2405007e:	ea86 0601 	eor.w	r6, r6, r1
24050082:	fa85 f547 	uadd8	r5, r5, r7
24050086:	faa3 f587 	sel	r5, r3, r7
2405008a:	fa86 f647 	uadd8	r6, r6, r7
2405008e:	faa5 f687 	sel	r6, r5, r7
24050092:	b98e      	cbnz	r6, 240500b8 <memchr+0x78>
24050094:	d1ee      	bne.n	24050074 <memchr+0x34>
24050096:	bcf0      	pop	{r4, r5, r6, r7}
24050098:	f001 01ff 	and.w	r1, r1, #255	; 0xff
2405009c:	f002 0207 	and.w	r2, r2, #7
240500a0:	b132      	cbz	r2, 240500b0 <memchr+0x70>
240500a2:	f810 3b01 	ldrb.w	r3, [r0], #1
240500a6:	3a01      	subs	r2, #1
240500a8:	ea83 0301 	eor.w	r3, r3, r1
240500ac:	b113      	cbz	r3, 240500b4 <memchr+0x74>
240500ae:	d1f8      	bne.n	240500a2 <memchr+0x62>
240500b0:	2000      	movs	r0, #0
240500b2:	4770      	bx	lr
240500b4:	3801      	subs	r0, #1
240500b6:	4770      	bx	lr
240500b8:	2d00      	cmp	r5, #0
240500ba:	bf06      	itte	eq
240500bc:	4635      	moveq	r5, r6
240500be:	3803      	subeq	r0, #3
240500c0:	3807      	subne	r0, #7
240500c2:	f015 0f01 	tst.w	r5, #1
240500c6:	d107      	bne.n	240500d8 <memchr+0x98>
240500c8:	3001      	adds	r0, #1
240500ca:	f415 7f80 	tst.w	r5, #256	; 0x100
240500ce:	bf02      	ittt	eq
240500d0:	3001      	addeq	r0, #1
240500d2:	f415 3fc0 	tsteq.w	r5, #98304	; 0x18000
240500d6:	3001      	addeq	r0, #1
240500d8:	bcf0      	pop	{r4, r5, r6, r7}
240500da:	3801      	subs	r0, #1
240500dc:	4770      	bx	lr
240500de:	bf00      	nop

240500e0 <buttons_get>:
240500e0:	e92d 4ff7 	stmdb	sp!, {r0, r1, r2, r4, r5, r6, r7, r8, r9, sl, fp, lr}
240500e4:	4d37      	ldr	r5, [pc, #220]	; (240501c4 <buttons_get+0xe4>)
240500e6:	f44f 6100 	mov.w	r1, #2048	; 0x800
240500ea:	4628      	mov	r0, r5
240500ec:	f004 f8e0 	bl	240542b0 <HAL_GPIO_ReadPin>
240500f0:	f44f 4100 	mov.w	r1, #32768	; 0x8000
240500f4:	4683      	mov	fp, r0
240500f6:	4628      	mov	r0, r5
240500f8:	f004 f8da 	bl	240542b0 <HAL_GPIO_ReadPin>
240500fc:	2101      	movs	r1, #1
240500fe:	4604      	mov	r4, r0
24050100:	4628      	mov	r0, r5
24050102:	f004 f8d5 	bl	240542b0 <HAL_GPIO_ReadPin>
24050106:	f44f 4180 	mov.w	r1, #16384	; 0x4000
2405010a:	9001      	str	r0, [sp, #4]
2405010c:	4628      	mov	r0, r5
2405010e:	f004 f8cf 	bl	240542b0 <HAL_GPIO_ReadPin>
24050112:	f44f 7100 	mov.w	r1, #512	; 0x200
24050116:	4682      	mov	sl, r0
24050118:	4628      	mov	r0, r5
2405011a:	f004 f8c9 	bl	240542b0 <HAL_GPIO_ReadPin>
2405011e:	4681      	mov	r9, r0
24050120:	4628      	mov	r0, r5
24050122:	f5a5 6580 	sub.w	r5, r5, #1024	; 0x400
24050126:	2120      	movs	r1, #32
24050128:	faba fa8a 	clz	sl, sl
2405012c:	f004 f8c0 	bl	240542b0 <HAL_GPIO_ReadPin>
24050130:	2120      	movs	r1, #32
24050132:	4680      	mov	r8, r0
24050134:	4628      	mov	r0, r5
24050136:	f004 f8bb 	bl	240542b0 <HAL_GPIO_ReadPin>
2405013a:	2102      	movs	r1, #2
2405013c:	4607      	mov	r7, r0
2405013e:	4628      	mov	r0, r5
24050140:	f004 f8b6 	bl	240542b0 <HAL_GPIO_ReadPin>
24050144:	f44f 5100 	mov.w	r1, #8192	; 0x2000
24050148:	4606      	mov	r6, r0
2405014a:	4628      	mov	r0, r5
2405014c:	f004 f8b0 	bl	240542b0 <HAL_GPIO_ReadPin>
24050150:	2101      	movs	r1, #1
24050152:	4605      	mov	r5, r0
24050154:	481c      	ldr	r0, [pc, #112]	; (240501c8 <buttons_get+0xe8>)
24050156:	f004 f8ab 	bl	240542b0 <HAL_GPIO_ReadPin>
2405015a:	9a01      	ldr	r2, [sp, #4]
2405015c:	fab4 f384 	clz	r3, r4
24050160:	ea4f 1a5a 	mov.w	sl, sl, lsr #5
24050164:	fab2 f282 	clz	r2, r2
24050168:	fab5 f585 	clz	r5, r5
2405016c:	095b      	lsrs	r3, r3, #5
2405016e:	fab0 f080 	clz	r0, r0
24050172:	0952      	lsrs	r2, r2, #5
24050174:	0099      	lsls	r1, r3, #2
24050176:	fab7 f387 	clz	r3, r7
2405017a:	096d      	lsrs	r5, r5, #5
2405017c:	ea41 0142 	orr.w	r1, r1, r2, lsl #1
24050180:	fab9 f289 	clz	r2, r9
24050184:	095b      	lsrs	r3, r3, #5
24050186:	f1bb 0f00 	cmp.w	fp, #0
2405018a:	bf08      	it	eq
2405018c:	f041 0101 	orreq.w	r1, r1, #1
24050190:	0952      	lsrs	r2, r2, #5
24050192:	0940      	lsrs	r0, r0, #5
24050194:	ea41 01ca 	orr.w	r1, r1, sl, lsl #3
24050198:	ea41 1102 	orr.w	r1, r1, r2, lsl #4
2405019c:	fab8 f288 	clz	r2, r8
240501a0:	0952      	lsrs	r2, r2, #5
240501a2:	ea41 1242 	orr.w	r2, r1, r2, lsl #5
240501a6:	ea42 1283 	orr.w	r2, r2, r3, lsl #6
240501aa:	fab6 f386 	clz	r3, r6
240501ae:	095b      	lsrs	r3, r3, #5
240501b0:	ea42 13c3 	orr.w	r3, r2, r3, lsl #7
240501b4:	ea43 2305 	orr.w	r3, r3, r5, lsl #8
240501b8:	ea43 2040 	orr.w	r0, r3, r0, lsl #9
240501bc:	b003      	add	sp, #12
240501be:	e8bd 8ff0 	ldmia.w	sp!, {r4, r5, r6, r7, r8, r9, sl, fp, pc}
240501c2:	bf00      	nop
240501c4:	58020c00 	.word	0x58020c00
240501c8:	58020000 	.word	0x58020000

240501cc <flash_memory_map>:
240501cc:	b530      	push	{r4, r5, lr}
240501ce:	b0ab      	sub	sp, #172	; 0xac
240501d0:	2100      	movs	r1, #0
240501d2:	4604      	mov	r4, r0
240501d4:	2250      	movs	r2, #80	; 0x50
240501d6:	a802      	add	r0, sp, #8
240501d8:	f44f 7540 	mov.w	r5, #768	; 0x300
240501dc:	f007 fcd8 	bl	24057b90 <memset>
240501e0:	2001      	movs	r0, #1
240501e2:	23eb      	movs	r3, #235	; 0xeb
240501e4:	f44f 3240 	mov.w	r2, #196608	; 0x30000
240501e8:	9011      	str	r0, [sp, #68]	; 0x44
240501ea:	e9cd 3004 	strd	r3, r0, [sp, #16]
240501ee:	f44f 5300 	mov.w	r3, #8192	; 0x2000
240501f2:	e9cd 5309 	strd	r5, r3, [sp, #36]	; 0x24
240501f6:	2304      	movs	r3, #4
240501f8:	e9cd 320c 	strd	r3, r2, [sp, #48]	; 0x30
240501fc:	9313      	str	r3, [sp, #76]	; 0x4c
240501fe:	f001 fe25 	bl	24051e4c <HAL_Delay>
24050202:	f44f 727a 	mov.w	r2, #1000	; 0x3e8
24050206:	a902      	add	r1, sp, #8
24050208:	4620      	mov	r0, r4
2405020a:	f004 fb9b 	bl	24054944 <HAL_OSPI_Command>
2405020e:	b108      	cbz	r0, 24050214 <flash_memory_map+0x48>
24050210:	f001 f95e 	bl	240514d0 <Error_Handler>
24050214:	2032      	movs	r0, #50	; 0x32
24050216:	2501      	movs	r5, #1
24050218:	f001 fe18 	bl	24051e4c <HAL_Delay>
2405021c:	224c      	movs	r2, #76	; 0x4c
2405021e:	2100      	movs	r1, #0
24050220:	a817      	add	r0, sp, #92	; 0x5c
24050222:	f007 fcb5 	bl	24057b90 <memset>
24050226:	f44f 7140 	mov.w	r1, #768	; 0x300
2405022a:	f44f 5300 	mov.w	r3, #8192	; 0x2000
2405022e:	f241 3288 	movw	r2, #5000	; 0x1388
24050232:	4620      	mov	r0, r4
24050234:	9519      	str	r5, [sp, #100]	; 0x64
24050236:	e9cd 131d 	strd	r1, r3, [sp, #116]	; 0x74
2405023a:	f04f 7340 	mov.w	r3, #50331648	; 0x3000000
2405023e:	a916      	add	r1, sp, #88	; 0x58
24050240:	e9cd 3524 	strd	r3, r5, [sp, #144]	; 0x90
24050244:	2302      	movs	r3, #2
24050246:	9316      	str	r3, [sp, #88]	; 0x58
24050248:	2338      	movs	r3, #56	; 0x38
2405024a:	9318      	str	r3, [sp, #96]	; 0x60
2405024c:	f004 fb7a 	bl	24054944 <HAL_OSPI_Command>
24050250:	b108      	cbz	r0, 24050256 <flash_memory_map+0x8a>
24050252:	f001 f93d 	bl	240514d0 <Error_Handler>
24050256:	23eb      	movs	r3, #235	; 0xeb
24050258:	f241 3288 	movw	r2, #5000	; 0x1388
2405025c:	a916      	add	r1, sp, #88	; 0x58
2405025e:	4620      	mov	r0, r4
24050260:	9318      	str	r3, [sp, #96]	; 0x60
24050262:	2306      	movs	r3, #6
24050264:	9516      	str	r5, [sp, #88]	; 0x58
24050266:	9327      	str	r3, [sp, #156]	; 0x9c
24050268:	f004 fb6c 	bl	24054944 <HAL_OSPI_Command>
2405026c:	b108      	cbz	r0, 24050272 <flash_memory_map+0xa6>
2405026e:	f001 f92f 	bl	240514d0 <Error_Handler>
24050272:	2300      	movs	r3, #0
24050274:	4669      	mov	r1, sp
24050276:	4620      	mov	r0, r4
24050278:	e9cd 3300 	strd	r3, r3, [sp]
2405027c:	f004 fbb1 	bl	240549e2 <HAL_OSPI_MemoryMapped>
24050280:	b108      	cbz	r0, 24050286 <flash_memory_map+0xba>
24050282:	f001 f925 	bl	240514d0 <Error_Handler>
24050286:	b02b      	add	sp, #172	; 0xac
24050288:	bd30      	pop	{r4, r5, pc}
	...

2405028c <draw_score>:
2405028c:	b537      	push	{r0, r1, r2, r4, r5, lr}
2405028e:	4604      	mov	r4, r0
24050290:	4817      	ldr	r0, [pc, #92]	; (240502f0 <draw_score+0x64>)
24050292:	f000 fa0b 	bl	240506ac <LCD_SetFont>
24050296:	4d17      	ldr	r5, [pc, #92]	; (240502f4 <draw_score+0x68>)
24050298:	4b17      	ldr	r3, [pc, #92]	; (240502f8 <draw_score+0x6c>)
2405029a:	4a18      	ldr	r2, [pc, #96]	; (240502fc <draw_score+0x70>)
2405029c:	4629      	mov	r1, r5
2405029e:	4618      	mov	r0, r3
240502a0:	6812      	ldr	r2, [r2, #0]
240502a2:	f007 fceb 	bl	24057c7c <siprintf>
240502a6:	2203      	movs	r2, #3
240502a8:	4620      	mov	r0, r4
240502aa:	4b13      	ldr	r3, [pc, #76]	; (240502f8 <draw_score+0x6c>)
240502ac:	9200      	str	r2, [sp, #0]
240502ae:	2100      	movs	r1, #0
240502b0:	2204      	movs	r2, #4
240502b2:	f000 fa6d 	bl	24050790 <LCD_DisplayStringAt>
240502b6:	4b12      	ldr	r3, [pc, #72]	; (24050300 <draw_score+0x74>)
240502b8:	4a12      	ldr	r2, [pc, #72]	; (24050304 <draw_score+0x78>)
240502ba:	4629      	mov	r1, r5
240502bc:	4618      	mov	r0, r3
240502be:	6812      	ldr	r2, [r2, #0]
240502c0:	f007 fcdc 	bl	24057c7c <siprintf>
240502c4:	2102      	movs	r1, #2
240502c6:	2204      	movs	r2, #4
240502c8:	4620      	mov	r0, r4
240502ca:	9100      	str	r1, [sp, #0]
240502cc:	4b0c      	ldr	r3, [pc, #48]	; (24050300 <draw_score+0x74>)
240502ce:	f000 fa5f 	bl	24050790 <LCD_DisplayStringAt>
240502d2:	4b0d      	ldr	r3, [pc, #52]	; (24050308 <draw_score+0x7c>)
240502d4:	490d      	ldr	r1, [pc, #52]	; (2405030c <draw_score+0x80>)
240502d6:	4618      	mov	r0, r3
240502d8:	f007 fcf0 	bl	24057cbc <strcpy>
240502dc:	2101      	movs	r1, #1
240502de:	4603      	mov	r3, r0
240502e0:	2204      	movs	r2, #4
240502e2:	4620      	mov	r0, r4
240502e4:	9100      	str	r1, [sp, #0]
240502e6:	f000 fa53 	bl	24050790 <LCD_DisplayStringAt>
240502ea:	b003      	add	sp, #12
240502ec:	bd30      	pop	{r4, r5, pc}
240502ee:	bf00      	nop
240502f0:	20000008 	.word	0x20000008
240502f4:	2405a013 	.word	0x2405a013
240502f8:	2000020c 	.word	0x2000020c
240502fc:	200000d8 	.word	0x200000d8
24050300:	200001f4 	.word	0x200001f4
24050304:	200000dc 	.word	0x200000dc
24050308:	200000f4 	.word	0x200000f4
2405030c:	2405a016 	.word	0x2405a016

24050310 <draw_background>:
24050310:	b537      	push	{r0, r1, r2, r4, r5, lr}
24050312:	2100      	movs	r1, #0
24050314:	4605      	mov	r5, r0
24050316:	f000 f9cf 	bl	240506b8 <LCD_Clear>
2405031a:	f000 f9c1 	bl	240506a0 <LCD_GetXSize>
2405031e:	4604      	mov	r4, r0
24050320:	f000 f9c1 	bl	240506a6 <LCD_GetYSize>
24050324:	f64f 72ff 	movw	r2, #65535	; 0xffff
24050328:	1e63      	subs	r3, r4, #1
2405032a:	2100      	movs	r1, #0
2405032c:	9201      	str	r2, [sp, #4]
2405032e:	f1a0 0215 	sub.w	r2, r0, #21
24050332:	b29b      	uxth	r3, r3
24050334:	4628      	mov	r0, r5
24050336:	b292      	uxth	r2, r2
24050338:	9200      	str	r2, [sp, #0]
2405033a:	2214      	movs	r2, #20
2405033c:	f000 fa97 	bl	2405086e <LCD_DrawRect>
24050340:	4628      	mov	r0, r5
24050342:	b003      	add	sp, #12
24050344:	e8bd 4030 	ldmia.w	sp!, {r4, r5, lr}
24050348:	f7ff bfa0 	b.w	2405028c <draw_score>

2405034c <game_init>:
2405034c:	b510      	push	{r4, lr}
2405034e:	4c23      	ldr	r4, [pc, #140]	; (240503dc <game_init+0x90>)
24050350:	f000 fd52 	bl	24050df8 <lcd_get_active_buffer>
24050354:	f7ff ffdc 	bl	24050310 <draw_background>
24050358:	2200      	movs	r2, #0
2405035a:	4621      	mov	r1, r4
2405035c:	4820      	ldr	r0, [pc, #128]	; (240503e0 <game_init+0x94>)
2405035e:	f006 fdaf 	bl	24056ec0 <HAL_RTC_GetTime>
24050362:	2200      	movs	r2, #0
24050364:	491f      	ldr	r1, [pc, #124]	; (240503e4 <game_init+0x98>)
24050366:	481e      	ldr	r0, [pc, #120]	; (240503e0 <game_init+0x94>)
24050368:	f006 fdcd 	bl	24056f06 <HAL_RTC_GetDate>
2405036c:	481e      	ldr	r0, [pc, #120]	; (240503e8 <game_init+0x9c>)
2405036e:	f002 f923 	bl	240525b8 <HAL_ADC_Start>
24050372:	f04f 31ff 	mov.w	r1, #4294967295
24050376:	481c      	ldr	r0, [pc, #112]	; (240503e8 <game_init+0x9c>)
24050378:	f001 fd90 	bl	24051e9c <HAL_ADC_PollForConversion>
2405037c:	481a      	ldr	r0, [pc, #104]	; (240503e8 <game_init+0x9c>)
2405037e:	f001 fe05 	bl	24051f8c <HAL_ADC_GetValue>
24050382:	6863      	ldr	r3, [r4, #4]
24050384:	4058      	eors	r0, r3
24050386:	f007 fc0b 	bl	24057ba0 <srand>
2405038a:	f007 fc37 	bl	24057bfc <rand>
2405038e:	f1b0 4f80 	cmp.w	r0, #1073741824	; 0x40000000
24050392:	4b16      	ldr	r3, [pc, #88]	; (240503ec <game_init+0xa0>)
24050394:	bfac      	ite	ge
24050396:	f06f 0202 	mvnge.w	r2, #2
2405039a:	2203      	movlt	r2, #3
2405039c:	601a      	str	r2, [r3, #0]
2405039e:	f007 fc2d 	bl	24057bfc <rand>
240503a2:	f1b0 4f80 	cmp.w	r0, #1073741824	; 0x40000000
240503a6:	4b12      	ldr	r3, [pc, #72]	; (240503f0 <game_init+0xa4>)
240503a8:	bfac      	ite	ge
240503aa:	f06f 0202 	mvnge.w	r2, #2
240503ae:	2203      	movlt	r2, #3
240503b0:	601a      	str	r2, [r3, #0]
240503b2:	22a0      	movs	r2, #160	; 0xa0
240503b4:	4b0f      	ldr	r3, [pc, #60]	; (240503f4 <game_init+0xa8>)
240503b6:	601a      	str	r2, [r3, #0]
240503b8:	f007 fc20 	bl	24057bfc <rand>
240503bc:	2379      	movs	r3, #121	; 0x79
240503be:	fb90 f2f3 	sdiv	r2, r0, r3
240503c2:	fb02 0313 	mls	r3, r2, r3, r0
240503c6:	4a0c      	ldr	r2, [pc, #48]	; (240503f8 <game_init+0xac>)
240503c8:	3346      	adds	r3, #70	; 0x46
240503ca:	6013      	str	r3, [r2, #0]
240503cc:	f000 fd30 	bl	24050e30 <lcd_sync>
240503d0:	f000 fd02 	bl	24050dd8 <lcd_swap>
240503d4:	e8bd 4010 	ldmia.w	sp!, {r4, lr}
240503d8:	f000 bd3a 	b.w	24050e50 <lcd_wait_for_vblank>
240503dc:	200000c4 	.word	0x200000c4
240503e0:	200004b0 	.word	0x200004b0
240503e4:	200000c0 	.word	0x200000c0
240503e8:	2000044c 	.word	0x2000044c
240503ec:	20000204 	.word	0x20000204
240503f0:	20000200 	.word	0x20000200
240503f4:	20000208 	.word	0x20000208
240503f8:	200001fc 	.word	0x200001fc

240503fc <update_player>:
240503fc:	b5f7      	push	{r0, r1, r2, r4, r5, r6, r7, lr}
240503fe:	4606      	mov	r6, r0
24050400:	f7ff fe6e 	bl	240500e0 <buttons_get>
24050404:	f010 0f02 	tst.w	r0, #2
24050408:	4605      	mov	r5, r0
2405040a:	4c1d      	ldr	r4, [pc, #116]	; (24050480 <update_player+0x84>)
2405040c:	d004      	beq.n	24050418 <update_player+0x1c>
2405040e:	6823      	ldr	r3, [r4, #0]
24050410:	2b17      	cmp	r3, #23
24050412:	bfc4      	itt	gt
24050414:	3b02      	subgt	r3, #2
24050416:	6023      	strgt	r3, [r4, #0]
24050418:	0728      	lsls	r0, r5, #28
2405041a:	d507      	bpl.n	2405042c <update_player+0x30>
2405041c:	f000 f943 	bl	240506a6 <LCD_GetYSize>
24050420:	6823      	ldr	r3, [r4, #0]
24050422:	382b      	subs	r0, #43	; 0x2b
24050424:	4298      	cmp	r0, r3
24050426:	bfc4      	itt	gt
24050428:	3302      	addgt	r3, #2
2405042a:	6023      	strgt	r3, [r4, #0]
2405042c:	f015 0f80 	tst.w	r5, #128	; 0x80
24050430:	4f14      	ldr	r7, [pc, #80]	; (24050484 <update_player+0x88>)
24050432:	d014      	beq.n	2405045e <update_player+0x62>
24050434:	2300      	movs	r3, #0
24050436:	4a14      	ldr	r2, [pc, #80]	; (24050488 <update_player+0x8c>)
24050438:	f44f 719c 	mov.w	r1, #312	; 0x138
2405043c:	f44f 70fa 	mov.w	r0, #500	; 0x1f4
24050440:	6013      	str	r3, [r2, #0]
24050442:	4a12      	ldr	r2, [pc, #72]	; (2405048c <update_player+0x90>)
24050444:	6013      	str	r3, [r2, #0]
24050446:	2303      	movs	r3, #3
24050448:	4a11      	ldr	r2, [pc, #68]	; (24050490 <update_player+0x94>)
2405044a:	603b      	str	r3, [r7, #0]
2405044c:	236e      	movs	r3, #110	; 0x6e
2405044e:	6011      	str	r1, [r2, #0]
24050450:	4a10      	ldr	r2, [pc, #64]	; (24050494 <update_player+0x98>)
24050452:	6023      	str	r3, [r4, #0]
24050454:	6013      	str	r3, [r2, #0]
24050456:	f001 fcf9 	bl	24051e4c <HAL_Delay>
2405045a:	f7ff ff77 	bl	2405034c <game_init>
2405045e:	05a9      	lsls	r1, r5, #22
24050460:	d501      	bpl.n	24050466 <update_player+0x6a>
24050462:	f002 fb25 	bl	24052ab0 <HAL_NVIC_SystemReset>
24050466:	2328      	movs	r3, #40	; 0x28
24050468:	f64f 72ff 	movw	r2, #65535	; 0xffff
2405046c:	8839      	ldrh	r1, [r7, #0]
2405046e:	4630      	mov	r0, r6
24050470:	e9cd 3200 	strd	r3, r2, [sp]
24050474:	2305      	movs	r3, #5
24050476:	8822      	ldrh	r2, [r4, #0]
24050478:	f000 fa86 	bl	24050988 <LCD_FillRect>
2405047c:	b003      	add	sp, #12
2405047e:	bdf0      	pop	{r4, r5, r6, r7, pc}
24050480:	20000014 	.word	0x20000014
24050484:	20000010 	.word	0x20000010
24050488:	200000d8 	.word	0x200000d8
2405048c:	200000dc 	.word	0x200000dc
24050490:	20000018 	.word	0x20000018
24050494:	2000001c 	.word	0x2000001c

24050498 <update_ball>:
24050498:	4b48      	ldr	r3, [pc, #288]	; (240505bc <update_ball+0x124>)
2405049a:	e92d 41f3 	stmdb	sp!, {r0, r1, r4, r5, r6, r7, r8, lr}
2405049e:	681b      	ldr	r3, [r3, #0]
240504a0:	4605      	mov	r5, r0
240504a2:	4c47      	ldr	r4, [pc, #284]	; (240505c0 <update_ball+0x128>)
240504a4:	330d      	adds	r3, #13
240504a6:	f8df 8138 	ldr.w	r8, [pc, #312]	; 240505e0 <update_ball+0x148>
240504aa:	6822      	ldr	r2, [r4, #0]
240504ac:	4e45      	ldr	r6, [pc, #276]	; (240505c4 <update_ball+0x12c>)
240504ae:	4293      	cmp	r3, r2
240504b0:	db29      	blt.n	24050506 <update_ball+0x6e>
240504b2:	f8d8 3000 	ldr.w	r3, [r8]
240504b6:	3303      	adds	r3, #3
240504b8:	d125      	bne.n	24050506 <update_ball+0x6e>
240504ba:	2303      	movs	r3, #3
240504bc:	6832      	ldr	r2, [r6, #0]
240504be:	f8c8 3000 	str.w	r3, [r8]
240504c2:	4b41      	ldr	r3, [pc, #260]	; (240505c8 <update_ball+0x130>)
240504c4:	681b      	ldr	r3, [r3, #0]
240504c6:	1e99      	subs	r1, r3, #2
240504c8:	4291      	cmp	r1, r2
240504ca:	dc02      	bgt.n	240504d2 <update_ball+0x3a>
240504cc:	332a      	adds	r3, #42	; 0x2a
240504ce:	4293      	cmp	r3, r2
240504d0:	da19      	bge.n	24050506 <update_ball+0x6e>
240504d2:	4a3e      	ldr	r2, [pc, #248]	; (240505cc <update_ball+0x134>)
240504d4:	4628      	mov	r0, r5
240504d6:	6813      	ldr	r3, [r2, #0]
240504d8:	3301      	adds	r3, #1
240504da:	6013      	str	r3, [r2, #0]
240504dc:	f7ff fed6 	bl	2405028c <draw_score>
240504e0:	f44f 4378 	mov.w	r3, #63488	; 0xf800
240504e4:	8832      	ldrh	r2, [r6, #0]
240504e6:	8821      	ldrh	r1, [r4, #0]
240504e8:	4628      	mov	r0, r5
240504ea:	9300      	str	r3, [sp, #0]
240504ec:	2308      	movs	r3, #8
240504ee:	f000 fa5e 	bl	240509ae <LCD_FillCircle>
240504f2:	f000 fc71 	bl	24050dd8 <lcd_swap>
240504f6:	f000 fcab 	bl	24050e50 <lcd_wait_for_vblank>
240504fa:	f44f 707a 	mov.w	r0, #1000	; 0x3e8
240504fe:	f001 fca5 	bl	24051e4c <HAL_Delay>
24050502:	f7ff ff23 	bl	2405034c <game_init>
24050506:	4b32      	ldr	r3, [pc, #200]	; (240505d0 <update_ball+0x138>)
24050508:	6822      	ldr	r2, [r4, #0]
2405050a:	681b      	ldr	r3, [r3, #0]
2405050c:	3b09      	subs	r3, #9
2405050e:	4293      	cmp	r3, r2
24050510:	dc2a      	bgt.n	24050568 <update_ball+0xd0>
24050512:	f8d8 3000 	ldr.w	r3, [r8]
24050516:	2b03      	cmp	r3, #3
24050518:	d126      	bne.n	24050568 <update_ball+0xd0>
2405051a:	f06f 0302 	mvn.w	r3, #2
2405051e:	6832      	ldr	r2, [r6, #0]
24050520:	f8c8 3000 	str.w	r3, [r8]
24050524:	4b2b      	ldr	r3, [pc, #172]	; (240505d4 <update_ball+0x13c>)
24050526:	681b      	ldr	r3, [r3, #0]
24050528:	1e99      	subs	r1, r3, #2
2405052a:	4291      	cmp	r1, r2
2405052c:	dc02      	bgt.n	24050534 <update_ball+0x9c>
2405052e:	332a      	adds	r3, #42	; 0x2a
24050530:	4293      	cmp	r3, r2
24050532:	da19      	bge.n	24050568 <update_ball+0xd0>
24050534:	4a28      	ldr	r2, [pc, #160]	; (240505d8 <update_ball+0x140>)
24050536:	4628      	mov	r0, r5
24050538:	6813      	ldr	r3, [r2, #0]
2405053a:	3301      	adds	r3, #1
2405053c:	6013      	str	r3, [r2, #0]
2405053e:	f7ff fea5 	bl	2405028c <draw_score>
24050542:	f44f 4378 	mov.w	r3, #63488	; 0xf800
24050546:	8832      	ldrh	r2, [r6, #0]
24050548:	8821      	ldrh	r1, [r4, #0]
2405054a:	4628      	mov	r0, r5
2405054c:	9300      	str	r3, [sp, #0]
2405054e:	2308      	movs	r3, #8
24050550:	f000 fa2d 	bl	240509ae <LCD_FillCircle>
24050554:	f000 fc40 	bl	24050dd8 <lcd_swap>
24050558:	f000 fc7a 	bl	24050e50 <lcd_wait_for_vblank>
2405055c:	f44f 707a 	mov.w	r0, #1000	; 0x3e8
24050560:	f001 fc74 	bl	24051e4c <HAL_Delay>
24050564:	f7ff fef2 	bl	2405034c <game_init>
24050568:	6833      	ldr	r3, [r6, #0]
2405056a:	4f1c      	ldr	r7, [pc, #112]	; (240505dc <update_ball+0x144>)
2405056c:	2b1f      	cmp	r3, #31
2405056e:	dc04      	bgt.n	2405057a <update_ball+0xe2>
24050570:	683b      	ldr	r3, [r7, #0]
24050572:	3303      	adds	r3, #3
24050574:	bf04      	itt	eq
24050576:	2303      	moveq	r3, #3
24050578:	603b      	streq	r3, [r7, #0]
2405057a:	f000 f894 	bl	240506a6 <LCD_GetYSize>
2405057e:	6832      	ldr	r2, [r6, #0]
24050580:	380b      	subs	r0, #11
24050582:	4290      	cmp	r0, r2
24050584:	dc05      	bgt.n	24050592 <update_ball+0xfa>
24050586:	683b      	ldr	r3, [r7, #0]
24050588:	2b03      	cmp	r3, #3
2405058a:	bf04      	itt	eq
2405058c:	f06f 0302 	mvneq.w	r3, #2
24050590:	603b      	streq	r3, [r7, #0]
24050592:	6821      	ldr	r1, [r4, #0]
24050594:	4628      	mov	r0, r5
24050596:	f8d8 3000 	ldr.w	r3, [r8]
2405059a:	4419      	add	r1, r3
2405059c:	683b      	ldr	r3, [r7, #0]
2405059e:	441a      	add	r2, r3
240505a0:	f64f 73ff 	movw	r3, #65535	; 0xffff
240505a4:	6021      	str	r1, [r4, #0]
240505a6:	b289      	uxth	r1, r1
240505a8:	6032      	str	r2, [r6, #0]
240505aa:	b292      	uxth	r2, r2
240505ac:	9300      	str	r3, [sp, #0]
240505ae:	2308      	movs	r3, #8
240505b0:	f000 f9fd 	bl	240509ae <LCD_FillCircle>
240505b4:	b002      	add	sp, #8
240505b6:	e8bd 81f0 	ldmia.w	sp!, {r4, r5, r6, r7, r8, pc}
240505ba:	bf00      	nop
240505bc:	20000010 	.word	0x20000010
240505c0:	20000208 	.word	0x20000208
240505c4:	200001fc 	.word	0x200001fc
240505c8:	20000014 	.word	0x20000014
240505cc:	200000dc 	.word	0x200000dc
240505d0:	20000018 	.word	0x20000018
240505d4:	2000001c 	.word	0x2000001c
240505d8:	200000d8 	.word	0x200000d8
240505dc:	20000200 	.word	0x20000200
240505e0:	20000204 	.word	0x20000204

240505e4 <update_ai>:
240505e4:	b537      	push	{r0, r1, r2, r4, r5, lr}
240505e6:	4c13      	ldr	r4, [pc, #76]	; (24050634 <update_ai+0x50>)
240505e8:	4605      	mov	r5, r0
240505ea:	4a13      	ldr	r2, [pc, #76]	; (24050638 <update_ai+0x54>)
240505ec:	6823      	ldr	r3, [r4, #0]
240505ee:	6812      	ldr	r2, [r2, #0]
240505f0:	f103 0113 	add.w	r1, r3, #19
240505f4:	4291      	cmp	r1, r2
240505f6:	db03      	blt.n	24050600 <update_ai+0x1c>
240505f8:	2b17      	cmp	r3, #23
240505fa:	bfc4      	itt	gt
240505fc:	3b02      	subgt	r3, #2
240505fe:	6023      	strgt	r3, [r4, #0]
24050600:	6823      	ldr	r3, [r4, #0]
24050602:	3314      	adds	r3, #20
24050604:	429a      	cmp	r2, r3
24050606:	dd07      	ble.n	24050618 <update_ai+0x34>
24050608:	f000 f84d 	bl	240506a6 <LCD_GetYSize>
2405060c:	6823      	ldr	r3, [r4, #0]
2405060e:	382b      	subs	r0, #43	; 0x2b
24050610:	4298      	cmp	r0, r3
24050612:	bfc4      	itt	gt
24050614:	3302      	addgt	r3, #2
24050616:	6023      	strgt	r3, [r4, #0]
24050618:	2328      	movs	r3, #40	; 0x28
2405061a:	f64f 72ff 	movw	r2, #65535	; 0xffff
2405061e:	4907      	ldr	r1, [pc, #28]	; (2405063c <update_ai+0x58>)
24050620:	4628      	mov	r0, r5
24050622:	e9cd 3200 	strd	r3, r2, [sp]
24050626:	2305      	movs	r3, #5
24050628:	8822      	ldrh	r2, [r4, #0]
2405062a:	8809      	ldrh	r1, [r1, #0]
2405062c:	f000 f9ac 	bl	24050988 <LCD_FillRect>
24050630:	b003      	add	sp, #12
24050632:	bd30      	pop	{r4, r5, pc}
24050634:	2000001c 	.word	0x2000001c
24050638:	200001fc 	.word	0x200001fc
2405063c:	20000018 	.word	0x20000018

24050640 <game_loop>:
24050640:	b510      	push	{r4, lr}
24050642:	f000 fbd9 	bl	24050df8 <lcd_get_active_buffer>
24050646:	4604      	mov	r4, r0
24050648:	f7ff fe62 	bl	24050310 <draw_background>
2405064c:	4620      	mov	r0, r4
2405064e:	f7ff fed5 	bl	240503fc <update_player>
24050652:	4620      	mov	r0, r4
24050654:	f7ff ffc6 	bl	240505e4 <update_ai>
24050658:	4620      	mov	r0, r4
2405065a:	f7ff ff1d 	bl	24050498 <update_ball>
2405065e:	f000 fbbb 	bl	24050dd8 <lcd_swap>
24050662:	e8bd 4010 	ldmia.w	sp!, {r4, lr}
24050666:	f000 bbf3 	b.w	24050e50 <lcd_wait_for_vblank>
	...

2405066c <FillBuffer>:
2405066c:	b530      	push	{r4, r5, lr}
2405066e:	4c0b      	ldr	r4, [pc, #44]	; (2405069c <FillBuffer+0x30>)
24050670:	f44f 3540 	mov.w	r5, #196608	; 0x30000
24050674:	ea42 4101 	orr.w	r1, r2, r1, lsl #16
24050678:	6025      	str	r5, [r4, #0]
2405067a:	f8bd 500c 	ldrh.w	r5, [sp, #12]
2405067e:	63a5      	str	r5, [r4, #56]	; 0x38
24050680:	63e0      	str	r0, [r4, #60]	; 0x3c
24050682:	6423      	str	r3, [r4, #64]	; 0x40
24050684:	2302      	movs	r3, #2
24050686:	6363      	str	r3, [r4, #52]	; 0x34
24050688:	6461      	str	r1, [r4, #68]	; 0x44
2405068a:	6823      	ldr	r3, [r4, #0]
2405068c:	f043 0301 	orr.w	r3, r3, #1
24050690:	6023      	str	r3, [r4, #0]
24050692:	6823      	ldr	r3, [r4, #0]
24050694:	07db      	lsls	r3, r3, #31
24050696:	d4fc      	bmi.n	24050692 <FillBuffer+0x26>
24050698:	bd30      	pop	{r4, r5, pc}
2405069a:	bf00      	nop
2405069c:	52001000 	.word	0x52001000

240506a0 <LCD_GetXSize>:
240506a0:	f44f 70a0 	mov.w	r0, #320	; 0x140
240506a4:	4770      	bx	lr

240506a6 <LCD_GetYSize>:
240506a6:	20f0      	movs	r0, #240	; 0xf0
240506a8:	4770      	bx	lr
	...

240506ac <LCD_SetFont>:
240506ac:	4b01      	ldr	r3, [pc, #4]	; (240506b4 <LCD_SetFont+0x8>)
240506ae:	6018      	str	r0, [r3, #0]
240506b0:	4770      	bx	lr
240506b2:	bf00      	nop
240506b4:	20000020 	.word	0x20000020

240506b8 <LCD_Clear>:
240506b8:	b507      	push	{r0, r1, r2, lr}
240506ba:	2300      	movs	r3, #0
240506bc:	9100      	str	r1, [sp, #0]
240506be:	22f0      	movs	r2, #240	; 0xf0
240506c0:	f44f 71a0 	mov.w	r1, #320	; 0x140
240506c4:	f7ff ffd2 	bl	2405066c <FillBuffer>
240506c8:	b003      	add	sp, #12
240506ca:	f85d fb04 	ldr.w	pc, [sp], #4
	...

240506d0 <LCD_DisplayChar>:
240506d0:	e92d 4ff0 	stmdb	sp!, {r4, r5, r6, r7, r8, r9, sl, fp, lr}
240506d4:	b087      	sub	sp, #28
240506d6:	2600      	movs	r6, #0
240506d8:	f44f 7aa0 	mov.w	sl, #320	; 0x140
240506dc:	f04f 0b01 	mov.w	fp, #1
240506e0:	9205      	str	r2, [sp, #20]
240506e2:	4a28      	ldr	r2, [pc, #160]	; (24050784 <LCD_DisplayChar+0xb4>)
240506e4:	6814      	ldr	r4, [r2, #0]
240506e6:	4a28      	ldr	r2, [pc, #160]	; (24050788 <LCD_DisplayChar+0xb8>)
240506e8:	88a7      	ldrh	r7, [r4, #4]
240506ea:	8812      	ldrh	r2, [r2, #0]
240506ec:	f8b4 9006 	ldrh.w	r9, [r4, #6]
240506f0:	9202      	str	r2, [sp, #8]
240506f2:	4a26      	ldr	r2, [pc, #152]	; (2405078c <LCD_DisplayChar+0xbc>)
240506f4:	8812      	ldrh	r2, [r2, #0]
240506f6:	e9cd 0103 	strd	r0, r1, [sp, #12]
240506fa:	9201      	str	r2, [sp, #4]
240506fc:	1df8      	adds	r0, r7, #7
240506fe:	f1a3 0220 	sub.w	r2, r3, #32
24050702:	6823      	ldr	r3, [r4, #0]
24050704:	10c0      	asrs	r0, r0, #3
24050706:	fb09 f202 	mul.w	r2, r9, r2
2405070a:	ebc7 0cc0 	rsb	ip, r7, r0, lsl #3
2405070e:	fb00 3202 	mla	r2, r0, r2, r3
24050712:	1e7b      	subs	r3, r7, #1
24050714:	fa53 fc8c 	uxtab	ip, r3, ip
24050718:	9b05      	ldr	r3, [sp, #20]
2405071a:	454e      	cmp	r6, r9
2405071c:	eb03 0406 	add.w	r4, r3, r6
24050720:	b2a4      	uxth	r4, r4
24050722:	d302      	bcc.n	2405072a <LCD_DisplayChar+0x5a>
24050724:	b007      	add	sp, #28
24050726:	e8bd 8ff0 	ldmia.w	sp!, {r4, r5, r6, r7, r8, r9, sl, fp, pc}
2405072a:	2801      	cmp	r0, #1
2405072c:	7813      	ldrb	r3, [r2, #0]
2405072e:	d004      	beq.n	2405073a <LCD_DisplayChar+0x6a>
24050730:	2802      	cmp	r0, #2
24050732:	d10a      	bne.n	2405074a <LCD_DisplayChar+0x7a>
24050734:	8813      	ldrh	r3, [r2, #0]
24050736:	ba5b      	rev16	r3, r3
24050738:	b29b      	uxth	r3, r3
2405073a:	fb0a f404 	mul.w	r4, sl, r4
2405073e:	2500      	movs	r5, #0
24050740:	42af      	cmp	r7, r5
24050742:	d809      	bhi.n	24050758 <LCD_DisplayChar+0x88>
24050744:	3601      	adds	r6, #1
24050746:	4402      	add	r2, r0
24050748:	e7e6      	b.n	24050718 <LCD_DisplayChar+0x48>
2405074a:	7855      	ldrb	r5, [r2, #1]
2405074c:	041b      	lsls	r3, r3, #16
2405074e:	ea43 2305 	orr.w	r3, r3, r5, lsl #8
24050752:	7895      	ldrb	r5, [r2, #2]
24050754:	432b      	orrs	r3, r5
24050756:	e7f0      	b.n	2405073a <LCD_DisplayChar+0x6a>
24050758:	9904      	ldr	r1, [sp, #16]
2405075a:	ebac 0805 	sub.w	r8, ip, r5
2405075e:	eb01 0e05 	add.w	lr, r1, r5
24050762:	fa0b f808 	lsl.w	r8, fp, r8
24050766:	9902      	ldr	r1, [sp, #8]
24050768:	3501      	adds	r5, #1
2405076a:	ea18 0f03 	tst.w	r8, r3
2405076e:	fa14 fe8e 	uxtah	lr, r4, lr
24050772:	4688      	mov	r8, r1
24050774:	9901      	ldr	r1, [sp, #4]
24050776:	bf18      	it	ne
24050778:	4688      	movne	r8, r1
2405077a:	9903      	ldr	r1, [sp, #12]
2405077c:	f821 801e 	strh.w	r8, [r1, lr, lsl #1]
24050780:	e7de      	b.n	24050740 <LCD_DisplayChar+0x70>
24050782:	bf00      	nop
24050784:	20000020 	.word	0x20000020
24050788:	200000e0 	.word	0x200000e0
2405078c:	20000024 	.word	0x20000024

24050790 <LCD_DisplayStringAt>:
24050790:	e92d 4ff8 	stmdb	sp!, {r3, r4, r5, r6, r7, r8, r9, sl, fp, lr}
24050794:	4682      	mov	sl, r0
24050796:	460e      	mov	r6, r1
24050798:	4693      	mov	fp, r2
2405079a:	461f      	mov	r7, r3
2405079c:	f89d c028 	ldrb.w	ip, [sp, #40]	; 0x28
240507a0:	461c      	mov	r4, r3
240507a2:	f813 1b01 	ldrb.w	r1, [r3], #1
240507a6:	2900      	cmp	r1, #0
240507a8:	d1fa      	bne.n	240507a0 <LCD_DisplayStringAt+0x10>
240507aa:	4b1e      	ldr	r3, [pc, #120]	; (24050824 <LCD_DisplayStringAt+0x94>)
240507ac:	f44f 75a0 	mov.w	r5, #320	; 0x140
240507b0:	f1bc 0f01 	cmp.w	ip, #1
240507b4:	f8d3 8000 	ldr.w	r8, [r3]
240507b8:	f8b8 1004 	ldrh.w	r1, [r8, #4]
240507bc:	fbb5 f5f1 	udiv	r5, r5, r1
240507c0:	d01a      	beq.n	240507f8 <LCD_DisplayStringAt+0x68>
240507c2:	f1bc 0f02 	cmp.w	ip, #2
240507c6:	d01e      	beq.n	24050806 <LCD_DisplayStringAt+0x76>
240507c8:	f04f 0900 	mov.w	r9, #0
240507cc:	f8b8 4004 	ldrh.w	r4, [r8, #4]
240507d0:	fa1f f189 	uxth.w	r1, r9
240507d4:	f817 3009 	ldrb.w	r3, [r7, r9]
240507d8:	f109 0901 	add.w	r9, r9, #1
240507dc:	4361      	muls	r1, r4
240507de:	f5c1 71a0 	rsb	r1, r1, #320	; 0x140
240507e2:	b289      	uxth	r1, r1
240507e4:	428c      	cmp	r4, r1
240507e6:	bfcc      	ite	gt
240507e8:	2100      	movgt	r1, #0
240507ea:	2101      	movle	r1, #1
240507ec:	2b00      	cmp	r3, #0
240507ee:	bf08      	it	eq
240507f0:	2100      	moveq	r1, #0
240507f2:	b969      	cbnz	r1, 24050810 <LCD_DisplayStringAt+0x80>
240507f4:	e8bd 8ff8 	ldmia.w	sp!, {r3, r4, r5, r6, r7, r8, r9, sl, fp, pc}
240507f8:	1b3c      	subs	r4, r7, r4
240507fa:	4425      	add	r5, r4
240507fc:	434d      	muls	r5, r1
240507fe:	eb06 0655 	add.w	r6, r6, r5, lsr #1
24050802:	b2b6      	uxth	r6, r6
24050804:	e7e0      	b.n	240507c8 <LCD_DisplayStringAt+0x38>
24050806:	1b3c      	subs	r4, r7, r4
24050808:	442c      	add	r4, r5
2405080a:	fb14 6601 	smlabb	r6, r4, r1, r6
2405080e:	e7f8      	b.n	24050802 <LCD_DisplayStringAt+0x72>
24050810:	4631      	mov	r1, r6
24050812:	465a      	mov	r2, fp
24050814:	4650      	mov	r0, sl
24050816:	f7ff ff5b 	bl	240506d0 <LCD_DisplayChar>
2405081a:	f8b8 1004 	ldrh.w	r1, [r8, #4]
2405081e:	440e      	add	r6, r1
24050820:	b2b6      	uxth	r6, r6
24050822:	e7d3      	b.n	240507cc <LCD_DisplayStringAt+0x3c>
24050824:	20000020 	.word	0x20000020

24050828 <LCD_DrawHLine>:
24050828:	b430      	push	{r4, r5}
2405082a:	f44f 74a0 	mov.w	r4, #320	; 0x140
2405082e:	461d      	mov	r5, r3
24050830:	f8bd 3008 	ldrh.w	r3, [sp, #8]
24050834:	fb04 1402 	mla	r4, r4, r2, r1
24050838:	4629      	mov	r1, r5
2405083a:	9302      	str	r3, [sp, #8]
2405083c:	2201      	movs	r2, #1
2405083e:	eb00 0044 	add.w	r0, r0, r4, lsl #1
24050842:	2300      	movs	r3, #0
24050844:	bc30      	pop	{r4, r5}
24050846:	f7ff bf11 	b.w	2405066c <FillBuffer>

2405084a <LCD_DrawVLine>:
2405084a:	b430      	push	{r4, r5}
2405084c:	4614      	mov	r4, r2
2405084e:	f44f 75a0 	mov.w	r5, #320	; 0x140
24050852:	461a      	mov	r2, r3
24050854:	f8bd 3008 	ldrh.w	r3, [sp, #8]
24050858:	fb05 1404 	mla	r4, r5, r4, r1
2405085c:	2101      	movs	r1, #1
2405085e:	9302      	str	r3, [sp, #8]
24050860:	f240 133f 	movw	r3, #319	; 0x13f
24050864:	eb00 0044 	add.w	r0, r0, r4, lsl #1
24050868:	bc30      	pop	{r4, r5}
2405086a:	f7ff beff 	b.w	2405066c <FillBuffer>

2405086e <LCD_DrawRect>:
2405086e:	e92d 43f7 	stmdb	sp!, {r0, r1, r2, r4, r5, r6, r7, r8, r9, lr}
24050872:	f8bd 702c 	ldrh.w	r7, [sp, #44]	; 0x2c
24050876:	4616      	mov	r6, r2
24050878:	f8bd 9028 	ldrh.w	r9, [sp, #40]	; 0x28
2405087c:	4605      	mov	r5, r0
2405087e:	9700      	str	r7, [sp, #0]
24050880:	460c      	mov	r4, r1
24050882:	4698      	mov	r8, r3
24050884:	f7ff ffd0 	bl	24050828 <LCD_DrawHLine>
24050888:	eb06 0209 	add.w	r2, r6, r9
2405088c:	4621      	mov	r1, r4
2405088e:	4643      	mov	r3, r8
24050890:	4628      	mov	r0, r5
24050892:	b292      	uxth	r2, r2
24050894:	9700      	str	r7, [sp, #0]
24050896:	f7ff ffc7 	bl	24050828 <LCD_DrawHLine>
2405089a:	464b      	mov	r3, r9
2405089c:	4632      	mov	r2, r6
2405089e:	4621      	mov	r1, r4
240508a0:	4628      	mov	r0, r5
240508a2:	9700      	str	r7, [sp, #0]
240508a4:	f7ff ffd1 	bl	2405084a <LCD_DrawVLine>
240508a8:	eb04 0108 	add.w	r1, r4, r8
240508ac:	464b      	mov	r3, r9
240508ae:	4632      	mov	r2, r6
240508b0:	b289      	uxth	r1, r1
240508b2:	4628      	mov	r0, r5
240508b4:	970a      	str	r7, [sp, #40]	; 0x28
240508b6:	b003      	add	sp, #12
240508b8:	e8bd 43f0 	ldmia.w	sp!, {r4, r5, r6, r7, r8, r9, lr}
240508bc:	f7ff bfc5 	b.w	2405084a <LCD_DrawVLine>

240508c0 <LCD_DrawCircle>:
240508c0:	e92d 4ff7 	stmdb	sp!, {r0, r1, r2, r4, r5, r6, r7, r8, r9, sl, fp, lr}
240508c4:	005d      	lsls	r5, r3, #1
240508c6:	f8bd 7030 	ldrh.w	r7, [sp, #48]	; 0x30
240508ca:	f04f 0e00 	mov.w	lr, #0
240508ce:	f44f 78a0 	mov.w	r8, #320	; 0x140
240508d2:	f1c5 0503 	rsb	r5, r5, #3
240508d6:	b29e      	uxth	r6, r3
240508d8:	fa11 fb8e 	uxtah	fp, r1, lr
240508dc:	fa1f f48e 	uxth.w	r4, lr
240508e0:	2d00      	cmp	r5, #0
240508e2:	eba2 0c06 	sub.w	ip, r2, r6
240508e6:	eba1 0a04 	sub.w	sl, r1, r4
240508ea:	9400      	str	r4, [sp, #0]
240508ec:	fa1f fc8c 	uxth.w	ip, ip
240508f0:	bfb4      	ite	lt
240508f2:	3506      	addlt	r5, #6
240508f4:	350a      	addge	r5, #10
240508f6:	fb08 fc0c 	mul.w	ip, r8, ip
240508fa:	bfb8      	it	lt
240508fc:	eb05 058e 	addlt.w	r5, r5, lr, lsl #2
24050900:	fa1c f98b 	uxtah	r9, ip, fp
24050904:	fa1c fc8a 	uxtah	ip, ip, sl
24050908:	f820 7019 	strh.w	r7, [r0, r9, lsl #1]
2405090c:	f820 701c 	strh.w	r7, [r0, ip, lsl #1]
24050910:	eba2 0c04 	sub.w	ip, r2, r4
24050914:	eb06 0401 	add.w	r4, r6, r1
24050918:	fa1f fc8c 	uxth.w	ip, ip
2405091c:	9401      	str	r4, [sp, #4]
2405091e:	fb08 fc0c 	mul.w	ip, r8, ip
24050922:	fa1c f984 	uxtah	r9, ip, r4
24050926:	9c00      	ldr	r4, [sp, #0]
24050928:	f820 7019 	strh.w	r7, [r0, r9, lsl #1]
2405092c:	eba1 0906 	sub.w	r9, r1, r6
24050930:	4416      	add	r6, r2
24050932:	4414      	add	r4, r2
24050934:	fa1c fc89 	uxtah	ip, ip, r9
24050938:	b2b6      	uxth	r6, r6
2405093a:	b2a4      	uxth	r4, r4
2405093c:	f820 701c 	strh.w	r7, [r0, ip, lsl #1]
24050940:	fb08 f606 	mul.w	r6, r8, r6
24050944:	fb08 f404 	mul.w	r4, r8, r4
24050948:	fa16 fb8b 	uxtah	fp, r6, fp
2405094c:	fa16 fa8a 	uxtah	sl, r6, sl
24050950:	9e01      	ldr	r6, [sp, #4]
24050952:	fa14 f989 	uxtah	r9, r4, r9
24050956:	f820 701b 	strh.w	r7, [r0, fp, lsl #1]
2405095a:	fa14 f686 	uxtah	r6, r4, r6
2405095e:	bfa4      	itt	ge
24050960:	ebae 0403 	subge.w	r4, lr, r3
24050964:	f103 33ff 	addge.w	r3, r3, #4294967295
24050968:	f10e 0e01 	add.w	lr, lr, #1
2405096c:	bfa8      	it	ge
2405096e:	eb05 0584 	addge.w	r5, r5, r4, lsl #2
24050972:	f820 701a 	strh.w	r7, [r0, sl, lsl #1]
24050976:	4573      	cmp	r3, lr
24050978:	f820 7016 	strh.w	r7, [r0, r6, lsl #1]
2405097c:	f820 7019 	strh.w	r7, [r0, r9, lsl #1]
24050980:	d2a9      	bcs.n	240508d6 <LCD_DrawCircle+0x16>
24050982:	b003      	add	sp, #12
24050984:	e8bd 8ff0 	ldmia.w	sp!, {r4, r5, r6, r7, r8, r9, sl, fp, pc}

24050988 <LCD_FillRect>:
24050988:	b470      	push	{r4, r5, r6}
2405098a:	f44f 76a0 	mov.w	r6, #320	; 0x140
2405098e:	4615      	mov	r5, r2
24050990:	461c      	mov	r4, r3
24050992:	f8bd 3010 	ldrh.w	r3, [sp, #16]
24050996:	fb06 1505 	mla	r5, r6, r5, r1
2405099a:	f8bd 200c 	ldrh.w	r2, [sp, #12]
2405099e:	4621      	mov	r1, r4
240509a0:	9303      	str	r3, [sp, #12]
240509a2:	eb00 0045 	add.w	r0, r0, r5, lsl #1
240509a6:	1b33      	subs	r3, r6, r4
240509a8:	bc70      	pop	{r4, r5, r6}
240509aa:	f7ff be5f 	b.w	2405066c <FillBuffer>

240509ae <LCD_FillCircle>:
240509ae:	e92d 4ff0 	stmdb	sp!, {r4, r5, r6, r7, r8, r9, sl, fp, lr}
240509b2:	005c      	lsls	r4, r3, #1
240509b4:	b087      	sub	sp, #28
240509b6:	4689      	mov	r9, r1
240509b8:	4616      	mov	r6, r2
240509ba:	469a      	mov	sl, r3
240509bc:	f8bd b040 	ldrh.w	fp, [sp, #64]	; 0x40
240509c0:	f1c4 0403 	rsb	r4, r4, #3
240509c4:	461f      	mov	r7, r3
240509c6:	2500      	movs	r5, #0
240509c8:	b1e7      	cbz	r7, 24050a04 <LCD_FillCircle+0x56>
240509ca:	b2bb      	uxth	r3, r7
240509cc:	fa16 f285 	uxtah	r2, r6, r5
240509d0:	fa1f f885 	uxth.w	r8, r5
240509d4:	f8cd b000 	str.w	fp, [sp]
240509d8:	eba9 0103 	sub.w	r1, r9, r3
240509dc:	005b      	lsls	r3, r3, #1
240509de:	b292      	uxth	r2, r2
240509e0:	b289      	uxth	r1, r1
240509e2:	b29b      	uxth	r3, r3
240509e4:	e9cd 0103 	strd	r0, r1, [sp, #12]
240509e8:	9305      	str	r3, [sp, #20]
240509ea:	f7ff ff1d 	bl	24050828 <LCD_DrawHLine>
240509ee:	eba6 0208 	sub.w	r2, r6, r8
240509f2:	9b05      	ldr	r3, [sp, #20]
240509f4:	f8cd b000 	str.w	fp, [sp]
240509f8:	b292      	uxth	r2, r2
240509fa:	e9dd 0103 	ldrd	r0, r1, [sp, #12]
240509fe:	f7ff ff13 	bl	24050828 <LCD_DrawHLine>
24050a02:	9803      	ldr	r0, [sp, #12]
24050a04:	b1e5      	cbz	r5, 24050a40 <LCD_FillCircle+0x92>
24050a06:	b2ab      	uxth	r3, r5
24050a08:	f8cd b000 	str.w	fp, [sp]
24050a0c:	fa1f f887 	uxth.w	r8, r7
24050a10:	eba9 0103 	sub.w	r1, r9, r3
24050a14:	005b      	lsls	r3, r3, #1
24050a16:	eba6 0208 	sub.w	r2, r6, r8
24050a1a:	b289      	uxth	r1, r1
24050a1c:	b29b      	uxth	r3, r3
24050a1e:	b292      	uxth	r2, r2
24050a20:	9305      	str	r3, [sp, #20]
24050a22:	e9cd 0103 	strd	r0, r1, [sp, #12]
24050a26:	f7ff feff 	bl	24050828 <LCD_DrawHLine>
24050a2a:	eb08 0206 	add.w	r2, r8, r6
24050a2e:	9b05      	ldr	r3, [sp, #20]
24050a30:	b292      	uxth	r2, r2
24050a32:	f8cd b000 	str.w	fp, [sp]
24050a36:	e9dd 0103 	ldrd	r0, r1, [sp, #12]
24050a3a:	f7ff fef5 	bl	24050828 <LCD_DrawHLine>
24050a3e:	9803      	ldr	r0, [sp, #12]
24050a40:	2c00      	cmp	r4, #0
24050a42:	bfb1      	iteee	lt
24050a44:	3406      	addlt	r4, #6
24050a46:	1beb      	subge	r3, r5, r7
24050a48:	340a      	addge	r4, #10
24050a4a:	f107 37ff 	addge.w	r7, r7, #4294967295
24050a4e:	bfb8      	it	lt
24050a50:	eb04 0485 	addlt.w	r4, r4, r5, lsl #2
24050a54:	f105 0501 	add.w	r5, r5, #1
24050a58:	bfa8      	it	ge
24050a5a:	eb04 0483 	addge.w	r4, r4, r3, lsl #2
24050a5e:	42af      	cmp	r7, r5
24050a60:	d2b2      	bcs.n	240509c8 <LCD_FillCircle+0x1a>
24050a62:	4653      	mov	r3, sl
24050a64:	4632      	mov	r2, r6
24050a66:	4649      	mov	r1, r9
24050a68:	f8cd b040 	str.w	fp, [sp, #64]	; 0x40
24050a6c:	b007      	add	sp, #28
24050a6e:	e8bd 4ff0 	ldmia.w	sp!, {r4, r5, r6, r7, r8, r9, sl, fp, lr}
24050a72:	f7ff bf25 	b.w	240508c0 <LCD_DrawCircle>
	...

24050a78 <lcd_backlight_set>:
24050a78:	b537      	push	{r0, r1, r2, r4, r5, lr}
24050a7a:	4c12      	ldr	r4, [pc, #72]	; (24050ac4 <lcd_backlight_set+0x4c>)
24050a7c:	4603      	mov	r3, r0
24050a7e:	4d12      	ldr	r5, [pc, #72]	; (24050ac8 <lcd_backlight_set+0x50>)
24050a80:	2208      	movs	r2, #8
24050a82:	9001      	str	r0, [sp, #4]
24050a84:	2100      	movs	r1, #0
24050a86:	4620      	mov	r0, r4
24050a88:	f002 f876 	bl	24052b78 <HAL_DAC_SetValue>
24050a8c:	9b01      	ldr	r3, [sp, #4]
24050a8e:	2208      	movs	r2, #8
24050a90:	2110      	movs	r1, #16
24050a92:	4620      	mov	r0, r4
24050a94:	f002 f870 	bl	24052b78 <HAL_DAC_SetValue>
24050a98:	9b01      	ldr	r3, [sp, #4]
24050a9a:	2208      	movs	r2, #8
24050a9c:	2100      	movs	r1, #0
24050a9e:	4628      	mov	r0, r5
24050aa0:	f002 f86a 	bl	24052b78 <HAL_DAC_SetValue>
24050aa4:	2100      	movs	r1, #0
24050aa6:	4620      	mov	r0, r4
24050aa8:	f002 f83d 	bl	24052b26 <HAL_DAC_Start>
24050aac:	2110      	movs	r1, #16
24050aae:	4620      	mov	r0, r4
24050ab0:	f002 f839 	bl	24052b26 <HAL_DAC_Start>
24050ab4:	2100      	movs	r1, #0
24050ab6:	4628      	mov	r0, r5
24050ab8:	b003      	add	sp, #12
24050aba:	e8bd 4030 	ldmia.w	sp!, {r4, r5, lr}
24050abe:	f002 b832 	b.w	24052b26 <HAL_DAC_Start>
24050ac2:	bf00      	nop
24050ac4:	200002b8 	.word	0x200002b8
24050ac8:	2000021c 	.word	0x2000021c

24050acc <lcd_deinit>:
24050acc:	b508      	push	{r3, lr}
24050ace:	2200      	movs	r2, #0
24050ad0:	f44f 5180 	mov.w	r1, #4096	; 0x1000
24050ad4:	480a      	ldr	r0, [pc, #40]	; (24050b00 <lcd_deinit+0x34>)
24050ad6:	f003 fbf1 	bl	240542bc <HAL_GPIO_WritePin>
24050ada:	480a      	ldr	r0, [pc, #40]	; (24050b04 <lcd_deinit+0x38>)
24050adc:	2201      	movs	r2, #1
24050ade:	2102      	movs	r1, #2
24050ae0:	f003 fbec 	bl	240542bc <HAL_GPIO_WritePin>
24050ae4:	2200      	movs	r2, #0
24050ae6:	2110      	movs	r1, #16
24050ae8:	4806      	ldr	r0, [pc, #24]	; (24050b04 <lcd_deinit+0x38>)
24050aea:	f003 fbe7 	bl	240542bc <HAL_GPIO_WritePin>
24050aee:	2200      	movs	r2, #0
24050af0:	f44f 7180 	mov.w	r1, #256	; 0x100
24050af4:	4803      	ldr	r0, [pc, #12]	; (24050b04 <lcd_deinit+0x38>)
24050af6:	e8bd 4008 	ldmia.w	sp!, {r3, lr}
24050afa:	f003 bbdf 	b.w	240542bc <HAL_GPIO_WritePin>
24050afe:	bf00      	nop
24050b00:	58020400 	.word	0x58020400
24050b04:	58020c00 	.word	0x58020c00

24050b08 <lcd_init>:
24050b08:	b5f8      	push	{r3, r4, r5, r6, r7, lr}
24050b0a:	4e9e      	ldr	r6, [pc, #632]	; (24050d84 <lcd_init+0x27c>)
24050b0c:	4605      	mov	r5, r0
24050b0e:	460f      	mov	r7, r1
24050b10:	2200      	movs	r2, #0
24050b12:	2102      	movs	r1, #2
24050b14:	4630      	mov	r0, r6
24050b16:	4c9c      	ldr	r4, [pc, #624]	; (24050d88 <lcd_init+0x280>)
24050b18:	f003 fbd0 	bl	240542bc <HAL_GPIO_WritePin>
24050b1c:	2001      	movs	r0, #1
24050b1e:	f001 f995 	bl	24051e4c <HAL_Delay>
24050b22:	4630      	mov	r0, r6
24050b24:	2201      	movs	r2, #1
24050b26:	2110      	movs	r1, #16
24050b28:	f003 fbc8 	bl	240542bc <HAL_GPIO_WritePin>
24050b2c:	2201      	movs	r2, #1
24050b2e:	f44f 5180 	mov.w	r1, #4096	; 0x1000
24050b32:	4620      	mov	r0, r4
24050b34:	f003 fbc2 	bl	240542bc <HAL_GPIO_WritePin>
24050b38:	2007      	movs	r0, #7
24050b3a:	f001 f987 	bl	24051e4c <HAL_Delay>
24050b3e:	2201      	movs	r2, #1
24050b40:	f44f 7180 	mov.w	r1, #256	; 0x100
24050b44:	4630      	mov	r0, r6
24050b46:	f003 fbb9 	bl	240542bc <HAL_GPIO_WritePin>
24050b4a:	2002      	movs	r0, #2
24050b4c:	f001 f97e 	bl	24051e4c <HAL_Delay>
24050b50:	2200      	movs	r2, #0
24050b52:	f44f 7180 	mov.w	r1, #256	; 0x100
24050b56:	4630      	mov	r0, r6
24050b58:	f003 fbb0 	bl	240542bc <HAL_GPIO_WritePin>
24050b5c:	2002      	movs	r0, #2
24050b5e:	f001 f975 	bl	24051e4c <HAL_Delay>
24050b62:	2201      	movs	r2, #1
24050b64:	f44f 7180 	mov.w	r1, #256	; 0x100
24050b68:	4630      	mov	r0, r6
24050b6a:	f003 fba7 	bl	240542bc <HAL_GPIO_WritePin>
24050b6e:	200a      	movs	r0, #10
24050b70:	f001 f96c 	bl	24051e4c <HAL_Delay>
24050b74:	2200      	movs	r2, #0
24050b76:	f44f 5180 	mov.w	r1, #4096	; 0x1000
24050b7a:	4620      	mov	r0, r4
24050b7c:	f003 fb9e 	bl	240542bc <HAL_GPIO_WritePin>
24050b80:	202d      	movs	r0, #45	; 0x2d
24050b82:	f001 f963 	bl	24051e4c <HAL_Delay>
24050b86:	2364      	movs	r3, #100	; 0x64
24050b88:	2202      	movs	r2, #2
24050b8a:	4980      	ldr	r1, [pc, #512]	; (24050d8c <lcd_init+0x284>)
24050b8c:	4628      	mov	r0, r5
24050b8e:	4e80      	ldr	r6, [pc, #512]	; (24050d90 <lcd_init+0x288>)
24050b90:	f006 feac 	bl	240578ec <HAL_SPI_Transmit>
24050b94:	2002      	movs	r0, #2
24050b96:	f001 f959 	bl	24051e4c <HAL_Delay>
24050b9a:	4620      	mov	r0, r4
24050b9c:	2201      	movs	r2, #1
24050b9e:	f44f 5180 	mov.w	r1, #4096	; 0x1000
24050ba2:	f003 fb8b 	bl	240542bc <HAL_GPIO_WritePin>
24050ba6:	2200      	movs	r2, #0
24050ba8:	f44f 5180 	mov.w	r1, #4096	; 0x1000
24050bac:	4620      	mov	r0, r4
24050bae:	f003 fb85 	bl	240542bc <HAL_GPIO_WritePin>
24050bb2:	2002      	movs	r0, #2
24050bb4:	f001 f94a 	bl	24051e4c <HAL_Delay>
24050bb8:	2364      	movs	r3, #100	; 0x64
24050bba:	2202      	movs	r2, #2
24050bbc:	4975      	ldr	r1, [pc, #468]	; (24050d94 <lcd_init+0x28c>)
24050bbe:	4628      	mov	r0, r5
24050bc0:	f006 fe94 	bl	240578ec <HAL_SPI_Transmit>
24050bc4:	2002      	movs	r0, #2
24050bc6:	f001 f941 	bl	24051e4c <HAL_Delay>
24050bca:	4620      	mov	r0, r4
24050bcc:	2201      	movs	r2, #1
24050bce:	f44f 5180 	mov.w	r1, #4096	; 0x1000
24050bd2:	f003 fb73 	bl	240542bc <HAL_GPIO_WritePin>
24050bd6:	2200      	movs	r2, #0
24050bd8:	f44f 5180 	mov.w	r1, #4096	; 0x1000
24050bdc:	4620      	mov	r0, r4
24050bde:	f003 fb6d 	bl	240542bc <HAL_GPIO_WritePin>
24050be2:	2002      	movs	r0, #2
24050be4:	f001 f932 	bl	24051e4c <HAL_Delay>
24050be8:	2364      	movs	r3, #100	; 0x64
24050bea:	2202      	movs	r2, #2
24050bec:	496a      	ldr	r1, [pc, #424]	; (24050d98 <lcd_init+0x290>)
24050bee:	4628      	mov	r0, r5
24050bf0:	f006 fe7c 	bl	240578ec <HAL_SPI_Transmit>
24050bf4:	2002      	movs	r0, #2
24050bf6:	f001 f929 	bl	24051e4c <HAL_Delay>
24050bfa:	4620      	mov	r0, r4
24050bfc:	2201      	movs	r2, #1
24050bfe:	f44f 5180 	mov.w	r1, #4096	; 0x1000
24050c02:	f003 fb5b 	bl	240542bc <HAL_GPIO_WritePin>
24050c06:	2200      	movs	r2, #0
24050c08:	f44f 5180 	mov.w	r1, #4096	; 0x1000
24050c0c:	4620      	mov	r0, r4
24050c0e:	f003 fb55 	bl	240542bc <HAL_GPIO_WritePin>
24050c12:	2002      	movs	r0, #2
24050c14:	f001 f91a 	bl	24051e4c <HAL_Delay>
24050c18:	2364      	movs	r3, #100	; 0x64
24050c1a:	4631      	mov	r1, r6
24050c1c:	2202      	movs	r2, #2
24050c1e:	4628      	mov	r0, r5
24050c20:	f006 fe64 	bl	240578ec <HAL_SPI_Transmit>
24050c24:	2002      	movs	r0, #2
24050c26:	f001 f911 	bl	24051e4c <HAL_Delay>
24050c2a:	4620      	mov	r0, r4
24050c2c:	2201      	movs	r2, #1
24050c2e:	f44f 5180 	mov.w	r1, #4096	; 0x1000
24050c32:	f003 fb43 	bl	240542bc <HAL_GPIO_WritePin>
24050c36:	2200      	movs	r2, #0
24050c38:	f44f 5180 	mov.w	r1, #4096	; 0x1000
24050c3c:	4620      	mov	r0, r4
24050c3e:	f003 fb3d 	bl	240542bc <HAL_GPIO_WritePin>
24050c42:	2002      	movs	r0, #2
24050c44:	f001 f902 	bl	24051e4c <HAL_Delay>
24050c48:	2364      	movs	r3, #100	; 0x64
24050c4a:	1cf1      	adds	r1, r6, #3
24050c4c:	2202      	movs	r2, #2
24050c4e:	4628      	mov	r0, r5
24050c50:	f006 fe4c 	bl	240578ec <HAL_SPI_Transmit>
24050c54:	2002      	movs	r0, #2
24050c56:	f001 f8f9 	bl	24051e4c <HAL_Delay>
24050c5a:	4620      	mov	r0, r4
24050c5c:	2201      	movs	r2, #1
24050c5e:	f44f 5180 	mov.w	r1, #4096	; 0x1000
24050c62:	f003 fb2b 	bl	240542bc <HAL_GPIO_WritePin>
24050c66:	2200      	movs	r2, #0
24050c68:	f44f 5180 	mov.w	r1, #4096	; 0x1000
24050c6c:	4620      	mov	r0, r4
24050c6e:	f003 fb25 	bl	240542bc <HAL_GPIO_WritePin>
24050c72:	2002      	movs	r0, #2
24050c74:	f001 f8ea 	bl	24051e4c <HAL_Delay>
24050c78:	2364      	movs	r3, #100	; 0x64
24050c7a:	1db1      	adds	r1, r6, #6
24050c7c:	2202      	movs	r2, #2
24050c7e:	4628      	mov	r0, r5
24050c80:	f006 fe34 	bl	240578ec <HAL_SPI_Transmit>
24050c84:	2002      	movs	r0, #2
24050c86:	f001 f8e1 	bl	24051e4c <HAL_Delay>
24050c8a:	4620      	mov	r0, r4
24050c8c:	2201      	movs	r2, #1
24050c8e:	f44f 5180 	mov.w	r1, #4096	; 0x1000
24050c92:	f003 fb13 	bl	240542bc <HAL_GPIO_WritePin>
24050c96:	2200      	movs	r2, #0
24050c98:	f44f 5180 	mov.w	r1, #4096	; 0x1000
24050c9c:	4620      	mov	r0, r4
24050c9e:	f003 fb0d 	bl	240542bc <HAL_GPIO_WritePin>
24050ca2:	2002      	movs	r0, #2
24050ca4:	f001 f8d2 	bl	24051e4c <HAL_Delay>
24050ca8:	2364      	movs	r3, #100	; 0x64
24050caa:	f106 0109 	add.w	r1, r6, #9
24050cae:	2202      	movs	r2, #2
24050cb0:	4628      	mov	r0, r5
24050cb2:	f006 fe1b 	bl	240578ec <HAL_SPI_Transmit>
24050cb6:	2002      	movs	r0, #2
24050cb8:	f001 f8c8 	bl	24051e4c <HAL_Delay>
24050cbc:	4620      	mov	r0, r4
24050cbe:	2201      	movs	r2, #1
24050cc0:	f44f 5180 	mov.w	r1, #4096	; 0x1000
24050cc4:	f003 fafa 	bl	240542bc <HAL_GPIO_WritePin>
24050cc8:	2200      	movs	r2, #0
24050cca:	f44f 5180 	mov.w	r1, #4096	; 0x1000
24050cce:	4620      	mov	r0, r4
24050cd0:	f003 faf4 	bl	240542bc <HAL_GPIO_WritePin>
24050cd4:	2002      	movs	r0, #2
24050cd6:	f001 f8b9 	bl	24051e4c <HAL_Delay>
24050cda:	2364      	movs	r3, #100	; 0x64
24050cdc:	2202      	movs	r2, #2
24050cde:	492f      	ldr	r1, [pc, #188]	; (24050d9c <lcd_init+0x294>)
24050ce0:	4628      	mov	r0, r5
24050ce2:	f006 fe03 	bl	240578ec <HAL_SPI_Transmit>
24050ce6:	2002      	movs	r0, #2
24050ce8:	f001 f8b0 	bl	24051e4c <HAL_Delay>
24050cec:	4620      	mov	r0, r4
24050cee:	2201      	movs	r2, #1
24050cf0:	f44f 5180 	mov.w	r1, #4096	; 0x1000
24050cf4:	f003 fae2 	bl	240542bc <HAL_GPIO_WritePin>
24050cf8:	2200      	movs	r2, #0
24050cfa:	f44f 5180 	mov.w	r1, #4096	; 0x1000
24050cfe:	4620      	mov	r0, r4
24050d00:	f003 fadc 	bl	240542bc <HAL_GPIO_WritePin>
24050d04:	2002      	movs	r0, #2
24050d06:	f001 f8a1 	bl	24051e4c <HAL_Delay>
24050d0a:	2364      	movs	r3, #100	; 0x64
24050d0c:	f106 010c 	add.w	r1, r6, #12
24050d10:	2202      	movs	r2, #2
24050d12:	4628      	mov	r0, r5
24050d14:	f006 fdea 	bl	240578ec <HAL_SPI_Transmit>
24050d18:	2002      	movs	r0, #2
24050d1a:	f001 f897 	bl	24051e4c <HAL_Delay>
24050d1e:	4620      	mov	r0, r4
24050d20:	2201      	movs	r2, #1
24050d22:	f44f 5180 	mov.w	r1, #4096	; 0x1000
24050d26:	f003 fac9 	bl	240542bc <HAL_GPIO_WritePin>
24050d2a:	2200      	movs	r2, #0
24050d2c:	f44f 5180 	mov.w	r1, #4096	; 0x1000
24050d30:	4620      	mov	r0, r4
24050d32:	f003 fac3 	bl	240542bc <HAL_GPIO_WritePin>
24050d36:	2002      	movs	r0, #2
24050d38:	f001 f888 	bl	24051e4c <HAL_Delay>
24050d3c:	2364      	movs	r3, #100	; 0x64
24050d3e:	2202      	movs	r2, #2
24050d40:	4917      	ldr	r1, [pc, #92]	; (24050da0 <lcd_init+0x298>)
24050d42:	4628      	mov	r0, r5
24050d44:	f006 fdd2 	bl	240578ec <HAL_SPI_Transmit>
24050d48:	2002      	movs	r0, #2
24050d4a:	f001 f87f 	bl	24051e4c <HAL_Delay>
24050d4e:	4620      	mov	r0, r4
24050d50:	4c14      	ldr	r4, [pc, #80]	; (24050da4 <lcd_init+0x29c>)
24050d52:	2201      	movs	r2, #1
24050d54:	f44f 5180 	mov.w	r1, #4096	; 0x1000
24050d58:	f003 fab0 	bl	240542bc <HAL_GPIO_WritePin>
24050d5c:	4621      	mov	r1, r4
24050d5e:	2200      	movs	r2, #0
24050d60:	4638      	mov	r0, r7
24050d62:	f003 fc2f 	bl	240545c4 <HAL_LTDC_SetAddress>
24050d66:	f44f 3216 	mov.w	r2, #153600	; 0x25800
24050d6a:	2100      	movs	r1, #0
24050d6c:	6820      	ldr	r0, [r4, #0]
24050d6e:	f006 ff0f 	bl	24057b90 <memset>
24050d72:	4b0d      	ldr	r3, [pc, #52]	; (24050da8 <lcd_init+0x2a0>)
24050d74:	f44f 3216 	mov.w	r2, #153600	; 0x25800
24050d78:	2100      	movs	r1, #0
24050d7a:	6818      	ldr	r0, [r3, #0]
24050d7c:	e8bd 40f8 	ldmia.w	sp!, {r3, r4, r5, r6, r7, lr}
24050d80:	f006 bf06 	b.w	24057b90 <memset>
24050d84:	58020c00 	.word	0x58020c00
24050d88:	58020400 	.word	0x58020400
24050d8c:	2405a01c 	.word	0x2405a01c
24050d90:	24058fb0 	.word	0x24058fb0
24050d94:	2405a01f 	.word	0x2405a01f
24050d98:	2405a022 	.word	0x2405a022
24050d9c:	2405a025 	.word	0x2405a025
24050da0:	2405a028 	.word	0x2405a028
24050da4:	20000028 	.word	0x20000028
24050da8:	2000002c 	.word	0x2000002c

24050dac <HAL_LTDC_ReloadEventCallback>:
24050dac:	4a06      	ldr	r2, [pc, #24]	; (24050dc8 <HAL_LTDC_ReloadEventCallback+0x1c>)
24050dae:	6813      	ldr	r3, [r2, #0]
24050db0:	3301      	adds	r3, #1
24050db2:	6013      	str	r3, [r2, #0]
24050db4:	4b05      	ldr	r3, [pc, #20]	; (24050dcc <HAL_LTDC_ReloadEventCallback+0x20>)
24050db6:	681a      	ldr	r2, [r3, #0]
24050db8:	b91a      	cbnz	r2, 24050dc2 <HAL_LTDC_ReloadEventCallback+0x16>
24050dba:	4b05      	ldr	r3, [pc, #20]	; (24050dd0 <HAL_LTDC_ReloadEventCallback+0x24>)
24050dbc:	6819      	ldr	r1, [r3, #0]
24050dbe:	f003 bc01 	b.w	240545c4 <HAL_LTDC_SetAddress>
24050dc2:	2200      	movs	r2, #0
24050dc4:	4b03      	ldr	r3, [pc, #12]	; (24050dd4 <HAL_LTDC_ReloadEventCallback+0x28>)
24050dc6:	e7f9      	b.n	24050dbc <HAL_LTDC_ReloadEventCallback+0x10>
24050dc8:	20000214 	.word	0x20000214
24050dcc:	20000218 	.word	0x20000218
24050dd0:	2000002c 	.word	0x2000002c
24050dd4:	20000028 	.word	0x20000028

24050dd8 <lcd_swap>:
24050dd8:	b508      	push	{r3, lr}
24050dda:	2102      	movs	r1, #2
24050ddc:	4804      	ldr	r0, [pc, #16]	; (24050df0 <lcd_swap+0x18>)
24050dde:	f003 fc12 	bl	24054606 <HAL_LTDC_Reload>
24050de2:	4a04      	ldr	r2, [pc, #16]	; (24050df4 <lcd_swap+0x1c>)
24050de4:	6813      	ldr	r3, [r2, #0]
24050de6:	fab3 f383 	clz	r3, r3
24050dea:	095b      	lsrs	r3, r3, #5
24050dec:	6013      	str	r3, [r2, #0]
24050dee:	bd08      	pop	{r3, pc}
24050df0:	2000032c 	.word	0x2000032c
24050df4:	20000218 	.word	0x20000218

24050df8 <lcd_get_active_buffer>:
24050df8:	4b03      	ldr	r3, [pc, #12]	; (24050e08 <lcd_get_active_buffer+0x10>)
24050dfa:	681b      	ldr	r3, [r3, #0]
24050dfc:	b113      	cbz	r3, 24050e04 <lcd_get_active_buffer+0xc>
24050dfe:	4b03      	ldr	r3, [pc, #12]	; (24050e0c <lcd_get_active_buffer+0x14>)
24050e00:	6818      	ldr	r0, [r3, #0]
24050e02:	4770      	bx	lr
24050e04:	4b02      	ldr	r3, [pc, #8]	; (24050e10 <lcd_get_active_buffer+0x18>)
24050e06:	e7fb      	b.n	24050e00 <lcd_get_active_buffer+0x8>
24050e08:	20000218 	.word	0x20000218
24050e0c:	2000002c 	.word	0x2000002c
24050e10:	20000028 	.word	0x20000028

24050e14 <lcd_get_inactive_buffer>:
24050e14:	4b03      	ldr	r3, [pc, #12]	; (24050e24 <lcd_get_inactive_buffer+0x10>)
24050e16:	681b      	ldr	r3, [r3, #0]
24050e18:	b113      	cbz	r3, 24050e20 <lcd_get_inactive_buffer+0xc>
24050e1a:	4b03      	ldr	r3, [pc, #12]	; (24050e28 <lcd_get_inactive_buffer+0x14>)
24050e1c:	6818      	ldr	r0, [r3, #0]
24050e1e:	4770      	bx	lr
24050e20:	4b02      	ldr	r3, [pc, #8]	; (24050e2c <lcd_get_inactive_buffer+0x18>)
24050e22:	e7fb      	b.n	24050e1c <lcd_get_inactive_buffer+0x8>
24050e24:	20000218 	.word	0x20000218
24050e28:	20000028 	.word	0x20000028
24050e2c:	2000002c 	.word	0x2000002c

24050e30 <lcd_sync>:
24050e30:	b508      	push	{r3, lr}
24050e32:	f7ff ffe1 	bl	24050df8 <lcd_get_active_buffer>
24050e36:	4601      	mov	r1, r0
24050e38:	f7ff ffec 	bl	24050e14 <lcd_get_inactive_buffer>
24050e3c:	4281      	cmp	r1, r0
24050e3e:	d005      	beq.n	24050e4c <lcd_sync+0x1c>
24050e40:	f44f 3216 	mov.w	r2, #153600	; 0x25800
24050e44:	e8bd 4008 	ldmia.w	sp!, {r3, lr}
24050e48:	f006 be94 	b.w	24057b74 <memcpy>
24050e4c:	bd08      	pop	{r3, pc}
	...

24050e50 <lcd_wait_for_vblank>:
24050e50:	4b03      	ldr	r3, [pc, #12]	; (24050e60 <lcd_wait_for_vblank+0x10>)
24050e52:	681a      	ldr	r2, [r3, #0]
24050e54:	bf00      	nop
24050e56:	6819      	ldr	r1, [r3, #0]
24050e58:	4291      	cmp	r1, r2
24050e5a:	d0fb      	beq.n	24050e54 <lcd_wait_for_vblank+0x4>
24050e5c:	4770      	bx	lr
24050e5e:	bf00      	nop
24050e60:	20000214 	.word	0x20000214

24050e64 <SystemClock_Config>:
24050e64:	b510      	push	{r4, lr}
24050e66:	b09c      	sub	sp, #112	; 0x70
24050e68:	224c      	movs	r2, #76	; 0x4c
24050e6a:	2100      	movs	r1, #0
24050e6c:	a809      	add	r0, sp, #36	; 0x24
24050e6e:	f006 fe8f 	bl	24057b90 <memset>
24050e72:	2220      	movs	r2, #32
24050e74:	2100      	movs	r1, #0
24050e76:	a801      	add	r0, sp, #4
24050e78:	f006 fe8a 	bl	24057b90 <memset>
24050e7c:	2002      	movs	r0, #2
24050e7e:	f004 f95b 	bl	24055138 <HAL_PWREx_ConfigSupply>
24050e82:	2300      	movs	r3, #0
24050e84:	9300      	str	r3, [sp, #0]
24050e86:	4b25      	ldr	r3, [pc, #148]	; (24050f1c <SystemClock_Config+0xb8>)
24050e88:	699a      	ldr	r2, [r3, #24]
24050e8a:	f442 4240 	orr.w	r2, r2, #49152	; 0xc000
24050e8e:	619a      	str	r2, [r3, #24]
24050e90:	699a      	ldr	r2, [r3, #24]
24050e92:	f402 4240 	and.w	r2, r2, #49152	; 0xc000
24050e96:	9200      	str	r2, [sp, #0]
24050e98:	9a00      	ldr	r2, [sp, #0]
24050e9a:	699a      	ldr	r2, [r3, #24]
24050e9c:	0494      	lsls	r4, r2, #18
24050e9e:	d5fc      	bpl.n	24050e9a <SystemClock_Config+0x36>
24050ea0:	f004 f942 	bl	24055128 <HAL_PWR_EnableBkUpAccess>
24050ea4:	4b1e      	ldr	r3, [pc, #120]	; (24050f20 <SystemClock_Config+0xbc>)
24050ea6:	2440      	movs	r4, #64	; 0x40
24050ea8:	2010      	movs	r0, #16
24050eaa:	6f1a      	ldr	r2, [r3, #112]	; 0x70
24050eac:	218c      	movs	r1, #140	; 0x8c
24050eae:	f022 0218 	bic.w	r2, r2, #24
24050eb2:	671a      	str	r2, [r3, #112]	; 0x70
24050eb4:	6a9a      	ldr	r2, [r3, #40]	; 0x28
24050eb6:	f022 0203 	bic.w	r2, r2, #3
24050eba:	629a      	str	r2, [r3, #40]	; 0x28
24050ebc:	230e      	movs	r3, #14
24050ebe:	2200      	movs	r2, #0
24050ec0:	9309      	str	r3, [sp, #36]	; 0x24
24050ec2:	2301      	movs	r3, #1
24050ec4:	921b      	str	r2, [sp, #108]	; 0x6c
24050ec6:	e9cd 330b 	strd	r3, r3, [sp, #44]	; 0x2c
24050eca:	e9cd 430d 	strd	r4, r3, [sp, #52]	; 0x34
24050ece:	2302      	movs	r3, #2
24050ed0:	e9cd 3212 	strd	r3, r2, [sp, #72]	; 0x48
24050ed4:	e9cd 3316 	strd	r3, r3, [sp, #88]	; 0x58
24050ed8:	9318      	str	r3, [sp, #96]	; 0x60
24050eda:	2308      	movs	r3, #8
24050edc:	e9cd 0114 	strd	r0, r1, [sp, #80]	; 0x50
24050ee0:	a809      	add	r0, sp, #36	; 0x24
24050ee2:	e9cd 3219 	strd	r3, r2, [sp, #100]	; 0x64
24050ee6:	f004 f94b 	bl	24055180 <HAL_RCC_OscConfig>
24050eea:	b108      	cbz	r0, 24050ef0 <SystemClock_Config+0x8c>
24050eec:	b672      	cpsid	i
24050eee:	e7fe      	b.n	24050eee <SystemClock_Config+0x8a>
24050ef0:	2303      	movs	r3, #3
24050ef2:	223f      	movs	r2, #63	; 0x3f
24050ef4:	2107      	movs	r1, #7
24050ef6:	e9cd 2301 	strd	r2, r3, [sp, #4]
24050efa:	f44f 6380 	mov.w	r3, #1024	; 0x400
24050efe:	e9cd 0003 	strd	r0, r0, [sp, #12]
24050f02:	a801      	add	r0, sp, #4
24050f04:	e9cd 4405 	strd	r4, r4, [sp, #20]
24050f08:	e9cd 3407 	strd	r3, r4, [sp, #28]
24050f0c:	f004 fc64 	bl	240557d8 <HAL_RCC_ClockConfig>
24050f10:	b108      	cbz	r0, 24050f16 <SystemClock_Config+0xb2>
24050f12:	b672      	cpsid	i
24050f14:	e7fe      	b.n	24050f14 <SystemClock_Config+0xb0>
24050f16:	b01c      	add	sp, #112	; 0x70
24050f18:	bd10      	pop	{r4, pc}
24050f1a:	bf00      	nop
24050f1c:	58024800 	.word	0x58024800
24050f20:	58024400 	.word	0x58024400

24050f24 <PeriphCommonClock_Config>:
24050f24:	b500      	push	{lr}
24050f26:	b0af      	sub	sp, #188	; 0xbc
24050f28:	2290      	movs	r2, #144	; 0x90
24050f2a:	2100      	movs	r1, #0
24050f2c:	a809      	add	r0, sp, #36	; 0x24
24050f2e:	f006 fe2f 	bl	24057b90 <memset>
24050f32:	4a0f      	ldr	r2, [pc, #60]	; (24050f70 <PeriphCommonClock_Config+0x4c>)
24050f34:	2319      	movs	r3, #25
24050f36:	21c0      	movs	r1, #192	; 0xc0
24050f38:	2040      	movs	r0, #64	; 0x40
24050f3a:	e9cd 2300 	strd	r2, r3, [sp]
24050f3e:	2305      	movs	r3, #5
24050f40:	2202      	movs	r2, #2
24050f42:	e9cd 1302 	strd	r1, r3, [sp, #8]
24050f46:	e9cd 2304 	strd	r2, r3, [sp, #16]
24050f4a:	2300      	movs	r3, #0
24050f4c:	e9cd 0306 	strd	r0, r3, [sp, #24]
24050f50:	9308      	str	r3, [sp, #32]
24050f52:	2301      	movs	r3, #1
24050f54:	4668      	mov	r0, sp
24050f56:	9315      	str	r3, [sp, #84]	; 0x54
24050f58:	f44f 4300 	mov.w	r3, #32768	; 0x8000
24050f5c:	932d      	str	r3, [sp, #180]	; 0xb4
24050f5e:	f004 fe73 	bl	24055c48 <HAL_RCCEx_PeriphCLKConfig>
24050f62:	b108      	cbz	r0, 24050f68 <PeriphCommonClock_Config+0x44>
24050f64:	b672      	cpsid	i
24050f66:	e7fe      	b.n	24050f66 <PeriphCommonClock_Config+0x42>
24050f68:	b02f      	add	sp, #188	; 0xbc
24050f6a:	f85d fb04 	ldr.w	pc, [sp], #4
24050f6e:	bf00      	nop
24050f70:	80080100 	.word	0x80080100

24050f74 <main>:
24050f74:	e92d 4ff0 	stmdb	sp!, {r4, r5, r6, r7, r8, r9, sl, fp, lr}
24050f78:	f04f 0914 	mov.w	r9, #20
24050f7c:	b099      	sub	sp, #100	; 0x64
24050f7e:	4fc0      	ldr	r7, [pc, #768]	; (24051280 <main+0x30c>)
24050f80:	f000 ff24 	bl	24051dcc <HAL_Init>
24050f84:	f7ff ff6e 	bl	24050e64 <SystemClock_Config>
24050f88:	2400      	movs	r4, #0
24050f8a:	f7ff ffcb 	bl	24050f24 <PeriphCommonClock_Config>
24050f8e:	464a      	mov	r2, r9
24050f90:	2100      	movs	r1, #0
24050f92:	a80b      	add	r0, sp, #44	; 0x2c
24050f94:	f006 fdfc 	bl	24057b90 <memset>
24050f98:	f8d7 3140 	ldr.w	r3, [r7, #320]	; 0x140
24050f9c:	2201      	movs	r2, #1
24050f9e:	2108      	movs	r1, #8
24050fa0:	f043 0310 	orr.w	r3, r3, #16
24050fa4:	48b7      	ldr	r0, [pc, #732]	; (24051284 <main+0x310>)
24050fa6:	2501      	movs	r5, #1
24050fa8:	f44f 1888 	mov.w	r8, #1114112	; 0x110000
24050fac:	f8c7 3140 	str.w	r3, [r7, #320]	; 0x140
24050fb0:	2604      	movs	r6, #4
24050fb2:	f8d7 3140 	ldr.w	r3, [r7, #320]	; 0x140
24050fb6:	f04f 0a07 	mov.w	sl, #7
24050fba:	f8df b2f4 	ldr.w	fp, [pc, #756]	; 240512b0 <main+0x33c>
24050fbe:	f003 0310 	and.w	r3, r3, #16
24050fc2:	9303      	str	r3, [sp, #12]
24050fc4:	9b03      	ldr	r3, [sp, #12]
24050fc6:	f8d7 3140 	ldr.w	r3, [r7, #320]	; 0x140
24050fca:	f043 0304 	orr.w	r3, r3, #4
24050fce:	f8c7 3140 	str.w	r3, [r7, #320]	; 0x140
24050fd2:	f8d7 3140 	ldr.w	r3, [r7, #320]	; 0x140
24050fd6:	f003 0304 	and.w	r3, r3, #4
24050fda:	9304      	str	r3, [sp, #16]
24050fdc:	9b04      	ldr	r3, [sp, #16]
24050fde:	f8d7 3140 	ldr.w	r3, [r7, #320]	; 0x140
24050fe2:	f043 0301 	orr.w	r3, r3, #1
24050fe6:	f8c7 3140 	str.w	r3, [r7, #320]	; 0x140
24050fea:	f8d7 3140 	ldr.w	r3, [r7, #320]	; 0x140
24050fee:	f003 0301 	and.w	r3, r3, #1
24050ff2:	9305      	str	r3, [sp, #20]
24050ff4:	9b05      	ldr	r3, [sp, #20]
24050ff6:	f8d7 3140 	ldr.w	r3, [r7, #320]	; 0x140
24050ffa:	f043 0302 	orr.w	r3, r3, #2
24050ffe:	f8c7 3140 	str.w	r3, [r7, #320]	; 0x140
24051002:	f8d7 3140 	ldr.w	r3, [r7, #320]	; 0x140
24051006:	f003 0302 	and.w	r3, r3, #2
2405100a:	9306      	str	r3, [sp, #24]
2405100c:	9b06      	ldr	r3, [sp, #24]
2405100e:	f8d7 3140 	ldr.w	r3, [r7, #320]	; 0x140
24051012:	f043 0308 	orr.w	r3, r3, #8
24051016:	f8c7 3140 	str.w	r3, [r7, #320]	; 0x140
2405101a:	f8d7 3140 	ldr.w	r3, [r7, #320]	; 0x140
2405101e:	f003 0308 	and.w	r3, r3, #8
24051022:	9307      	str	r3, [sp, #28]
24051024:	9b07      	ldr	r3, [sp, #28]
24051026:	f003 f949 	bl	240542bc <HAL_GPIO_WritePin>
2405102a:	2200      	movs	r2, #0
2405102c:	f44f 7180 	mov.w	r1, #256	; 0x100
24051030:	4894      	ldr	r0, [pc, #592]	; (24051284 <main+0x310>)
24051032:	f003 f943 	bl	240542bc <HAL_GPIO_WritePin>
24051036:	2201      	movs	r2, #1
24051038:	f44f 5180 	mov.w	r1, #4096	; 0x1000
2405103c:	4892      	ldr	r0, [pc, #584]	; (24051288 <main+0x314>)
2405103e:	f003 f93d 	bl	240542bc <HAL_GPIO_WritePin>
24051042:	2201      	movs	r2, #1
24051044:	f44f 7188 	mov.w	r1, #272	; 0x110
24051048:	4890      	ldr	r0, [pc, #576]	; (2405128c <main+0x318>)
2405104a:	f003 f937 	bl	240542bc <HAL_GPIO_WritePin>
2405104e:	2200      	movs	r2, #0
24051050:	2102      	movs	r1, #2
24051052:	488e      	ldr	r0, [pc, #568]	; (2405128c <main+0x318>)
24051054:	f003 f932 	bl	240542bc <HAL_GPIO_WritePin>
24051058:	f44f 7384 	mov.w	r3, #264	; 0x108
2405105c:	a90b      	add	r1, sp, #44	; 0x2c
2405105e:	4889      	ldr	r0, [pc, #548]	; (24051284 <main+0x310>)
24051060:	e9cd 350b 	strd	r3, r5, [sp, #44]	; 0x2c
24051064:	e9cd 440d 	strd	r4, r4, [sp, #52]	; 0x34
24051068:	f003 f836 	bl	240540d8 <HAL_GPIO_Init>
2405106c:	f242 0322 	movw	r3, #8226	; 0x2022
24051070:	a90b      	add	r1, sp, #44	; 0x2c
24051072:	4887      	ldr	r0, [pc, #540]	; (24051290 <main+0x31c>)
24051074:	950d      	str	r5, [sp, #52]	; 0x34
24051076:	e9cd 340b 	strd	r3, r4, [sp, #44]	; 0x2c
2405107a:	f003 f82d 	bl	240540d8 <HAL_GPIO_Init>
2405107e:	a90b      	add	r1, sp, #44	; 0x2c
24051080:	4884      	ldr	r0, [pc, #528]	; (24051294 <main+0x320>)
24051082:	940d      	str	r4, [sp, #52]	; 0x34
24051084:	e9cd 540b 	strd	r5, r4, [sp, #44]	; 0x2c
24051088:	f003 f826 	bl	240540d8 <HAL_GPIO_Init>
2405108c:	a90b      	add	r1, sp, #44	; 0x2c
2405108e:	4881      	ldr	r0, [pc, #516]	; (24051294 <main+0x320>)
24051090:	940d      	str	r4, [sp, #52]	; 0x34
24051092:	e9cd 680b 	strd	r6, r8, [sp, #44]	; 0x2c
24051096:	f003 f81f 	bl	240540d8 <HAL_GPIO_Init>
2405109a:	2380      	movs	r3, #128	; 0x80
2405109c:	a90b      	add	r1, sp, #44	; 0x2c
2405109e:	4879      	ldr	r0, [pc, #484]	; (24051284 <main+0x310>)
240510a0:	940d      	str	r4, [sp, #52]	; 0x34
240510a2:	e9cd 380b 	strd	r3, r8, [sp, #44]	; 0x2c
240510a6:	f44f 5880 	mov.w	r8, #4096	; 0x1000
240510aa:	f003 f815 	bl	240540d8 <HAL_GPIO_Init>
240510ae:	a90b      	add	r1, sp, #44	; 0x2c
240510b0:	4875      	ldr	r0, [pc, #468]	; (24051288 <main+0x314>)
240510b2:	e9cd 850b 	strd	r8, r5, [sp, #44]	; 0x2c
240510b6:	e9cd 440d 	strd	r4, r4, [sp, #52]	; 0x34
240510ba:	f003 f80d 	bl	240540d8 <HAL_GPIO_Init>
240510be:	f44f 7389 	mov.w	r3, #274	; 0x112
240510c2:	a90b      	add	r1, sp, #44	; 0x2c
240510c4:	4871      	ldr	r0, [pc, #452]	; (2405128c <main+0x318>)
240510c6:	e9cd 350b 	strd	r3, r5, [sp, #44]	; 0x2c
240510ca:	e9cd 440d 	strd	r4, r4, [sp, #52]	; 0x34
240510ce:	f003 f803 	bl	240540d8 <HAL_GPIO_Init>
240510d2:	f64c 2321 	movw	r3, #51745	; 0xca21
240510d6:	a90b      	add	r1, sp, #44	; 0x2c
240510d8:	486c      	ldr	r0, [pc, #432]	; (2405128c <main+0x318>)
240510da:	950d      	str	r5, [sp, #52]	; 0x34
240510dc:	e9cd 340b 	strd	r3, r4, [sp, #44]	; 0x2c
240510e0:	f002 fffa 	bl	240540d8 <HAL_GPIO_Init>
240510e4:	f8d7 3138 	ldr.w	r3, [r7, #312]	; 0x138
240510e8:	4622      	mov	r2, r4
240510ea:	4621      	mov	r1, r4
240510ec:	432b      	orrs	r3, r5
240510ee:	200b      	movs	r0, #11
240510f0:	f8c7 3138 	str.w	r3, [r7, #312]	; 0x138
240510f4:	f8d7 3138 	ldr.w	r3, [r7, #312]	; 0x138
240510f8:	f04f 5780 	mov.w	r7, #268435456	; 0x10000000
240510fc:	402b      	ands	r3, r5
240510fe:	9302      	str	r3, [sp, #8]
24051100:	9b02      	ldr	r3, [sp, #8]
24051102:	f001 fc95 	bl	24052a30 <HAL_NVIC_SetPriority>
24051106:	200b      	movs	r0, #11
24051108:	f001 fcc4 	bl	24052a94 <HAL_NVIC_EnableIRQ>
2405110c:	2234      	movs	r2, #52	; 0x34
2405110e:	4621      	mov	r1, r4
24051110:	a80b      	add	r0, sp, #44	; 0x2c
24051112:	f006 fd3d 	bl	24057b90 <memset>
24051116:	4b60      	ldr	r3, [pc, #384]	; (24051298 <main+0x324>)
24051118:	f44f 7cbe 	mov.w	ip, #380	; 0x17c
2405111c:	f44f 7ec4 	mov.w	lr, #392	; 0x188
24051120:	4658      	mov	r0, fp
24051122:	f8cb 5018 	str.w	r5, [fp, #24]
24051126:	f8ab 4034 	strh.w	r4, [fp, #52]	; 0x34
2405112a:	f88b 4036 	strb.w	r4, [fp, #54]	; 0x36
2405112e:	e9cb 3400 	strd	r3, r4, [fp]
24051132:	2309      	movs	r3, #9
24051134:	e9cb 7304 	strd	r7, r3, [fp, #16]
24051138:	233c      	movs	r3, #60	; 0x3c
2405113a:	e9cb 3a07 	strd	r3, sl, [fp, #28]
2405113e:	23f7      	movs	r3, #247	; 0xf7
24051140:	e9cb c309 	strd	ip, r3, [fp, #36]	; 0x24
24051144:	23ff      	movs	r3, #255	; 0xff
24051146:	e9cb 4402 	strd	r4, r4, [fp, #8]
2405114a:	e9cb e30b 	strd	lr, r3, [fp, #44]	; 0x2c
2405114e:	f003 f941 	bl	240543d4 <HAL_LTDC_Init>
24051152:	23ff      	movs	r3, #255	; 0xff
24051154:	b108      	cbz	r0, 2405115a <main+0x1e6>
24051156:	b672      	cpsid	i
24051158:	e7fe      	b.n	24051158 <main+0x1e4>
2405115a:	e9cd 3310 	strd	r3, r3, [sp, #64]	; 0x40
2405115e:	f44f 6480 	mov.w	r4, #1024	; 0x400
24051162:	2305      	movs	r3, #5
24051164:	f44f 71a0 	mov.w	r1, #320	; 0x140
24051168:	22f0      	movs	r2, #240	; 0xf0
2405116a:	2702      	movs	r7, #2
2405116c:	900b      	str	r0, [sp, #44]	; 0x2c
2405116e:	9216      	str	r2, [sp, #88]	; 0x58
24051170:	f88d 005e 	strb.w	r0, [sp, #94]	; 0x5e
24051174:	e9cd 4312 	strd	r4, r3, [sp, #72]	; 0x48
24051178:	f04f 5310 	mov.w	r3, #603979776	; 0x24000000
2405117c:	e9cd 3114 	strd	r3, r1, [sp, #80]	; 0x50
24051180:	f44f 437f 	mov.w	r3, #65280	; 0xff00
24051184:	e9cd 100c 	strd	r1, r0, [sp, #48]	; 0x30
24051188:	e9cd 270e 	strd	r2, r7, [sp, #56]	; 0x38
2405118c:	a90b      	add	r1, sp, #44	; 0x2c
2405118e:	4602      	mov	r2, r0
24051190:	4658      	mov	r0, fp
24051192:	f8ad 305c 	strh.w	r3, [sp, #92]	; 0x5c
24051196:	f003 f9e8 	bl	2405456a <HAL_LTDC_ConfigLayer>
2405119a:	4603      	mov	r3, r0
2405119c:	b108      	cbz	r0, 240511a2 <main+0x22e>
2405119e:	b672      	cpsid	i
240511a0:	e7fe      	b.n	240511a0 <main+0x22c>
240511a2:	483e      	ldr	r0, [pc, #248]	; (2405129c <main+0x328>)
240511a4:	f44f 0280 	mov.w	r2, #4194304	; 0x400000
240511a8:	f8df c108 	ldr.w	ip, [pc, #264]	; 240512b4 <main+0x340>
240511ac:	f04f 6e80 	mov.w	lr, #67108864	; 0x4000000
240511b0:	e9c0 c200 	strd	ip, r2, [r0]
240511b4:	f44f 3200 	mov.w	r2, #131072	; 0x20000
240511b8:	e9c0 2a02 	strd	r2, sl, [r0, #8]
240511bc:	f04f 5240 	mov.w	r2, #805306368	; 0x30000000
240511c0:	e9c0 3304 	strd	r3, r3, [r0, #16]
240511c4:	e9c0 e206 	strd	lr, r2, [r0, #24]
240511c8:	e9c0 3308 	strd	r3, r3, [r0, #32]
240511cc:	e9c0 330a 	strd	r3, r3, [r0, #40]	; 0x28
240511d0:	e9c0 330d 	strd	r3, r3, [r0, #52]	; 0x34
240511d4:	e9c0 330f 	strd	r3, r3, [r0, #60]	; 0x3c
240511d8:	e9c0 3311 	strd	r3, r3, [r0, #68]	; 0x44
240511dc:	e9c0 3313 	strd	r3, r3, [r0, #76]	; 0x4c
240511e0:	e9c0 3315 	strd	r3, r3, [r0, #84]	; 0x54
240511e4:	f006 faec 	bl	240577c0 <HAL_SPI_Init>
240511e8:	4601      	mov	r1, r0
240511ea:	b108      	cbz	r0, 240511f0 <main+0x27c>
240511ec:	b672      	cpsid	i
240511ee:	e7fe      	b.n	240511ee <main+0x27a>
240511f0:	9001      	str	r0, [sp, #4]
240511f2:	2218      	movs	r2, #24
240511f4:	a80b      	add	r0, sp, #44	; 0x2c
240511f6:	4c2a      	ldr	r4, [pc, #168]	; (240512a0 <main+0x32c>)
240511f8:	f006 fcca 	bl	24057b90 <memset>
240511fc:	4b29      	ldr	r3, [pc, #164]	; (240512a4 <main+0x330>)
240511fe:	9901      	ldr	r1, [sp, #4]
24051200:	4620      	mov	r0, r4
24051202:	e9c4 3600 	strd	r3, r6, [r4]
24051206:	f04f 7380 	mov.w	r3, #16777216	; 0x1000000
2405120a:	60a1      	str	r1, [r4, #8]
2405120c:	6361      	str	r1, [r4, #52]	; 0x34
2405120e:	6421      	str	r1, [r4, #64]	; 0x40
24051210:	e9c4 3903 	strd	r3, r9, [r4, #12]
24051214:	2308      	movs	r3, #8
24051216:	e9c4 7105 	strd	r7, r1, [r4, #20]
2405121a:	e9c4 1107 	strd	r1, r1, [r4, #28]
2405121e:	e9c4 5109 	strd	r5, r1, [r4, #36]	; 0x24
24051222:	e9c4 110b 	strd	r1, r1, [r4, #44]	; 0x2c
24051226:	e9c4 310e 	strd	r3, r1, [r4, #56]	; 0x38
2405122a:	f003 fb15 	bl	24054858 <HAL_OSPI_Init>
2405122e:	b108      	cbz	r0, 24051234 <main+0x2c0>
24051230:	b672      	cpsid	i
24051232:	e7fe      	b.n	24051232 <main+0x2be>
24051234:	f04f 1301 	mov.w	r3, #65537	; 0x10001
24051238:	f241 3288 	movw	r2, #5000	; 0x1388
2405123c:	a90b      	add	r1, sp, #44	; 0x2c
2405123e:	4620      	mov	r0, r4
24051240:	950b      	str	r5, [sp, #44]	; 0x2c
24051242:	950d      	str	r5, [sp, #52]	; 0x34
24051244:	930e      	str	r3, [sp, #56]	; 0x38
24051246:	f003 fccd 	bl	24054be4 <HAL_OSPIM_Config>
2405124a:	4602      	mov	r2, r0
2405124c:	b108      	cbz	r0, 24051252 <main+0x2de>
2405124e:	b672      	cpsid	i
24051250:	e7fe      	b.n	24051250 <main+0x2dc>
24051252:	4815      	ldr	r0, [pc, #84]	; (240512a8 <main+0x334>)
24051254:	4611      	mov	r1, r2
24051256:	4b15      	ldr	r3, [pc, #84]	; (240512ac <main+0x338>)
24051258:	6082      	str	r2, [r0, #8]
2405125a:	61c2      	str	r2, [r0, #28]
2405125c:	60c2      	str	r2, [r0, #12]
2405125e:	6342      	str	r2, [r0, #52]	; 0x34
24051260:	e9c0 3200 	strd	r3, r2, [r0]
24051264:	f64b 3380 	movw	r3, #48000	; 0xbb80
24051268:	6203      	str	r3, [r0, #32]
2405126a:	463b      	mov	r3, r7
2405126c:	e9c0 2205 	strd	r2, r2, [r0, #20]
24051270:	e9c0 820b 	strd	r8, r2, [r0, #44]	; 0x2c
24051274:	f005 fff4 	bl	24057260 <HAL_SAI_InitProtocol>
24051278:	4604      	mov	r4, r0
2405127a:	b1e8      	cbz	r0, 240512b8 <main+0x344>
2405127c:	b672      	cpsid	i
2405127e:	e7fe      	b.n	2405127e <main+0x30a>
24051280:	58024400 	.word	0x58024400
24051284:	58021000 	.word	0x58021000
24051288:	58020400 	.word	0x58020400
2405128c:	58020c00 	.word	0x58020c00
24051290:	58020800 	.word	0x58020800
24051294:	58020000 	.word	0x58020000
24051298:	50001000 	.word	0x50001000
2405129c:	20000230 	.word	0x20000230
240512a0:	200002cc 	.word	0x200002cc
240512a4:	52005000 	.word	0x52005000
240512a8:	20000540 	.word	0x20000540
240512ac:	40015804 	.word	0x40015804
240512b0:	2000032c 	.word	0x2000032c
240512b4:	40003800 	.word	0x40003800
240512b8:	4f73      	ldr	r7, [pc, #460]	; (24051488 <main+0x514>)
240512ba:	4601      	mov	r1, r0
240512bc:	900a      	str	r0, [sp, #40]	; 0x28
240512be:	221c      	movs	r2, #28
240512c0:	e9cd 0008 	strd	r0, r0, [sp, #32]
240512c4:	a80b      	add	r0, sp, #44	; 0x2c
240512c6:	f006 fc63 	bl	24057b90 <memset>
240512ca:	4b70      	ldr	r3, [pc, #448]	; (2405148c <main+0x518>)
240512cc:	4638      	mov	r0, r7
240512ce:	82bc      	strh	r4, [r7, #20]
240512d0:	613e      	str	r6, [r7, #16]
240512d2:	61bd      	str	r5, [r7, #24]
240512d4:	773c      	strb	r4, [r7, #28]
240512d6:	637c      	str	r4, [r7, #52]	; 0x34
240512d8:	f887 4038 	strb.w	r4, [r7, #56]	; 0x38
240512dc:	e9c7 3400 	strd	r3, r4, [r7]
240512e0:	e9c7 4402 	strd	r4, r4, [r7, #8]
240512e4:	e9c7 4409 	strd	r4, r4, [r7, #36]	; 0x24
240512e8:	e9c7 440b 	strd	r4, r4, [r7, #44]	; 0x2c
240512ec:	f001 fa4a 	bl	24052784 <HAL_ADC_Init>
240512f0:	b108      	cbz	r0, 240512f6 <main+0x382>
240512f2:	b672      	cpsid	i
240512f4:	e7fe      	b.n	240512f4 <main+0x380>
240512f6:	9008      	str	r0, [sp, #32]
240512f8:	a908      	add	r1, sp, #32
240512fa:	4638      	mov	r0, r7
240512fc:	f001 fb28 	bl	24052950 <HAL_ADCEx_MultiModeConfigChannel>
24051300:	b108      	cbz	r0, 24051306 <main+0x392>
24051302:	b672      	cpsid	i
24051304:	e7fe      	b.n	24051304 <main+0x390>
24051306:	2306      	movs	r3, #6
24051308:	4c61      	ldr	r4, [pc, #388]	; (24051490 <main+0x51c>)
2405130a:	a90b      	add	r1, sp, #44	; 0x2c
2405130c:	900d      	str	r0, [sp, #52]	; 0x34
2405130e:	9010      	str	r0, [sp, #64]	; 0x40
24051310:	f88d 0045 	strb.w	r0, [sp, #69]	; 0x45
24051314:	4638      	mov	r0, r7
24051316:	e9cd 430b 	strd	r4, r3, [sp, #44]	; 0x2c
2405131a:	f240 73ff 	movw	r3, #2047	; 0x7ff
2405131e:	e9cd 360e 	strd	r3, r6, [sp, #56]	; 0x38
24051322:	f000 ff5d 	bl	240521e0 <HAL_ADC_ConfigChannel>
24051326:	4601      	mov	r1, r0
24051328:	b108      	cbz	r0, 2405132e <main+0x3ba>
2405132a:	b672      	cpsid	i
2405132c:	e7fe      	b.n	2405132c <main+0x3b8>
2405132e:	2224      	movs	r2, #36	; 0x24
24051330:	a80b      	add	r0, sp, #44	; 0x2c
24051332:	f006 fc2d 	bl	24057b90 <memset>
24051336:	4857      	ldr	r0, [pc, #348]	; (24051494 <main+0x520>)
24051338:	4b57      	ldr	r3, [pc, #348]	; (24051498 <main+0x524>)
2405133a:	6003      	str	r3, [r0, #0]
2405133c:	f001 fbe0 	bl	24052b00 <HAL_DAC_Init>
24051340:	b108      	cbz	r0, 24051346 <main+0x3d2>
24051342:	b672      	cpsid	i
24051344:	e7fe      	b.n	24051344 <main+0x3d0>
24051346:	2200      	movs	r2, #0
24051348:	2601      	movs	r6, #1
2405134a:	a90b      	add	r1, sp, #44	; 0x2c
2405134c:	4851      	ldr	r0, [pc, #324]	; (24051494 <main+0x520>)
2405134e:	920d      	str	r2, [sp, #52]	; 0x34
24051350:	e9cd 220b 	strd	r2, r2, [sp, #44]	; 0x2c
24051354:	e9cd 620e 	strd	r6, r2, [sp, #56]	; 0x38
24051358:	f001 fc20 	bl	24052b9c <HAL_DAC_ConfigChannel>
2405135c:	b108      	cbz	r0, 24051362 <main+0x3ee>
2405135e:	b672      	cpsid	i
24051360:	e7fe      	b.n	24051360 <main+0x3ec>
24051362:	a90b      	add	r1, sp, #44	; 0x2c
24051364:	2210      	movs	r2, #16
24051366:	484b      	ldr	r0, [pc, #300]	; (24051494 <main+0x520>)
24051368:	f001 fc18 	bl	24052b9c <HAL_DAC_ConfigChannel>
2405136c:	4601      	mov	r1, r0
2405136e:	b108      	cbz	r0, 24051374 <main+0x400>
24051370:	b672      	cpsid	i
24051372:	e7fe      	b.n	24051372 <main+0x3fe>
24051374:	2224      	movs	r2, #36	; 0x24
24051376:	4c49      	ldr	r4, [pc, #292]	; (2405149c <main+0x528>)
24051378:	a80b      	add	r0, sp, #44	; 0x2c
2405137a:	f006 fc09 	bl	24057b90 <memset>
2405137e:	4b48      	ldr	r3, [pc, #288]	; (240514a0 <main+0x52c>)
24051380:	4620      	mov	r0, r4
24051382:	6023      	str	r3, [r4, #0]
24051384:	f001 fbbc 	bl	24052b00 <HAL_DAC_Init>
24051388:	4602      	mov	r2, r0
2405138a:	b108      	cbz	r0, 24051390 <main+0x41c>
2405138c:	b672      	cpsid	i
2405138e:	e7fe      	b.n	2405138e <main+0x41a>
24051390:	e9cd 000b 	strd	r0, r0, [sp, #44]	; 0x2c
24051394:	e9cd 060d 	strd	r0, r6, [sp, #52]	; 0x34
24051398:	900f      	str	r0, [sp, #60]	; 0x3c
2405139a:	a90b      	add	r1, sp, #44	; 0x2c
2405139c:	4620      	mov	r0, r4
2405139e:	f001 fbfd 	bl	24052b9c <HAL_DAC_ConfigChannel>
240513a2:	4603      	mov	r3, r0
240513a4:	b108      	cbz	r0, 240513aa <main+0x436>
240513a6:	b672      	cpsid	i
240513a8:	e7fe      	b.n	240513a8 <main+0x434>
240513aa:	483e      	ldr	r0, [pc, #248]	; (240514a4 <main+0x530>)
240513ac:	f44f 3240 	mov.w	r2, #196608	; 0x30000
240513b0:	493d      	ldr	r1, [pc, #244]	; (240514a8 <main+0x534>)
240513b2:	e9c0 1200 	strd	r1, r2, [r0]
240513b6:	2202      	movs	r2, #2
240513b8:	e9c0 2302 	strd	r2, r3, [r0, #8]
240513bc:	f002 fe4e 	bl	2405405c <HAL_DMA2D_Init>
240513c0:	4605      	mov	r5, r0
240513c2:	b108      	cbz	r0, 240513c8 <main+0x454>
240513c4:	b672      	cpsid	i
240513c6:	e7fe      	b.n	240513c6 <main+0x452>
240513c8:	2214      	movs	r2, #20
240513ca:	4601      	mov	r1, r0
240513cc:	a80b      	add	r0, sp, #44	; 0x2c
240513ce:	4c37      	ldr	r4, [pc, #220]	; (240514ac <main+0x538>)
240513d0:	f006 fbde 	bl	24057b90 <memset>
240513d4:	4b36      	ldr	r3, [pc, #216]	; (240514b0 <main+0x53c>)
240513d6:	227f      	movs	r2, #127	; 0x7f
240513d8:	4620      	mov	r0, r4
240513da:	9508      	str	r5, [sp, #32]
240513dc:	6125      	str	r5, [r4, #16]
240513de:	61a5      	str	r5, [r4, #24]
240513e0:	6165      	str	r5, [r4, #20]
240513e2:	e9c4 3500 	strd	r3, r5, [r4]
240513e6:	23ff      	movs	r3, #255	; 0xff
240513e8:	e9c4 2302 	strd	r2, r3, [r4, #8]
240513ec:	f04f 4380 	mov.w	r3, #1073741824	; 0x40000000
240513f0:	61e3      	str	r3, [r4, #28]
240513f2:	f005 fc55 	bl	24056ca0 <HAL_RTC_Init>
240513f6:	b108      	cbz	r0, 240513fc <main+0x488>
240513f8:	b672      	cpsid	i
240513fa:	e7fe      	b.n	240513fa <main+0x486>
240513fc:	f8ad 002c 	strh.w	r0, [sp, #44]	; 0x2c
24051400:	4632      	mov	r2, r6
24051402:	f88d 002e 	strb.w	r0, [sp, #46]	; 0x2e
24051406:	a90b      	add	r1, sp, #44	; 0x2c
24051408:	e9cd 000e 	strd	r0, r0, [sp, #56]	; 0x38
2405140c:	4620      	mov	r0, r4
2405140e:	f005 fc9a 	bl	24056d46 <HAL_RTC_SetTime>
24051412:	b108      	cbz	r0, 24051418 <main+0x4a4>
24051414:	b672      	cpsid	i
24051416:	e7fe      	b.n	24051416 <main+0x4a2>
24051418:	4b26      	ldr	r3, [pc, #152]	; (240514b4 <main+0x540>)
2405141a:	4620      	mov	r0, r4
2405141c:	4632      	mov	r2, r6
2405141e:	a908      	add	r1, sp, #32
24051420:	9308      	str	r3, [sp, #32]
24051422:	f005 fcf2 	bl	24056e0a <HAL_RTC_SetDate>
24051426:	4604      	mov	r4, r0
24051428:	b108      	cbz	r0, 2405142e <main+0x4ba>
2405142a:	b672      	cpsid	i
2405142c:	e7fe      	b.n	2405142c <main+0x4b8>
2405142e:	4602      	mov	r2, r0
24051430:	4601      	mov	r1, r0
24051432:	205c      	movs	r0, #92	; 0x5c
24051434:	f001 fafc 	bl	24052a30 <HAL_NVIC_SetPriority>
24051438:	205c      	movs	r0, #92	; 0x5c
2405143a:	f001 fb2b 	bl	24052a94 <HAL_NVIC_EnableIRQ>
2405143e:	481e      	ldr	r0, [pc, #120]	; (240514b8 <main+0x544>)
24051440:	f7ff fb44 	bl	24050acc <lcd_deinit>
24051444:	491d      	ldr	r1, [pc, #116]	; (240514bc <main+0x548>)
24051446:	481c      	ldr	r0, [pc, #112]	; (240514b8 <main+0x544>)
24051448:	f7ff fb5e 	bl	24050b08 <lcd_init>
2405144c:	20af      	movs	r0, #175	; 0xaf
2405144e:	f7ff fb13 	bl	24050a78 <lcd_backlight_set>
24051452:	481b      	ldr	r0, [pc, #108]	; (240514c0 <main+0x54c>)
24051454:	f7fe feba 	bl	240501cc <flash_memory_map>
24051458:	f04f 4310 	mov.w	r3, #2415919104	; 0x90000000
2405145c:	681b      	ldr	r3, [r3, #0]
2405145e:	f1b3 3f88 	cmp.w	r3, #2290649224	; 0x88888888
24051462:	d101      	bne.n	24051468 <main+0x4f4>
24051464:	b672      	cpsid	i
24051466:	e7fe      	b.n	24051466 <main+0x4f2>
24051468:	4a16      	ldr	r2, [pc, #88]	; (240514c4 <main+0x550>)
2405146a:	4621      	mov	r1, r4
2405146c:	4816      	ldr	r0, [pc, #88]	; (240514c8 <main+0x554>)
2405146e:	f006 fb8f 	bl	24057b90 <memset>
24051472:	f64b 3280 	movw	r2, #48000	; 0xbb80
24051476:	4914      	ldr	r1, [pc, #80]	; (240514c8 <main+0x554>)
24051478:	4814      	ldr	r0, [pc, #80]	; (240514cc <main+0x558>)
2405147a:	f005 ffe3 	bl	24057444 <HAL_SAI_Transmit_DMA>
2405147e:	f7fe ff65 	bl	2405034c <game_init>
24051482:	f7ff f8dd 	bl	24050640 <game_loop>
24051486:	e7fc      	b.n	24051482 <main+0x50e>
24051488:	2000044c 	.word	0x2000044c
2405148c:	40022000 	.word	0x40022000
24051490:	10c00010 	.word	0x10c00010
24051494:	200002b8 	.word	0x200002b8
24051498:	40007400 	.word	0x40007400
2405149c:	2000021c 	.word	0x2000021c
240514a0:	58003400 	.word	0x58003400
240514a4:	200004d8 	.word	0x200004d8
240514a8:	52001000 	.word	0x52001000
240514ac:	200004b0 	.word	0x200004b0
240514b0:	58004000 	.word	0x58004000
240514b4:	00010101 	.word	0x00010101
240514b8:	20000230 	.word	0x20000230
240514bc:	2000032c 	.word	0x2000032c
240514c0:	200002cc 	.word	0x200002cc
240514c4:	00017700 	.word	0x00017700
240514c8:	30000000 	.word	0x30000000
240514cc:	20000540 	.word	0x20000540

240514d0 <Error_Handler>:
240514d0:	b672      	cpsid	i
240514d2:	e7fe      	b.n	240514d2 <Error_Handler+0x2>

240514d4 <HAL_MspInit>:
240514d4:	4b07      	ldr	r3, [pc, #28]	; (240514f4 <HAL_MspInit+0x20>)
240514d6:	b082      	sub	sp, #8
240514d8:	f8d3 2154 	ldr.w	r2, [r3, #340]	; 0x154
240514dc:	f042 0202 	orr.w	r2, r2, #2
240514e0:	f8c3 2154 	str.w	r2, [r3, #340]	; 0x154
240514e4:	f8d3 3154 	ldr.w	r3, [r3, #340]	; 0x154
240514e8:	f003 0302 	and.w	r3, r3, #2
240514ec:	9301      	str	r3, [sp, #4]
240514ee:	9b01      	ldr	r3, [sp, #4]
240514f0:	b002      	add	sp, #8
240514f2:	4770      	bx	lr
240514f4:	58024400 	.word	0x58024400

240514f8 <HAL_ADC_MspInit>:
240514f8:	b510      	push	{r4, lr}
240514fa:	b088      	sub	sp, #32
240514fc:	4604      	mov	r4, r0
240514fe:	2214      	movs	r2, #20
24051500:	2100      	movs	r1, #0
24051502:	a803      	add	r0, sp, #12
24051504:	f006 fb44 	bl	24057b90 <memset>
24051508:	6822      	ldr	r2, [r4, #0]
2405150a:	4b18      	ldr	r3, [pc, #96]	; (2405156c <HAL_ADC_MspInit+0x74>)
2405150c:	429a      	cmp	r2, r3
2405150e:	d12a      	bne.n	24051566 <HAL_ADC_MspInit+0x6e>
24051510:	4b17      	ldr	r3, [pc, #92]	; (24051570 <HAL_ADC_MspInit+0x78>)
24051512:	2400      	movs	r4, #0
24051514:	a903      	add	r1, sp, #12
24051516:	4817      	ldr	r0, [pc, #92]	; (24051574 <HAL_ADC_MspInit+0x7c>)
24051518:	f8d3 2138 	ldr.w	r2, [r3, #312]	; 0x138
2405151c:	f042 0220 	orr.w	r2, r2, #32
24051520:	f8c3 2138 	str.w	r2, [r3, #312]	; 0x138
24051524:	f8d3 2138 	ldr.w	r2, [r3, #312]	; 0x138
24051528:	f002 0220 	and.w	r2, r2, #32
2405152c:	9201      	str	r2, [sp, #4]
2405152e:	9a01      	ldr	r2, [sp, #4]
24051530:	f8d3 2140 	ldr.w	r2, [r3, #320]	; 0x140
24051534:	f042 0204 	orr.w	r2, r2, #4
24051538:	f8c3 2140 	str.w	r2, [r3, #320]	; 0x140
2405153c:	2210      	movs	r2, #16
2405153e:	f8d3 3140 	ldr.w	r3, [r3, #320]	; 0x140
24051542:	9405      	str	r4, [sp, #20]
24051544:	f003 0304 	and.w	r3, r3, #4
24051548:	9302      	str	r3, [sp, #8]
2405154a:	9b02      	ldr	r3, [sp, #8]
2405154c:	2303      	movs	r3, #3
2405154e:	e9cd 2303 	strd	r2, r3, [sp, #12]
24051552:	f002 fdc1 	bl	240540d8 <HAL_GPIO_Init>
24051556:	2012      	movs	r0, #18
24051558:	4622      	mov	r2, r4
2405155a:	4621      	mov	r1, r4
2405155c:	f001 fa68 	bl	24052a30 <HAL_NVIC_SetPriority>
24051560:	2012      	movs	r0, #18
24051562:	f001 fa97 	bl	24052a94 <HAL_NVIC_EnableIRQ>
24051566:	b008      	add	sp, #32
24051568:	bd10      	pop	{r4, pc}
2405156a:	bf00      	nop
2405156c:	40022000 	.word	0x40022000
24051570:	58024400 	.word	0x58024400
24051574:	58020800 	.word	0x58020800

24051578 <HAL_DAC_MspInit>:
24051578:	2214      	movs	r2, #20
2405157a:	2100      	movs	r1, #0
2405157c:	b510      	push	{r4, lr}
2405157e:	b08a      	sub	sp, #40	; 0x28
24051580:	4604      	mov	r4, r0
24051582:	eb0d 0002 	add.w	r0, sp, r2
24051586:	f006 fb03 	bl	24057b90 <memset>
2405158a:	6823      	ldr	r3, [r4, #0]
2405158c:	4a22      	ldr	r2, [pc, #136]	; (24051618 <HAL_DAC_MspInit+0xa0>)
2405158e:	4293      	cmp	r3, r2
24051590:	d124      	bne.n	240515dc <HAL_DAC_MspInit+0x64>
24051592:	4b22      	ldr	r3, [pc, #136]	; (2405161c <HAL_DAC_MspInit+0xa4>)
24051594:	f8d3 2148 	ldr.w	r2, [r3, #328]	; 0x148
24051598:	f042 5200 	orr.w	r2, r2, #536870912	; 0x20000000
2405159c:	f8c3 2148 	str.w	r2, [r3, #328]	; 0x148
240515a0:	f8d3 2148 	ldr.w	r2, [r3, #328]	; 0x148
240515a4:	f002 5200 	and.w	r2, r2, #536870912	; 0x20000000
240515a8:	9201      	str	r2, [sp, #4]
240515aa:	9a01      	ldr	r2, [sp, #4]
240515ac:	f8d3 2140 	ldr.w	r2, [r3, #320]	; 0x140
240515b0:	f042 0201 	orr.w	r2, r2, #1
240515b4:	f8c3 2140 	str.w	r2, [r3, #320]	; 0x140
240515b8:	f8d3 3140 	ldr.w	r3, [r3, #320]	; 0x140
240515bc:	f003 0301 	and.w	r3, r3, #1
240515c0:	9302      	str	r3, [sp, #8]
240515c2:	9b02      	ldr	r3, [sp, #8]
240515c4:	2330      	movs	r3, #48	; 0x30
240515c6:	2203      	movs	r2, #3
240515c8:	9305      	str	r3, [sp, #20]
240515ca:	2300      	movs	r3, #0
240515cc:	a905      	add	r1, sp, #20
240515ce:	4814      	ldr	r0, [pc, #80]	; (24051620 <HAL_DAC_MspInit+0xa8>)
240515d0:	e9cd 2306 	strd	r2, r3, [sp, #24]
240515d4:	f002 fd80 	bl	240540d8 <HAL_GPIO_Init>
240515d8:	b00a      	add	sp, #40	; 0x28
240515da:	bd10      	pop	{r4, pc}
240515dc:	4a11      	ldr	r2, [pc, #68]	; (24051624 <HAL_DAC_MspInit+0xac>)
240515de:	4293      	cmp	r3, r2
240515e0:	d1fa      	bne.n	240515d8 <HAL_DAC_MspInit+0x60>
240515e2:	4b0e      	ldr	r3, [pc, #56]	; (2405161c <HAL_DAC_MspInit+0xa4>)
240515e4:	f8d3 2154 	ldr.w	r2, [r3, #340]	; 0x154
240515e8:	f442 5200 	orr.w	r2, r2, #8192	; 0x2000
240515ec:	f8c3 2154 	str.w	r2, [r3, #340]	; 0x154
240515f0:	f8d3 2154 	ldr.w	r2, [r3, #340]	; 0x154
240515f4:	f402 5200 	and.w	r2, r2, #8192	; 0x2000
240515f8:	9203      	str	r2, [sp, #12]
240515fa:	9a03      	ldr	r2, [sp, #12]
240515fc:	f8d3 2140 	ldr.w	r2, [r3, #320]	; 0x140
24051600:	f042 0201 	orr.w	r2, r2, #1
24051604:	f8c3 2140 	str.w	r2, [r3, #320]	; 0x140
24051608:	f8d3 3140 	ldr.w	r3, [r3, #320]	; 0x140
2405160c:	f003 0301 	and.w	r3, r3, #1
24051610:	9304      	str	r3, [sp, #16]
24051612:	9b04      	ldr	r3, [sp, #16]
24051614:	2340      	movs	r3, #64	; 0x40
24051616:	e7d6      	b.n	240515c6 <HAL_DAC_MspInit+0x4e>
24051618:	40007400 	.word	0x40007400
2405161c:	58024400 	.word	0x58024400
24051620:	58020000 	.word	0x58020000
24051624:	58003400 	.word	0x58003400

24051628 <HAL_DMA2D_MspInit>:
24051628:	6802      	ldr	r2, [r0, #0]
2405162a:	b082      	sub	sp, #8
2405162c:	4b08      	ldr	r3, [pc, #32]	; (24051650 <HAL_DMA2D_MspInit+0x28>)
2405162e:	429a      	cmp	r2, r3
24051630:	d10c      	bne.n	2405164c <HAL_DMA2D_MspInit+0x24>
24051632:	4b08      	ldr	r3, [pc, #32]	; (24051654 <HAL_DMA2D_MspInit+0x2c>)
24051634:	f8d3 2134 	ldr.w	r2, [r3, #308]	; 0x134
24051638:	f042 0210 	orr.w	r2, r2, #16
2405163c:	f8c3 2134 	str.w	r2, [r3, #308]	; 0x134
24051640:	f8d3 3134 	ldr.w	r3, [r3, #308]	; 0x134
24051644:	f003 0310 	and.w	r3, r3, #16
24051648:	9301      	str	r3, [sp, #4]
2405164a:	9b01      	ldr	r3, [sp, #4]
2405164c:	b002      	add	sp, #8
2405164e:	4770      	bx	lr
24051650:	52001000 	.word	0x52001000
24051654:	58024400 	.word	0x58024400

24051658 <HAL_LTDC_MspInit>:
24051658:	e92d 41f0 	stmdb	sp!, {r4, r5, r6, r7, r8, lr}
2405165c:	b0ba      	sub	sp, #232	; 0xe8
2405165e:	4604      	mov	r4, r0
24051660:	2214      	movs	r2, #20
24051662:	2100      	movs	r1, #0
24051664:	a807      	add	r0, sp, #28
24051666:	f006 fa93 	bl	24057b90 <memset>
2405166a:	22b8      	movs	r2, #184	; 0xb8
2405166c:	2100      	movs	r1, #0
2405166e:	a80c      	add	r0, sp, #48	; 0x30
24051670:	f006 fa8e 	bl	24057b90 <memset>
24051674:	6822      	ldr	r2, [r4, #0]
24051676:	4b77      	ldr	r3, [pc, #476]	; (24051854 <HAL_LTDC_MspInit+0x1fc>)
24051678:	429a      	cmp	r2, r3
2405167a:	f040 80e8 	bne.w	2405184e <HAL_LTDC_MspInit+0x1f6>
2405167e:	f04f 5300 	mov.w	r3, #536870912	; 0x20000000
24051682:	2104      	movs	r1, #4
24051684:	2018      	movs	r0, #24
24051686:	930c      	str	r3, [sp, #48]	; 0x30
24051688:	2309      	movs	r3, #9
2405168a:	e9cd 1315 	strd	r1, r3, [sp, #84]	; 0x54
2405168e:	2302      	movs	r3, #2
24051690:	e9cd 3317 	strd	r3, r3, [sp, #92]	; 0x5c
24051694:	f44f 6340 	mov.w	r3, #3072	; 0xc00
24051698:	e9cd 0319 	strd	r0, r3, [sp, #100]	; 0x64
2405169c:	2300      	movs	r3, #0
2405169e:	a80c      	add	r0, sp, #48	; 0x30
240516a0:	e9cd 331b 	strd	r3, r3, [sp, #108]	; 0x6c
240516a4:	f004 fad0 	bl	24055c48 <HAL_RCCEx_PeriphCLKConfig>
240516a8:	b108      	cbz	r0, 240516ae <HAL_LTDC_MspInit+0x56>
240516aa:	f7ff ff11 	bl	240514d0 <Error_Handler>
240516ae:	4b6a      	ldr	r3, [pc, #424]	; (24051858 <HAL_LTDC_MspInit+0x200>)
240516b0:	2400      	movs	r4, #0
240516b2:	2502      	movs	r5, #2
240516b4:	f04f 0801 	mov.w	r8, #1
240516b8:	f8d3 2144 	ldr.w	r2, [r3, #324]	; 0x144
240516bc:	270b      	movs	r7, #11
240516be:	a907      	add	r1, sp, #28
240516c0:	4866      	ldr	r0, [pc, #408]	; (2405185c <HAL_LTDC_MspInit+0x204>)
240516c2:	f042 0208 	orr.w	r2, r2, #8
240516c6:	260e      	movs	r6, #14
240516c8:	f8c3 2144 	str.w	r2, [r3, #324]	; 0x144
240516cc:	f8d3 2144 	ldr.w	r2, [r3, #324]	; 0x144
240516d0:	f002 0208 	and.w	r2, r2, #8
240516d4:	9201      	str	r2, [sp, #4]
240516d6:	9a01      	ldr	r2, [sp, #4]
240516d8:	f8d3 2140 	ldr.w	r2, [r3, #320]	; 0x140
240516dc:	f042 0204 	orr.w	r2, r2, #4
240516e0:	f8c3 2140 	str.w	r2, [r3, #320]	; 0x140
240516e4:	f8d3 2140 	ldr.w	r2, [r3, #320]	; 0x140
240516e8:	f002 0204 	and.w	r2, r2, #4
240516ec:	9202      	str	r2, [sp, #8]
240516ee:	9a02      	ldr	r2, [sp, #8]
240516f0:	f8d3 2140 	ldr.w	r2, [r3, #320]	; 0x140
240516f4:	f042 0201 	orr.w	r2, r2, #1
240516f8:	f8c3 2140 	str.w	r2, [r3, #320]	; 0x140
240516fc:	f8d3 2140 	ldr.w	r2, [r3, #320]	; 0x140
24051700:	f002 0201 	and.w	r2, r2, #1
24051704:	9203      	str	r2, [sp, #12]
24051706:	9a03      	ldr	r2, [sp, #12]
24051708:	f8d3 2140 	ldr.w	r2, [r3, #320]	; 0x140
2405170c:	f042 0202 	orr.w	r2, r2, #2
24051710:	f8c3 2140 	str.w	r2, [r3, #320]	; 0x140
24051714:	f8d3 2140 	ldr.w	r2, [r3, #320]	; 0x140
24051718:	f002 0202 	and.w	r2, r2, #2
2405171c:	9204      	str	r2, [sp, #16]
2405171e:	9a04      	ldr	r2, [sp, #16]
24051720:	f8d3 2140 	ldr.w	r2, [r3, #320]	; 0x140
24051724:	f042 0210 	orr.w	r2, r2, #16
24051728:	f8c3 2140 	str.w	r2, [r3, #320]	; 0x140
2405172c:	f8d3 2140 	ldr.w	r2, [r3, #320]	; 0x140
24051730:	f002 0210 	and.w	r2, r2, #16
24051734:	9205      	str	r2, [sp, #20]
24051736:	9a05      	ldr	r2, [sp, #20]
24051738:	f8d3 2140 	ldr.w	r2, [r3, #320]	; 0x140
2405173c:	f042 0208 	orr.w	r2, r2, #8
24051740:	f8c3 2140 	str.w	r2, [r3, #320]	; 0x140
24051744:	f8d3 3140 	ldr.w	r3, [r3, #320]	; 0x140
24051748:	f003 0308 	and.w	r3, r3, #8
2405174c:	9306      	str	r3, [sp, #24]
2405174e:	9b06      	ldr	r3, [sp, #24]
24051750:	e9cd 8507 	strd	r8, r5, [sp, #28]
24051754:	e9cd 4409 	strd	r4, r4, [sp, #36]	; 0x24
24051758:	970b      	str	r7, [sp, #44]	; 0x2c
2405175a:	f002 fcbd 	bl	240540d8 <HAL_GPIO_Init>
2405175e:	f44f 6338 	mov.w	r3, #2944	; 0xb80
24051762:	a907      	add	r1, sp, #28
24051764:	483e      	ldr	r0, [pc, #248]	; (24051860 <HAL_LTDC_MspInit+0x208>)
24051766:	960b      	str	r6, [sp, #44]	; 0x2c
24051768:	e9cd 3507 	strd	r3, r5, [sp, #28]
2405176c:	e9cd 4409 	strd	r4, r4, [sp, #36]	; 0x24
24051770:	f002 fcb2 	bl	240540d8 <HAL_GPIO_Init>
24051774:	a907      	add	r1, sp, #28
24051776:	483b      	ldr	r0, [pc, #236]	; (24051864 <HAL_LTDC_MspInit+0x20c>)
24051778:	e9cd 8507 	strd	r8, r5, [sp, #28]
2405177c:	f04f 0809 	mov.w	r8, #9
24051780:	e9cd 4409 	strd	r4, r4, [sp, #36]	; 0x24
24051784:	f8cd 802c 	str.w	r8, [sp, #44]	; 0x2c
24051788:	f002 fca6 	bl	240540d8 <HAL_GPIO_Init>
2405178c:	f44f 4320 	mov.w	r3, #40960	; 0xa000
24051790:	a907      	add	r1, sp, #28
24051792:	4835      	ldr	r0, [pc, #212]	; (24051868 <HAL_LTDC_MspInit+0x210>)
24051794:	960b      	str	r6, [sp, #44]	; 0x2c
24051796:	e9cd 3507 	strd	r3, r5, [sp, #28]
2405179a:	e9cd 4409 	strd	r4, r4, [sp, #36]	; 0x24
2405179e:	f002 fc9b 	bl	240540d8 <HAL_GPIO_Init>
240517a2:	f44f 439a 	mov.w	r3, #19712	; 0x4d00
240517a6:	a907      	add	r1, sp, #28
240517a8:	482e      	ldr	r0, [pc, #184]	; (24051864 <HAL_LTDC_MspInit+0x20c>)
240517aa:	960b      	str	r6, [sp, #44]	; 0x2c
240517ac:	e9cd 3507 	strd	r3, r5, [sp, #28]
240517b0:	e9cd 4409 	strd	r4, r4, [sp, #36]	; 0x24
240517b4:	f002 fc90 	bl	240540d8 <HAL_GPIO_Init>
240517b8:	f44f 6389 	mov.w	r3, #1096	; 0x448
240517bc:	a907      	add	r1, sp, #28
240517be:	482b      	ldr	r0, [pc, #172]	; (2405186c <HAL_LTDC_MspInit+0x214>)
240517c0:	960b      	str	r6, [sp, #44]	; 0x2c
240517c2:	e9cd 3507 	strd	r3, r5, [sp, #28]
240517c6:	e9cd 4409 	strd	r4, r4, [sp, #36]	; 0x24
240517ca:	f002 fc85 	bl	240540d8 <HAL_GPIO_Init>
240517ce:	f44f 6398 	mov.w	r3, #1216	; 0x4c0
240517d2:	a907      	add	r1, sp, #28
240517d4:	4821      	ldr	r0, [pc, #132]	; (2405185c <HAL_LTDC_MspInit+0x204>)
240517d6:	960b      	str	r6, [sp, #44]	; 0x2c
240517d8:	e9cd 3507 	strd	r3, r5, [sp, #28]
240517dc:	e9cd 4409 	strd	r4, r4, [sp, #36]	; 0x24
240517e0:	f002 fc7a 	bl	240540d8 <HAL_GPIO_Init>
240517e4:	f44f 7300 	mov.w	r3, #512	; 0x200
240517e8:	a907      	add	r1, sp, #28
240517ea:	481c      	ldr	r0, [pc, #112]	; (2405185c <HAL_LTDC_MspInit+0x204>)
240517ec:	e9cd 3507 	strd	r3, r5, [sp, #28]
240517f0:	230a      	movs	r3, #10
240517f2:	e9cd 4409 	strd	r4, r4, [sp, #36]	; 0x24
240517f6:	930b      	str	r3, [sp, #44]	; 0x2c
240517f8:	f002 fc6e 	bl	240540d8 <HAL_GPIO_Init>
240517fc:	f44f 6380 	mov.w	r3, #1024	; 0x400
24051800:	a907      	add	r1, sp, #28
24051802:	4817      	ldr	r0, [pc, #92]	; (24051860 <HAL_LTDC_MspInit+0x208>)
24051804:	e9cd 3507 	strd	r3, r5, [sp, #28]
24051808:	230c      	movs	r3, #12
2405180a:	e9cd 4409 	strd	r4, r4, [sp, #36]	; 0x24
2405180e:	930b      	str	r3, [sp, #44]	; 0x2c
24051810:	f002 fc62 	bl	240540d8 <HAL_GPIO_Init>
24051814:	2304      	movs	r3, #4
24051816:	a907      	add	r1, sp, #28
24051818:	4814      	ldr	r0, [pc, #80]	; (2405186c <HAL_LTDC_MspInit+0x214>)
2405181a:	f8cd 802c 	str.w	r8, [sp, #44]	; 0x2c
2405181e:	e9cd 3507 	strd	r3, r5, [sp, #28]
24051822:	e9cd 4409 	strd	r4, r4, [sp, #36]	; 0x24
24051826:	f002 fc57 	bl	240540d8 <HAL_GPIO_Init>
2405182a:	2320      	movs	r3, #32
2405182c:	a907      	add	r1, sp, #28
2405182e:	480d      	ldr	r0, [pc, #52]	; (24051864 <HAL_LTDC_MspInit+0x20c>)
24051830:	970b      	str	r7, [sp, #44]	; 0x2c
24051832:	e9cd 3507 	strd	r3, r5, [sp, #28]
24051836:	e9cd 4409 	strd	r4, r4, [sp, #36]	; 0x24
2405183a:	f002 fc4d 	bl	240540d8 <HAL_GPIO_Init>
2405183e:	2058      	movs	r0, #88	; 0x58
24051840:	4622      	mov	r2, r4
24051842:	4621      	mov	r1, r4
24051844:	f001 f8f4 	bl	24052a30 <HAL_NVIC_SetPriority>
24051848:	2058      	movs	r0, #88	; 0x58
2405184a:	f001 f923 	bl	24052a94 <HAL_NVIC_EnableIRQ>
2405184e:	b03a      	add	sp, #232	; 0xe8
24051850:	e8bd 81f0 	ldmia.w	sp!, {r4, r5, r6, r7, r8, pc}
24051854:	50001000 	.word	0x50001000
24051858:	58024400 	.word	0x58024400
2405185c:	58020800 	.word	0x58020800
24051860:	58020000 	.word	0x58020000
24051864:	58020400 	.word	0x58020400
24051868:	58021000 	.word	0x58021000
2405186c:	58020c00 	.word	0x58020c00

24051870 <HAL_OSPI_MspInit>:
24051870:	e92d 43f0 	stmdb	sp!, {r4, r5, r6, r7, r8, r9, lr}
24051874:	b0bb      	sub	sp, #236	; 0xec
24051876:	4604      	mov	r4, r0
24051878:	2214      	movs	r2, #20
2405187a:	2100      	movs	r1, #0
2405187c:	a807      	add	r0, sp, #28
2405187e:	f006 f987 	bl	24057b90 <memset>
24051882:	22b8      	movs	r2, #184	; 0xb8
24051884:	2100      	movs	r1, #0
24051886:	a80c      	add	r0, sp, #48	; 0x30
24051888:	f006 f982 	bl	24057b90 <memset>
2405188c:	6822      	ldr	r2, [r4, #0]
2405188e:	4b50      	ldr	r3, [pc, #320]	; (240519d0 <HAL_OSPI_MspInit+0x160>)
24051890:	429a      	cmp	r2, r3
24051892:	f040 8099 	bne.w	240519c8 <HAL_OSPI_MspInit+0x158>
24051896:	f04f 7300 	mov.w	r3, #33554432	; 0x2000000
2405189a:	930c      	str	r3, [sp, #48]	; 0x30
2405189c:	2330      	movs	r3, #48	; 0x30
2405189e:	eb0d 0003 	add.w	r0, sp, r3
240518a2:	931e      	str	r3, [sp, #120]	; 0x78
240518a4:	f004 f9d0 	bl	24055c48 <HAL_RCCEx_PeriphCLKConfig>
240518a8:	b108      	cbz	r0, 240518ae <HAL_OSPI_MspInit+0x3e>
240518aa:	f7ff fe11 	bl	240514d0 <Error_Handler>
240518ae:	4b49      	ldr	r3, [pc, #292]	; (240519d4 <HAL_OSPI_MspInit+0x164>)
240518b0:	2402      	movs	r4, #2
240518b2:	2600      	movs	r6, #0
240518b4:	2503      	movs	r5, #3
240518b6:	f8d3 2134 	ldr.w	r2, [r3, #308]	; 0x134
240518ba:	2709      	movs	r7, #9
240518bc:	f04f 0904 	mov.w	r9, #4
240518c0:	a907      	add	r1, sp, #28
240518c2:	f442 1200 	orr.w	r2, r2, #2097152	; 0x200000
240518c6:	4844      	ldr	r0, [pc, #272]	; (240519d8 <HAL_OSPI_MspInit+0x168>)
240518c8:	f04f 080b 	mov.w	r8, #11
240518cc:	f8c3 2134 	str.w	r2, [r3, #308]	; 0x134
240518d0:	f8d3 2134 	ldr.w	r2, [r3, #308]	; 0x134
240518d4:	f402 1200 	and.w	r2, r2, #2097152	; 0x200000
240518d8:	9201      	str	r2, [sp, #4]
240518da:	9a01      	ldr	r2, [sp, #4]
240518dc:	f8d3 2134 	ldr.w	r2, [r3, #308]	; 0x134
240518e0:	f442 4280 	orr.w	r2, r2, #16384	; 0x4000
240518e4:	f8c3 2134 	str.w	r2, [r3, #308]	; 0x134
240518e8:	f8d3 2134 	ldr.w	r2, [r3, #308]	; 0x134
240518ec:	f402 4280 	and.w	r2, r2, #16384	; 0x4000
240518f0:	9202      	str	r2, [sp, #8]
240518f2:	9a02      	ldr	r2, [sp, #8]
240518f4:	f8d3 2140 	ldr.w	r2, [r3, #320]	; 0x140
240518f8:	f042 0210 	orr.w	r2, r2, #16
240518fc:	f8c3 2140 	str.w	r2, [r3, #320]	; 0x140
24051900:	f8d3 2140 	ldr.w	r2, [r3, #320]	; 0x140
24051904:	f002 0210 	and.w	r2, r2, #16
24051908:	9203      	str	r2, [sp, #12]
2405190a:	9a03      	ldr	r2, [sp, #12]
2405190c:	f8d3 2140 	ldr.w	r2, [r3, #320]	; 0x140
24051910:	f042 0201 	orr.w	r2, r2, #1
24051914:	f8c3 2140 	str.w	r2, [r3, #320]	; 0x140
24051918:	f8d3 2140 	ldr.w	r2, [r3, #320]	; 0x140
2405191c:	f002 0201 	and.w	r2, r2, #1
24051920:	9204      	str	r2, [sp, #16]
24051922:	9a04      	ldr	r2, [sp, #16]
24051924:	f8d3 2140 	ldr.w	r2, [r3, #320]	; 0x140
24051928:	f042 0202 	orr.w	r2, r2, #2
2405192c:	f8c3 2140 	str.w	r2, [r3, #320]	; 0x140
24051930:	f8d3 2140 	ldr.w	r2, [r3, #320]	; 0x140
24051934:	f002 0202 	and.w	r2, r2, #2
24051938:	9205      	str	r2, [sp, #20]
2405193a:	9a05      	ldr	r2, [sp, #20]
2405193c:	f8d3 2140 	ldr.w	r2, [r3, #320]	; 0x140
24051940:	f042 0208 	orr.w	r2, r2, #8
24051944:	f8c3 2140 	str.w	r2, [r3, #320]	; 0x140
24051948:	f8d3 3140 	ldr.w	r3, [r3, #320]	; 0x140
2405194c:	f003 0308 	and.w	r3, r3, #8
24051950:	9306      	str	r3, [sp, #24]
24051952:	9b06      	ldr	r3, [sp, #24]
24051954:	e9cd 9407 	strd	r9, r4, [sp, #28]
24051958:	e9cd 6509 	strd	r6, r5, [sp, #36]	; 0x24
2405195c:	970b      	str	r7, [sp, #44]	; 0x2c
2405195e:	f002 fbbb 	bl	240540d8 <HAL_GPIO_Init>
24051962:	a907      	add	r1, sp, #28
24051964:	481d      	ldr	r0, [pc, #116]	; (240519dc <HAL_OSPI_MspInit+0x16c>)
24051966:	970b      	str	r7, [sp, #44]	; 0x2c
24051968:	e9cd 4407 	strd	r4, r4, [sp, #28]
2405196c:	e9cd 6509 	strd	r6, r5, [sp, #36]	; 0x24
24051970:	f002 fbb2 	bl	240540d8 <HAL_GPIO_Init>
24051974:	a907      	add	r1, sp, #28
24051976:	481a      	ldr	r0, [pc, #104]	; (240519e0 <HAL_OSPI_MspInit+0x170>)
24051978:	f8cd 802c 	str.w	r8, [sp, #44]	; 0x2c
2405197c:	e9cd 4407 	strd	r4, r4, [sp, #28]
24051980:	e9cd 6509 	strd	r6, r5, [sp, #36]	; 0x24
24051984:	f002 fba8 	bl	240540d8 <HAL_GPIO_Init>
24051988:	a907      	add	r1, sp, #28
2405198a:	4815      	ldr	r0, [pc, #84]	; (240519e0 <HAL_OSPI_MspInit+0x170>)
2405198c:	970b      	str	r7, [sp, #44]	; 0x2c
2405198e:	e9cd 9407 	strd	r9, r4, [sp, #28]
24051992:	e9cd 6509 	strd	r6, r5, [sp, #36]	; 0x24
24051996:	f002 fb9f 	bl	240540d8 <HAL_GPIO_Init>
2405199a:	f44f 6300 	mov.w	r3, #2048	; 0x800
2405199e:	a907      	add	r1, sp, #28
240519a0:	480d      	ldr	r0, [pc, #52]	; (240519d8 <HAL_OSPI_MspInit+0x168>)
240519a2:	f8cd 802c 	str.w	r8, [sp, #44]	; 0x2c
240519a6:	e9cd 3407 	strd	r3, r4, [sp, #28]
240519aa:	e9cd 6509 	strd	r6, r5, [sp, #36]	; 0x24
240519ae:	f002 fb93 	bl	240540d8 <HAL_GPIO_Init>
240519b2:	f44f 5380 	mov.w	r3, #4096	; 0x1000
240519b6:	a907      	add	r1, sp, #28
240519b8:	480a      	ldr	r0, [pc, #40]	; (240519e4 <HAL_OSPI_MspInit+0x174>)
240519ba:	970b      	str	r7, [sp, #44]	; 0x2c
240519bc:	e9cd 3407 	strd	r3, r4, [sp, #28]
240519c0:	e9cd 6509 	strd	r6, r5, [sp, #36]	; 0x24
240519c4:	f002 fb88 	bl	240540d8 <HAL_GPIO_Init>
240519c8:	b03b      	add	sp, #236	; 0xec
240519ca:	e8bd 83f0 	ldmia.w	sp!, {r4, r5, r6, r7, r8, r9, pc}
240519ce:	bf00      	nop
240519d0:	52005000 	.word	0x52005000
240519d4:	58024400 	.word	0x58024400
240519d8:	58021000 	.word	0x58021000
240519dc:	58020000 	.word	0x58020000
240519e0:	58020400 	.word	0x58020400
240519e4:	58020c00 	.word	0x58020c00

240519e8 <HAL_RTC_MspInit>:
240519e8:	b510      	push	{r4, lr}
240519ea:	b0ae      	sub	sp, #184	; 0xb8
240519ec:	4604      	mov	r4, r0
240519ee:	22b8      	movs	r2, #184	; 0xb8
240519f0:	2100      	movs	r1, #0
240519f2:	4668      	mov	r0, sp
240519f4:	f006 f8cc 	bl	24057b90 <memset>
240519f8:	6822      	ldr	r2, [r4, #0]
240519fa:	4b0b      	ldr	r3, [pc, #44]	; (24051a28 <HAL_RTC_MspInit+0x40>)
240519fc:	429a      	cmp	r2, r3
240519fe:	d110      	bne.n	24051a22 <HAL_RTC_MspInit+0x3a>
24051a00:	f44f 0380 	mov.w	r3, #4194304	; 0x400000
24051a04:	4668      	mov	r0, sp
24051a06:	9300      	str	r3, [sp, #0]
24051a08:	f44f 7380 	mov.w	r3, #256	; 0x100
24051a0c:	932c      	str	r3, [sp, #176]	; 0xb0
24051a0e:	f004 f91b 	bl	24055c48 <HAL_RCCEx_PeriphCLKConfig>
24051a12:	b108      	cbz	r0, 24051a18 <HAL_RTC_MspInit+0x30>
24051a14:	f7ff fd5c 	bl	240514d0 <Error_Handler>
24051a18:	4a04      	ldr	r2, [pc, #16]	; (24051a2c <HAL_RTC_MspInit+0x44>)
24051a1a:	6f13      	ldr	r3, [r2, #112]	; 0x70
24051a1c:	f443 4300 	orr.w	r3, r3, #32768	; 0x8000
24051a20:	6713      	str	r3, [r2, #112]	; 0x70
24051a22:	b02e      	add	sp, #184	; 0xb8
24051a24:	bd10      	pop	{r4, pc}
24051a26:	bf00      	nop
24051a28:	58004000 	.word	0x58004000
24051a2c:	58024400 	.word	0x58024400

24051a30 <HAL_SPI_MspInit>:
24051a30:	b510      	push	{r4, lr}
24051a32:	b0b6      	sub	sp, #216	; 0xd8
24051a34:	4604      	mov	r4, r0
24051a36:	2214      	movs	r2, #20
24051a38:	2100      	movs	r1, #0
24051a3a:	a803      	add	r0, sp, #12
24051a3c:	f006 f8a8 	bl	24057b90 <memset>
24051a40:	22b8      	movs	r2, #184	; 0xb8
24051a42:	2100      	movs	r1, #0
24051a44:	a808      	add	r0, sp, #32
24051a46:	f006 f8a3 	bl	24057b90 <memset>
24051a4a:	6822      	ldr	r2, [r4, #0]
24051a4c:	4b1b      	ldr	r3, [pc, #108]	; (24051abc <HAL_SPI_MspInit+0x8c>)
24051a4e:	429a      	cmp	r2, r3
24051a50:	d132      	bne.n	24051ab8 <HAL_SPI_MspInit+0x88>
24051a52:	f44f 5380 	mov.w	r3, #4096	; 0x1000
24051a56:	a808      	add	r0, sp, #32
24051a58:	9308      	str	r3, [sp, #32]
24051a5a:	f44f 4380 	mov.w	r3, #16384	; 0x4000
24051a5e:	9320      	str	r3, [sp, #128]	; 0x80
24051a60:	f004 f8f2 	bl	24055c48 <HAL_RCCEx_PeriphCLKConfig>
24051a64:	b108      	cbz	r0, 24051a6a <HAL_SPI_MspInit+0x3a>
24051a66:	f7ff fd33 	bl	240514d0 <Error_Handler>
24051a6a:	4b15      	ldr	r3, [pc, #84]	; (24051ac0 <HAL_SPI_MspInit+0x90>)
24051a6c:	a903      	add	r1, sp, #12
24051a6e:	4815      	ldr	r0, [pc, #84]	; (24051ac4 <HAL_SPI_MspInit+0x94>)
24051a70:	f8d3 2148 	ldr.w	r2, [r3, #328]	; 0x148
24051a74:	f442 4280 	orr.w	r2, r2, #16384	; 0x4000
24051a78:	f8c3 2148 	str.w	r2, [r3, #328]	; 0x148
24051a7c:	f8d3 2148 	ldr.w	r2, [r3, #328]	; 0x148
24051a80:	f402 4280 	and.w	r2, r2, #16384	; 0x4000
24051a84:	9201      	str	r2, [sp, #4]
24051a86:	9a01      	ldr	r2, [sp, #4]
24051a88:	f8d3 2140 	ldr.w	r2, [r3, #320]	; 0x140
24051a8c:	f042 0202 	orr.w	r2, r2, #2
24051a90:	f8c3 2140 	str.w	r2, [r3, #320]	; 0x140
24051a94:	f44f 4220 	mov.w	r2, #40960	; 0xa000
24051a98:	f8d3 3140 	ldr.w	r3, [r3, #320]	; 0x140
24051a9c:	f003 0302 	and.w	r3, r3, #2
24051aa0:	9302      	str	r3, [sp, #8]
24051aa2:	9b02      	ldr	r3, [sp, #8]
24051aa4:	2302      	movs	r3, #2
24051aa6:	e9cd 2303 	strd	r2, r3, [sp, #12]
24051aaa:	2300      	movs	r3, #0
24051aac:	e9cd 3305 	strd	r3, r3, [sp, #20]
24051ab0:	2305      	movs	r3, #5
24051ab2:	9307      	str	r3, [sp, #28]
24051ab4:	f002 fb10 	bl	240540d8 <HAL_GPIO_Init>
24051ab8:	b036      	add	sp, #216	; 0xd8
24051aba:	bd10      	pop	{r4, pc}
24051abc:	40003800 	.word	0x40003800
24051ac0:	58024400 	.word	0x58024400
24051ac4:	58020400 	.word	0x58020400

24051ac8 <HAL_SAI_MspInit>:
24051ac8:	6802      	ldr	r2, [r0, #0]
24051aca:	4b28      	ldr	r3, [pc, #160]	; (24051b6c <HAL_SAI_MspInit+0xa4>)
24051acc:	429a      	cmp	r2, r3
24051ace:	b570      	push	{r4, r5, r6, lr}
24051ad0:	4605      	mov	r5, r0
24051ad2:	b086      	sub	sp, #24
24051ad4:	d147      	bne.n	24051b66 <HAL_SAI_MspInit+0x9e>
24051ad6:	4c26      	ldr	r4, [pc, #152]	; (24051b70 <HAL_SAI_MspInit+0xa8>)
24051ad8:	6822      	ldr	r2, [r4, #0]
24051ada:	b99a      	cbnz	r2, 24051b04 <HAL_SAI_MspInit+0x3c>
24051adc:	4b25      	ldr	r3, [pc, #148]	; (24051b74 <HAL_SAI_MspInit+0xac>)
24051ade:	2057      	movs	r0, #87	; 0x57
24051ae0:	f8d3 1150 	ldr.w	r1, [r3, #336]	; 0x150
24051ae4:	f441 0180 	orr.w	r1, r1, #4194304	; 0x400000
24051ae8:	f8c3 1150 	str.w	r1, [r3, #336]	; 0x150
24051aec:	4611      	mov	r1, r2
24051aee:	f8d3 3150 	ldr.w	r3, [r3, #336]	; 0x150
24051af2:	f403 0380 	and.w	r3, r3, #4194304	; 0x400000
24051af6:	9300      	str	r3, [sp, #0]
24051af8:	9b00      	ldr	r3, [sp, #0]
24051afa:	f000 ff99 	bl	24052a30 <HAL_NVIC_SetPriority>
24051afe:	2057      	movs	r0, #87	; 0x57
24051b00:	f000 ffc8 	bl	24052a94 <HAL_NVIC_EnableIRQ>
24051b04:	6823      	ldr	r3, [r4, #0]
24051b06:	2270      	movs	r2, #112	; 0x70
24051b08:	2600      	movs	r6, #0
24051b0a:	a901      	add	r1, sp, #4
24051b0c:	3301      	adds	r3, #1
24051b0e:	481a      	ldr	r0, [pc, #104]	; (24051b78 <HAL_SAI_MspInit+0xb0>)
24051b10:	6023      	str	r3, [r4, #0]
24051b12:	2302      	movs	r3, #2
24051b14:	4c19      	ldr	r4, [pc, #100]	; (24051b7c <HAL_SAI_MspInit+0xb4>)
24051b16:	e9cd 2301 	strd	r2, r3, [sp, #4]
24051b1a:	2306      	movs	r3, #6
24051b1c:	e9cd 6603 	strd	r6, r6, [sp, #12]
24051b20:	9305      	str	r3, [sp, #20]
24051b22:	f002 fad9 	bl	240540d8 <HAL_GPIO_Init>
24051b26:	2357      	movs	r3, #87	; 0x57
24051b28:	4915      	ldr	r1, [pc, #84]	; (24051b80 <HAL_SAI_MspInit+0xb8>)
24051b2a:	f44f 6080 	mov.w	r0, #1024	; 0x400
24051b2e:	f44f 5c00 	mov.w	ip, #8192	; 0x2000
24051b32:	e9c4 1300 	strd	r1, r3, [r4]
24051b36:	2340      	movs	r3, #64	; 0x40
24051b38:	e9c4 3602 	strd	r3, r6, [r4, #8]
24051b3c:	f44f 6300 	mov.w	r3, #2048	; 0x800
24051b40:	e9c4 0304 	strd	r0, r3, [r4, #16]
24051b44:	f44f 7380 	mov.w	r3, #256	; 0x100
24051b48:	4620      	mov	r0, r4
24051b4a:	e9c4 c306 	strd	ip, r3, [r4, #24]
24051b4e:	e9c4 6608 	strd	r6, r6, [r4, #32]
24051b52:	f001 fa69 	bl	24053028 <HAL_DMA_Init>
24051b56:	b108      	cbz	r0, 24051b5c <HAL_SAI_MspInit+0x94>
24051b58:	f7ff fcba 	bl	240514d0 <Error_Handler>
24051b5c:	f8c5 4084 	str.w	r4, [r5, #132]	; 0x84
24051b60:	63a5      	str	r5, [r4, #56]	; 0x38
24051b62:	f8c5 4080 	str.w	r4, [r5, #128]	; 0x80
24051b66:	b006      	add	sp, #24
24051b68:	bd70      	pop	{r4, r5, r6, pc}
24051b6a:	bf00      	nop
24051b6c:	40015804 	.word	0x40015804
24051b70:	200000e4 	.word	0x200000e4
24051b74:	58024400 	.word	0x58024400
24051b78:	58021000 	.word	0x58021000
24051b7c:	200003d4 	.word	0x200003d4
24051b80:	40020010 	.word	0x40020010

24051b84 <NMI_Handler>:
24051b84:	e7fe      	b.n	24051b84 <NMI_Handler>

24051b86 <HardFault_Handler>:
24051b86:	e7fe      	b.n	24051b86 <HardFault_Handler>

24051b88 <MemManage_Handler>:
24051b88:	e7fe      	b.n	24051b88 <MemManage_Handler>

24051b8a <BusFault_Handler>:
24051b8a:	e7fe      	b.n	24051b8a <BusFault_Handler>

24051b8c <UsageFault_Handler>:
24051b8c:	e7fe      	b.n	24051b8c <UsageFault_Handler>

24051b8e <SVC_Handler>:
24051b8e:	4770      	bx	lr

24051b90 <DebugMon_Handler>:
24051b90:	4770      	bx	lr

24051b92 <PendSV_Handler>:
24051b92:	4770      	bx	lr

24051b94 <SysTick_Handler>:
24051b94:	f000 b948 	b.w	24051e28 <HAL_IncTick>

24051b98 <DMA1_Stream0_IRQHandler>:
24051b98:	4801      	ldr	r0, [pc, #4]	; (24051ba0 <DMA1_Stream0_IRQHandler+0x8>)
24051b9a:	f001 bf95 	b.w	24053ac8 <HAL_DMA_IRQHandler>
24051b9e:	bf00      	nop
24051ba0:	200003d4 	.word	0x200003d4

24051ba4 <ADC_IRQHandler>:
24051ba4:	4801      	ldr	r0, [pc, #4]	; (24051bac <ADC_IRQHandler+0x8>)
24051ba6:	f000 b9f7 	b.w	24051f98 <HAL_ADC_IRQHandler>
24051baa:	bf00      	nop
24051bac:	2000044c 	.word	0x2000044c

24051bb0 <SAI1_IRQHandler>:
24051bb0:	4801      	ldr	r0, [pc, #4]	; (24051bb8 <SAI1_IRQHandler+0x8>)
24051bb2:	f005 bcf9 	b.w	240575a8 <HAL_SAI_IRQHandler>
24051bb6:	bf00      	nop
24051bb8:	20000540 	.word	0x20000540

24051bbc <LTDC_IRQHandler>:
24051bbc:	4801      	ldr	r0, [pc, #4]	; (24051bc4 <LTDC_IRQHandler+0x8>)
24051bbe:	f002 bc77 	b.w	240544b0 <HAL_LTDC_IRQHandler>
24051bc2:	bf00      	nop
24051bc4:	2000032c 	.word	0x2000032c

24051bc8 <OCTOSPI1_IRQHandler>:
24051bc8:	4801      	ldr	r0, [pc, #4]	; (24051bd0 <OCTOSPI1_IRQHandler+0x8>)
24051bca:	f002 bf63 	b.w	24054a94 <HAL_OSPI_IRQHandler>
24051bce:	bf00      	nop
24051bd0:	200002cc 	.word	0x200002cc

24051bd4 <_getpid>:
24051bd4:	2001      	movs	r0, #1
24051bd6:	4770      	bx	lr

24051bd8 <_kill>:
24051bd8:	b508      	push	{r3, lr}
24051bda:	f005 ffa1 	bl	24057b20 <__errno>
24051bde:	2316      	movs	r3, #22
24051be0:	6003      	str	r3, [r0, #0]
24051be2:	f04f 30ff 	mov.w	r0, #4294967295
24051be6:	bd08      	pop	{r3, pc}

24051be8 <_exit>:
24051be8:	b508      	push	{r3, lr}
24051bea:	f005 ff99 	bl	24057b20 <__errno>
24051bee:	2316      	movs	r3, #22
24051bf0:	6003      	str	r3, [r0, #0]
24051bf2:	e7fe      	b.n	24051bf2 <_exit+0xa>

24051bf4 <_read>:
24051bf4:	b570      	push	{r4, r5, r6, lr}
24051bf6:	460e      	mov	r6, r1
24051bf8:	4614      	mov	r4, r2
24051bfa:	2500      	movs	r5, #0
24051bfc:	42a5      	cmp	r5, r4
24051bfe:	db01      	blt.n	24051c04 <_read+0x10>
24051c00:	4620      	mov	r0, r4
24051c02:	bd70      	pop	{r4, r5, r6, pc}
24051c04:	f3af 8000 	nop.w
24051c08:	5570      	strb	r0, [r6, r5]
24051c0a:	3501      	adds	r5, #1
24051c0c:	e7f6      	b.n	24051bfc <_read+0x8>

24051c0e <_write>:
24051c0e:	b570      	push	{r4, r5, r6, lr}
24051c10:	460e      	mov	r6, r1
24051c12:	4614      	mov	r4, r2
24051c14:	2500      	movs	r5, #0
24051c16:	42a5      	cmp	r5, r4
24051c18:	db01      	blt.n	24051c1e <_write+0x10>
24051c1a:	4620      	mov	r0, r4
24051c1c:	bd70      	pop	{r4, r5, r6, pc}
24051c1e:	5d70      	ldrb	r0, [r6, r5]
24051c20:	3501      	adds	r5, #1
24051c22:	f3af 8000 	nop.w
24051c26:	e7f6      	b.n	24051c16 <_write+0x8>

24051c28 <_close>:
24051c28:	f04f 30ff 	mov.w	r0, #4294967295
24051c2c:	4770      	bx	lr

24051c2e <_fstat>:
24051c2e:	f44f 5300 	mov.w	r3, #8192	; 0x2000
24051c32:	2000      	movs	r0, #0
24051c34:	604b      	str	r3, [r1, #4]
24051c36:	4770      	bx	lr

24051c38 <_isatty>:
24051c38:	2001      	movs	r0, #1
24051c3a:	4770      	bx	lr

24051c3c <_lseek>:
24051c3c:	2000      	movs	r0, #0
24051c3e:	4770      	bx	lr

24051c40 <_sbrk>:
24051c40:	4b0b      	ldr	r3, [pc, #44]	; (24051c70 <_sbrk+0x30>)
24051c42:	4602      	mov	r2, r0
24051c44:	6819      	ldr	r1, [r3, #0]
24051c46:	b510      	push	{r4, lr}
24051c48:	b909      	cbnz	r1, 24051c4e <_sbrk+0xe>
24051c4a:	490a      	ldr	r1, [pc, #40]	; (24051c74 <_sbrk+0x34>)
24051c4c:	6019      	str	r1, [r3, #0]
24051c4e:	6818      	ldr	r0, [r3, #0]
24051c50:	4909      	ldr	r1, [pc, #36]	; (24051c78 <_sbrk+0x38>)
24051c52:	4c0a      	ldr	r4, [pc, #40]	; (24051c7c <_sbrk+0x3c>)
24051c54:	4402      	add	r2, r0
24051c56:	1b09      	subs	r1, r1, r4
24051c58:	428a      	cmp	r2, r1
24051c5a:	d906      	bls.n	24051c6a <_sbrk+0x2a>
24051c5c:	f005 ff60 	bl	24057b20 <__errno>
24051c60:	230c      	movs	r3, #12
24051c62:	6003      	str	r3, [r0, #0]
24051c64:	f04f 30ff 	mov.w	r0, #4294967295
24051c68:	bd10      	pop	{r4, pc}
24051c6a:	601a      	str	r2, [r3, #0]
24051c6c:	e7fc      	b.n	24051c68 <_sbrk+0x28>
24051c6e:	bf00      	nop
24051c70:	200000e8 	.word	0x200000e8
24051c74:	200005f0 	.word	0x200005f0
24051c78:	20020000 	.word	0x20020000
24051c7c:	00005000 	.word	0x00005000

24051c80 <SystemInit>:
24051c80:	4a22      	ldr	r2, [pc, #136]	; (24051d0c <SystemInit+0x8c>)
24051c82:	f8d2 3088 	ldr.w	r3, [r2, #136]	; 0x88
24051c86:	f443 0370 	orr.w	r3, r3, #15728640	; 0xf00000
24051c8a:	f8c2 3088 	str.w	r3, [r2, #136]	; 0x88
24051c8e:	4a20      	ldr	r2, [pc, #128]	; (24051d10 <SystemInit+0x90>)
24051c90:	6813      	ldr	r3, [r2, #0]
24051c92:	f003 030f 	and.w	r3, r3, #15
24051c96:	2b02      	cmp	r3, #2
24051c98:	d805      	bhi.n	24051ca6 <SystemInit+0x26>
24051c9a:	6813      	ldr	r3, [r2, #0]
24051c9c:	f023 030f 	bic.w	r3, r3, #15
24051ca0:	f043 0303 	orr.w	r3, r3, #3
24051ca4:	6013      	str	r3, [r2, #0]
24051ca6:	4b1b      	ldr	r3, [pc, #108]	; (24051d14 <SystemInit+0x94>)
24051ca8:	681a      	ldr	r2, [r3, #0]
24051caa:	f042 0201 	orr.w	r2, r2, #1
24051cae:	601a      	str	r2, [r3, #0]
24051cb0:	2200      	movs	r2, #0
24051cb2:	611a      	str	r2, [r3, #16]
24051cb4:	4a18      	ldr	r2, [pc, #96]	; (24051d18 <SystemInit+0x98>)
24051cb6:	6819      	ldr	r1, [r3, #0]
24051cb8:	400a      	ands	r2, r1
24051cba:	4915      	ldr	r1, [pc, #84]	; (24051d10 <SystemInit+0x90>)
24051cbc:	601a      	str	r2, [r3, #0]
24051cbe:	680a      	ldr	r2, [r1, #0]
24051cc0:	f012 0f0c 	tst.w	r2, #12
24051cc4:	d005      	beq.n	24051cd2 <SystemInit+0x52>
24051cc6:	680a      	ldr	r2, [r1, #0]
24051cc8:	f022 020f 	bic.w	r2, r2, #15
24051ccc:	f042 0203 	orr.w	r2, r2, #3
24051cd0:	600a      	str	r2, [r1, #0]
24051cd2:	2200      	movs	r2, #0
24051cd4:	4911      	ldr	r1, [pc, #68]	; (24051d1c <SystemInit+0x9c>)
24051cd6:	619a      	str	r2, [r3, #24]
24051cd8:	61da      	str	r2, [r3, #28]
24051cda:	621a      	str	r2, [r3, #32]
24051cdc:	6299      	str	r1, [r3, #40]	; 0x28
24051cde:	4910      	ldr	r1, [pc, #64]	; (24051d20 <SystemInit+0xa0>)
24051ce0:	62d9      	str	r1, [r3, #44]	; 0x2c
24051ce2:	4910      	ldr	r1, [pc, #64]	; (24051d24 <SystemInit+0xa4>)
24051ce4:	6319      	str	r1, [r3, #48]	; 0x30
24051ce6:	635a      	str	r2, [r3, #52]	; 0x34
24051ce8:	6399      	str	r1, [r3, #56]	; 0x38
24051cea:	63da      	str	r2, [r3, #60]	; 0x3c
24051cec:	6419      	str	r1, [r3, #64]	; 0x40
24051cee:	645a      	str	r2, [r3, #68]	; 0x44
24051cf0:	6819      	ldr	r1, [r3, #0]
24051cf2:	f421 2180 	bic.w	r1, r1, #262144	; 0x40000
24051cf6:	6019      	str	r1, [r3, #0]
24051cf8:	661a      	str	r2, [r3, #96]	; 0x60
24051cfa:	f243 02d2 	movw	r2, #12498	; 0x30d2
24051cfe:	4b0a      	ldr	r3, [pc, #40]	; (24051d28 <SystemInit+0xa8>)
24051d00:	601a      	str	r2, [r3, #0]
24051d02:	f04f 5210 	mov.w	r2, #603979776	; 0x24000000
24051d06:	4b01      	ldr	r3, [pc, #4]	; (24051d0c <SystemInit+0x8c>)
24051d08:	609a      	str	r2, [r3, #8]
24051d0a:	4770      	bx	lr
24051d0c:	e000ed00 	.word	0xe000ed00
24051d10:	52002000 	.word	0x52002000
24051d14:	58024400 	.word	0x58024400
24051d18:	eaf6ed7f 	.word	0xeaf6ed7f
24051d1c:	02020200 	.word	0x02020200
24051d20:	01ff0000 	.word	0x01ff0000
24051d24:	01010280 	.word	0x01010280
24051d28:	52004000 	.word	0x52004000

24051d2c <Reset_Handler>:
24051d2c:	f8df d034 	ldr.w	sp, [pc, #52]	; 24051d64 <LoopFillZerobss+0xe>
24051d30:	f7ff ffa6 	bl	24051c80 <SystemInit>
24051d34:	480c      	ldr	r0, [pc, #48]	; (24051d68 <LoopFillZerobss+0x12>)
24051d36:	490d      	ldr	r1, [pc, #52]	; (24051d6c <LoopFillZerobss+0x16>)
24051d38:	4a0d      	ldr	r2, [pc, #52]	; (24051d70 <LoopFillZerobss+0x1a>)
24051d3a:	2300      	movs	r3, #0
24051d3c:	e002      	b.n	24051d44 <LoopCopyDataInit>

24051d3e <CopyDataInit>:
24051d3e:	58d4      	ldr	r4, [r2, r3]
24051d40:	50c4      	str	r4, [r0, r3]
24051d42:	3304      	adds	r3, #4

24051d44 <LoopCopyDataInit>:
24051d44:	18c4      	adds	r4, r0, r3
24051d46:	428c      	cmp	r4, r1
24051d48:	d3f9      	bcc.n	24051d3e <CopyDataInit>
24051d4a:	4a0a      	ldr	r2, [pc, #40]	; (24051d74 <LoopFillZerobss+0x1e>)
24051d4c:	4c0a      	ldr	r4, [pc, #40]	; (24051d78 <LoopFillZerobss+0x22>)
24051d4e:	2300      	movs	r3, #0
24051d50:	e001      	b.n	24051d56 <LoopFillZerobss>

24051d52 <FillZerobss>:
24051d52:	6013      	str	r3, [r2, #0]
24051d54:	3204      	adds	r2, #4

24051d56 <LoopFillZerobss>:
24051d56:	42a2      	cmp	r2, r4
24051d58:	d3fb      	bcc.n	24051d52 <FillZerobss>
24051d5a:	f005 fee7 	bl	24057b2c <__libc_init_array>
24051d5e:	f7ff f909 	bl	24050f74 <main>
24051d62:	4770      	bx	lr
24051d64:	20020000 	.word	0x20020000
24051d68:	20000000 	.word	0x20000000
24051d6c:	200000a4 	.word	0x200000a4
24051d70:	2405a198 	.word	0x2405a198
24051d74:	200000a4 	.word	0x200000a4
24051d78:	200005ec 	.word	0x200005ec

24051d7c <BDMA1_IRQHandler>:
24051d7c:	e7fe      	b.n	24051d7c <BDMA1_IRQHandler>
	...

24051d80 <HAL_InitTick>:
24051d80:	b538      	push	{r3, r4, r5, lr}
24051d82:	4b0f      	ldr	r3, [pc, #60]	; (24051dc0 <HAL_InitTick+0x40>)
24051d84:	4605      	mov	r5, r0
24051d86:	7818      	ldrb	r0, [r3, #0]
24051d88:	b908      	cbnz	r0, 24051d8e <HAL_InitTick+0xe>
24051d8a:	2001      	movs	r0, #1
24051d8c:	bd38      	pop	{r3, r4, r5, pc}
24051d8e:	f44f 737a 	mov.w	r3, #1000	; 0x3e8
24051d92:	4a0c      	ldr	r2, [pc, #48]	; (24051dc4 <HAL_InitTick+0x44>)
24051d94:	fbb3 f3f0 	udiv	r3, r3, r0
24051d98:	6810      	ldr	r0, [r2, #0]
24051d9a:	fbb0 f0f3 	udiv	r0, r0, r3
24051d9e:	f000 fe99 	bl	24052ad4 <HAL_SYSTICK_Config>
24051da2:	4604      	mov	r4, r0
24051da4:	2800      	cmp	r0, #0
24051da6:	d1f0      	bne.n	24051d8a <HAL_InitTick+0xa>
24051da8:	2d0f      	cmp	r5, #15
24051daa:	d8ee      	bhi.n	24051d8a <HAL_InitTick+0xa>
24051dac:	4602      	mov	r2, r0
24051dae:	4629      	mov	r1, r5
24051db0:	f04f 30ff 	mov.w	r0, #4294967295
24051db4:	f000 fe3c 	bl	24052a30 <HAL_NVIC_SetPriority>
24051db8:	4b03      	ldr	r3, [pc, #12]	; (24051dc8 <HAL_InitTick+0x48>)
24051dba:	4620      	mov	r0, r4
24051dbc:	601d      	str	r5, [r3, #0]
24051dbe:	e7e5      	b.n	24051d8c <HAL_InitTick+0xc>
24051dc0:	20000038 	.word	0x20000038
24051dc4:	20000030 	.word	0x20000030
24051dc8:	2000003c 	.word	0x2000003c

24051dcc <HAL_Init>:
24051dcc:	b510      	push	{r4, lr}
24051dce:	2003      	movs	r0, #3
24051dd0:	f000 fe1c 	bl	24052a0c <HAL_NVIC_SetPriorityGrouping>
24051dd4:	f003 fc60 	bl	24055698 <HAL_RCC_GetSysClockFreq>
24051dd8:	490f      	ldr	r1, [pc, #60]	; (24051e18 <HAL_Init+0x4c>)
24051dda:	4a10      	ldr	r2, [pc, #64]	; (24051e1c <HAL_Init+0x50>)
24051ddc:	698b      	ldr	r3, [r1, #24]
24051dde:	f3c3 2303 	ubfx	r3, r3, #8, #4
24051de2:	5cd3      	ldrb	r3, [r2, r3]
24051de4:	f003 031f 	and.w	r3, r3, #31
24051de8:	40d8      	lsrs	r0, r3
24051dea:	698b      	ldr	r3, [r1, #24]
24051dec:	f003 030f 	and.w	r3, r3, #15
24051df0:	5cd3      	ldrb	r3, [r2, r3]
24051df2:	4a0b      	ldr	r2, [pc, #44]	; (24051e20 <HAL_Init+0x54>)
24051df4:	f003 031f 	and.w	r3, r3, #31
24051df8:	fa20 f303 	lsr.w	r3, r0, r3
24051dfc:	6013      	str	r3, [r2, #0]
24051dfe:	4b09      	ldr	r3, [pc, #36]	; (24051e24 <HAL_Init+0x58>)
24051e00:	6018      	str	r0, [r3, #0]
24051e02:	2000      	movs	r0, #0
24051e04:	f7ff ffbc 	bl	24051d80 <HAL_InitTick>
24051e08:	4604      	mov	r4, r0
24051e0a:	b918      	cbnz	r0, 24051e14 <HAL_Init+0x48>
24051e0c:	f7ff fb62 	bl	240514d4 <HAL_MspInit>
24051e10:	4620      	mov	r0, r4
24051e12:	bd10      	pop	{r4, pc}
24051e14:	2401      	movs	r4, #1
24051e16:	e7fb      	b.n	24051e10 <HAL_Init+0x44>
24051e18:	58024400 	.word	0x58024400
24051e1c:	2405a02b 	.word	0x2405a02b
24051e20:	20000034 	.word	0x20000034
24051e24:	20000030 	.word	0x20000030

24051e28 <HAL_IncTick>:
24051e28:	4a03      	ldr	r2, [pc, #12]	; (24051e38 <HAL_IncTick+0x10>)
24051e2a:	4b04      	ldr	r3, [pc, #16]	; (24051e3c <HAL_IncTick+0x14>)
24051e2c:	6811      	ldr	r1, [r2, #0]
24051e2e:	781b      	ldrb	r3, [r3, #0]
24051e30:	440b      	add	r3, r1
24051e32:	6013      	str	r3, [r2, #0]
24051e34:	4770      	bx	lr
24051e36:	bf00      	nop
24051e38:	200005d8 	.word	0x200005d8
24051e3c:	20000038 	.word	0x20000038

24051e40 <HAL_GetTick>:
24051e40:	4b01      	ldr	r3, [pc, #4]	; (24051e48 <HAL_GetTick+0x8>)
24051e42:	6818      	ldr	r0, [r3, #0]
24051e44:	4770      	bx	lr
24051e46:	bf00      	nop
24051e48:	200005d8 	.word	0x200005d8

24051e4c <HAL_Delay>:
24051e4c:	b538      	push	{r3, r4, r5, lr}
24051e4e:	4604      	mov	r4, r0
24051e50:	f7ff fff6 	bl	24051e40 <HAL_GetTick>
24051e54:	4605      	mov	r5, r0
24051e56:	1c63      	adds	r3, r4, #1
24051e58:	bf1e      	ittt	ne
24051e5a:	4b04      	ldrne	r3, [pc, #16]	; (24051e6c <HAL_Delay+0x20>)
24051e5c:	781b      	ldrbne	r3, [r3, #0]
24051e5e:	18e4      	addne	r4, r4, r3
24051e60:	f7ff ffee 	bl	24051e40 <HAL_GetTick>
24051e64:	1b43      	subs	r3, r0, r5
24051e66:	42a3      	cmp	r3, r4
24051e68:	d3fa      	bcc.n	24051e60 <HAL_Delay+0x14>
24051e6a:	bd38      	pop	{r3, r4, r5, pc}
24051e6c:	20000038 	.word	0x20000038

24051e70 <LL_ADC_SetChannelSamplingTime>:
24051e70:	b530      	push	{r4, r5, lr}
24051e72:	0dcc      	lsrs	r4, r1, #23
24051e74:	3014      	adds	r0, #20
24051e76:	f3c1 5104 	ubfx	r1, r1, #20, #5
24051e7a:	2507      	movs	r5, #7
24051e7c:	f004 0404 	and.w	r4, r4, #4
24051e80:	408d      	lsls	r5, r1
24051e82:	fa02 f101 	lsl.w	r1, r2, r1
24051e86:	5823      	ldr	r3, [r4, r0]
24051e88:	ea23 0305 	bic.w	r3, r3, r5
24051e8c:	430b      	orrs	r3, r1
24051e8e:	5023      	str	r3, [r4, r0]
24051e90:	bd30      	pop	{r4, r5, pc}

24051e92 <LL_ADC_REG_IsConversionOngoing>:
24051e92:	6880      	ldr	r0, [r0, #8]
24051e94:	f3c0 0080 	ubfx	r0, r0, #2, #1
24051e98:	4770      	bx	lr
	...

24051e9c <HAL_ADC_PollForConversion>:
24051e9c:	e92d 41f0 	stmdb	sp!, {r4, r5, r6, r7, r8, lr}
24051ea0:	4b37      	ldr	r3, [pc, #220]	; (24051f80 <HAL_ADC_PollForConversion+0xe4>)
24051ea2:	4604      	mov	r4, r0
24051ea4:	6905      	ldr	r5, [r0, #16]
24051ea6:	460f      	mov	r7, r1
24051ea8:	689e      	ldr	r6, [r3, #8]
24051eaa:	2d08      	cmp	r5, #8
24051eac:	f006 061f 	and.w	r6, r6, #31
24051eb0:	d017      	beq.n	24051ee2 <HAL_ADC_PollForConversion+0x46>
24051eb2:	2e09      	cmp	r6, #9
24051eb4:	d810      	bhi.n	24051ed8 <HAL_ADC_PollForConversion+0x3c>
24051eb6:	f240 2221 	movw	r2, #545	; 0x221
24051eba:	40f2      	lsrs	r2, r6
24051ebc:	07d1      	lsls	r1, r2, #31
24051ebe:	d50b      	bpl.n	24051ed8 <HAL_ADC_PollForConversion+0x3c>
24051ec0:	6803      	ldr	r3, [r0, #0]
24051ec2:	68db      	ldr	r3, [r3, #12]
24051ec4:	f013 0f01 	tst.w	r3, #1
24051ec8:	d00a      	beq.n	24051ee0 <HAL_ADC_PollForConversion+0x44>
24051eca:	6d63      	ldr	r3, [r4, #84]	; 0x54
24051ecc:	2001      	movs	r0, #1
24051ece:	f043 0320 	orr.w	r3, r3, #32
24051ed2:	6563      	str	r3, [r4, #84]	; 0x54
24051ed4:	e8bd 81f0 	ldmia.w	sp!, {r4, r5, r6, r7, r8, pc}
24051ed8:	689b      	ldr	r3, [r3, #8]
24051eda:	f413 4f40 	tst.w	r3, #49152	; 0xc000
24051ede:	e7f3      	b.n	24051ec8 <HAL_ADC_PollForConversion+0x2c>
24051ee0:	2504      	movs	r5, #4
24051ee2:	f7ff ffad 	bl	24051e40 <HAL_GetTick>
24051ee6:	4680      	mov	r8, r0
24051ee8:	6823      	ldr	r3, [r4, #0]
24051eea:	681a      	ldr	r2, [r3, #0]
24051eec:	422a      	tst	r2, r5
24051eee:	d020      	beq.n	24051f32 <HAL_ADC_PollForConversion+0x96>
24051ef0:	6d62      	ldr	r2, [r4, #84]	; 0x54
24051ef2:	f442 7200 	orr.w	r2, r2, #512	; 0x200
24051ef6:	6562      	str	r2, [r4, #84]	; 0x54
24051ef8:	68da      	ldr	r2, [r3, #12]
24051efa:	f412 6f40 	tst.w	r2, #3072	; 0xc00
24051efe:	d10f      	bne.n	24051f20 <HAL_ADC_PollForConversion+0x84>
24051f00:	7d62      	ldrb	r2, [r4, #21]
24051f02:	b96a      	cbnz	r2, 24051f20 <HAL_ADC_PollForConversion+0x84>
24051f04:	681a      	ldr	r2, [r3, #0]
24051f06:	0710      	lsls	r0, r2, #28
24051f08:	d50a      	bpl.n	24051f20 <HAL_ADC_PollForConversion+0x84>
24051f0a:	6d62      	ldr	r2, [r4, #84]	; 0x54
24051f0c:	f422 7280 	bic.w	r2, r2, #256	; 0x100
24051f10:	6562      	str	r2, [r4, #84]	; 0x54
24051f12:	6d62      	ldr	r2, [r4, #84]	; 0x54
24051f14:	04d1      	lsls	r1, r2, #19
24051f16:	d403      	bmi.n	24051f20 <HAL_ADC_PollForConversion+0x84>
24051f18:	6d62      	ldr	r2, [r4, #84]	; 0x54
24051f1a:	f042 0201 	orr.w	r2, r2, #1
24051f1e:	6562      	str	r2, [r4, #84]	; 0x54
24051f20:	4a18      	ldr	r2, [pc, #96]	; (24051f84 <HAL_ADC_PollForConversion+0xe8>)
24051f22:	4293      	cmp	r3, r2
24051f24:	d021      	beq.n	24051f6a <HAL_ADC_PollForConversion+0xce>
24051f26:	68d8      	ldr	r0, [r3, #12]
24051f28:	2d08      	cmp	r5, #8
24051f2a:	d118      	bne.n	24051f5e <HAL_ADC_PollForConversion+0xc2>
24051f2c:	601d      	str	r5, [r3, #0]
24051f2e:	2000      	movs	r0, #0
24051f30:	e7d0      	b.n	24051ed4 <HAL_ADC_PollForConversion+0x38>
24051f32:	1c7a      	adds	r2, r7, #1
24051f34:	d0d9      	beq.n	24051eea <HAL_ADC_PollForConversion+0x4e>
24051f36:	f7ff ff83 	bl	24051e40 <HAL_GetTick>
24051f3a:	eba0 0008 	sub.w	r0, r0, r8
24051f3e:	42b8      	cmp	r0, r7
24051f40:	d801      	bhi.n	24051f46 <HAL_ADC_PollForConversion+0xaa>
24051f42:	2f00      	cmp	r7, #0
24051f44:	d1d0      	bne.n	24051ee8 <HAL_ADC_PollForConversion+0x4c>
24051f46:	6823      	ldr	r3, [r4, #0]
24051f48:	681b      	ldr	r3, [r3, #0]
24051f4a:	402b      	ands	r3, r5
24051f4c:	d1cc      	bne.n	24051ee8 <HAL_ADC_PollForConversion+0x4c>
24051f4e:	6d62      	ldr	r2, [r4, #84]	; 0x54
24051f50:	2003      	movs	r0, #3
24051f52:	f884 3050 	strb.w	r3, [r4, #80]	; 0x50
24051f56:	f042 0204 	orr.w	r2, r2, #4
24051f5a:	6562      	str	r2, [r4, #84]	; 0x54
24051f5c:	e7ba      	b.n	24051ed4 <HAL_ADC_PollForConversion+0x38>
24051f5e:	f410 4080 	ands.w	r0, r0, #16384	; 0x4000
24051f62:	d1e4      	bne.n	24051f2e <HAL_ADC_PollForConversion+0x92>
24051f64:	220c      	movs	r2, #12
24051f66:	601a      	str	r2, [r3, #0]
24051f68:	e7b4      	b.n	24051ed4 <HAL_ADC_PollForConversion+0x38>
24051f6a:	2e09      	cmp	r6, #9
24051f6c:	d805      	bhi.n	24051f7a <HAL_ADC_PollForConversion+0xde>
24051f6e:	f240 2221 	movw	r2, #545	; 0x221
24051f72:	fa22 f606 	lsr.w	r6, r2, r6
24051f76:	07f2      	lsls	r2, r6, #31
24051f78:	d4d5      	bmi.n	24051f26 <HAL_ADC_PollForConversion+0x8a>
24051f7a:	4a03      	ldr	r2, [pc, #12]	; (24051f88 <HAL_ADC_PollForConversion+0xec>)
24051f7c:	68d0      	ldr	r0, [r2, #12]
24051f7e:	e7d3      	b.n	24051f28 <HAL_ADC_PollForConversion+0x8c>
24051f80:	40022300 	.word	0x40022300
24051f84:	40022100 	.word	0x40022100
24051f88:	40022000 	.word	0x40022000

24051f8c <HAL_ADC_GetValue>:
24051f8c:	6803      	ldr	r3, [r0, #0]
24051f8e:	6c18      	ldr	r0, [r3, #64]	; 0x40
24051f90:	4770      	bx	lr

24051f92 <HAL_ADC_ConvCpltCallback>:
24051f92:	4770      	bx	lr

24051f94 <HAL_ADC_LevelOutOfWindowCallback>:
24051f94:	4770      	bx	lr

24051f96 <HAL_ADC_ErrorCallback>:
24051f96:	4770      	bx	lr

24051f98 <HAL_ADC_IRQHandler>:
24051f98:	6803      	ldr	r3, [r0, #0]
24051f9a:	e92d 41f0 	stmdb	sp!, {r4, r5, r6, r7, r8, lr}
24051f9e:	681d      	ldr	r5, [r3, #0]
24051fa0:	4604      	mov	r4, r0
24051fa2:	685e      	ldr	r6, [r3, #4]
24051fa4:	4b8b      	ldr	r3, [pc, #556]	; (240521d4 <HAL_ADC_IRQHandler+0x23c>)
24051fa6:	f015 0f02 	tst.w	r5, #2
24051faa:	689f      	ldr	r7, [r3, #8]
24051fac:	4698      	mov	r8, r3
24051fae:	f007 071f 	and.w	r7, r7, #31
24051fb2:	d00e      	beq.n	24051fd2 <HAL_ADC_IRQHandler+0x3a>
24051fb4:	07b0      	lsls	r0, r6, #30
24051fb6:	d50c      	bpl.n	24051fd2 <HAL_ADC_IRQHandler+0x3a>
24051fb8:	6d63      	ldr	r3, [r4, #84]	; 0x54
24051fba:	06d9      	lsls	r1, r3, #27
24051fbc:	d403      	bmi.n	24051fc6 <HAL_ADC_IRQHandler+0x2e>
24051fbe:	6d63      	ldr	r3, [r4, #84]	; 0x54
24051fc0:	f443 6300 	orr.w	r3, r3, #2048	; 0x800
24051fc4:	6563      	str	r3, [r4, #84]	; 0x54
24051fc6:	4620      	mov	r0, r4
24051fc8:	f000 fcc0 	bl	2405294c <HAL_ADCEx_EndOfSamplingCallback>
24051fcc:	6823      	ldr	r3, [r4, #0]
24051fce:	2202      	movs	r2, #2
24051fd0:	601a      	str	r2, [r3, #0]
24051fd2:	076a      	lsls	r2, r5, #29
24051fd4:	d501      	bpl.n	24051fda <HAL_ADC_IRQHandler+0x42>
24051fd6:	0773      	lsls	r3, r6, #29
24051fd8:	d403      	bmi.n	24051fe2 <HAL_ADC_IRQHandler+0x4a>
24051fda:	0728      	lsls	r0, r5, #28
24051fdc:	d532      	bpl.n	24052044 <HAL_ADC_IRQHandler+0xac>
24051fde:	0731      	lsls	r1, r6, #28
24051fe0:	d530      	bpl.n	24052044 <HAL_ADC_IRQHandler+0xac>
24051fe2:	6d63      	ldr	r3, [r4, #84]	; 0x54
24051fe4:	06da      	lsls	r2, r3, #27
24051fe6:	d403      	bmi.n	24051ff0 <HAL_ADC_IRQHandler+0x58>
24051fe8:	6d63      	ldr	r3, [r4, #84]	; 0x54
24051fea:	f443 7300 	orr.w	r3, r3, #512	; 0x200
24051fee:	6563      	str	r3, [r4, #84]	; 0x54
24051ff0:	6820      	ldr	r0, [r4, #0]
24051ff2:	68c3      	ldr	r3, [r0, #12]
24051ff4:	f413 6f40 	tst.w	r3, #3072	; 0xc00
24051ff8:	d11e      	bne.n	24052038 <HAL_ADC_IRQHandler+0xa0>
24051ffa:	4b77      	ldr	r3, [pc, #476]	; (240521d8 <HAL_ADC_IRQHandler+0x240>)
24051ffc:	4298      	cmp	r0, r3
24051ffe:	f000 80db 	beq.w	240521b8 <HAL_ADC_IRQHandler+0x220>
24052002:	68c3      	ldr	r3, [r0, #12]
24052004:	049b      	lsls	r3, r3, #18
24052006:	d417      	bmi.n	24052038 <HAL_ADC_IRQHandler+0xa0>
24052008:	6803      	ldr	r3, [r0, #0]
2405200a:	0719      	lsls	r1, r3, #28
2405200c:	d514      	bpl.n	24052038 <HAL_ADC_IRQHandler+0xa0>
2405200e:	f7ff ff40 	bl	24051e92 <LL_ADC_REG_IsConversionOngoing>
24052012:	2800      	cmp	r0, #0
24052014:	f040 80b1 	bne.w	2405217a <HAL_ADC_IRQHandler+0x1e2>
24052018:	6822      	ldr	r2, [r4, #0]
2405201a:	6853      	ldr	r3, [r2, #4]
2405201c:	f023 030c 	bic.w	r3, r3, #12
24052020:	6053      	str	r3, [r2, #4]
24052022:	6d63      	ldr	r3, [r4, #84]	; 0x54
24052024:	f423 7380 	bic.w	r3, r3, #256	; 0x100
24052028:	6563      	str	r3, [r4, #84]	; 0x54
2405202a:	6d63      	ldr	r3, [r4, #84]	; 0x54
2405202c:	04da      	lsls	r2, r3, #19
2405202e:	d403      	bmi.n	24052038 <HAL_ADC_IRQHandler+0xa0>
24052030:	6d63      	ldr	r3, [r4, #84]	; 0x54
24052032:	f043 0301 	orr.w	r3, r3, #1
24052036:	6563      	str	r3, [r4, #84]	; 0x54
24052038:	4620      	mov	r0, r4
2405203a:	f7ff ffaa 	bl	24051f92 <HAL_ADC_ConvCpltCallback>
2405203e:	6823      	ldr	r3, [r4, #0]
24052040:	220c      	movs	r2, #12
24052042:	601a      	str	r2, [r3, #0]
24052044:	06ab      	lsls	r3, r5, #26
24052046:	d501      	bpl.n	2405204c <HAL_ADC_IRQHandler+0xb4>
24052048:	06b0      	lsls	r0, r6, #26
2405204a:	d403      	bmi.n	24052054 <HAL_ADC_IRQHandler+0xbc>
2405204c:	0669      	lsls	r1, r5, #25
2405204e:	d538      	bpl.n	240520c2 <HAL_ADC_IRQHandler+0x12a>
24052050:	0672      	lsls	r2, r6, #25
24052052:	d536      	bpl.n	240520c2 <HAL_ADC_IRQHandler+0x12a>
24052054:	6d63      	ldr	r3, [r4, #84]	; 0x54
24052056:	06db      	lsls	r3, r3, #27
24052058:	d403      	bmi.n	24052062 <HAL_ADC_IRQHandler+0xca>
2405205a:	6d63      	ldr	r3, [r4, #84]	; 0x54
2405205c:	f443 5300 	orr.w	r3, r3, #8192	; 0x2000
24052060:	6563      	str	r3, [r4, #84]	; 0x54
24052062:	6823      	ldr	r3, [r4, #0]
24052064:	4a5c      	ldr	r2, [pc, #368]	; (240521d8 <HAL_ADC_IRQHandler+0x240>)
24052066:	6cd8      	ldr	r0, [r3, #76]	; 0x4c
24052068:	4293      	cmp	r3, r2
2405206a:	68d9      	ldr	r1, [r3, #12]
2405206c:	f400 70c0 	and.w	r0, r0, #384	; 0x180
24052070:	d104      	bne.n	2405207c <HAL_ADC_IRQHandler+0xe4>
24052072:	b11f      	cbz	r7, 2405207c <HAL_ADC_IRQHandler+0xe4>
24052074:	1fba      	subs	r2, r7, #6
24052076:	2a01      	cmp	r2, #1
24052078:	f200 8088 	bhi.w	2405218c <HAL_ADC_IRQHandler+0x1f4>
2405207c:	68da      	ldr	r2, [r3, #12]
2405207e:	b9d0      	cbnz	r0, 240520b6 <HAL_ADC_IRQHandler+0x11e>
24052080:	0190      	lsls	r0, r2, #6
24052082:	d505      	bpl.n	24052090 <HAL_ADC_IRQHandler+0xf8>
24052084:	f402 5000 	and.w	r0, r2, #8192	; 0x2000
24052088:	f401 6140 	and.w	r1, r1, #3072	; 0xc00
2405208c:	4301      	orrs	r1, r0
2405208e:	d112      	bne.n	240520b6 <HAL_ADC_IRQHandler+0x11e>
24052090:	6819      	ldr	r1, [r3, #0]
24052092:	0648      	lsls	r0, r1, #25
24052094:	d50f      	bpl.n	240520b6 <HAL_ADC_IRQHandler+0x11e>
24052096:	0291      	lsls	r1, r2, #10
24052098:	d40d      	bmi.n	240520b6 <HAL_ADC_IRQHandler+0x11e>
2405209a:	689a      	ldr	r2, [r3, #8]
2405209c:	0712      	lsls	r2, r2, #28
2405209e:	d478      	bmi.n	24052192 <HAL_ADC_IRQHandler+0x1fa>
240520a0:	685a      	ldr	r2, [r3, #4]
240520a2:	f022 0260 	bic.w	r2, r2, #96	; 0x60
240520a6:	605a      	str	r2, [r3, #4]
240520a8:	6d63      	ldr	r3, [r4, #84]	; 0x54
240520aa:	f423 5380 	bic.w	r3, r3, #4096	; 0x1000
240520ae:	6563      	str	r3, [r4, #84]	; 0x54
240520b0:	6d63      	ldr	r3, [r4, #84]	; 0x54
240520b2:	05d8      	lsls	r0, r3, #23
240520b4:	d576      	bpl.n	240521a4 <HAL_ADC_IRQHandler+0x20c>
240520b6:	4620      	mov	r0, r4
240520b8:	f000 fc44 	bl	24052944 <HAL_ADCEx_InjectedConvCpltCallback>
240520bc:	6823      	ldr	r3, [r4, #0]
240520be:	2260      	movs	r2, #96	; 0x60
240520c0:	601a      	str	r2, [r3, #0]
240520c2:	0629      	lsls	r1, r5, #24
240520c4:	d50b      	bpl.n	240520de <HAL_ADC_IRQHandler+0x146>
240520c6:	0632      	lsls	r2, r6, #24
240520c8:	d509      	bpl.n	240520de <HAL_ADC_IRQHandler+0x146>
240520ca:	6d63      	ldr	r3, [r4, #84]	; 0x54
240520cc:	4620      	mov	r0, r4
240520ce:	f443 3380 	orr.w	r3, r3, #65536	; 0x10000
240520d2:	6563      	str	r3, [r4, #84]	; 0x54
240520d4:	f7ff ff5e 	bl	24051f94 <HAL_ADC_LevelOutOfWindowCallback>
240520d8:	6823      	ldr	r3, [r4, #0]
240520da:	2280      	movs	r2, #128	; 0x80
240520dc:	601a      	str	r2, [r3, #0]
240520de:	05eb      	lsls	r3, r5, #23
240520e0:	d50c      	bpl.n	240520fc <HAL_ADC_IRQHandler+0x164>
240520e2:	05f0      	lsls	r0, r6, #23
240520e4:	d50a      	bpl.n	240520fc <HAL_ADC_IRQHandler+0x164>
240520e6:	6d63      	ldr	r3, [r4, #84]	; 0x54
240520e8:	4620      	mov	r0, r4
240520ea:	f443 3300 	orr.w	r3, r3, #131072	; 0x20000
240520ee:	6563      	str	r3, [r4, #84]	; 0x54
240520f0:	f000 fc2a 	bl	24052948 <HAL_ADCEx_LevelOutOfWindow2Callback>
240520f4:	6823      	ldr	r3, [r4, #0]
240520f6:	f44f 7280 	mov.w	r2, #256	; 0x100
240520fa:	601a      	str	r2, [r3, #0]
240520fc:	05a9      	lsls	r1, r5, #22
240520fe:	d50c      	bpl.n	2405211a <HAL_ADC_IRQHandler+0x182>
24052100:	05b2      	lsls	r2, r6, #22
24052102:	d50a      	bpl.n	2405211a <HAL_ADC_IRQHandler+0x182>
24052104:	6d63      	ldr	r3, [r4, #84]	; 0x54
24052106:	4620      	mov	r0, r4
24052108:	f443 2380 	orr.w	r3, r3, #262144	; 0x40000
2405210c:	6563      	str	r3, [r4, #84]	; 0x54
2405210e:	f000 fc1c 	bl	2405294a <HAL_ADCEx_LevelOutOfWindow3Callback>
24052112:	6823      	ldr	r3, [r4, #0]
24052114:	f44f 7200 	mov.w	r2, #512	; 0x200
24052118:	601a      	str	r2, [r3, #0]
2405211a:	06eb      	lsls	r3, r5, #27
2405211c:	d518      	bpl.n	24052150 <HAL_ADC_IRQHandler+0x1b8>
2405211e:	06f0      	lsls	r0, r6, #27
24052120:	d516      	bpl.n	24052150 <HAL_ADC_IRQHandler+0x1b8>
24052122:	6b23      	ldr	r3, [r4, #48]	; 0x30
24052124:	b133      	cbz	r3, 24052134 <HAL_ADC_IRQHandler+0x19c>
24052126:	2f00      	cmp	r7, #0
24052128:	d041      	beq.n	240521ae <HAL_ADC_IRQHandler+0x216>
2405212a:	f8d8 3008 	ldr.w	r3, [r8, #8]
2405212e:	f413 4f40 	tst.w	r3, #49152	; 0xc000
24052132:	d00a      	beq.n	2405214a <HAL_ADC_IRQHandler+0x1b2>
24052134:	6d63      	ldr	r3, [r4, #84]	; 0x54
24052136:	4620      	mov	r0, r4
24052138:	f443 6380 	orr.w	r3, r3, #1024	; 0x400
2405213c:	6563      	str	r3, [r4, #84]	; 0x54
2405213e:	6da3      	ldr	r3, [r4, #88]	; 0x58
24052140:	f043 0302 	orr.w	r3, r3, #2
24052144:	65a3      	str	r3, [r4, #88]	; 0x58
24052146:	f7ff ff26 	bl	24051f96 <HAL_ADC_ErrorCallback>
2405214a:	6823      	ldr	r3, [r4, #0]
2405214c:	2210      	movs	r2, #16
2405214e:	601a      	str	r2, [r3, #0]
24052150:	0569      	lsls	r1, r5, #21
24052152:	d53c      	bpl.n	240521ce <HAL_ADC_IRQHandler+0x236>
24052154:	0572      	lsls	r2, r6, #21
24052156:	d53a      	bpl.n	240521ce <HAL_ADC_IRQHandler+0x236>
24052158:	6d63      	ldr	r3, [r4, #84]	; 0x54
2405215a:	f44f 6280 	mov.w	r2, #1024	; 0x400
2405215e:	4620      	mov	r0, r4
24052160:	f443 4380 	orr.w	r3, r3, #16384	; 0x4000
24052164:	6563      	str	r3, [r4, #84]	; 0x54
24052166:	6da3      	ldr	r3, [r4, #88]	; 0x58
24052168:	f043 0308 	orr.w	r3, r3, #8
2405216c:	65a3      	str	r3, [r4, #88]	; 0x58
2405216e:	6823      	ldr	r3, [r4, #0]
24052170:	e8bd 41f0 	ldmia.w	sp!, {r4, r5, r6, r7, r8, lr}
24052174:	601a      	str	r2, [r3, #0]
24052176:	f000 bbe6 	b.w	24052946 <HAL_ADCEx_InjectedQueueOverflowCallback>
2405217a:	6d63      	ldr	r3, [r4, #84]	; 0x54
2405217c:	f043 0310 	orr.w	r3, r3, #16
24052180:	6563      	str	r3, [r4, #84]	; 0x54
24052182:	6da3      	ldr	r3, [r4, #88]	; 0x58
24052184:	f043 0301 	orr.w	r3, r3, #1
24052188:	65a3      	str	r3, [r4, #88]	; 0x58
2405218a:	e755      	b.n	24052038 <HAL_ADC_IRQHandler+0xa0>
2405218c:	4a13      	ldr	r2, [pc, #76]	; (240521dc <HAL_ADC_IRQHandler+0x244>)
2405218e:	68d2      	ldr	r2, [r2, #12]
24052190:	e775      	b.n	2405207e <HAL_ADC_IRQHandler+0xe6>
24052192:	6d63      	ldr	r3, [r4, #84]	; 0x54
24052194:	f043 0310 	orr.w	r3, r3, #16
24052198:	6563      	str	r3, [r4, #84]	; 0x54
2405219a:	6da3      	ldr	r3, [r4, #88]	; 0x58
2405219c:	f043 0301 	orr.w	r3, r3, #1
240521a0:	65a3      	str	r3, [r4, #88]	; 0x58
240521a2:	e788      	b.n	240520b6 <HAL_ADC_IRQHandler+0x11e>
240521a4:	6d63      	ldr	r3, [r4, #84]	; 0x54
240521a6:	f043 0301 	orr.w	r3, r3, #1
240521aa:	6563      	str	r3, [r4, #84]	; 0x54
240521ac:	e783      	b.n	240520b6 <HAL_ADC_IRQHandler+0x11e>
240521ae:	6823      	ldr	r3, [r4, #0]
240521b0:	68db      	ldr	r3, [r3, #12]
240521b2:	f013 0f03 	tst.w	r3, #3
240521b6:	e7bc      	b.n	24052132 <HAL_ADC_IRQHandler+0x19a>
240521b8:	2f09      	cmp	r7, #9
240521ba:	d805      	bhi.n	240521c8 <HAL_ADC_IRQHandler+0x230>
240521bc:	f240 2321 	movw	r3, #545	; 0x221
240521c0:	40fb      	lsrs	r3, r7
240521c2:	07db      	lsls	r3, r3, #31
240521c4:	f53f af1d 	bmi.w	24052002 <HAL_ADC_IRQHandler+0x6a>
240521c8:	4b04      	ldr	r3, [pc, #16]	; (240521dc <HAL_ADC_IRQHandler+0x244>)
240521ca:	68db      	ldr	r3, [r3, #12]
240521cc:	e71a      	b.n	24052004 <HAL_ADC_IRQHandler+0x6c>
240521ce:	e8bd 81f0 	ldmia.w	sp!, {r4, r5, r6, r7, r8, pc}
240521d2:	bf00      	nop
240521d4:	40022300 	.word	0x40022300
240521d8:	40022100 	.word	0x40022100
240521dc:	40022000 	.word	0x40022000

240521e0 <HAL_ADC_ConfigChannel>:
240521e0:	2300      	movs	r3, #0
240521e2:	b5f7      	push	{r0, r1, r2, r4, r5, r6, r7, lr}
240521e4:	9301      	str	r3, [sp, #4]
240521e6:	4604      	mov	r4, r0
240521e8:	f890 3050 	ldrb.w	r3, [r0, #80]	; 0x50
240521ec:	460d      	mov	r5, r1
240521ee:	2b01      	cmp	r3, #1
240521f0:	f000 8182 	beq.w	240524f8 <HAL_ADC_ConfigChannel+0x318>
240521f4:	2301      	movs	r3, #1
240521f6:	f880 3050 	strb.w	r3, [r0, #80]	; 0x50
240521fa:	6800      	ldr	r0, [r0, #0]
240521fc:	f7ff fe49 	bl	24051e92 <LL_ADC_REG_IsConversionOngoing>
24052200:	2800      	cmp	r0, #0
24052202:	f040 8173 	bne.w	240524ec <HAL_ADC_ConfigChannel+0x30c>
24052206:	680a      	ldr	r2, [r1, #0]
24052208:	f3c2 0013 	ubfx	r0, r2, #0, #20
2405220c:	f3c2 6184 	ubfx	r1, r2, #26, #5
24052210:	2800      	cmp	r0, #0
24052212:	d16c      	bne.n	240522ee <HAL_ADC_ConfigChannel+0x10e>
24052214:	408b      	lsls	r3, r1
24052216:	6820      	ldr	r0, [r4, #0]
24052218:	271f      	movs	r7, #31
2405221a:	69c2      	ldr	r2, [r0, #28]
2405221c:	f100 0c30 	add.w	ip, r0, #48	; 0x30
24052220:	4313      	orrs	r3, r2
24052222:	686a      	ldr	r2, [r5, #4]
24052224:	0996      	lsrs	r6, r2, #6
24052226:	f002 021f 	and.w	r2, r2, #31
2405222a:	61c3      	str	r3, [r0, #28]
2405222c:	f006 060c 	and.w	r6, r6, #12
24052230:	4097      	lsls	r7, r2
24052232:	fa01 f202 	lsl.w	r2, r1, r2
24052236:	f856 300c 	ldr.w	r3, [r6, ip]
2405223a:	ea23 0307 	bic.w	r3, r3, r7
2405223e:	4313      	orrs	r3, r2
24052240:	f846 300c 	str.w	r3, [r6, ip]
24052244:	f7ff fe25 	bl	24051e92 <LL_ADC_REG_IsConversionOngoing>
24052248:	6827      	ldr	r7, [r4, #0]
2405224a:	68bb      	ldr	r3, [r7, #8]
2405224c:	f003 0308 	and.w	r3, r3, #8
24052250:	ea53 0600 	orrs.w	r6, r3, r0
24052254:	d141      	bne.n	240522da <HAL_ADC_ConfigChannel+0xfa>
24052256:	68aa      	ldr	r2, [r5, #8]
24052258:	4638      	mov	r0, r7
2405225a:	6829      	ldr	r1, [r5, #0]
2405225c:	f7ff fe08 	bl	24051e70 <LL_ADC_SetChannelSamplingTime>
24052260:	6823      	ldr	r3, [r4, #0]
24052262:	f8d5 c010 	ldr.w	ip, [r5, #16]
24052266:	68da      	ldr	r2, [r3, #12]
24052268:	68df      	ldr	r7, [r3, #12]
2405226a:	f012 0f10 	tst.w	r2, #16
2405226e:	696a      	ldr	r2, [r5, #20]
24052270:	6829      	ldr	r1, [r5, #0]
24052272:	bf0b      	itete	eq
24052274:	f3c7 0782 	ubfxeq	r7, r7, #2, #3
24052278:	087f      	lsrne	r7, r7, #1
2405227a:	007f      	lsleq	r7, r7, #1
2405227c:	f007 0708 	andne.w	r7, r7, #8
24052280:	f1bc 0f04 	cmp.w	ip, #4
24052284:	fa02 f707 	lsl.w	r7, r2, r7
24052288:	d03a      	beq.n	24052300 <HAL_ADC_ConfigChannel+0x120>
2405228a:	f103 0060 	add.w	r0, r3, #96	; 0x60
2405228e:	f001 41f8 	and.w	r1, r1, #2080374784	; 0x7c000000
24052292:	f850 202c 	ldr.w	r2, [r0, ip, lsl #2]
24052296:	f002 4200 	and.w	r2, r2, #2147483648	; 0x80000000
2405229a:	430a      	orrs	r2, r1
2405229c:	433a      	orrs	r2, r7
2405229e:	f840 202c 	str.w	r2, [r0, ip, lsl #2]
240522a2:	6929      	ldr	r1, [r5, #16]
240522a4:	7e6a      	ldrb	r2, [r5, #25]
240522a6:	2a01      	cmp	r2, #1
240522a8:	f850 2021 	ldr.w	r2, [r0, r1, lsl #2]
240522ac:	bf0c      	ite	eq
240522ae:	f04f 4700 	moveq.w	r7, #2147483648	; 0x80000000
240522b2:	2700      	movne	r7, #0
240522b4:	f022 4200 	bic.w	r2, r2, #2147483648	; 0x80000000
240522b8:	433a      	orrs	r2, r7
240522ba:	f840 2021 	str.w	r2, [r0, r1, lsl #2]
240522be:	7e29      	ldrb	r1, [r5, #24]
240522c0:	692a      	ldr	r2, [r5, #16]
240522c2:	2901      	cmp	r1, #1
240522c4:	6918      	ldr	r0, [r3, #16]
240522c6:	f002 021f 	and.w	r2, r2, #31
240522ca:	bf08      	it	eq
240522cc:	f44f 6600 	moveq.w	r6, #2048	; 0x800
240522d0:	f420 40f0 	bic.w	r0, r0, #30720	; 0x7800
240522d4:	4096      	lsls	r6, r2
240522d6:	4306      	orrs	r6, r0
240522d8:	611e      	str	r6, [r3, #16]
240522da:	6820      	ldr	r0, [r4, #0]
240522dc:	6883      	ldr	r3, [r0, #8]
240522de:	07df      	lsls	r7, r3, #31
240522e0:	d535      	bpl.n	2405234e <HAL_ADC_ConfigChannel+0x16e>
240522e2:	2000      	movs	r0, #0
240522e4:	2300      	movs	r3, #0
240522e6:	f884 3050 	strb.w	r3, [r4, #80]	; 0x50
240522ea:	b003      	add	sp, #12
240522ec:	bdf0      	pop	{r4, r5, r6, r7, pc}
240522ee:	fa92 f3a2 	rbit	r3, r2
240522f2:	fab3 f383 	clz	r3, r3
240522f6:	f003 001f 	and.w	r0, r3, #31
240522fa:	2301      	movs	r3, #1
240522fc:	4083      	lsls	r3, r0
240522fe:	e78a      	b.n	24052216 <HAL_ADC_ConfigChannel+0x36>
24052300:	6e1a      	ldr	r2, [r3, #96]	; 0x60
24052302:	0688      	lsls	r0, r1, #26
24052304:	f002 42f8 	and.w	r2, r2, #2080374784	; 0x7c000000
24052308:	ebb2 6f81 	cmp.w	r2, r1, lsl #26
2405230c:	d103      	bne.n	24052316 <HAL_ADC_ConfigChannel+0x136>
2405230e:	6e1a      	ldr	r2, [r3, #96]	; 0x60
24052310:	f022 4200 	bic.w	r2, r2, #2147483648	; 0x80000000
24052314:	661a      	str	r2, [r3, #96]	; 0x60
24052316:	6e5a      	ldr	r2, [r3, #100]	; 0x64
24052318:	f002 42f8 	and.w	r2, r2, #2080374784	; 0x7c000000
2405231c:	4290      	cmp	r0, r2
2405231e:	d103      	bne.n	24052328 <HAL_ADC_ConfigChannel+0x148>
24052320:	6e5a      	ldr	r2, [r3, #100]	; 0x64
24052322:	f022 4200 	bic.w	r2, r2, #2147483648	; 0x80000000
24052326:	665a      	str	r2, [r3, #100]	; 0x64
24052328:	6e9a      	ldr	r2, [r3, #104]	; 0x68
2405232a:	f002 42f8 	and.w	r2, r2, #2080374784	; 0x7c000000
2405232e:	4290      	cmp	r0, r2
24052330:	d103      	bne.n	2405233a <HAL_ADC_ConfigChannel+0x15a>
24052332:	6e9a      	ldr	r2, [r3, #104]	; 0x68
24052334:	f022 4200 	bic.w	r2, r2, #2147483648	; 0x80000000
24052338:	669a      	str	r2, [r3, #104]	; 0x68
2405233a:	6eda      	ldr	r2, [r3, #108]	; 0x6c
2405233c:	f002 42f8 	and.w	r2, r2, #2080374784	; 0x7c000000
24052340:	4290      	cmp	r0, r2
24052342:	d1ca      	bne.n	240522da <HAL_ADC_ConfigChannel+0xfa>
24052344:	6eda      	ldr	r2, [r3, #108]	; 0x6c
24052346:	f022 4200 	bic.w	r2, r2, #2147483648	; 0x80000000
2405234a:	66da      	str	r2, [r3, #108]	; 0x6c
2405234c:	e7c5      	b.n	240522da <HAL_ADC_ConfigChannel+0xfa>
2405234e:	68ee      	ldr	r6, [r5, #12]
24052350:	682b      	ldr	r3, [r5, #0]
24052352:	f006 0c18 	and.w	ip, r6, #24
24052356:	4a69      	ldr	r2, [pc, #420]	; (240524fc <HAL_ADC_ConfigChannel+0x31c>)
24052358:	f8d0 10c0 	ldr.w	r1, [r0, #192]	; 0xc0
2405235c:	f3c3 0713 	ubfx	r7, r3, #0, #20
24052360:	fa22 f20c 	lsr.w	r2, r2, ip
24052364:	ea21 0107 	bic.w	r1, r1, r7
24052368:	401a      	ands	r2, r3
2405236a:	430a      	orrs	r2, r1
2405236c:	f8c0 20c0 	str.w	r2, [r0, #192]	; 0xc0
24052370:	4a63      	ldr	r2, [pc, #396]	; (24052500 <HAL_ADC_ConfigChannel+0x320>)
24052372:	4296      	cmp	r6, r2
24052374:	d11c      	bne.n	240523b0 <HAL_ADC_ConfigChannel+0x1d0>
24052376:	2f00      	cmp	r7, #0
24052378:	d147      	bne.n	2405240a <HAL_ADC_ConfigChannel+0x22a>
2405237a:	0e99      	lsrs	r1, r3, #26
2405237c:	3101      	adds	r1, #1
2405237e:	f001 061f 	and.w	r6, r1, #31
24052382:	0689      	lsls	r1, r1, #26
24052384:	2e09      	cmp	r6, #9
24052386:	f001 42f8 	and.w	r2, r1, #2080374784	; 0x7c000000
2405238a:	f04f 0101 	mov.w	r1, #1
2405238e:	fa01 f106 	lsl.w	r1, r1, r6
24052392:	d86c      	bhi.n	2405246e <HAL_ADC_ConfigChannel+0x28e>
24052394:	4311      	orrs	r1, r2
24052396:	2f00      	cmp	r7, #0
24052398:	d153      	bne.n	24052442 <HAL_ADC_ConfigChannel+0x262>
2405239a:	0e9e      	lsrs	r6, r3, #26
2405239c:	3601      	adds	r6, #1
2405239e:	f006 061f 	and.w	r6, r6, #31
240523a2:	eb06 0646 	add.w	r6, r6, r6, lsl #1
240523a6:	0536      	lsls	r6, r6, #20
240523a8:	4331      	orrs	r1, r6
240523aa:	68aa      	ldr	r2, [r5, #8]
240523ac:	f7ff fd60 	bl	24051e70 <LL_ADC_SetChannelSamplingTime>
240523b0:	682d      	ldr	r5, [r5, #0]
240523b2:	2d00      	cmp	r5, #0
240523b4:	da95      	bge.n	240522e2 <HAL_ADC_ConfigChannel+0x102>
240523b6:	4a53      	ldr	r2, [pc, #332]	; (24052504 <HAL_ADC_ConfigChannel+0x324>)
240523b8:	4b53      	ldr	r3, [pc, #332]	; (24052508 <HAL_ADC_ConfigChannel+0x328>)
240523ba:	4954      	ldr	r1, [pc, #336]	; (2405250c <HAL_ADC_ConfigChannel+0x32c>)
240523bc:	6898      	ldr	r0, [r3, #8]
240523be:	6896      	ldr	r6, [r2, #8]
240523c0:	688a      	ldr	r2, [r1, #8]
240523c2:	4332      	orrs	r2, r6
240523c4:	07d6      	lsls	r6, r2, #31
240523c6:	f100 808b 	bmi.w	240524e0 <HAL_ADC_ConfigChannel+0x300>
240523ca:	4a51      	ldr	r2, [pc, #324]	; (24052510 <HAL_ADC_ConfigChannel+0x330>)
240523cc:	f000 76e0 	and.w	r6, r0, #29360128	; 0x1c00000
240523d0:	4295      	cmp	r5, r2
240523d2:	d15f      	bne.n	24052494 <HAL_ADC_ConfigChannel+0x2b4>
240523d4:	0202      	lsls	r2, r0, #8
240523d6:	d484      	bmi.n	240522e2 <HAL_ADC_ConfigChannel+0x102>
240523d8:	6822      	ldr	r2, [r4, #0]
240523da:	428a      	cmp	r2, r1
240523dc:	d181      	bne.n	240522e2 <HAL_ADC_ConfigChannel+0x102>
240523de:	689a      	ldr	r2, [r3, #8]
240523e0:	f022 72e0 	bic.w	r2, r2, #29360128	; 0x1c00000
240523e4:	4332      	orrs	r2, r6
240523e6:	f442 0200 	orr.w	r2, r2, #8388608	; 0x800000
240523ea:	609a      	str	r2, [r3, #8]
240523ec:	4b49      	ldr	r3, [pc, #292]	; (24052514 <HAL_ADC_ConfigChannel+0x334>)
240523ee:	4a4a      	ldr	r2, [pc, #296]	; (24052518 <HAL_ADC_ConfigChannel+0x338>)
240523f0:	681b      	ldr	r3, [r3, #0]
240523f2:	fbb3 f3f2 	udiv	r3, r3, r2
240523f6:	3301      	adds	r3, #1
240523f8:	005b      	lsls	r3, r3, #1
240523fa:	9301      	str	r3, [sp, #4]
240523fc:	9b01      	ldr	r3, [sp, #4]
240523fe:	2b00      	cmp	r3, #0
24052400:	f43f af6f 	beq.w	240522e2 <HAL_ADC_ConfigChannel+0x102>
24052404:	9b01      	ldr	r3, [sp, #4]
24052406:	3b01      	subs	r3, #1
24052408:	e7f7      	b.n	240523fa <HAL_ADC_ConfigChannel+0x21a>
2405240a:	fa93 f2a3 	rbit	r2, r3
2405240e:	b132      	cbz	r2, 2405241e <HAL_ADC_ConfigChannel+0x23e>
24052410:	fab2 f282 	clz	r2, r2
24052414:	3201      	adds	r2, #1
24052416:	f002 021f 	and.w	r2, r2, #31
2405241a:	2a09      	cmp	r2, #9
2405241c:	d816      	bhi.n	2405244c <HAL_ADC_ConfigChannel+0x26c>
2405241e:	fa93 f1a3 	rbit	r1, r3
24052422:	fab1 f181 	clz	r1, r1
24052426:	3101      	adds	r1, #1
24052428:	0689      	lsls	r1, r1, #26
2405242a:	f001 42f8 	and.w	r2, r1, #2080374784	; 0x7c000000
2405242e:	fa93 f1a3 	rbit	r1, r3
24052432:	fab1 f181 	clz	r1, r1
24052436:	3101      	adds	r1, #1
24052438:	f001 061f 	and.w	r6, r1, #31
2405243c:	2101      	movs	r1, #1
2405243e:	40b1      	lsls	r1, r6
24052440:	e7a8      	b.n	24052394 <HAL_ADC_ConfigChannel+0x1b4>
24052442:	fa93 f6a3 	rbit	r6, r3
24052446:	fab6 f686 	clz	r6, r6
2405244a:	e7a7      	b.n	2405239c <HAL_ADC_ConfigChannel+0x1bc>
2405244c:	fa93 f1a3 	rbit	r1, r3
24052450:	fab1 f181 	clz	r1, r1
24052454:	3101      	adds	r1, #1
24052456:	0689      	lsls	r1, r1, #26
24052458:	f001 42f8 	and.w	r2, r1, #2080374784	; 0x7c000000
2405245c:	fa93 f1a3 	rbit	r1, r3
24052460:	fab1 f181 	clz	r1, r1
24052464:	3101      	adds	r1, #1
24052466:	f001 061f 	and.w	r6, r1, #31
2405246a:	2101      	movs	r1, #1
2405246c:	40b1      	lsls	r1, r6
2405246e:	4311      	orrs	r1, r2
24052470:	b95f      	cbnz	r7, 2405248a <HAL_ADC_ConfigChannel+0x2aa>
24052472:	0e9a      	lsrs	r2, r3, #26
24052474:	3201      	adds	r2, #1
24052476:	f002 021f 	and.w	r2, r2, #31
2405247a:	eb02 0342 	add.w	r3, r2, r2, lsl #1
2405247e:	3b1e      	subs	r3, #30
24052480:	051b      	lsls	r3, r3, #20
24052482:	f043 7300 	orr.w	r3, r3, #33554432	; 0x2000000
24052486:	4319      	orrs	r1, r3
24052488:	e78f      	b.n	240523aa <HAL_ADC_ConfigChannel+0x1ca>
2405248a:	fa93 f2a3 	rbit	r2, r3
2405248e:	fab2 f282 	clz	r2, r2
24052492:	e7ef      	b.n	24052474 <HAL_ADC_ConfigChannel+0x294>
24052494:	4a21      	ldr	r2, [pc, #132]	; (2405251c <HAL_ADC_ConfigChannel+0x33c>)
24052496:	4295      	cmp	r5, r2
24052498:	d10f      	bne.n	240524ba <HAL_ADC_ConfigChannel+0x2da>
2405249a:	f010 7080 	ands.w	r0, r0, #16777216	; 0x1000000
2405249e:	f47f af20 	bne.w	240522e2 <HAL_ADC_ConfigChannel+0x102>
240524a2:	6822      	ldr	r2, [r4, #0]
240524a4:	428a      	cmp	r2, r1
240524a6:	f47f af1c 	bne.w	240522e2 <HAL_ADC_ConfigChannel+0x102>
240524aa:	689a      	ldr	r2, [r3, #8]
240524ac:	f022 72e0 	bic.w	r2, r2, #29360128	; 0x1c00000
240524b0:	4332      	orrs	r2, r6
240524b2:	f042 7280 	orr.w	r2, r2, #16777216	; 0x1000000
240524b6:	609a      	str	r2, [r3, #8]
240524b8:	e714      	b.n	240522e4 <HAL_ADC_ConfigChannel+0x104>
240524ba:	4a19      	ldr	r2, [pc, #100]	; (24052520 <HAL_ADC_ConfigChannel+0x340>)
240524bc:	4295      	cmp	r5, r2
240524be:	f47f af10 	bne.w	240522e2 <HAL_ADC_ConfigChannel+0x102>
240524c2:	f410 0080 	ands.w	r0, r0, #4194304	; 0x400000
240524c6:	f47f af0c 	bne.w	240522e2 <HAL_ADC_ConfigChannel+0x102>
240524ca:	6822      	ldr	r2, [r4, #0]
240524cc:	428a      	cmp	r2, r1
240524ce:	f47f af08 	bne.w	240522e2 <HAL_ADC_ConfigChannel+0x102>
240524d2:	689a      	ldr	r2, [r3, #8]
240524d4:	f022 72e0 	bic.w	r2, r2, #29360128	; 0x1c00000
240524d8:	4332      	orrs	r2, r6
240524da:	f442 0280 	orr.w	r2, r2, #4194304	; 0x400000
240524de:	e7ea      	b.n	240524b6 <HAL_ADC_ConfigChannel+0x2d6>
240524e0:	6d63      	ldr	r3, [r4, #84]	; 0x54
240524e2:	2001      	movs	r0, #1
240524e4:	f043 0320 	orr.w	r3, r3, #32
240524e8:	6563      	str	r3, [r4, #84]	; 0x54
240524ea:	e6fb      	b.n	240522e4 <HAL_ADC_ConfigChannel+0x104>
240524ec:	6d62      	ldr	r2, [r4, #84]	; 0x54
240524ee:	4618      	mov	r0, r3
240524f0:	f042 0220 	orr.w	r2, r2, #32
240524f4:	6562      	str	r2, [r4, #84]	; 0x54
240524f6:	e6f5      	b.n	240522e4 <HAL_ADC_ConfigChannel+0x104>
240524f8:	2002      	movs	r0, #2
240524fa:	e6f6      	b.n	240522ea <HAL_ADC_ConfigChannel+0x10a>
240524fc:	000fffff 	.word	0x000fffff
24052500:	47ff0000 	.word	0x47ff0000
24052504:	40022000 	.word	0x40022000
24052508:	40022300 	.word	0x40022300
2405250c:	40022100 	.word	0x40022100
24052510:	cb840000 	.word	0xcb840000
24052514:	20000030 	.word	0x20000030
24052518:	00030d40 	.word	0x00030d40
2405251c:	bac04000 	.word	0xbac04000
24052520:	cfb80000 	.word	0xcfb80000

24052524 <ADC_Enable>:
24052524:	6802      	ldr	r2, [r0, #0]
24052526:	6893      	ldr	r3, [r2, #8]
24052528:	07d9      	lsls	r1, r3, #31
2405252a:	b570      	push	{r4, r5, r6, lr}
2405252c:	4604      	mov	r4, r0
2405252e:	d501      	bpl.n	24052534 <ADC_Enable+0x10>
24052530:	2000      	movs	r0, #0
24052532:	bd70      	pop	{r4, r5, r6, pc}
24052534:	6891      	ldr	r1, [r2, #8]
24052536:	4b1c      	ldr	r3, [pc, #112]	; (240525a8 <ADC_Enable+0x84>)
24052538:	4219      	tst	r1, r3
2405253a:	d009      	beq.n	24052550 <ADC_Enable+0x2c>
2405253c:	6d63      	ldr	r3, [r4, #84]	; 0x54
2405253e:	2001      	movs	r0, #1
24052540:	f043 0310 	orr.w	r3, r3, #16
24052544:	6563      	str	r3, [r4, #84]	; 0x54
24052546:	6da3      	ldr	r3, [r4, #88]	; 0x58
24052548:	f043 0301 	orr.w	r3, r3, #1
2405254c:	65a3      	str	r3, [r4, #88]	; 0x58
2405254e:	e7f0      	b.n	24052532 <ADC_Enable+0xe>
24052550:	6893      	ldr	r3, [r2, #8]
24052552:	f023 4300 	bic.w	r3, r3, #2147483648	; 0x80000000
24052556:	f023 033f 	bic.w	r3, r3, #63	; 0x3f
2405255a:	f043 0301 	orr.w	r3, r3, #1
2405255e:	6093      	str	r3, [r2, #8]
24052560:	f7ff fc6e 	bl	24051e40 <HAL_GetTick>
24052564:	6821      	ldr	r1, [r4, #0]
24052566:	4a11      	ldr	r2, [pc, #68]	; (240525ac <ADC_Enable+0x88>)
24052568:	4605      	mov	r5, r0
2405256a:	4b11      	ldr	r3, [pc, #68]	; (240525b0 <ADC_Enable+0x8c>)
2405256c:	4291      	cmp	r1, r2
2405256e:	689b      	ldr	r3, [r3, #8]
24052570:	d101      	bne.n	24052576 <ADC_Enable+0x52>
24052572:	06db      	lsls	r3, r3, #27
24052574:	d1dc      	bne.n	24052530 <ADC_Enable+0xc>
24052576:	4e0f      	ldr	r6, [pc, #60]	; (240525b4 <ADC_Enable+0x90>)
24052578:	e010      	b.n	2405259c <ADC_Enable+0x78>
2405257a:	6893      	ldr	r3, [r2, #8]
2405257c:	07db      	lsls	r3, r3, #31
2405257e:	d404      	bmi.n	2405258a <ADC_Enable+0x66>
24052580:	6893      	ldr	r3, [r2, #8]
24052582:	4033      	ands	r3, r6
24052584:	f043 0301 	orr.w	r3, r3, #1
24052588:	6093      	str	r3, [r2, #8]
2405258a:	f7ff fc59 	bl	24051e40 <HAL_GetTick>
2405258e:	1b40      	subs	r0, r0, r5
24052590:	2802      	cmp	r0, #2
24052592:	d903      	bls.n	2405259c <ADC_Enable+0x78>
24052594:	6823      	ldr	r3, [r4, #0]
24052596:	681b      	ldr	r3, [r3, #0]
24052598:	07d8      	lsls	r0, r3, #31
2405259a:	d5cf      	bpl.n	2405253c <ADC_Enable+0x18>
2405259c:	6822      	ldr	r2, [r4, #0]
2405259e:	6813      	ldr	r3, [r2, #0]
240525a0:	07d9      	lsls	r1, r3, #31
240525a2:	d5ea      	bpl.n	2405257a <ADC_Enable+0x56>
240525a4:	e7c4      	b.n	24052530 <ADC_Enable+0xc>
240525a6:	bf00      	nop
240525a8:	8000003f 	.word	0x8000003f
240525ac:	40022100 	.word	0x40022100
240525b0:	40022300 	.word	0x40022300
240525b4:	7fffffc0 	.word	0x7fffffc0

240525b8 <HAL_ADC_Start>:
240525b8:	4b34      	ldr	r3, [pc, #208]	; (2405268c <HAL_ADC_Start+0xd4>)
240525ba:	b570      	push	{r4, r5, r6, lr}
240525bc:	4604      	mov	r4, r0
240525be:	6800      	ldr	r0, [r0, #0]
240525c0:	689e      	ldr	r6, [r3, #8]
240525c2:	f7ff fc66 	bl	24051e92 <LL_ADC_REG_IsConversionOngoing>
240525c6:	4605      	mov	r5, r0
240525c8:	2800      	cmp	r0, #0
240525ca:	d159      	bne.n	24052680 <HAL_ADC_Start+0xc8>
240525cc:	f894 3050 	ldrb.w	r3, [r4, #80]	; 0x50
240525d0:	2b01      	cmp	r3, #1
240525d2:	d055      	beq.n	24052680 <HAL_ADC_Start+0xc8>
240525d4:	2301      	movs	r3, #1
240525d6:	4620      	mov	r0, r4
240525d8:	f884 3050 	strb.w	r3, [r4, #80]	; 0x50
240525dc:	f7ff ffa2 	bl	24052524 <ADC_Enable>
240525e0:	2800      	cmp	r0, #0
240525e2:	d14a      	bne.n	2405267a <HAL_ADC_Start+0xc2>
240525e4:	6d63      	ldr	r3, [r4, #84]	; 0x54
240525e6:	f006 021f 	and.w	r2, r6, #31
240525ea:	4929      	ldr	r1, [pc, #164]	; (24052690 <HAL_ADC_Start+0xd8>)
240525ec:	f423 6370 	bic.w	r3, r3, #3840	; 0xf00
240525f0:	f023 0301 	bic.w	r3, r3, #1
240525f4:	f443 7380 	orr.w	r3, r3, #256	; 0x100
240525f8:	6563      	str	r3, [r4, #84]	; 0x54
240525fa:	6823      	ldr	r3, [r4, #0]
240525fc:	428b      	cmp	r3, r1
240525fe:	d041      	beq.n	24052684 <HAL_ADC_Start+0xcc>
24052600:	4619      	mov	r1, r3
24052602:	6d65      	ldr	r5, [r4, #84]	; 0x54
24052604:	f425 1580 	bic.w	r5, r5, #1048576	; 0x100000
24052608:	6565      	str	r5, [r4, #84]	; 0x54
2405260a:	6d65      	ldr	r5, [r4, #84]	; 0x54
2405260c:	f415 5580 	ands.w	r5, r5, #4096	; 0x1000
24052610:	d002      	beq.n	24052618 <HAL_ADC_Start+0x60>
24052612:	6da5      	ldr	r5, [r4, #88]	; 0x58
24052614:	f025 0506 	bic.w	r5, r5, #6
24052618:	65a5      	str	r5, [r4, #88]	; 0x58
2405261a:	251c      	movs	r5, #28
2405261c:	428b      	cmp	r3, r1
2405261e:	601d      	str	r5, [r3, #0]
24052620:	f04f 0500 	mov.w	r5, #0
24052624:	f884 5050 	strb.w	r5, [r4, #80]	; 0x50
24052628:	d007      	beq.n	2405263a <HAL_ADC_Start+0x82>
2405262a:	2a09      	cmp	r2, #9
2405262c:	d817      	bhi.n	2405265e <HAL_ADC_Start+0xa6>
2405262e:	f240 2521 	movw	r5, #545	; 0x221
24052632:	fa25 f202 	lsr.w	r2, r5, r2
24052636:	07d5      	lsls	r5, r2, #31
24052638:	d511      	bpl.n	2405265e <HAL_ADC_Start+0xa6>
2405263a:	68da      	ldr	r2, [r3, #12]
2405263c:	0192      	lsls	r2, r2, #6
2405263e:	d505      	bpl.n	2405264c <HAL_ADC_Start+0x94>
24052640:	6d62      	ldr	r2, [r4, #84]	; 0x54
24052642:	f422 5240 	bic.w	r2, r2, #12288	; 0x3000
24052646:	f442 5280 	orr.w	r2, r2, #4096	; 0x1000
2405264a:	6562      	str	r2, [r4, #84]	; 0x54
2405264c:	689a      	ldr	r2, [r3, #8]
2405264e:	f022 4200 	bic.w	r2, r2, #2147483648	; 0x80000000
24052652:	f022 023f 	bic.w	r2, r2, #63	; 0x3f
24052656:	f042 0204 	orr.w	r2, r2, #4
2405265a:	609a      	str	r2, [r3, #8]
2405265c:	bd70      	pop	{r4, r5, r6, pc}
2405265e:	6d63      	ldr	r3, [r4, #84]	; 0x54
24052660:	f443 1380 	orr.w	r3, r3, #1048576	; 0x100000
24052664:	6563      	str	r3, [r4, #84]	; 0x54
24052666:	68cb      	ldr	r3, [r1, #12]
24052668:	019b      	lsls	r3, r3, #6
2405266a:	d5f7      	bpl.n	2405265c <HAL_ADC_Start+0xa4>
2405266c:	6d63      	ldr	r3, [r4, #84]	; 0x54
2405266e:	f423 5340 	bic.w	r3, r3, #12288	; 0x3000
24052672:	f443 5380 	orr.w	r3, r3, #4096	; 0x1000
24052676:	6563      	str	r3, [r4, #84]	; 0x54
24052678:	e7f0      	b.n	2405265c <HAL_ADC_Start+0xa4>
2405267a:	f884 5050 	strb.w	r5, [r4, #80]	; 0x50
2405267e:	e7ed      	b.n	2405265c <HAL_ADC_Start+0xa4>
24052680:	2002      	movs	r0, #2
24052682:	e7eb      	b.n	2405265c <HAL_ADC_Start+0xa4>
24052684:	4903      	ldr	r1, [pc, #12]	; (24052694 <HAL_ADC_Start+0xdc>)
24052686:	2a00      	cmp	r2, #0
24052688:	d0bb      	beq.n	24052602 <HAL_ADC_Start+0x4a>
2405268a:	e7be      	b.n	2405260a <HAL_ADC_Start+0x52>
2405268c:	40022300 	.word	0x40022300
24052690:	40022100 	.word	0x40022100
24052694:	40022000 	.word	0x40022000

24052698 <ADC_ConfigureBoostMode>:
24052698:	b538      	push	{r3, r4, r5, lr}
2405269a:	4b36      	ldr	r3, [pc, #216]	; (24052774 <ADC_ConfigureBoostMode+0xdc>)
2405269c:	4604      	mov	r4, r0
2405269e:	4d36      	ldr	r5, [pc, #216]	; (24052778 <ADC_ConfigureBoostMode+0xe0>)
240526a0:	689b      	ldr	r3, [r3, #8]
240526a2:	f413 3f40 	tst.w	r3, #196608	; 0x30000
240526a6:	d021      	beq.n	240526ec <ADC_ConfigureBoostMode+0x54>
240526a8:	f003 f9bc 	bl	24055a24 <HAL_RCC_GetHCLKFreq>
240526ac:	6863      	ldr	r3, [r4, #4]
240526ae:	f5b3 3f00 	cmp.w	r3, #131072	; 0x20000
240526b2:	d005      	beq.n	240526c0 <ADC_ConfigureBoostMode+0x28>
240526b4:	f5b3 3f40 	cmp.w	r3, #196608	; 0x30000
240526b8:	d006      	beq.n	240526c8 <ADC_ConfigureBoostMode+0x30>
240526ba:	f5b3 3f80 	cmp.w	r3, #65536	; 0x10000
240526be:	d104      	bne.n	240526ca <ADC_ConfigureBoostMode+0x32>
240526c0:	0c1b      	lsrs	r3, r3, #16
240526c2:	fbb0 f0f3 	udiv	r0, r0, r3
240526c6:	e000      	b.n	240526ca <ADC_ConfigureBoostMode+0x32>
240526c8:	0880      	lsrs	r0, r0, #2
240526ca:	42a8      	cmp	r0, r5
240526cc:	d94c      	bls.n	24052768 <ADC_ConfigureBoostMode+0xd0>
240526ce:	4b2b      	ldr	r3, [pc, #172]	; (2405277c <ADC_ConfigureBoostMode+0xe4>)
240526d0:	4298      	cmp	r0, r3
240526d2:	d93b      	bls.n	2405274c <ADC_ConfigureBoostMode+0xb4>
240526d4:	4b2a      	ldr	r3, [pc, #168]	; (24052780 <ADC_ConfigureBoostMode+0xe8>)
240526d6:	6822      	ldr	r2, [r4, #0]
240526d8:	4298      	cmp	r0, r3
240526da:	6893      	ldr	r3, [r2, #8]
240526dc:	bf96      	itet	ls
240526de:	f423 7340 	bicls.w	r3, r3, #768	; 0x300
240526e2:	f443 7340 	orrhi.w	r3, r3, #768	; 0x300
240526e6:	f443 7300 	orrls.w	r3, r3, #512	; 0x200
240526ea:	e035      	b.n	24052758 <ADC_ConfigureBoostMode+0xc0>
240526ec:	f44f 2000 	mov.w	r0, #524288	; 0x80000
240526f0:	f004 f938 	bl	24056964 <HAL_RCCEx_GetPeriphCLKFreq>
240526f4:	6863      	ldr	r3, [r4, #4]
240526f6:	f5b3 1f10 	cmp.w	r3, #2359296	; 0x240000
240526fa:	d031      	beq.n	24052760 <ADC_ConfigureBoostMode+0xc8>
240526fc:	d81d      	bhi.n	2405273a <ADC_ConfigureBoostMode+0xa2>
240526fe:	f5b3 1fe0 	cmp.w	r3, #1835008	; 0x1c0000
24052702:	d02b      	beq.n	2405275c <ADC_ConfigureBoostMode+0xc4>
24052704:	d814      	bhi.n	24052730 <ADC_ConfigureBoostMode+0x98>
24052706:	f5b3 1f80 	cmp.w	r3, #1048576	; 0x100000
2405270a:	d008      	beq.n	2405271e <ADC_ConfigureBoostMode+0x86>
2405270c:	d80a      	bhi.n	24052724 <ADC_ConfigureBoostMode+0x8c>
2405270e:	f5b3 2f00 	cmp.w	r3, #524288	; 0x80000
24052712:	d004      	beq.n	2405271e <ADC_ConfigureBoostMode+0x86>
24052714:	f423 2200 	bic.w	r2, r3, #524288	; 0x80000
24052718:	f5b2 2f80 	cmp.w	r2, #262144	; 0x40000
2405271c:	d1d5      	bne.n	240526ca <ADC_ConfigureBoostMode+0x32>
2405271e:	0c9b      	lsrs	r3, r3, #18
24052720:	005b      	lsls	r3, r3, #1
24052722:	e7ce      	b.n	240526c2 <ADC_ConfigureBoostMode+0x2a>
24052724:	f5b3 1fa0 	cmp.w	r3, #1310720	; 0x140000
24052728:	d0f9      	beq.n	2405271e <ADC_ConfigureBoostMode+0x86>
2405272a:	f5b3 1fc0 	cmp.w	r3, #1572864	; 0x180000
2405272e:	e7f5      	b.n	2405271c <ADC_ConfigureBoostMode+0x84>
24052730:	f5b3 1f00 	cmp.w	r3, #2097152	; 0x200000
24052734:	d1c9      	bne.n	240526ca <ADC_ConfigureBoostMode+0x32>
24052736:	0940      	lsrs	r0, r0, #5
24052738:	e7c7      	b.n	240526ca <ADC_ConfigureBoostMode+0x32>
2405273a:	f5b3 1f20 	cmp.w	r3, #2621440	; 0x280000
2405273e:	d011      	beq.n	24052764 <ADC_ConfigureBoostMode+0xcc>
24052740:	f5b3 1f30 	cmp.w	r3, #2883584	; 0x2c0000
24052744:	d1c1      	bne.n	240526ca <ADC_ConfigureBoostMode+0x32>
24052746:	ebb5 2f10 	cmp.w	r5, r0, lsr #8
2405274a:	d20d      	bcs.n	24052768 <ADC_ConfigureBoostMode+0xd0>
2405274c:	6822      	ldr	r2, [r4, #0]
2405274e:	6893      	ldr	r3, [r2, #8]
24052750:	f423 7340 	bic.w	r3, r3, #768	; 0x300
24052754:	f443 7380 	orr.w	r3, r3, #256	; 0x100
24052758:	6093      	str	r3, [r2, #8]
2405275a:	bd38      	pop	{r3, r4, r5, pc}
2405275c:	0900      	lsrs	r0, r0, #4
2405275e:	e7b4      	b.n	240526ca <ADC_ConfigureBoostMode+0x32>
24052760:	0980      	lsrs	r0, r0, #6
24052762:	e7b2      	b.n	240526ca <ADC_ConfigureBoostMode+0x32>
24052764:	09c0      	lsrs	r0, r0, #7
24052766:	e7b0      	b.n	240526ca <ADC_ConfigureBoostMode+0x32>
24052768:	6822      	ldr	r2, [r4, #0]
2405276a:	6893      	ldr	r3, [r2, #8]
2405276c:	f423 7340 	bic.w	r3, r3, #768	; 0x300
24052770:	e7f2      	b.n	24052758 <ADC_ConfigureBoostMode+0xc0>
24052772:	bf00      	nop
24052774:	40022300 	.word	0x40022300
24052778:	00bebc21 	.word	0x00bebc21
2405277c:	017d7841 	.word	0x017d7841
24052780:	02faf081 	.word	0x02faf081

24052784 <HAL_ADC_Init>:
24052784:	2300      	movs	r3, #0
24052786:	b573      	push	{r0, r1, r4, r5, r6, lr}
24052788:	4604      	mov	r4, r0
2405278a:	9301      	str	r3, [sp, #4]
2405278c:	2800      	cmp	r0, #0
2405278e:	f000 80c6 	beq.w	2405291e <HAL_ADC_Init+0x19a>
24052792:	6d45      	ldr	r5, [r0, #84]	; 0x54
24052794:	b925      	cbnz	r5, 240527a0 <HAL_ADC_Init+0x1c>
24052796:	f7fe feaf 	bl	240514f8 <HAL_ADC_MspInit>
2405279a:	65a5      	str	r5, [r4, #88]	; 0x58
2405279c:	f884 5050 	strb.w	r5, [r4, #80]	; 0x50
240527a0:	6820      	ldr	r0, [r4, #0]
240527a2:	6883      	ldr	r3, [r0, #8]
240527a4:	009e      	lsls	r6, r3, #2
240527a6:	d505      	bpl.n	240527b4 <HAL_ADC_Init+0x30>
240527a8:	6883      	ldr	r3, [r0, #8]
240527aa:	f023 4320 	bic.w	r3, r3, #2684354560	; 0xa0000000
240527ae:	f023 033f 	bic.w	r3, r3, #63	; 0x3f
240527b2:	6083      	str	r3, [r0, #8]
240527b4:	6883      	ldr	r3, [r0, #8]
240527b6:	00dd      	lsls	r5, r3, #3
240527b8:	f140 808e 	bpl.w	240528d8 <HAL_ADC_Init+0x154>
240527bc:	6883      	ldr	r3, [r0, #8]
240527be:	00d9      	lsls	r1, r3, #3
240527c0:	f100 80a0 	bmi.w	24052904 <HAL_ADC_Init+0x180>
240527c4:	6d63      	ldr	r3, [r4, #84]	; 0x54
240527c6:	2501      	movs	r5, #1
240527c8:	f043 0310 	orr.w	r3, r3, #16
240527cc:	6563      	str	r3, [r4, #84]	; 0x54
240527ce:	6da3      	ldr	r3, [r4, #88]	; 0x58
240527d0:	f043 0301 	orr.w	r3, r3, #1
240527d4:	65a3      	str	r3, [r4, #88]	; 0x58
240527d6:	f7ff fb5c 	bl	24051e92 <LL_ADC_REG_IsConversionOngoing>
240527da:	6d63      	ldr	r3, [r4, #84]	; 0x54
240527dc:	f003 0310 	and.w	r3, r3, #16
240527e0:	4303      	orrs	r3, r0
240527e2:	6d63      	ldr	r3, [r4, #84]	; 0x54
240527e4:	f040 8098 	bne.w	24052918 <HAL_ADC_Init+0x194>
240527e8:	f423 7381 	bic.w	r3, r3, #258	; 0x102
240527ec:	6820      	ldr	r0, [r4, #0]
240527ee:	f043 0302 	orr.w	r3, r3, #2
240527f2:	6563      	str	r3, [r4, #84]	; 0x54
240527f4:	6883      	ldr	r3, [r0, #8]
240527f6:	07da      	lsls	r2, r3, #31
240527f8:	d40e      	bmi.n	24052818 <HAL_ADC_Init+0x94>
240527fa:	4b4a      	ldr	r3, [pc, #296]	; (24052924 <HAL_ADC_Init+0x1a0>)
240527fc:	689a      	ldr	r2, [r3, #8]
240527fe:	f503 7380 	add.w	r3, r3, #256	; 0x100
24052802:	689b      	ldr	r3, [r3, #8]
24052804:	4313      	orrs	r3, r2
24052806:	07db      	lsls	r3, r3, #31
24052808:	d406      	bmi.n	24052818 <HAL_ADC_Init+0x94>
2405280a:	4a47      	ldr	r2, [pc, #284]	; (24052928 <HAL_ADC_Init+0x1a4>)
2405280c:	6861      	ldr	r1, [r4, #4]
2405280e:	6893      	ldr	r3, [r2, #8]
24052810:	f423 137c 	bic.w	r3, r3, #4128768	; 0x3f0000
24052814:	430b      	orrs	r3, r1
24052816:	6093      	str	r3, [r2, #8]
24052818:	68a1      	ldr	r1, [r4, #8]
2405281a:	6b23      	ldr	r3, [r4, #48]	; 0x30
2405281c:	7f22      	ldrb	r2, [r4, #28]
2405281e:	430b      	orrs	r3, r1
24052820:	7d61      	ldrb	r1, [r4, #21]
24052822:	2a01      	cmp	r2, #1
24052824:	ea43 3341 	orr.w	r3, r3, r1, lsl #13
24052828:	ea43 4302 	orr.w	r3, r3, r2, lsl #16
2405282c:	bf02      	ittt	eq
2405282e:	6a22      	ldreq	r2, [r4, #32]
24052830:	f102 32ff 	addeq.w	r2, r2, #4294967295
24052834:	ea43 4342 	orreq.w	r3, r3, r2, lsl #17
24052838:	6a62      	ldr	r2, [r4, #36]	; 0x24
2405283a:	b122      	cbz	r2, 24052846 <HAL_ADC_Init+0xc2>
2405283c:	f402 7278 	and.w	r2, r2, #992	; 0x3e0
24052840:	6aa1      	ldr	r1, [r4, #40]	; 0x28
24052842:	430a      	orrs	r2, r1
24052844:	4313      	orrs	r3, r2
24052846:	68c1      	ldr	r1, [r0, #12]
24052848:	4a38      	ldr	r2, [pc, #224]	; (2405292c <HAL_ADC_Init+0x1a8>)
2405284a:	400a      	ands	r2, r1
2405284c:	4313      	orrs	r3, r2
2405284e:	60c3      	str	r3, [r0, #12]
24052850:	f7ff fb1f 	bl	24051e92 <LL_ADC_REG_IsConversionOngoing>
24052854:	6822      	ldr	r2, [r4, #0]
24052856:	6893      	ldr	r3, [r2, #8]
24052858:	f003 0308 	and.w	r3, r3, #8
2405285c:	4303      	orrs	r3, r0
2405285e:	d127      	bne.n	240528b0 <HAL_ADC_Init+0x12c>
24052860:	68d3      	ldr	r3, [r2, #12]
24052862:	7d21      	ldrb	r1, [r4, #20]
24052864:	f423 4380 	bic.w	r3, r3, #16384	; 0x4000
24052868:	f023 0303 	bic.w	r3, r3, #3
2405286c:	ea43 3381 	orr.w	r3, r3, r1, lsl #14
24052870:	6ae1      	ldr	r1, [r4, #44]	; 0x2c
24052872:	430b      	orrs	r3, r1
24052874:	60d3      	str	r3, [r2, #12]
24052876:	f894 3038 	ldrb.w	r3, [r4, #56]	; 0x38
2405287a:	2b01      	cmp	r3, #1
2405287c:	d144      	bne.n	24052908 <HAL_ADC_Init+0x184>
2405287e:	6be3      	ldr	r3, [r4, #60]	; 0x3c
24052880:	6910      	ldr	r0, [r2, #16]
24052882:	1e59      	subs	r1, r3, #1
24052884:	e9d4 3610 	ldrd	r3, r6, [r4, #64]	; 0x40
24052888:	4333      	orrs	r3, r6
2405288a:	ea43 4301 	orr.w	r3, r3, r1, lsl #16
2405288e:	6ca1      	ldr	r1, [r4, #72]	; 0x48
24052890:	430b      	orrs	r3, r1
24052892:	4927      	ldr	r1, [pc, #156]	; (24052930 <HAL_ADC_Init+0x1ac>)
24052894:	4001      	ands	r1, r0
24052896:	430b      	orrs	r3, r1
24052898:	f043 0301 	orr.w	r3, r3, #1
2405289c:	6113      	str	r3, [r2, #16]
2405289e:	4620      	mov	r0, r4
240528a0:	6913      	ldr	r3, [r2, #16]
240528a2:	6b61      	ldr	r1, [r4, #52]	; 0x34
240528a4:	f023 4370 	bic.w	r3, r3, #4026531840	; 0xf0000000
240528a8:	430b      	orrs	r3, r1
240528aa:	6113      	str	r3, [r2, #16]
240528ac:	f7ff fef4 	bl	24052698 <ADC_ConfigureBoostMode>
240528b0:	68e3      	ldr	r3, [r4, #12]
240528b2:	6822      	ldr	r2, [r4, #0]
240528b4:	2b01      	cmp	r3, #1
240528b6:	d12b      	bne.n	24052910 <HAL_ADC_Init+0x18c>
240528b8:	6b11      	ldr	r1, [r2, #48]	; 0x30
240528ba:	69a3      	ldr	r3, [r4, #24]
240528bc:	f021 010f 	bic.w	r1, r1, #15
240528c0:	3b01      	subs	r3, #1
240528c2:	430b      	orrs	r3, r1
240528c4:	6313      	str	r3, [r2, #48]	; 0x30
240528c6:	6d63      	ldr	r3, [r4, #84]	; 0x54
240528c8:	f023 0303 	bic.w	r3, r3, #3
240528cc:	f043 0301 	orr.w	r3, r3, #1
240528d0:	6563      	str	r3, [r4, #84]	; 0x54
240528d2:	4628      	mov	r0, r5
240528d4:	b002      	add	sp, #8
240528d6:	bd70      	pop	{r4, r5, r6, pc}
240528d8:	6883      	ldr	r3, [r0, #8]
240528da:	4a16      	ldr	r2, [pc, #88]	; (24052934 <HAL_ADC_Init+0x1b0>)
240528dc:	f023 4310 	bic.w	r3, r3, #2415919104	; 0x90000000
240528e0:	f023 033f 	bic.w	r3, r3, #63	; 0x3f
240528e4:	f043 5380 	orr.w	r3, r3, #268435456	; 0x10000000
240528e8:	6083      	str	r3, [r0, #8]
240528ea:	4b13      	ldr	r3, [pc, #76]	; (24052938 <HAL_ADC_Init+0x1b4>)
240528ec:	681b      	ldr	r3, [r3, #0]
240528ee:	fbb3 f3f2 	udiv	r3, r3, r2
240528f2:	3301      	adds	r3, #1
240528f4:	9301      	str	r3, [sp, #4]
240528f6:	9b01      	ldr	r3, [sp, #4]
240528f8:	2b00      	cmp	r3, #0
240528fa:	f43f af5f 	beq.w	240527bc <HAL_ADC_Init+0x38>
240528fe:	9b01      	ldr	r3, [sp, #4]
24052900:	3b01      	subs	r3, #1
24052902:	e7f7      	b.n	240528f4 <HAL_ADC_Init+0x170>
24052904:	2500      	movs	r5, #0
24052906:	e766      	b.n	240527d6 <HAL_ADC_Init+0x52>
24052908:	6913      	ldr	r3, [r2, #16]
2405290a:	f023 0301 	bic.w	r3, r3, #1
2405290e:	e7c5      	b.n	2405289c <HAL_ADC_Init+0x118>
24052910:	6b13      	ldr	r3, [r2, #48]	; 0x30
24052912:	f023 030f 	bic.w	r3, r3, #15
24052916:	e7d5      	b.n	240528c4 <HAL_ADC_Init+0x140>
24052918:	f043 0310 	orr.w	r3, r3, #16
2405291c:	6563      	str	r3, [r4, #84]	; 0x54
2405291e:	2501      	movs	r5, #1
24052920:	e7d7      	b.n	240528d2 <HAL_ADC_Init+0x14e>
24052922:	bf00      	nop
24052924:	40022000 	.word	0x40022000
24052928:	40022300 	.word	0x40022300
2405292c:	fff0c003 	.word	0xfff0c003
24052930:	fc00f81e 	.word	0xfc00f81e
24052934:	00030d40 	.word	0x00030d40
24052938:	20000030 	.word	0x20000030

2405293c <LL_ADC_REG_IsConversionOngoing>:
2405293c:	6880      	ldr	r0, [r0, #8]
2405293e:	f3c0 0080 	ubfx	r0, r0, #2, #1
24052942:	4770      	bx	lr

24052944 <HAL_ADCEx_InjectedConvCpltCallback>:
24052944:	4770      	bx	lr

24052946 <HAL_ADCEx_InjectedQueueOverflowCallback>:
24052946:	4770      	bx	lr

24052948 <HAL_ADCEx_LevelOutOfWindow2Callback>:
24052948:	4770      	bx	lr

2405294a <HAL_ADCEx_LevelOutOfWindow3Callback>:
2405294a:	4770      	bx	lr

2405294c <HAL_ADCEx_EndOfSamplingCallback>:
2405294c:	4770      	bx	lr
	...

24052950 <HAL_ADCEx_MultiModeConfigChannel>:
24052950:	b5f0      	push	{r4, r5, r6, r7, lr}
24052952:	f890 3050 	ldrb.w	r3, [r0, #80]	; 0x50
24052956:	b09b      	sub	sp, #108	; 0x6c
24052958:	4602      	mov	r2, r0
2405295a:	2b01      	cmp	r3, #1
2405295c:	d04e      	beq.n	240529fc <HAL_ADCEx_MultiModeConfigChannel+0xac>
2405295e:	2301      	movs	r3, #1
24052960:	4c27      	ldr	r4, [pc, #156]	; (24052a00 <HAL_ADCEx_MultiModeConfigChannel+0xb0>)
24052962:	f880 3050 	strb.w	r3, [r0, #80]	; 0x50
24052966:	2000      	movs	r0, #0
24052968:	6817      	ldr	r7, [r2, #0]
2405296a:	9016      	str	r0, [sp, #88]	; 0x58
2405296c:	42a7      	cmp	r7, r4
2405296e:	9017      	str	r0, [sp, #92]	; 0x5c
24052970:	d008      	beq.n	24052984 <HAL_ADCEx_MultiModeConfigChannel+0x34>
24052972:	6d51      	ldr	r1, [r2, #84]	; 0x54
24052974:	f882 0050 	strb.w	r0, [r2, #80]	; 0x50
24052978:	4618      	mov	r0, r3
2405297a:	f041 0120 	orr.w	r1, r1, #32
2405297e:	6551      	str	r1, [r2, #84]	; 0x54
24052980:	b01b      	add	sp, #108	; 0x6c
24052982:	bdf0      	pop	{r4, r5, r6, r7, pc}
24052984:	4e1f      	ldr	r6, [pc, #124]	; (24052a04 <HAL_ADCEx_MultiModeConfigChannel+0xb4>)
24052986:	4630      	mov	r0, r6
24052988:	f7ff ffd8 	bl	2405293c <LL_ADC_REG_IsConversionOngoing>
2405298c:	4604      	mov	r4, r0
2405298e:	6810      	ldr	r0, [r2, #0]
24052990:	f7ff ffd4 	bl	2405293c <LL_ADC_REG_IsConversionOngoing>
24052994:	4320      	orrs	r0, r4
24052996:	d12c      	bne.n	240529f2 <HAL_ADCEx_MultiModeConfigChannel+0xa2>
24052998:	4c1b      	ldr	r4, [pc, #108]	; (24052a08 <HAL_ADCEx_MultiModeConfigChannel+0xb8>)
2405299a:	680d      	ldr	r5, [r1, #0]
2405299c:	68a3      	ldr	r3, [r4, #8]
2405299e:	f423 4340 	bic.w	r3, r3, #49152	; 0xc000
240529a2:	b1c5      	cbz	r5, 240529d6 <HAL_ADCEx_MultiModeConfigChannel+0x86>
240529a4:	6848      	ldr	r0, [r1, #4]
240529a6:	4303      	orrs	r3, r0
240529a8:	60a3      	str	r3, [r4, #8]
240529aa:	68b8      	ldr	r0, [r7, #8]
240529ac:	68b3      	ldr	r3, [r6, #8]
240529ae:	4303      	orrs	r3, r0
240529b0:	f013 0301 	ands.w	r3, r3, #1
240529b4:	d004      	beq.n	240529c0 <HAL_ADCEx_MultiModeConfigChannel+0x70>
240529b6:	2000      	movs	r0, #0
240529b8:	2300      	movs	r3, #0
240529ba:	f882 3050 	strb.w	r3, [r2, #80]	; 0x50
240529be:	e7df      	b.n	24052980 <HAL_ADCEx_MultiModeConfigChannel+0x30>
240529c0:	6889      	ldr	r1, [r1, #8]
240529c2:	68a0      	ldr	r0, [r4, #8]
240529c4:	430d      	orrs	r5, r1
240529c6:	f420 6171 	bic.w	r1, r0, #3856	; 0xf10
240529ca:	f021 010f 	bic.w	r1, r1, #15
240529ce:	430d      	orrs	r5, r1
240529d0:	60a5      	str	r5, [r4, #8]
240529d2:	4618      	mov	r0, r3
240529d4:	e7f0      	b.n	240529b8 <HAL_ADCEx_MultiModeConfigChannel+0x68>
240529d6:	60a3      	str	r3, [r4, #8]
240529d8:	68b8      	ldr	r0, [r7, #8]
240529da:	68b3      	ldr	r3, [r6, #8]
240529dc:	4303      	orrs	r3, r0
240529de:	f013 0301 	ands.w	r3, r3, #1
240529e2:	d1e8      	bne.n	240529b6 <HAL_ADCEx_MultiModeConfigChannel+0x66>
240529e4:	68a1      	ldr	r1, [r4, #8]
240529e6:	f421 6171 	bic.w	r1, r1, #3856	; 0xf10
240529ea:	f021 010f 	bic.w	r1, r1, #15
240529ee:	60a1      	str	r1, [r4, #8]
240529f0:	e7ef      	b.n	240529d2 <HAL_ADCEx_MultiModeConfigChannel+0x82>
240529f2:	6d51      	ldr	r1, [r2, #84]	; 0x54
240529f4:	f041 0120 	orr.w	r1, r1, #32
240529f8:	6551      	str	r1, [r2, #84]	; 0x54
240529fa:	e7ea      	b.n	240529d2 <HAL_ADCEx_MultiModeConfigChannel+0x82>
240529fc:	2002      	movs	r0, #2
240529fe:	e7bf      	b.n	24052980 <HAL_ADCEx_MultiModeConfigChannel+0x30>
24052a00:	40022000 	.word	0x40022000
24052a04:	40022100 	.word	0x40022100
24052a08:	40022300 	.word	0x40022300

24052a0c <HAL_NVIC_SetPriorityGrouping>:
24052a0c:	4907      	ldr	r1, [pc, #28]	; (24052a2c <HAL_NVIC_SetPriorityGrouping+0x20>)
24052a0e:	0203      	lsls	r3, r0, #8
24052a10:	68ca      	ldr	r2, [r1, #12]
24052a12:	f403 63e0 	and.w	r3, r3, #1792	; 0x700
24052a16:	f422 62e0 	bic.w	r2, r2, #1792	; 0x700
24052a1a:	0412      	lsls	r2, r2, #16
24052a1c:	0c12      	lsrs	r2, r2, #16
24052a1e:	4313      	orrs	r3, r2
24052a20:	f043 63bf 	orr.w	r3, r3, #100139008	; 0x5f80000
24052a24:	f443 3300 	orr.w	r3, r3, #131072	; 0x20000
24052a28:	60cb      	str	r3, [r1, #12]
24052a2a:	4770      	bx	lr
24052a2c:	e000ed00 	.word	0xe000ed00

24052a30 <HAL_NVIC_SetPriority>:
24052a30:	4b16      	ldr	r3, [pc, #88]	; (24052a8c <HAL_NVIC_SetPriority+0x5c>)
24052a32:	b530      	push	{r4, r5, lr}
24052a34:	68dc      	ldr	r4, [r3, #12]
24052a36:	f3c4 2402 	ubfx	r4, r4, #8, #3
24052a3a:	f1c4 0507 	rsb	r5, r4, #7
24052a3e:	1d23      	adds	r3, r4, #4
24052a40:	2d04      	cmp	r5, #4
24052a42:	bf28      	it	cs
24052a44:	2504      	movcs	r5, #4
24052a46:	2b06      	cmp	r3, #6
24052a48:	f04f 33ff 	mov.w	r3, #4294967295
24052a4c:	bf8c      	ite	hi
24052a4e:	3c03      	subhi	r4, #3
24052a50:	2400      	movls	r4, #0
24052a52:	fa03 f505 	lsl.w	r5, r3, r5
24052a56:	2800      	cmp	r0, #0
24052a58:	fa03 f304 	lsl.w	r3, r3, r4
24052a5c:	ea21 0105 	bic.w	r1, r1, r5
24052a60:	ea22 0203 	bic.w	r2, r2, r3
24052a64:	fa01 f104 	lsl.w	r1, r1, r4
24052a68:	ea41 0302 	orr.w	r3, r1, r2
24052a6c:	ea4f 1303 	mov.w	r3, r3, lsl #4
24052a70:	b2db      	uxtb	r3, r3
24052a72:	db06      	blt.n	24052a82 <HAL_NVIC_SetPriority+0x52>
24052a74:	f100 4060 	add.w	r0, r0, #3758096384	; 0xe0000000
24052a78:	f500 4061 	add.w	r0, r0, #57600	; 0xe100
24052a7c:	f880 3300 	strb.w	r3, [r0, #768]	; 0x300
24052a80:	bd30      	pop	{r4, r5, pc}
24052a82:	f000 000f 	and.w	r0, r0, #15
24052a86:	4a02      	ldr	r2, [pc, #8]	; (24052a90 <HAL_NVIC_SetPriority+0x60>)
24052a88:	5413      	strb	r3, [r2, r0]
24052a8a:	e7f9      	b.n	24052a80 <HAL_NVIC_SetPriority+0x50>
24052a8c:	e000ed00 	.word	0xe000ed00
24052a90:	e000ed14 	.word	0xe000ed14

24052a94 <HAL_NVIC_EnableIRQ>:
24052a94:	2800      	cmp	r0, #0
24052a96:	db08      	blt.n	24052aaa <HAL_NVIC_EnableIRQ+0x16>
24052a98:	2301      	movs	r3, #1
24052a9a:	0942      	lsrs	r2, r0, #5
24052a9c:	f000 001f 	and.w	r0, r0, #31
24052aa0:	fa03 f000 	lsl.w	r0, r3, r0
24052aa4:	4b01      	ldr	r3, [pc, #4]	; (24052aac <HAL_NVIC_EnableIRQ+0x18>)
24052aa6:	f843 0022 	str.w	r0, [r3, r2, lsl #2]
24052aaa:	4770      	bx	lr
24052aac:	e000e100 	.word	0xe000e100

24052ab0 <HAL_NVIC_SystemReset>:
24052ab0:	f3bf 8f4f 	dsb	sy
24052ab4:	4905      	ldr	r1, [pc, #20]	; (24052acc <HAL_NVIC_SystemReset+0x1c>)
24052ab6:	4b06      	ldr	r3, [pc, #24]	; (24052ad0 <HAL_NVIC_SystemReset+0x20>)
24052ab8:	68ca      	ldr	r2, [r1, #12]
24052aba:	f402 62e0 	and.w	r2, r2, #1792	; 0x700
24052abe:	4313      	orrs	r3, r2
24052ac0:	60cb      	str	r3, [r1, #12]
24052ac2:	f3bf 8f4f 	dsb	sy
24052ac6:	bf00      	nop
24052ac8:	e7fd      	b.n	24052ac6 <HAL_NVIC_SystemReset+0x16>
24052aca:	bf00      	nop
24052acc:	e000ed00 	.word	0xe000ed00
24052ad0:	05fa0004 	.word	0x05fa0004

24052ad4 <HAL_SYSTICK_Config>:
24052ad4:	3801      	subs	r0, #1
24052ad6:	f1b0 7f80 	cmp.w	r0, #16777216	; 0x1000000
24052ada:	d20a      	bcs.n	24052af2 <HAL_SYSTICK_Config+0x1e>
24052adc:	4b06      	ldr	r3, [pc, #24]	; (24052af8 <HAL_SYSTICK_Config+0x24>)
24052ade:	21f0      	movs	r1, #240	; 0xf0
24052ae0:	4a06      	ldr	r2, [pc, #24]	; (24052afc <HAL_SYSTICK_Config+0x28>)
24052ae2:	6058      	str	r0, [r3, #4]
24052ae4:	2000      	movs	r0, #0
24052ae6:	f882 1023 	strb.w	r1, [r2, #35]	; 0x23
24052aea:	2207      	movs	r2, #7
24052aec:	6098      	str	r0, [r3, #8]
24052aee:	601a      	str	r2, [r3, #0]
24052af0:	4770      	bx	lr
24052af2:	2001      	movs	r0, #1
24052af4:	4770      	bx	lr
24052af6:	bf00      	nop
24052af8:	e000e010 	.word	0xe000e010
24052afc:	e000ed00 	.word	0xe000ed00

24052b00 <HAL_DAC_Init>:
24052b00:	b510      	push	{r4, lr}
24052b02:	4604      	mov	r4, r0
24052b04:	b168      	cbz	r0, 24052b22 <HAL_DAC_Init+0x22>
24052b06:	7903      	ldrb	r3, [r0, #4]
24052b08:	f003 02ff 	and.w	r2, r3, #255	; 0xff
24052b0c:	b913      	cbnz	r3, 24052b14 <HAL_DAC_Init+0x14>
24052b0e:	7142      	strb	r2, [r0, #5]
24052b10:	f7fe fd32 	bl	24051578 <HAL_DAC_MspInit>
24052b14:	2302      	movs	r3, #2
24052b16:	2000      	movs	r0, #0
24052b18:	7123      	strb	r3, [r4, #4]
24052b1a:	2301      	movs	r3, #1
24052b1c:	6120      	str	r0, [r4, #16]
24052b1e:	7123      	strb	r3, [r4, #4]
24052b20:	bd10      	pop	{r4, pc}
24052b22:	2001      	movs	r0, #1
24052b24:	e7fc      	b.n	24052b20 <HAL_DAC_Init+0x20>

24052b26 <HAL_DAC_Start>:
24052b26:	b570      	push	{r4, r5, r6, lr}
24052b28:	7943      	ldrb	r3, [r0, #5]
24052b2a:	2b01      	cmp	r3, #1
24052b2c:	f04f 0302 	mov.w	r3, #2
24052b30:	d016      	beq.n	24052b60 <HAL_DAC_Start+0x3a>
24052b32:	6802      	ldr	r2, [r0, #0]
24052b34:	f001 0510 	and.w	r5, r1, #16
24052b38:	2401      	movs	r4, #1
24052b3a:	7103      	strb	r3, [r0, #4]
24052b3c:	6816      	ldr	r6, [r2, #0]
24052b3e:	40ac      	lsls	r4, r5
24052b40:	4334      	orrs	r4, r6
24052b42:	6014      	str	r4, [r2, #0]
24052b44:	b971      	cbnz	r1, 24052b64 <HAL_DAC_Start+0x3e>
24052b46:	6813      	ldr	r3, [r2, #0]
24052b48:	f003 033e 	and.w	r3, r3, #62	; 0x3e
24052b4c:	2b02      	cmp	r3, #2
24052b4e:	d103      	bne.n	24052b58 <HAL_DAC_Start+0x32>
24052b50:	6853      	ldr	r3, [r2, #4]
24052b52:	f043 0301 	orr.w	r3, r3, #1
24052b56:	6053      	str	r3, [r2, #4]
24052b58:	2301      	movs	r3, #1
24052b5a:	7103      	strb	r3, [r0, #4]
24052b5c:	2300      	movs	r3, #0
24052b5e:	7143      	strb	r3, [r0, #5]
24052b60:	4618      	mov	r0, r3
24052b62:	bd70      	pop	{r4, r5, r6, pc}
24052b64:	6811      	ldr	r1, [r2, #0]
24052b66:	40ab      	lsls	r3, r5
24052b68:	f401 1178 	and.w	r1, r1, #4063232	; 0x3e0000
24052b6c:	4299      	cmp	r1, r3
24052b6e:	d1f3      	bne.n	24052b58 <HAL_DAC_Start+0x32>
24052b70:	6853      	ldr	r3, [r2, #4]
24052b72:	f043 0302 	orr.w	r3, r3, #2
24052b76:	e7ee      	b.n	24052b56 <HAL_DAC_Start+0x30>

24052b78 <HAL_DAC_SetValue>:
24052b78:	b513      	push	{r0, r1, r4, lr}
24052b7a:	2400      	movs	r4, #0
24052b7c:	6800      	ldr	r0, [r0, #0]
24052b7e:	9401      	str	r4, [sp, #4]
24052b80:	9001      	str	r0, [sp, #4]
24052b82:	b941      	cbnz	r1, 24052b96 <HAL_DAC_SetValue+0x1e>
24052b84:	9901      	ldr	r1, [sp, #4]
24052b86:	3108      	adds	r1, #8
24052b88:	440a      	add	r2, r1
24052b8a:	2000      	movs	r0, #0
24052b8c:	9201      	str	r2, [sp, #4]
24052b8e:	9a01      	ldr	r2, [sp, #4]
24052b90:	6013      	str	r3, [r2, #0]
24052b92:	b002      	add	sp, #8
24052b94:	bd10      	pop	{r4, pc}
24052b96:	9901      	ldr	r1, [sp, #4]
24052b98:	3114      	adds	r1, #20
24052b9a:	e7f5      	b.n	24052b88 <HAL_DAC_SetValue+0x10>

24052b9c <HAL_DAC_ConfigChannel>:
24052b9c:	e92d 41f0 	stmdb	sp!, {r4, r5, r6, r7, r8, lr}
24052ba0:	4616      	mov	r6, r2
24052ba2:	7942      	ldrb	r2, [r0, #5]
24052ba4:	4604      	mov	r4, r0
24052ba6:	460d      	mov	r5, r1
24052ba8:	2a01      	cmp	r2, #1
24052baa:	680b      	ldr	r3, [r1, #0]
24052bac:	f04f 0002 	mov.w	r0, #2
24052bb0:	d078      	beq.n	24052ca4 <HAL_DAC_ConfigChannel+0x108>
24052bb2:	2201      	movs	r2, #1
24052bb4:	2b04      	cmp	r3, #4
24052bb6:	7120      	strb	r0, [r4, #4]
24052bb8:	7162      	strb	r2, [r4, #5]
24052bba:	d128      	bne.n	24052c0e <HAL_DAC_ConfigChannel+0x72>
24052bbc:	f7ff f940 	bl	24051e40 <HAL_GetTick>
24052bc0:	4607      	mov	r7, r0
24052bc2:	2e00      	cmp	r6, #0
24052bc4:	d175      	bne.n	24052cb2 <HAL_DAC_ConfigChannel+0x116>
24052bc6:	f8df 8108 	ldr.w	r8, [pc, #264]	; 24052cd0 <HAL_DAC_ConfigChannel+0x134>
24052bca:	6823      	ldr	r3, [r4, #0]
24052bcc:	6b5b      	ldr	r3, [r3, #52]	; 0x34
24052bce:	ea13 0f08 	tst.w	r3, r8
24052bd2:	d15c      	bne.n	24052c8e <HAL_DAC_ConfigChannel+0xf2>
24052bd4:	2001      	movs	r0, #1
24052bd6:	f7ff f939 	bl	24051e4c <HAL_Delay>
24052bda:	6823      	ldr	r3, [r4, #0]
24052bdc:	69aa      	ldr	r2, [r5, #24]
24052bde:	641a      	str	r2, [r3, #64]	; 0x40
24052be0:	6821      	ldr	r1, [r4, #0]
24052be2:	f006 0010 	and.w	r0, r6, #16
24052be6:	f240 33ff 	movw	r3, #1023	; 0x3ff
24052bea:	6c8a      	ldr	r2, [r1, #72]	; 0x48
24052bec:	4083      	lsls	r3, r0
24052bee:	ea22 0203 	bic.w	r2, r2, r3
24052bf2:	69eb      	ldr	r3, [r5, #28]
24052bf4:	4083      	lsls	r3, r0
24052bf6:	431a      	orrs	r2, r3
24052bf8:	648a      	str	r2, [r1, #72]	; 0x48
24052bfa:	22ff      	movs	r2, #255	; 0xff
24052bfc:	6ccb      	ldr	r3, [r1, #76]	; 0x4c
24052bfe:	4082      	lsls	r2, r0
24052c00:	ea23 0302 	bic.w	r3, r3, r2
24052c04:	6a2a      	ldr	r2, [r5, #32]
24052c06:	fa02 f000 	lsl.w	r0, r2, r0
24052c0a:	4303      	orrs	r3, r0
24052c0c:	64cb      	str	r3, [r1, #76]	; 0x4c
24052c0e:	6929      	ldr	r1, [r5, #16]
24052c10:	f006 0210 	and.w	r2, r6, #16
24052c14:	6823      	ldr	r3, [r4, #0]
24052c16:	2901      	cmp	r1, #1
24052c18:	d108      	bne.n	24052c2c <HAL_DAC_ConfigChannel+0x90>
24052c1a:	201f      	movs	r0, #31
24052c1c:	6b99      	ldr	r1, [r3, #56]	; 0x38
24052c1e:	4090      	lsls	r0, r2
24052c20:	ea21 0000 	bic.w	r0, r1, r0
24052c24:	6969      	ldr	r1, [r5, #20]
24052c26:	4091      	lsls	r1, r2
24052c28:	4301      	orrs	r1, r0
24052c2a:	6399      	str	r1, [r3, #56]	; 0x38
24052c2c:	2607      	movs	r6, #7
24052c2e:	6bd9      	ldr	r1, [r3, #60]	; 0x3c
24052c30:	4096      	lsls	r6, r2
24052c32:	ea21 0606 	bic.w	r6, r1, r6
24052c36:	e9d5 1002 	ldrd	r1, r0, [r5, #8]
24052c3a:	2801      	cmp	r0, #1
24052c3c:	d044      	beq.n	24052cc8 <HAL_DAC_ConfigChannel+0x12c>
24052c3e:	2802      	cmp	r0, #2
24052c40:	d044      	beq.n	24052ccc <HAL_DAC_ConfigChannel+0x130>
24052c42:	fab1 f081 	clz	r0, r1
24052c46:	0940      	lsrs	r0, r0, #5
24052c48:	682f      	ldr	r7, [r5, #0]
24052c4a:	4339      	orrs	r1, r7
24052c4c:	4301      	orrs	r1, r0
24052c4e:	f44f 4080 	mov.w	r0, #16384	; 0x4000
24052c52:	4091      	lsls	r1, r2
24052c54:	4090      	lsls	r0, r2
24052c56:	4331      	orrs	r1, r6
24052c58:	63d9      	str	r1, [r3, #60]	; 0x3c
24052c5a:	6819      	ldr	r1, [r3, #0]
24052c5c:	ea21 0100 	bic.w	r1, r1, r0
24052c60:	f640 70fe 	movw	r0, #4094	; 0xffe
24052c64:	6019      	str	r1, [r3, #0]
24052c66:	4090      	lsls	r0, r2
24052c68:	6819      	ldr	r1, [r3, #0]
24052c6a:	ea21 0000 	bic.w	r0, r1, r0
24052c6e:	6869      	ldr	r1, [r5, #4]
24052c70:	4091      	lsls	r1, r2
24052c72:	4301      	orrs	r1, r0
24052c74:	20c0      	movs	r0, #192	; 0xc0
24052c76:	6019      	str	r1, [r3, #0]
24052c78:	fa00 f202 	lsl.w	r2, r0, r2
24052c7c:	6819      	ldr	r1, [r3, #0]
24052c7e:	2000      	movs	r0, #0
24052c80:	ea21 0202 	bic.w	r2, r1, r2
24052c84:	601a      	str	r2, [r3, #0]
24052c86:	2301      	movs	r3, #1
24052c88:	7160      	strb	r0, [r4, #5]
24052c8a:	7123      	strb	r3, [r4, #4]
24052c8c:	e00a      	b.n	24052ca4 <HAL_DAC_ConfigChannel+0x108>
24052c8e:	f7ff f8d7 	bl	24051e40 <HAL_GetTick>
24052c92:	1bc0      	subs	r0, r0, r7
24052c94:	2801      	cmp	r0, #1
24052c96:	d998      	bls.n	24052bca <HAL_DAC_ConfigChannel+0x2e>
24052c98:	6923      	ldr	r3, [r4, #16]
24052c9a:	2003      	movs	r0, #3
24052c9c:	f043 0308 	orr.w	r3, r3, #8
24052ca0:	6123      	str	r3, [r4, #16]
24052ca2:	7120      	strb	r0, [r4, #4]
24052ca4:	e8bd 81f0 	ldmia.w	sp!, {r4, r5, r6, r7, r8, pc}
24052ca8:	f7ff f8ca 	bl	24051e40 <HAL_GetTick>
24052cac:	1bc0      	subs	r0, r0, r7
24052cae:	2801      	cmp	r0, #1
24052cb0:	d8f2      	bhi.n	24052c98 <HAL_DAC_ConfigChannel+0xfc>
24052cb2:	6823      	ldr	r3, [r4, #0]
24052cb4:	6b5b      	ldr	r3, [r3, #52]	; 0x34
24052cb6:	2b00      	cmp	r3, #0
24052cb8:	dbf6      	blt.n	24052ca8 <HAL_DAC_ConfigChannel+0x10c>
24052cba:	2001      	movs	r0, #1
24052cbc:	f7ff f8c6 	bl	24051e4c <HAL_Delay>
24052cc0:	6823      	ldr	r3, [r4, #0]
24052cc2:	69aa      	ldr	r2, [r5, #24]
24052cc4:	645a      	str	r2, [r3, #68]	; 0x44
24052cc6:	e78b      	b.n	24052be0 <HAL_DAC_ConfigChannel+0x44>
24052cc8:	2000      	movs	r0, #0
24052cca:	e7bd      	b.n	24052c48 <HAL_DAC_ConfigChannel+0xac>
24052ccc:	2001      	movs	r0, #1
24052cce:	e7bb      	b.n	24052c48 <HAL_DAC_ConfigChannel+0xac>
24052cd0:	20008000 	.word	0x20008000

24052cd4 <DMA_SetConfig>:
24052cd4:	b5f0      	push	{r4, r5, r6, r7, lr}
24052cd6:	4d68      	ldr	r5, [pc, #416]	; (24052e78 <DMA_SetConfig+0x1a4>)
24052cd8:	6804      	ldr	r4, [r0, #0]
24052cda:	6d87      	ldr	r7, [r0, #88]	; 0x58
24052cdc:	46ac      	mov	ip, r5
24052cde:	42ac      	cmp	r4, r5
24052ce0:	d04f      	beq.n	24052d82 <DMA_SetConfig+0xae>
24052ce2:	4e66      	ldr	r6, [pc, #408]	; (24052e7c <DMA_SetConfig+0x1a8>)
24052ce4:	42b4      	cmp	r4, r6
24052ce6:	d04c      	beq.n	24052d82 <DMA_SetConfig+0xae>
24052ce8:	3618      	adds	r6, #24
24052cea:	42b4      	cmp	r4, r6
24052cec:	d049      	beq.n	24052d82 <DMA_SetConfig+0xae>
24052cee:	3618      	adds	r6, #24
24052cf0:	42b4      	cmp	r4, r6
24052cf2:	d046      	beq.n	24052d82 <DMA_SetConfig+0xae>
24052cf4:	3618      	adds	r6, #24
24052cf6:	42b4      	cmp	r4, r6
24052cf8:	d043      	beq.n	24052d82 <DMA_SetConfig+0xae>
24052cfa:	3618      	adds	r6, #24
24052cfc:	42b4      	cmp	r4, r6
24052cfe:	d040      	beq.n	24052d82 <DMA_SetConfig+0xae>
24052d00:	3618      	adds	r6, #24
24052d02:	42b4      	cmp	r4, r6
24052d04:	d03d      	beq.n	24052d82 <DMA_SetConfig+0xae>
24052d06:	3618      	adds	r6, #24
24052d08:	42b4      	cmp	r4, r6
24052d0a:	d03a      	beq.n	24052d82 <DMA_SetConfig+0xae>
24052d0c:	f506 7656 	add.w	r6, r6, #856	; 0x358
24052d10:	42b4      	cmp	r4, r6
24052d12:	d036      	beq.n	24052d82 <DMA_SetConfig+0xae>
24052d14:	3618      	adds	r6, #24
24052d16:	42b4      	cmp	r4, r6
24052d18:	d033      	beq.n	24052d82 <DMA_SetConfig+0xae>
24052d1a:	3618      	adds	r6, #24
24052d1c:	42b4      	cmp	r4, r6
24052d1e:	d030      	beq.n	24052d82 <DMA_SetConfig+0xae>
24052d20:	3618      	adds	r6, #24
24052d22:	42b4      	cmp	r4, r6
24052d24:	d02d      	beq.n	24052d82 <DMA_SetConfig+0xae>
24052d26:	3618      	adds	r6, #24
24052d28:	42b4      	cmp	r4, r6
24052d2a:	d02a      	beq.n	24052d82 <DMA_SetConfig+0xae>
24052d2c:	3618      	adds	r6, #24
24052d2e:	42b4      	cmp	r4, r6
24052d30:	d027      	beq.n	24052d82 <DMA_SetConfig+0xae>
24052d32:	3618      	adds	r6, #24
24052d34:	42b4      	cmp	r4, r6
24052d36:	d024      	beq.n	24052d82 <DMA_SetConfig+0xae>
24052d38:	3618      	adds	r6, #24
24052d3a:	42b4      	cmp	r4, r6
24052d3c:	d021      	beq.n	24052d82 <DMA_SetConfig+0xae>
24052d3e:	4e50      	ldr	r6, [pc, #320]	; (24052e80 <DMA_SetConfig+0x1ac>)
24052d40:	42b4      	cmp	r4, r6
24052d42:	d01e      	beq.n	24052d82 <DMA_SetConfig+0xae>
24052d44:	3614      	adds	r6, #20
24052d46:	42b4      	cmp	r4, r6
24052d48:	d01b      	beq.n	24052d82 <DMA_SetConfig+0xae>
24052d4a:	3614      	adds	r6, #20
24052d4c:	42b4      	cmp	r4, r6
24052d4e:	d018      	beq.n	24052d82 <DMA_SetConfig+0xae>
24052d50:	3614      	adds	r6, #20
24052d52:	42b4      	cmp	r4, r6
24052d54:	d015      	beq.n	24052d82 <DMA_SetConfig+0xae>
24052d56:	3614      	adds	r6, #20
24052d58:	42b4      	cmp	r4, r6
24052d5a:	d012      	beq.n	24052d82 <DMA_SetConfig+0xae>
24052d5c:	3614      	adds	r6, #20
24052d5e:	42b4      	cmp	r4, r6
24052d60:	d00f      	beq.n	24052d82 <DMA_SetConfig+0xae>
24052d62:	3614      	adds	r6, #20
24052d64:	42b4      	cmp	r4, r6
24052d66:	d00c      	beq.n	24052d82 <DMA_SetConfig+0xae>
24052d68:	3614      	adds	r6, #20
24052d6a:	42b4      	cmp	r4, r6
24052d6c:	d009      	beq.n	24052d82 <DMA_SetConfig+0xae>
24052d6e:	4d45      	ldr	r5, [pc, #276]	; (24052e84 <DMA_SetConfig+0x1b0>)
24052d70:	42ac      	cmp	r4, r5
24052d72:	d14f      	bne.n	24052e14 <DMA_SetConfig+0x140>
24052d74:	6dc5      	ldr	r5, [r0, #92]	; 0x5c
24052d76:	f005 061f 	and.w	r6, r5, #31
24052d7a:	2501      	movs	r5, #1
24052d7c:	40b5      	lsls	r5, r6
24052d7e:	607d      	str	r5, [r7, #4]
24052d80:	e041      	b.n	24052e06 <DMA_SetConfig+0x132>
24052d82:	e9d0 6519 	ldrd	r6, r5, [r0, #100]	; 0x64
24052d86:	6075      	str	r5, [r6, #4]
24052d88:	6ec6      	ldr	r6, [r0, #108]	; 0x6c
24052d8a:	b116      	cbz	r6, 24052d92 <DMA_SetConfig+0xbe>
24052d8c:	e9d0 651c 	ldrd	r6, r5, [r0, #112]	; 0x70
24052d90:	6075      	str	r5, [r6, #4]
24052d92:	4564      	cmp	r4, ip
24052d94:	d02d      	beq.n	24052df2 <DMA_SetConfig+0x11e>
24052d96:	4d39      	ldr	r5, [pc, #228]	; (24052e7c <DMA_SetConfig+0x1a8>)
24052d98:	42ac      	cmp	r4, r5
24052d9a:	d02a      	beq.n	24052df2 <DMA_SetConfig+0x11e>
24052d9c:	3518      	adds	r5, #24
24052d9e:	42ac      	cmp	r4, r5
24052da0:	d027      	beq.n	24052df2 <DMA_SetConfig+0x11e>
24052da2:	3518      	adds	r5, #24
24052da4:	42ac      	cmp	r4, r5
24052da6:	d024      	beq.n	24052df2 <DMA_SetConfig+0x11e>
24052da8:	3518      	adds	r5, #24
24052daa:	42ac      	cmp	r4, r5
24052dac:	d021      	beq.n	24052df2 <DMA_SetConfig+0x11e>
24052dae:	3518      	adds	r5, #24
24052db0:	42ac      	cmp	r4, r5
24052db2:	d01e      	beq.n	24052df2 <DMA_SetConfig+0x11e>
24052db4:	3518      	adds	r5, #24
24052db6:	42ac      	cmp	r4, r5
24052db8:	d01b      	beq.n	24052df2 <DMA_SetConfig+0x11e>
24052dba:	3518      	adds	r5, #24
24052dbc:	42ac      	cmp	r4, r5
24052dbe:	d018      	beq.n	24052df2 <DMA_SetConfig+0x11e>
24052dc0:	f505 7556 	add.w	r5, r5, #856	; 0x358
24052dc4:	42ac      	cmp	r4, r5
24052dc6:	d014      	beq.n	24052df2 <DMA_SetConfig+0x11e>
24052dc8:	3518      	adds	r5, #24
24052dca:	42ac      	cmp	r4, r5
24052dcc:	d011      	beq.n	24052df2 <DMA_SetConfig+0x11e>
24052dce:	3518      	adds	r5, #24
24052dd0:	42ac      	cmp	r4, r5
24052dd2:	d00e      	beq.n	24052df2 <DMA_SetConfig+0x11e>
24052dd4:	3518      	adds	r5, #24
24052dd6:	42ac      	cmp	r4, r5
24052dd8:	d00b      	beq.n	24052df2 <DMA_SetConfig+0x11e>
24052dda:	3518      	adds	r5, #24
24052ddc:	42ac      	cmp	r4, r5
24052dde:	d008      	beq.n	24052df2 <DMA_SetConfig+0x11e>
24052de0:	3518      	adds	r5, #24
24052de2:	42ac      	cmp	r4, r5
24052de4:	d005      	beq.n	24052df2 <DMA_SetConfig+0x11e>
24052de6:	3518      	adds	r5, #24
24052de8:	42ac      	cmp	r4, r5
24052dea:	d002      	beq.n	24052df2 <DMA_SetConfig+0x11e>
24052dec:	3518      	adds	r5, #24
24052dee:	42ac      	cmp	r4, r5
24052df0:	d1bd      	bne.n	24052d6e <DMA_SetConfig+0x9a>
24052df2:	6dc5      	ldr	r5, [r0, #92]	; 0x5c
24052df4:	f005 061f 	and.w	r6, r5, #31
24052df8:	253f      	movs	r5, #63	; 0x3f
24052dfa:	40b5      	lsls	r5, r6
24052dfc:	60bd      	str	r5, [r7, #8]
24052dfe:	6825      	ldr	r5, [r4, #0]
24052e00:	f425 2580 	bic.w	r5, r5, #262144	; 0x40000
24052e04:	6025      	str	r5, [r4, #0]
24052e06:	6063      	str	r3, [r4, #4]
24052e08:	6883      	ldr	r3, [r0, #8]
24052e0a:	2b40      	cmp	r3, #64	; 0x40
24052e0c:	d130      	bne.n	24052e70 <DMA_SetConfig+0x19c>
24052e0e:	60a2      	str	r2, [r4, #8]
24052e10:	60e1      	str	r1, [r4, #12]
24052e12:	e02c      	b.n	24052e6e <DMA_SetConfig+0x19a>
24052e14:	4d1c      	ldr	r5, [pc, #112]	; (24052e88 <DMA_SetConfig+0x1b4>)
24052e16:	42ac      	cmp	r4, r5
24052e18:	d0ac      	beq.n	24052d74 <DMA_SetConfig+0xa0>
24052e1a:	3514      	adds	r5, #20
24052e1c:	42ac      	cmp	r4, r5
24052e1e:	d0a9      	beq.n	24052d74 <DMA_SetConfig+0xa0>
24052e20:	3514      	adds	r5, #20
24052e22:	42ac      	cmp	r4, r5
24052e24:	d0a6      	beq.n	24052d74 <DMA_SetConfig+0xa0>
24052e26:	3514      	adds	r5, #20
24052e28:	42ac      	cmp	r4, r5
24052e2a:	d0a3      	beq.n	24052d74 <DMA_SetConfig+0xa0>
24052e2c:	3514      	adds	r5, #20
24052e2e:	42ac      	cmp	r4, r5
24052e30:	d0a0      	beq.n	24052d74 <DMA_SetConfig+0xa0>
24052e32:	3514      	adds	r5, #20
24052e34:	42ac      	cmp	r4, r5
24052e36:	d09d      	beq.n	24052d74 <DMA_SetConfig+0xa0>
24052e38:	3514      	adds	r5, #20
24052e3a:	42ac      	cmp	r4, r5
24052e3c:	d09a      	beq.n	24052d74 <DMA_SetConfig+0xa0>
24052e3e:	4d10      	ldr	r5, [pc, #64]	; (24052e80 <DMA_SetConfig+0x1ac>)
24052e40:	42ac      	cmp	r4, r5
24052e42:	d097      	beq.n	24052d74 <DMA_SetConfig+0xa0>
24052e44:	3514      	adds	r5, #20
24052e46:	42ac      	cmp	r4, r5
24052e48:	d094      	beq.n	24052d74 <DMA_SetConfig+0xa0>
24052e4a:	3514      	adds	r5, #20
24052e4c:	42ac      	cmp	r4, r5
24052e4e:	d091      	beq.n	24052d74 <DMA_SetConfig+0xa0>
24052e50:	3514      	adds	r5, #20
24052e52:	42ac      	cmp	r4, r5
24052e54:	d08e      	beq.n	24052d74 <DMA_SetConfig+0xa0>
24052e56:	3514      	adds	r5, #20
24052e58:	42ac      	cmp	r4, r5
24052e5a:	d08b      	beq.n	24052d74 <DMA_SetConfig+0xa0>
24052e5c:	3514      	adds	r5, #20
24052e5e:	42ac      	cmp	r4, r5
24052e60:	d088      	beq.n	24052d74 <DMA_SetConfig+0xa0>
24052e62:	3514      	adds	r5, #20
24052e64:	42ac      	cmp	r4, r5
24052e66:	d085      	beq.n	24052d74 <DMA_SetConfig+0xa0>
24052e68:	3514      	adds	r5, #20
24052e6a:	42ac      	cmp	r4, r5
24052e6c:	d082      	beq.n	24052d74 <DMA_SetConfig+0xa0>
24052e6e:	bdf0      	pop	{r4, r5, r6, r7, pc}
24052e70:	60a1      	str	r1, [r4, #8]
24052e72:	60e2      	str	r2, [r4, #12]
24052e74:	e7fb      	b.n	24052e6e <DMA_SetConfig+0x19a>
24052e76:	bf00      	nop
24052e78:	40020010 	.word	0x40020010
24052e7c:	40020028 	.word	0x40020028
24052e80:	58025408 	.word	0x58025408
24052e84:	48022c08 	.word	0x48022c08
24052e88:	48022c1c 	.word	0x48022c1c

24052e8c <DMA_CalcBaseAndBitshift>:
24052e8c:	6803      	ldr	r3, [r0, #0]
24052e8e:	4a24      	ldr	r2, [pc, #144]	; (24052f20 <DMA_CalcBaseAndBitshift+0x94>)
24052e90:	4293      	cmp	r3, r2
24052e92:	b510      	push	{r4, lr}
24052e94:	d032      	beq.n	24052efc <DMA_CalcBaseAndBitshift+0x70>
24052e96:	3218      	adds	r2, #24
24052e98:	4293      	cmp	r3, r2
24052e9a:	d02f      	beq.n	24052efc <DMA_CalcBaseAndBitshift+0x70>
24052e9c:	3218      	adds	r2, #24
24052e9e:	4293      	cmp	r3, r2
24052ea0:	d02c      	beq.n	24052efc <DMA_CalcBaseAndBitshift+0x70>
24052ea2:	3218      	adds	r2, #24
24052ea4:	4293      	cmp	r3, r2
24052ea6:	d029      	beq.n	24052efc <DMA_CalcBaseAndBitshift+0x70>
24052ea8:	3218      	adds	r2, #24
24052eaa:	4293      	cmp	r3, r2
24052eac:	d026      	beq.n	24052efc <DMA_CalcBaseAndBitshift+0x70>
24052eae:	3218      	adds	r2, #24
24052eb0:	4293      	cmp	r3, r2
24052eb2:	d023      	beq.n	24052efc <DMA_CalcBaseAndBitshift+0x70>
24052eb4:	3218      	adds	r2, #24
24052eb6:	4293      	cmp	r3, r2
24052eb8:	d020      	beq.n	24052efc <DMA_CalcBaseAndBitshift+0x70>
24052eba:	3218      	adds	r2, #24
24052ebc:	4293      	cmp	r3, r2
24052ebe:	d01d      	beq.n	24052efc <DMA_CalcBaseAndBitshift+0x70>
24052ec0:	f502 7256 	add.w	r2, r2, #856	; 0x358
24052ec4:	4293      	cmp	r3, r2
24052ec6:	d019      	beq.n	24052efc <DMA_CalcBaseAndBitshift+0x70>
24052ec8:	3218      	adds	r2, #24
24052eca:	4293      	cmp	r3, r2
24052ecc:	d016      	beq.n	24052efc <DMA_CalcBaseAndBitshift+0x70>
24052ece:	3218      	adds	r2, #24
24052ed0:	4293      	cmp	r3, r2
24052ed2:	d013      	beq.n	24052efc <DMA_CalcBaseAndBitshift+0x70>
24052ed4:	3218      	adds	r2, #24
24052ed6:	4293      	cmp	r3, r2
24052ed8:	d010      	beq.n	24052efc <DMA_CalcBaseAndBitshift+0x70>
24052eda:	3218      	adds	r2, #24
24052edc:	4293      	cmp	r3, r2
24052ede:	d00d      	beq.n	24052efc <DMA_CalcBaseAndBitshift+0x70>
24052ee0:	3218      	adds	r2, #24
24052ee2:	4293      	cmp	r3, r2
24052ee4:	d00a      	beq.n	24052efc <DMA_CalcBaseAndBitshift+0x70>
24052ee6:	3218      	adds	r2, #24
24052ee8:	4293      	cmp	r3, r2
24052eea:	d007      	beq.n	24052efc <DMA_CalcBaseAndBitshift+0x70>
24052eec:	3218      	adds	r2, #24
24052eee:	4293      	cmp	r3, r2
24052ef0:	d004      	beq.n	24052efc <DMA_CalcBaseAndBitshift+0x70>
24052ef2:	f023 03ff 	bic.w	r3, r3, #255	; 0xff
24052ef6:	6583      	str	r3, [r0, #88]	; 0x58
24052ef8:	6d80      	ldr	r0, [r0, #88]	; 0x58
24052efa:	bd10      	pop	{r4, pc}
24052efc:	b2d9      	uxtb	r1, r3
24052efe:	2218      	movs	r2, #24
24052f00:	4c08      	ldr	r4, [pc, #32]	; (24052f24 <DMA_CalcBaseAndBitshift+0x98>)
24052f02:	f423 737f 	bic.w	r3, r3, #1020	; 0x3fc
24052f06:	3910      	subs	r1, #16
24052f08:	f023 0303 	bic.w	r3, r3, #3
24052f0c:	295f      	cmp	r1, #95	; 0x5f
24052f0e:	fbb1 f2f2 	udiv	r2, r1, r2
24052f12:	f002 0207 	and.w	r2, r2, #7
24052f16:	bf88      	it	hi
24052f18:	3304      	addhi	r3, #4
24052f1a:	5ca2      	ldrb	r2, [r4, r2]
24052f1c:	65c2      	str	r2, [r0, #92]	; 0x5c
24052f1e:	e7ea      	b.n	24052ef6 <DMA_CalcBaseAndBitshift+0x6a>
24052f20:	40020010 	.word	0x40020010
24052f24:	2405a03b 	.word	0x2405a03b

24052f28 <DMA_CalcDMAMUXChannelBaseAndMask>:
24052f28:	6802      	ldr	r2, [r0, #0]
24052f2a:	491f      	ldr	r1, [pc, #124]	; (24052fa8 <DMA_CalcDMAMUXChannelBaseAndMask+0x80>)
24052f2c:	b2d3      	uxtb	r3, r2
24052f2e:	428a      	cmp	r2, r1
24052f30:	d024      	beq.n	24052f7c <DMA_CalcDMAMUXChannelBaseAndMask+0x54>
24052f32:	3114      	adds	r1, #20
24052f34:	428a      	cmp	r2, r1
24052f36:	d021      	beq.n	24052f7c <DMA_CalcDMAMUXChannelBaseAndMask+0x54>
24052f38:	3114      	adds	r1, #20
24052f3a:	428a      	cmp	r2, r1
24052f3c:	d01e      	beq.n	24052f7c <DMA_CalcDMAMUXChannelBaseAndMask+0x54>
24052f3e:	3114      	adds	r1, #20
24052f40:	428a      	cmp	r2, r1
24052f42:	d01b      	beq.n	24052f7c <DMA_CalcDMAMUXChannelBaseAndMask+0x54>
24052f44:	3114      	adds	r1, #20
24052f46:	428a      	cmp	r2, r1
24052f48:	d018      	beq.n	24052f7c <DMA_CalcDMAMUXChannelBaseAndMask+0x54>
24052f4a:	3114      	adds	r1, #20
24052f4c:	428a      	cmp	r2, r1
24052f4e:	d015      	beq.n	24052f7c <DMA_CalcDMAMUXChannelBaseAndMask+0x54>
24052f50:	3114      	adds	r1, #20
24052f52:	428a      	cmp	r2, r1
24052f54:	d012      	beq.n	24052f7c <DMA_CalcDMAMUXChannelBaseAndMask+0x54>
24052f56:	3114      	adds	r1, #20
24052f58:	428a      	cmp	r2, r1
24052f5a:	d00f      	beq.n	24052f7c <DMA_CalcDMAMUXChannelBaseAndMask+0x54>
24052f5c:	2118      	movs	r1, #24
24052f5e:	3b10      	subs	r3, #16
24052f60:	fbb3 f3f1 	udiv	r3, r3, r1
24052f64:	4911      	ldr	r1, [pc, #68]	; (24052fac <DMA_CalcDMAMUXChannelBaseAndMask+0x84>)
24052f66:	4411      	add	r1, r2
24052f68:	29a8      	cmp	r1, #168	; 0xa8
24052f6a:	d91a      	bls.n	24052fa2 <DMA_CalcDMAMUXChannelBaseAndMask+0x7a>
24052f6c:	f103 5280 	add.w	r2, r3, #268435456	; 0x10000000
24052f70:	f502 4202 	add.w	r2, r2, #33280	; 0x8200
24052f74:	0092      	lsls	r2, r2, #2
24052f76:	6602      	str	r2, [r0, #96]	; 0x60
24052f78:	4a0d      	ldr	r2, [pc, #52]	; (24052fb0 <DMA_CalcDMAMUXChannelBaseAndMask+0x88>)
24052f7a:	e00a      	b.n	24052f92 <DMA_CalcDMAMUXChannelBaseAndMask+0x6a>
24052f7c:	2214      	movs	r2, #20
24052f7e:	3b08      	subs	r3, #8
24052f80:	fbb3 f3f2 	udiv	r3, r3, r2
24052f84:	f103 52b0 	add.w	r2, r3, #369098752	; 0x16000000
24052f88:	f502 4216 	add.w	r2, r2, #38400	; 0x9600
24052f8c:	0092      	lsls	r2, r2, #2
24052f8e:	6602      	str	r2, [r0, #96]	; 0x60
24052f90:	4a08      	ldr	r2, [pc, #32]	; (24052fb4 <DMA_CalcDMAMUXChannelBaseAndMask+0x8c>)
24052f92:	f003 031f 	and.w	r3, r3, #31
24052f96:	6642      	str	r2, [r0, #100]	; 0x64
24052f98:	2201      	movs	r2, #1
24052f9a:	fa02 f303 	lsl.w	r3, r2, r3
24052f9e:	6683      	str	r3, [r0, #104]	; 0x68
24052fa0:	4770      	bx	lr
24052fa2:	3308      	adds	r3, #8
24052fa4:	e7e2      	b.n	24052f6c <DMA_CalcDMAMUXChannelBaseAndMask+0x44>
24052fa6:	bf00      	nop
24052fa8:	58025408 	.word	0x58025408
24052fac:	bffdfbf0 	.word	0xbffdfbf0
24052fb0:	40020880 	.word	0x40020880
24052fb4:	58025880 	.word	0x58025880

24052fb8 <DMA_CalcDMAMUXRequestGenBaseAndMask>:
24052fb8:	7902      	ldrb	r2, [r0, #4]
24052fba:	1e51      	subs	r1, r2, #1
24052fbc:	2907      	cmp	r1, #7
24052fbe:	b510      	push	{r4, lr}
24052fc0:	d821      	bhi.n	24053006 <DMA_CalcDMAMUXRequestGenBaseAndMask+0x4e>
24052fc2:	6803      	ldr	r3, [r0, #0]
24052fc4:	4c13      	ldr	r4, [pc, #76]	; (24053014 <DMA_CalcDMAMUXRequestGenBaseAndMask+0x5c>)
24052fc6:	42a3      	cmp	r3, r4
24052fc8:	d01e      	beq.n	24053008 <DMA_CalcDMAMUXRequestGenBaseAndMask+0x50>
24052fca:	3414      	adds	r4, #20
24052fcc:	42a3      	cmp	r3, r4
24052fce:	d01b      	beq.n	24053008 <DMA_CalcDMAMUXRequestGenBaseAndMask+0x50>
24052fd0:	3414      	adds	r4, #20
24052fd2:	42a3      	cmp	r3, r4
24052fd4:	d018      	beq.n	24053008 <DMA_CalcDMAMUXRequestGenBaseAndMask+0x50>
24052fd6:	3414      	adds	r4, #20
24052fd8:	42a3      	cmp	r3, r4
24052fda:	d015      	beq.n	24053008 <DMA_CalcDMAMUXRequestGenBaseAndMask+0x50>
24052fdc:	3414      	adds	r4, #20
24052fde:	42a3      	cmp	r3, r4
24052fe0:	d012      	beq.n	24053008 <DMA_CalcDMAMUXRequestGenBaseAndMask+0x50>
24052fe2:	3414      	adds	r4, #20
24052fe4:	42a3      	cmp	r3, r4
24052fe6:	d00f      	beq.n	24053008 <DMA_CalcDMAMUXRequestGenBaseAndMask+0x50>
24052fe8:	3414      	adds	r4, #20
24052fea:	42a3      	cmp	r3, r4
24052fec:	d00c      	beq.n	24053008 <DMA_CalcDMAMUXRequestGenBaseAndMask+0x50>
24052fee:	3414      	adds	r4, #20
24052ff0:	42a3      	cmp	r3, r4
24052ff2:	d009      	beq.n	24053008 <DMA_CalcDMAMUXRequestGenBaseAndMask+0x50>
24052ff4:	4b08      	ldr	r3, [pc, #32]	; (24053018 <DMA_CalcDMAMUXRequestGenBaseAndMask+0x60>)
24052ff6:	4413      	add	r3, r2
24052ff8:	009b      	lsls	r3, r3, #2
24052ffa:	66c3      	str	r3, [r0, #108]	; 0x6c
24052ffc:	4b07      	ldr	r3, [pc, #28]	; (2405301c <DMA_CalcDMAMUXRequestGenBaseAndMask+0x64>)
24052ffe:	6703      	str	r3, [r0, #112]	; 0x70
24053000:	2301      	movs	r3, #1
24053002:	408b      	lsls	r3, r1
24053004:	6743      	str	r3, [r0, #116]	; 0x74
24053006:	bd10      	pop	{r4, pc}
24053008:	4b05      	ldr	r3, [pc, #20]	; (24053020 <DMA_CalcDMAMUXRequestGenBaseAndMask+0x68>)
2405300a:	4413      	add	r3, r2
2405300c:	009b      	lsls	r3, r3, #2
2405300e:	66c3      	str	r3, [r0, #108]	; 0x6c
24053010:	4b04      	ldr	r3, [pc, #16]	; (24053024 <DMA_CalcDMAMUXRequestGenBaseAndMask+0x6c>)
24053012:	e7f4      	b.n	24052ffe <DMA_CalcDMAMUXRequestGenBaseAndMask+0x46>
24053014:	58025408 	.word	0x58025408
24053018:	1000823f 	.word	0x1000823f
2405301c:	40020940 	.word	0x40020940
24053020:	1600963f 	.word	0x1600963f
24053024:	58025940 	.word	0x58025940

24053028 <HAL_DMA_Init>:
24053028:	b5f8      	push	{r3, r4, r5, r6, r7, lr}
2405302a:	4604      	mov	r4, r0
2405302c:	f7fe ff08 	bl	24051e40 <HAL_GetTick>
24053030:	4606      	mov	r6, r0
24053032:	2c00      	cmp	r4, #0
24053034:	f000 80e4 	beq.w	24053200 <HAL_DMA_Init+0x1d8>
24053038:	6823      	ldr	r3, [r4, #0]
2405303a:	4d83      	ldr	r5, [pc, #524]	; (24053248 <HAL_DMA_Init+0x220>)
2405303c:	42ab      	cmp	r3, r5
2405303e:	d06a      	beq.n	24053116 <HAL_DMA_Init+0xee>
24053040:	4a82      	ldr	r2, [pc, #520]	; (2405324c <HAL_DMA_Init+0x224>)
24053042:	4293      	cmp	r3, r2
24053044:	d067      	beq.n	24053116 <HAL_DMA_Init+0xee>
24053046:	3218      	adds	r2, #24
24053048:	4293      	cmp	r3, r2
2405304a:	d064      	beq.n	24053116 <HAL_DMA_Init+0xee>
2405304c:	3218      	adds	r2, #24
2405304e:	4293      	cmp	r3, r2
24053050:	d061      	beq.n	24053116 <HAL_DMA_Init+0xee>
24053052:	3218      	adds	r2, #24
24053054:	4293      	cmp	r3, r2
24053056:	d05e      	beq.n	24053116 <HAL_DMA_Init+0xee>
24053058:	3218      	adds	r2, #24
2405305a:	4293      	cmp	r3, r2
2405305c:	d05b      	beq.n	24053116 <HAL_DMA_Init+0xee>
2405305e:	3218      	adds	r2, #24
24053060:	4293      	cmp	r3, r2
24053062:	d058      	beq.n	24053116 <HAL_DMA_Init+0xee>
24053064:	3218      	adds	r2, #24
24053066:	4293      	cmp	r3, r2
24053068:	d055      	beq.n	24053116 <HAL_DMA_Init+0xee>
2405306a:	f502 7256 	add.w	r2, r2, #856	; 0x358
2405306e:	4293      	cmp	r3, r2
24053070:	d051      	beq.n	24053116 <HAL_DMA_Init+0xee>
24053072:	3218      	adds	r2, #24
24053074:	4293      	cmp	r3, r2
24053076:	d04e      	beq.n	24053116 <HAL_DMA_Init+0xee>
24053078:	3218      	adds	r2, #24
2405307a:	4293      	cmp	r3, r2
2405307c:	d04b      	beq.n	24053116 <HAL_DMA_Init+0xee>
2405307e:	3218      	adds	r2, #24
24053080:	4293      	cmp	r3, r2
24053082:	d048      	beq.n	24053116 <HAL_DMA_Init+0xee>
24053084:	3218      	adds	r2, #24
24053086:	4293      	cmp	r3, r2
24053088:	d045      	beq.n	24053116 <HAL_DMA_Init+0xee>
2405308a:	3218      	adds	r2, #24
2405308c:	4293      	cmp	r3, r2
2405308e:	d042      	beq.n	24053116 <HAL_DMA_Init+0xee>
24053090:	3218      	adds	r2, #24
24053092:	4293      	cmp	r3, r2
24053094:	d03f      	beq.n	24053116 <HAL_DMA_Init+0xee>
24053096:	3218      	adds	r2, #24
24053098:	4293      	cmp	r3, r2
2405309a:	d03c      	beq.n	24053116 <HAL_DMA_Init+0xee>
2405309c:	4a6c      	ldr	r2, [pc, #432]	; (24053250 <HAL_DMA_Init+0x228>)
2405309e:	4293      	cmp	r3, r2
240530a0:	f040 8155 	bne.w	2405334e <HAL_DMA_Init+0x326>
240530a4:	2202      	movs	r2, #2
240530a6:	f884 2035 	strb.w	r2, [r4, #53]	; 0x35
240530aa:	2200      	movs	r2, #0
240530ac:	f884 2034 	strb.w	r2, [r4, #52]	; 0x34
240530b0:	68a2      	ldr	r2, [r4, #8]
240530b2:	6819      	ldr	r1, [r3, #0]
240530b4:	2a40      	cmp	r2, #64	; 0x40
240530b6:	f421 31ff 	bic.w	r1, r1, #130560	; 0x1fe00
240530ba:	f421 71f8 	bic.w	r1, r1, #496	; 0x1f0
240530be:	f000 8184 	beq.w	240533ca <HAL_DMA_Init+0x3a2>
240530c2:	2a80      	cmp	r2, #128	; 0x80
240530c4:	bf0c      	ite	eq
240530c6:	f44f 4080 	moveq.w	r0, #16384	; 0x4000
240530ca:	2000      	movne	r0, #0
240530cc:	e9d4 6203 	ldrd	r6, r2, [r4, #12]
240530d0:	08d2      	lsrs	r2, r2, #3
240530d2:	ea42 02d6 	orr.w	r2, r2, r6, lsr #3
240530d6:	6966      	ldr	r6, [r4, #20]
240530d8:	ea42 02d6 	orr.w	r2, r2, r6, lsr #3
240530dc:	69a6      	ldr	r6, [r4, #24]
240530de:	ea42 02d6 	orr.w	r2, r2, r6, lsr #3
240530e2:	69e6      	ldr	r6, [r4, #28]
240530e4:	ea42 02d6 	orr.w	r2, r2, r6, lsr #3
240530e8:	6a26      	ldr	r6, [r4, #32]
240530ea:	ea42 1216 	orr.w	r2, r2, r6, lsr #4
240530ee:	430a      	orrs	r2, r1
240530f0:	4302      	orrs	r2, r0
240530f2:	4620      	mov	r0, r4
240530f4:	601a      	str	r2, [r3, #0]
240530f6:	4a57      	ldr	r2, [pc, #348]	; (24053254 <HAL_DMA_Init+0x22c>)
240530f8:	441a      	add	r2, r3
240530fa:	2314      	movs	r3, #20
240530fc:	fbb2 f2f3 	udiv	r2, r2, r3
24053100:	0092      	lsls	r2, r2, #2
24053102:	65e2      	str	r2, [r4, #92]	; 0x5c
24053104:	f7ff fec2 	bl	24052e8c <DMA_CalcBaseAndBitshift>
24053108:	6de3      	ldr	r3, [r4, #92]	; 0x5c
2405310a:	f003 021f 	and.w	r2, r3, #31
2405310e:	2301      	movs	r3, #1
24053110:	4093      	lsls	r3, r2
24053112:	6043      	str	r3, [r0, #4]
24053114:	e0b2      	b.n	2405327c <HAL_DMA_Init+0x254>
24053116:	2202      	movs	r2, #2
24053118:	42ab      	cmp	r3, r5
2405311a:	f884 2035 	strb.w	r2, [r4, #53]	; 0x35
2405311e:	f04f 0200 	mov.w	r2, #0
24053122:	f884 2034 	strb.w	r2, [r4, #52]	; 0x34
24053126:	d01e      	beq.n	24053166 <HAL_DMA_Init+0x13e>
24053128:	4a48      	ldr	r2, [pc, #288]	; (2405324c <HAL_DMA_Init+0x224>)
2405312a:	4293      	cmp	r3, r2
2405312c:	d01b      	beq.n	24053166 <HAL_DMA_Init+0x13e>
2405312e:	3218      	adds	r2, #24
24053130:	4293      	cmp	r3, r2
24053132:	d018      	beq.n	24053166 <HAL_DMA_Init+0x13e>
24053134:	3218      	adds	r2, #24
24053136:	4293      	cmp	r3, r2
24053138:	d015      	beq.n	24053166 <HAL_DMA_Init+0x13e>
2405313a:	3218      	adds	r2, #24
2405313c:	4293      	cmp	r3, r2
2405313e:	d012      	beq.n	24053166 <HAL_DMA_Init+0x13e>
24053140:	3218      	adds	r2, #24
24053142:	4293      	cmp	r3, r2
24053144:	d00f      	beq.n	24053166 <HAL_DMA_Init+0x13e>
24053146:	3218      	adds	r2, #24
24053148:	4293      	cmp	r3, r2
2405314a:	d00c      	beq.n	24053166 <HAL_DMA_Init+0x13e>
2405314c:	3218      	adds	r2, #24
2405314e:	4293      	cmp	r3, r2
24053150:	d009      	beq.n	24053166 <HAL_DMA_Init+0x13e>
24053152:	f502 7256 	add.w	r2, r2, #856	; 0x358
24053156:	4293      	cmp	r3, r2
24053158:	d005      	beq.n	24053166 <HAL_DMA_Init+0x13e>
2405315a:	3218      	adds	r2, #24
2405315c:	4293      	cmp	r3, r2
2405315e:	d002      	beq.n	24053166 <HAL_DMA_Init+0x13e>
24053160:	3218      	adds	r2, #24
24053162:	4293      	cmp	r3, r2
24053164:	d0ff      	beq.n	24053166 <HAL_DMA_Init+0x13e>
24053166:	681a      	ldr	r2, [r3, #0]
24053168:	f022 0201 	bic.w	r2, r2, #1
2405316c:	601a      	str	r2, [r3, #0]
2405316e:	6821      	ldr	r1, [r4, #0]
24053170:	680b      	ldr	r3, [r1, #0]
24053172:	07db      	lsls	r3, r3, #31
24053174:	d43a      	bmi.n	240531ec <HAL_DMA_Init+0x1c4>
24053176:	680b      	ldr	r3, [r1, #0]
24053178:	4e37      	ldr	r6, [pc, #220]	; (24053258 <HAL_DMA_Init+0x230>)
2405317a:	69a0      	ldr	r0, [r4, #24]
2405317c:	401e      	ands	r6, r3
2405317e:	e9d4 2302 	ldrd	r2, r3, [r4, #8]
24053182:	4313      	orrs	r3, r2
24053184:	6922      	ldr	r2, [r4, #16]
24053186:	4313      	orrs	r3, r2
24053188:	6962      	ldr	r2, [r4, #20]
2405318a:	4313      	orrs	r3, r2
2405318c:	69e2      	ldr	r2, [r4, #28]
2405318e:	4303      	orrs	r3, r0
24053190:	4313      	orrs	r3, r2
24053192:	6a22      	ldr	r2, [r4, #32]
24053194:	4313      	orrs	r3, r2
24053196:	4333      	orrs	r3, r6
24053198:	6a66      	ldr	r6, [r4, #36]	; 0x24
2405319a:	2e04      	cmp	r6, #4
2405319c:	bf02      	ittt	eq
2405319e:	e9d4 270b 	ldrdeq	r2, r7, [r4, #44]	; 0x2c
240531a2:	433a      	orreq	r2, r7
240531a4:	4313      	orreq	r3, r2
240531a6:	6862      	ldr	r2, [r4, #4]
240531a8:	f1a2 0c29 	sub.w	ip, r2, #41	; 0x29
240531ac:	f1bc 0f1f 	cmp.w	ip, #31
240531b0:	d928      	bls.n	24053204 <HAL_DMA_Init+0x1dc>
240531b2:	f1a2 074f 	sub.w	r7, r2, #79	; 0x4f
240531b6:	2f03      	cmp	r7, #3
240531b8:	d929      	bls.n	2405320e <HAL_DMA_Init+0x1e6>
240531ba:	3a74      	subs	r2, #116	; 0x74
240531bc:	2a03      	cmp	r2, #3
240531be:	d926      	bls.n	2405320e <HAL_DMA_Init+0x1e6>
240531c0:	600b      	str	r3, [r1, #0]
240531c2:	2e04      	cmp	r6, #4
240531c4:	694b      	ldr	r3, [r1, #20]
240531c6:	f023 0307 	bic.w	r3, r3, #7
240531ca:	ea43 0306 	orr.w	r3, r3, r6
240531ce:	d14b      	bne.n	24053268 <HAL_DMA_Init+0x240>
240531d0:	6aa2      	ldr	r2, [r4, #40]	; 0x28
240531d2:	6ae6      	ldr	r6, [r4, #44]	; 0x2c
240531d4:	4313      	orrs	r3, r2
240531d6:	2e00      	cmp	r6, #0
240531d8:	d046      	beq.n	24053268 <HAL_DMA_Init+0x240>
240531da:	b9d8      	cbnz	r0, 24053214 <HAL_DMA_Init+0x1ec>
240531dc:	2a01      	cmp	r2, #1
240531de:	d029      	beq.n	24053234 <HAL_DMA_Init+0x20c>
240531e0:	f032 0202 	bics.w	r2, r2, #2
240531e4:	d140      	bne.n	24053268 <HAL_DMA_Init+0x240>
240531e6:	01f2      	lsls	r2, r6, #7
240531e8:	d53e      	bpl.n	24053268 <HAL_DMA_Init+0x240>
240531ea:	e026      	b.n	2405323a <HAL_DMA_Init+0x212>
240531ec:	f7fe fe28 	bl	24051e40 <HAL_GetTick>
240531f0:	1b80      	subs	r0, r0, r6
240531f2:	2805      	cmp	r0, #5
240531f4:	d9bb      	bls.n	2405316e <HAL_DMA_Init+0x146>
240531f6:	2320      	movs	r3, #32
240531f8:	6563      	str	r3, [r4, #84]	; 0x54
240531fa:	2303      	movs	r3, #3
240531fc:	f884 3035 	strb.w	r3, [r4, #53]	; 0x35
24053200:	2001      	movs	r0, #1
24053202:	e01f      	b.n	24053244 <HAL_DMA_Init+0x21c>
24053204:	4f15      	ldr	r7, [pc, #84]	; (2405325c <HAL_DMA_Init+0x234>)
24053206:	fa27 f70c 	lsr.w	r7, r7, ip
2405320a:	07ff      	lsls	r7, r7, #31
2405320c:	d5d5      	bpl.n	240531ba <HAL_DMA_Init+0x192>
2405320e:	f443 1380 	orr.w	r3, r3, #1048576	; 0x100000
24053212:	e7d5      	b.n	240531c0 <HAL_DMA_Init+0x198>
24053214:	f5b0 5f00 	cmp.w	r0, #8192	; 0x2000
24053218:	d122      	bne.n	24053260 <HAL_DMA_Init+0x238>
2405321a:	2a03      	cmp	r2, #3
2405321c:	d824      	bhi.n	24053268 <HAL_DMA_Init+0x240>
2405321e:	a001      	add	r0, pc, #4	; (adr r0, 24053224 <HAL_DMA_Init+0x1fc>)
24053220:	f850 f022 	ldr.w	pc, [r0, r2, lsl #2]
24053224:	2405323b 	.word	0x2405323b
24053228:	240531e7 	.word	0x240531e7
2405322c:	2405323b 	.word	0x2405323b
24053230:	24053235 	.word	0x24053235
24053234:	f1b6 7fc0 	cmp.w	r6, #25165824	; 0x1800000
24053238:	d116      	bne.n	24053268 <HAL_DMA_Init+0x240>
2405323a:	2340      	movs	r3, #64	; 0x40
2405323c:	2001      	movs	r0, #1
2405323e:	6563      	str	r3, [r4, #84]	; 0x54
24053240:	f884 0035 	strb.w	r0, [r4, #53]	; 0x35
24053244:	bdf8      	pop	{r3, r4, r5, r6, r7, pc}
24053246:	bf00      	nop
24053248:	40020010 	.word	0x40020010
2405324c:	40020028 	.word	0x40020028
24053250:	48022c08 	.word	0x48022c08
24053254:	a7fdabf8 	.word	0xa7fdabf8
24053258:	fe10803f 	.word	0xfe10803f
2405325c:	c3c0003f 	.word	0xc3c0003f
24053260:	2a02      	cmp	r2, #2
24053262:	d9ea      	bls.n	2405323a <HAL_DMA_Init+0x212>
24053264:	2a03      	cmp	r2, #3
24053266:	d0be      	beq.n	240531e6 <HAL_DMA_Init+0x1be>
24053268:	614b      	str	r3, [r1, #20]
2405326a:	4620      	mov	r0, r4
2405326c:	f7ff fe0e 	bl	24052e8c <DMA_CalcBaseAndBitshift>
24053270:	6de3      	ldr	r3, [r4, #92]	; 0x5c
24053272:	f003 021f 	and.w	r2, r3, #31
24053276:	233f      	movs	r3, #63	; 0x3f
24053278:	4093      	lsls	r3, r2
2405327a:	6083      	str	r3, [r0, #8]
2405327c:	6823      	ldr	r3, [r4, #0]
2405327e:	42ab      	cmp	r3, r5
24053280:	d045      	beq.n	2405330e <HAL_DMA_Init+0x2e6>
24053282:	4a55      	ldr	r2, [pc, #340]	; (240533d8 <HAL_DMA_Init+0x3b0>)
24053284:	4293      	cmp	r3, r2
24053286:	d042      	beq.n	2405330e <HAL_DMA_Init+0x2e6>
24053288:	3218      	adds	r2, #24
2405328a:	4293      	cmp	r3, r2
2405328c:	d03f      	beq.n	2405330e <HAL_DMA_Init+0x2e6>
2405328e:	3218      	adds	r2, #24
24053290:	4293      	cmp	r3, r2
24053292:	d03c      	beq.n	2405330e <HAL_DMA_Init+0x2e6>
24053294:	3218      	adds	r2, #24
24053296:	4293      	cmp	r3, r2
24053298:	d039      	beq.n	2405330e <HAL_DMA_Init+0x2e6>
2405329a:	3218      	adds	r2, #24
2405329c:	4293      	cmp	r3, r2
2405329e:	d036      	beq.n	2405330e <HAL_DMA_Init+0x2e6>
240532a0:	3218      	adds	r2, #24
240532a2:	4293      	cmp	r3, r2
240532a4:	d033      	beq.n	2405330e <HAL_DMA_Init+0x2e6>
240532a6:	3218      	adds	r2, #24
240532a8:	4293      	cmp	r3, r2
240532aa:	d030      	beq.n	2405330e <HAL_DMA_Init+0x2e6>
240532ac:	f502 7256 	add.w	r2, r2, #856	; 0x358
240532b0:	4293      	cmp	r3, r2
240532b2:	d02c      	beq.n	2405330e <HAL_DMA_Init+0x2e6>
240532b4:	3218      	adds	r2, #24
240532b6:	4293      	cmp	r3, r2
240532b8:	d029      	beq.n	2405330e <HAL_DMA_Init+0x2e6>
240532ba:	3218      	adds	r2, #24
240532bc:	4293      	cmp	r3, r2
240532be:	d026      	beq.n	2405330e <HAL_DMA_Init+0x2e6>
240532c0:	3218      	adds	r2, #24
240532c2:	4293      	cmp	r3, r2
240532c4:	d023      	beq.n	2405330e <HAL_DMA_Init+0x2e6>
240532c6:	3218      	adds	r2, #24
240532c8:	4293      	cmp	r3, r2
240532ca:	d020      	beq.n	2405330e <HAL_DMA_Init+0x2e6>
240532cc:	3218      	adds	r2, #24
240532ce:	4293      	cmp	r3, r2
240532d0:	d01d      	beq.n	2405330e <HAL_DMA_Init+0x2e6>
240532d2:	3218      	adds	r2, #24
240532d4:	4293      	cmp	r3, r2
240532d6:	d01a      	beq.n	2405330e <HAL_DMA_Init+0x2e6>
240532d8:	3218      	adds	r2, #24
240532da:	4293      	cmp	r3, r2
240532dc:	d017      	beq.n	2405330e <HAL_DMA_Init+0x2e6>
240532de:	4a3f      	ldr	r2, [pc, #252]	; (240533dc <HAL_DMA_Init+0x3b4>)
240532e0:	4293      	cmp	r3, r2
240532e2:	d014      	beq.n	2405330e <HAL_DMA_Init+0x2e6>
240532e4:	3214      	adds	r2, #20
240532e6:	4293      	cmp	r3, r2
240532e8:	d011      	beq.n	2405330e <HAL_DMA_Init+0x2e6>
240532ea:	3214      	adds	r2, #20
240532ec:	4293      	cmp	r3, r2
240532ee:	d00e      	beq.n	2405330e <HAL_DMA_Init+0x2e6>
240532f0:	3214      	adds	r2, #20
240532f2:	4293      	cmp	r3, r2
240532f4:	d00b      	beq.n	2405330e <HAL_DMA_Init+0x2e6>
240532f6:	3214      	adds	r2, #20
240532f8:	4293      	cmp	r3, r2
240532fa:	d008      	beq.n	2405330e <HAL_DMA_Init+0x2e6>
240532fc:	3214      	adds	r2, #20
240532fe:	4293      	cmp	r3, r2
24053300:	d005      	beq.n	2405330e <HAL_DMA_Init+0x2e6>
24053302:	3214      	adds	r2, #20
24053304:	4293      	cmp	r3, r2
24053306:	d002      	beq.n	2405330e <HAL_DMA_Init+0x2e6>
24053308:	3214      	adds	r2, #20
2405330a:	4293      	cmp	r3, r2
2405330c:	d119      	bne.n	24053342 <HAL_DMA_Init+0x31a>
2405330e:	4620      	mov	r0, r4
24053310:	2500      	movs	r5, #0
24053312:	f7ff fe09 	bl	24052f28 <DMA_CalcDMAMUXChannelBaseAndMask>
24053316:	68a3      	ldr	r3, [r4, #8]
24053318:	6e22      	ldr	r2, [r4, #96]	; 0x60
2405331a:	2b80      	cmp	r3, #128	; 0x80
2405331c:	bf04      	itt	eq
2405331e:	2300      	moveq	r3, #0
24053320:	6063      	streq	r3, [r4, #4]
24053322:	6863      	ldr	r3, [r4, #4]
24053324:	b2d9      	uxtb	r1, r3
24053326:	3b01      	subs	r3, #1
24053328:	6011      	str	r1, [r2, #0]
2405332a:	2b07      	cmp	r3, #7
2405332c:	e9d4 2119 	ldrd	r2, r1, [r4, #100]	; 0x64
24053330:	6051      	str	r1, [r2, #4]
24053332:	d84c      	bhi.n	240533ce <HAL_DMA_Init+0x3a6>
24053334:	f7ff fe40 	bl	24052fb8 <DMA_CalcDMAMUXRequestGenBaseAndMask>
24053338:	6ee3      	ldr	r3, [r4, #108]	; 0x6c
2405333a:	601d      	str	r5, [r3, #0]
2405333c:	e9d4 321c 	ldrd	r3, r2, [r4, #112]	; 0x70
24053340:	605a      	str	r2, [r3, #4]
24053342:	2000      	movs	r0, #0
24053344:	2301      	movs	r3, #1
24053346:	6560      	str	r0, [r4, #84]	; 0x54
24053348:	f884 3035 	strb.w	r3, [r4, #53]	; 0x35
2405334c:	e77a      	b.n	24053244 <HAL_DMA_Init+0x21c>
2405334e:	4a24      	ldr	r2, [pc, #144]	; (240533e0 <HAL_DMA_Init+0x3b8>)
24053350:	4293      	cmp	r3, r2
24053352:	f43f aea7 	beq.w	240530a4 <HAL_DMA_Init+0x7c>
24053356:	3214      	adds	r2, #20
24053358:	4293      	cmp	r3, r2
2405335a:	f43f aea3 	beq.w	240530a4 <HAL_DMA_Init+0x7c>
2405335e:	3214      	adds	r2, #20
24053360:	4293      	cmp	r3, r2
24053362:	f43f ae9f 	beq.w	240530a4 <HAL_DMA_Init+0x7c>
24053366:	3214      	adds	r2, #20
24053368:	4293      	cmp	r3, r2
2405336a:	f43f ae9b 	beq.w	240530a4 <HAL_DMA_Init+0x7c>
2405336e:	3214      	adds	r2, #20
24053370:	4293      	cmp	r3, r2
24053372:	f43f ae97 	beq.w	240530a4 <HAL_DMA_Init+0x7c>
24053376:	3214      	adds	r2, #20
24053378:	4293      	cmp	r3, r2
2405337a:	f43f ae93 	beq.w	240530a4 <HAL_DMA_Init+0x7c>
2405337e:	3214      	adds	r2, #20
24053380:	4293      	cmp	r3, r2
24053382:	f43f ae8f 	beq.w	240530a4 <HAL_DMA_Init+0x7c>
24053386:	4a15      	ldr	r2, [pc, #84]	; (240533dc <HAL_DMA_Init+0x3b4>)
24053388:	4293      	cmp	r3, r2
2405338a:	f43f ae8b 	beq.w	240530a4 <HAL_DMA_Init+0x7c>
2405338e:	3214      	adds	r2, #20
24053390:	4293      	cmp	r3, r2
24053392:	f43f ae87 	beq.w	240530a4 <HAL_DMA_Init+0x7c>
24053396:	3214      	adds	r2, #20
24053398:	4293      	cmp	r3, r2
2405339a:	f43f ae83 	beq.w	240530a4 <HAL_DMA_Init+0x7c>
2405339e:	3214      	adds	r2, #20
240533a0:	4293      	cmp	r3, r2
240533a2:	f43f ae7f 	beq.w	240530a4 <HAL_DMA_Init+0x7c>
240533a6:	3214      	adds	r2, #20
240533a8:	4293      	cmp	r3, r2
240533aa:	f43f ae7b 	beq.w	240530a4 <HAL_DMA_Init+0x7c>
240533ae:	3214      	adds	r2, #20
240533b0:	4293      	cmp	r3, r2
240533b2:	f43f ae77 	beq.w	240530a4 <HAL_DMA_Init+0x7c>
240533b6:	3214      	adds	r2, #20
240533b8:	4293      	cmp	r3, r2
240533ba:	f43f ae73 	beq.w	240530a4 <HAL_DMA_Init+0x7c>
240533be:	3214      	adds	r2, #20
240533c0:	4293      	cmp	r3, r2
240533c2:	f43f ae6f 	beq.w	240530a4 <HAL_DMA_Init+0x7c>
240533c6:	2340      	movs	r3, #64	; 0x40
240533c8:	e716      	b.n	240531f8 <HAL_DMA_Init+0x1d0>
240533ca:	2010      	movs	r0, #16
240533cc:	e67e      	b.n	240530cc <HAL_DMA_Init+0xa4>
240533ce:	e9c4 551b 	strd	r5, r5, [r4, #108]	; 0x6c
240533d2:	6765      	str	r5, [r4, #116]	; 0x74
240533d4:	e7b5      	b.n	24053342 <HAL_DMA_Init+0x31a>
240533d6:	bf00      	nop
240533d8:	40020028 	.word	0x40020028
240533dc:	58025408 	.word	0x58025408
240533e0:	48022c1c 	.word	0x48022c1c

240533e4 <HAL_DMA_Start_IT>:
240533e4:	b570      	push	{r4, r5, r6, lr}
240533e6:	2800      	cmp	r0, #0
240533e8:	f000 810b 	beq.w	24053602 <HAL_DMA_Start_IT+0x21e>
240533ec:	f890 4034 	ldrb.w	r4, [r0, #52]	; 0x34
240533f0:	2c01      	cmp	r4, #1
240533f2:	f000 8108 	beq.w	24053606 <HAL_DMA_Start_IT+0x222>
240533f6:	2401      	movs	r4, #1
240533f8:	f890 5035 	ldrb.w	r5, [r0, #53]	; 0x35
240533fc:	42a5      	cmp	r5, r4
240533fe:	f880 4034 	strb.w	r4, [r0, #52]	; 0x34
24053402:	f04f 0500 	mov.w	r5, #0
24053406:	f040 80f7 	bne.w	240535f8 <HAL_DMA_Start_IT+0x214>
2405340a:	2402      	movs	r4, #2
2405340c:	f880 4035 	strb.w	r4, [r0, #53]	; 0x35
24053410:	6804      	ldr	r4, [r0, #0]
24053412:	6545      	str	r5, [r0, #84]	; 0x54
24053414:	4d7d      	ldr	r5, [pc, #500]	; (2405360c <HAL_DMA_Start_IT+0x228>)
24053416:	42ac      	cmp	r4, r5
24053418:	d01e      	beq.n	24053458 <HAL_DMA_Start_IT+0x74>
2405341a:	4e7d      	ldr	r6, [pc, #500]	; (24053610 <HAL_DMA_Start_IT+0x22c>)
2405341c:	42b4      	cmp	r4, r6
2405341e:	d01b      	beq.n	24053458 <HAL_DMA_Start_IT+0x74>
24053420:	3618      	adds	r6, #24
24053422:	42b4      	cmp	r4, r6
24053424:	d018      	beq.n	24053458 <HAL_DMA_Start_IT+0x74>
24053426:	3618      	adds	r6, #24
24053428:	42b4      	cmp	r4, r6
2405342a:	d015      	beq.n	24053458 <HAL_DMA_Start_IT+0x74>
2405342c:	3618      	adds	r6, #24
2405342e:	42b4      	cmp	r4, r6
24053430:	d012      	beq.n	24053458 <HAL_DMA_Start_IT+0x74>
24053432:	3618      	adds	r6, #24
24053434:	42b4      	cmp	r4, r6
24053436:	d00f      	beq.n	24053458 <HAL_DMA_Start_IT+0x74>
24053438:	3618      	adds	r6, #24
2405343a:	42b4      	cmp	r4, r6
2405343c:	d00c      	beq.n	24053458 <HAL_DMA_Start_IT+0x74>
2405343e:	3618      	adds	r6, #24
24053440:	42b4      	cmp	r4, r6
24053442:	d009      	beq.n	24053458 <HAL_DMA_Start_IT+0x74>
24053444:	f506 7656 	add.w	r6, r6, #856	; 0x358
24053448:	42b4      	cmp	r4, r6
2405344a:	d005      	beq.n	24053458 <HAL_DMA_Start_IT+0x74>
2405344c:	3618      	adds	r6, #24
2405344e:	42b4      	cmp	r4, r6
24053450:	d002      	beq.n	24053458 <HAL_DMA_Start_IT+0x74>
24053452:	3618      	adds	r6, #24
24053454:	42b4      	cmp	r4, r6
24053456:	d0ff      	beq.n	24053458 <HAL_DMA_Start_IT+0x74>
24053458:	6826      	ldr	r6, [r4, #0]
2405345a:	f026 0601 	bic.w	r6, r6, #1
2405345e:	6026      	str	r6, [r4, #0]
24053460:	f7ff fc38 	bl	24052cd4 <DMA_SetConfig>
24053464:	6803      	ldr	r3, [r0, #0]
24053466:	6c01      	ldr	r1, [r0, #64]	; 0x40
24053468:	42ab      	cmp	r3, r5
2405346a:	d053      	beq.n	24053514 <HAL_DMA_Start_IT+0x130>
2405346c:	4a68      	ldr	r2, [pc, #416]	; (24053610 <HAL_DMA_Start_IT+0x22c>)
2405346e:	4293      	cmp	r3, r2
24053470:	d050      	beq.n	24053514 <HAL_DMA_Start_IT+0x130>
24053472:	3218      	adds	r2, #24
24053474:	4293      	cmp	r3, r2
24053476:	d04d      	beq.n	24053514 <HAL_DMA_Start_IT+0x130>
24053478:	3218      	adds	r2, #24
2405347a:	4293      	cmp	r3, r2
2405347c:	d04a      	beq.n	24053514 <HAL_DMA_Start_IT+0x130>
2405347e:	3218      	adds	r2, #24
24053480:	4293      	cmp	r3, r2
24053482:	d047      	beq.n	24053514 <HAL_DMA_Start_IT+0x130>
24053484:	3218      	adds	r2, #24
24053486:	4293      	cmp	r3, r2
24053488:	d044      	beq.n	24053514 <HAL_DMA_Start_IT+0x130>
2405348a:	3218      	adds	r2, #24
2405348c:	4293      	cmp	r3, r2
2405348e:	d041      	beq.n	24053514 <HAL_DMA_Start_IT+0x130>
24053490:	3218      	adds	r2, #24
24053492:	4293      	cmp	r3, r2
24053494:	d03e      	beq.n	24053514 <HAL_DMA_Start_IT+0x130>
24053496:	f502 7256 	add.w	r2, r2, #856	; 0x358
2405349a:	4293      	cmp	r3, r2
2405349c:	d03a      	beq.n	24053514 <HAL_DMA_Start_IT+0x130>
2405349e:	3218      	adds	r2, #24
240534a0:	4293      	cmp	r3, r2
240534a2:	d037      	beq.n	24053514 <HAL_DMA_Start_IT+0x130>
240534a4:	3218      	adds	r2, #24
240534a6:	4293      	cmp	r3, r2
240534a8:	d034      	beq.n	24053514 <HAL_DMA_Start_IT+0x130>
240534aa:	3218      	adds	r2, #24
240534ac:	4293      	cmp	r3, r2
240534ae:	d031      	beq.n	24053514 <HAL_DMA_Start_IT+0x130>
240534b0:	3218      	adds	r2, #24
240534b2:	4293      	cmp	r3, r2
240534b4:	d02e      	beq.n	24053514 <HAL_DMA_Start_IT+0x130>
240534b6:	3218      	adds	r2, #24
240534b8:	4293      	cmp	r3, r2
240534ba:	d02b      	beq.n	24053514 <HAL_DMA_Start_IT+0x130>
240534bc:	3218      	adds	r2, #24
240534be:	4293      	cmp	r3, r2
240534c0:	d028      	beq.n	24053514 <HAL_DMA_Start_IT+0x130>
240534c2:	3218      	adds	r2, #24
240534c4:	4293      	cmp	r3, r2
240534c6:	d025      	beq.n	24053514 <HAL_DMA_Start_IT+0x130>
240534c8:	681a      	ldr	r2, [r3, #0]
240534ca:	f022 020e 	bic.w	r2, r2, #14
240534ce:	f042 020a 	orr.w	r2, r2, #10
240534d2:	601a      	str	r2, [r3, #0]
240534d4:	2900      	cmp	r1, #0
240534d6:	d156      	bne.n	24053586 <HAL_DMA_Start_IT+0x1a2>
240534d8:	4a4e      	ldr	r2, [pc, #312]	; (24053614 <HAL_DMA_Start_IT+0x230>)
240534da:	4293      	cmp	r3, r2
240534dc:	d027      	beq.n	2405352e <HAL_DMA_Start_IT+0x14a>
240534de:	4a4e      	ldr	r2, [pc, #312]	; (24053618 <HAL_DMA_Start_IT+0x234>)
240534e0:	4293      	cmp	r3, r2
240534e2:	d024      	beq.n	2405352e <HAL_DMA_Start_IT+0x14a>
240534e4:	3214      	adds	r2, #20
240534e6:	4293      	cmp	r3, r2
240534e8:	d021      	beq.n	2405352e <HAL_DMA_Start_IT+0x14a>
240534ea:	3214      	adds	r2, #20
240534ec:	4293      	cmp	r3, r2
240534ee:	d01e      	beq.n	2405352e <HAL_DMA_Start_IT+0x14a>
240534f0:	3214      	adds	r2, #20
240534f2:	4293      	cmp	r3, r2
240534f4:	d01b      	beq.n	2405352e <HAL_DMA_Start_IT+0x14a>
240534f6:	3214      	adds	r2, #20
240534f8:	4293      	cmp	r3, r2
240534fa:	d018      	beq.n	2405352e <HAL_DMA_Start_IT+0x14a>
240534fc:	3214      	adds	r2, #20
240534fe:	4293      	cmp	r3, r2
24053500:	d015      	beq.n	2405352e <HAL_DMA_Start_IT+0x14a>
24053502:	3214      	adds	r2, #20
24053504:	4293      	cmp	r3, r2
24053506:	d012      	beq.n	2405352e <HAL_DMA_Start_IT+0x14a>
24053508:	681a      	ldr	r2, [r3, #0]
2405350a:	2000      	movs	r0, #0
2405350c:	f042 0201 	orr.w	r2, r2, #1
24053510:	601a      	str	r2, [r3, #0]
24053512:	bd70      	pop	{r4, r5, r6, pc}
24053514:	681a      	ldr	r2, [r3, #0]
24053516:	f022 021e 	bic.w	r2, r2, #30
2405351a:	f042 0216 	orr.w	r2, r2, #22
2405351e:	601a      	str	r2, [r3, #0]
24053520:	b119      	cbz	r1, 2405352a <HAL_DMA_Start_IT+0x146>
24053522:	681a      	ldr	r2, [r3, #0]
24053524:	f042 0208 	orr.w	r2, r2, #8
24053528:	601a      	str	r2, [r3, #0]
2405352a:	42ab      	cmp	r3, r5
2405352c:	d130      	bne.n	24053590 <HAL_DMA_Start_IT+0x1ac>
2405352e:	6e02      	ldr	r2, [r0, #96]	; 0x60
24053530:	6811      	ldr	r1, [r2, #0]
24053532:	03c9      	lsls	r1, r1, #15
24053534:	d45b      	bmi.n	240535ee <HAL_DMA_Start_IT+0x20a>
24053536:	6ec2      	ldr	r2, [r0, #108]	; 0x6c
24053538:	b11a      	cbz	r2, 24053542 <HAL_DMA_Start_IT+0x15e>
2405353a:	6811      	ldr	r1, [r2, #0]
2405353c:	f441 7180 	orr.w	r1, r1, #256	; 0x100
24053540:	6011      	str	r1, [r2, #0]
24053542:	42ab      	cmp	r3, r5
24053544:	d0e0      	beq.n	24053508 <HAL_DMA_Start_IT+0x124>
24053546:	4a32      	ldr	r2, [pc, #200]	; (24053610 <HAL_DMA_Start_IT+0x22c>)
24053548:	4293      	cmp	r3, r2
2405354a:	d0dd      	beq.n	24053508 <HAL_DMA_Start_IT+0x124>
2405354c:	3218      	adds	r2, #24
2405354e:	4293      	cmp	r3, r2
24053550:	d0da      	beq.n	24053508 <HAL_DMA_Start_IT+0x124>
24053552:	3218      	adds	r2, #24
24053554:	4293      	cmp	r3, r2
24053556:	d0d7      	beq.n	24053508 <HAL_DMA_Start_IT+0x124>
24053558:	3218      	adds	r2, #24
2405355a:	4293      	cmp	r3, r2
2405355c:	d0d4      	beq.n	24053508 <HAL_DMA_Start_IT+0x124>
2405355e:	3218      	adds	r2, #24
24053560:	4293      	cmp	r3, r2
24053562:	d0d1      	beq.n	24053508 <HAL_DMA_Start_IT+0x124>
24053564:	3218      	adds	r2, #24
24053566:	4293      	cmp	r3, r2
24053568:	d0ce      	beq.n	24053508 <HAL_DMA_Start_IT+0x124>
2405356a:	3218      	adds	r2, #24
2405356c:	4293      	cmp	r3, r2
2405356e:	d0cb      	beq.n	24053508 <HAL_DMA_Start_IT+0x124>
24053570:	f502 7256 	add.w	r2, r2, #856	; 0x358
24053574:	4293      	cmp	r3, r2
24053576:	d0c7      	beq.n	24053508 <HAL_DMA_Start_IT+0x124>
24053578:	3218      	adds	r2, #24
2405357a:	4293      	cmp	r3, r2
2405357c:	d0c4      	beq.n	24053508 <HAL_DMA_Start_IT+0x124>
2405357e:	3218      	adds	r2, #24
24053580:	4293      	cmp	r3, r2
24053582:	d0c1      	beq.n	24053508 <HAL_DMA_Start_IT+0x124>
24053584:	e7c0      	b.n	24053508 <HAL_DMA_Start_IT+0x124>
24053586:	681a      	ldr	r2, [r3, #0]
24053588:	f042 0204 	orr.w	r2, r2, #4
2405358c:	601a      	str	r2, [r3, #0]
2405358e:	e7a3      	b.n	240534d8 <HAL_DMA_Start_IT+0xf4>
24053590:	4a1f      	ldr	r2, [pc, #124]	; (24053610 <HAL_DMA_Start_IT+0x22c>)
24053592:	4293      	cmp	r3, r2
24053594:	d0cb      	beq.n	2405352e <HAL_DMA_Start_IT+0x14a>
24053596:	3218      	adds	r2, #24
24053598:	4293      	cmp	r3, r2
2405359a:	d0c8      	beq.n	2405352e <HAL_DMA_Start_IT+0x14a>
2405359c:	3218      	adds	r2, #24
2405359e:	4293      	cmp	r3, r2
240535a0:	d0c5      	beq.n	2405352e <HAL_DMA_Start_IT+0x14a>
240535a2:	3218      	adds	r2, #24
240535a4:	4293      	cmp	r3, r2
240535a6:	d0c2      	beq.n	2405352e <HAL_DMA_Start_IT+0x14a>
240535a8:	3218      	adds	r2, #24
240535aa:	4293      	cmp	r3, r2
240535ac:	d0bf      	beq.n	2405352e <HAL_DMA_Start_IT+0x14a>
240535ae:	3218      	adds	r2, #24
240535b0:	4293      	cmp	r3, r2
240535b2:	d0bc      	beq.n	2405352e <HAL_DMA_Start_IT+0x14a>
240535b4:	3218      	adds	r2, #24
240535b6:	4293      	cmp	r3, r2
240535b8:	d0b9      	beq.n	2405352e <HAL_DMA_Start_IT+0x14a>
240535ba:	f502 7256 	add.w	r2, r2, #856	; 0x358
240535be:	4293      	cmp	r3, r2
240535c0:	d0b5      	beq.n	2405352e <HAL_DMA_Start_IT+0x14a>
240535c2:	3218      	adds	r2, #24
240535c4:	4293      	cmp	r3, r2
240535c6:	d0b2      	beq.n	2405352e <HAL_DMA_Start_IT+0x14a>
240535c8:	3218      	adds	r2, #24
240535ca:	4293      	cmp	r3, r2
240535cc:	d0af      	beq.n	2405352e <HAL_DMA_Start_IT+0x14a>
240535ce:	3218      	adds	r2, #24
240535d0:	4293      	cmp	r3, r2
240535d2:	d0ac      	beq.n	2405352e <HAL_DMA_Start_IT+0x14a>
240535d4:	3218      	adds	r2, #24
240535d6:	4293      	cmp	r3, r2
240535d8:	d0a9      	beq.n	2405352e <HAL_DMA_Start_IT+0x14a>
240535da:	3218      	adds	r2, #24
240535dc:	4293      	cmp	r3, r2
240535de:	d0a6      	beq.n	2405352e <HAL_DMA_Start_IT+0x14a>
240535e0:	3218      	adds	r2, #24
240535e2:	4293      	cmp	r3, r2
240535e4:	d0a3      	beq.n	2405352e <HAL_DMA_Start_IT+0x14a>
240535e6:	3218      	adds	r2, #24
240535e8:	4293      	cmp	r3, r2
240535ea:	d0a0      	beq.n	2405352e <HAL_DMA_Start_IT+0x14a>
240535ec:	e774      	b.n	240534d8 <HAL_DMA_Start_IT+0xf4>
240535ee:	6811      	ldr	r1, [r2, #0]
240535f0:	f441 7180 	orr.w	r1, r1, #256	; 0x100
240535f4:	6011      	str	r1, [r2, #0]
240535f6:	e79e      	b.n	24053536 <HAL_DMA_Start_IT+0x152>
240535f8:	f44f 6300 	mov.w	r3, #2048	; 0x800
240535fc:	f880 5034 	strb.w	r5, [r0, #52]	; 0x34
24053600:	6543      	str	r3, [r0, #84]	; 0x54
24053602:	2001      	movs	r0, #1
24053604:	e785      	b.n	24053512 <HAL_DMA_Start_IT+0x12e>
24053606:	2002      	movs	r0, #2
24053608:	e783      	b.n	24053512 <HAL_DMA_Start_IT+0x12e>
2405360a:	bf00      	nop
2405360c:	40020010 	.word	0x40020010
24053610:	40020028 	.word	0x40020028
24053614:	58025408 	.word	0x58025408
24053618:	5802541c 	.word	0x5802541c

2405361c <HAL_DMA_Abort>:
2405361c:	b5f8      	push	{r3, r4, r5, r6, r7, lr}
2405361e:	4605      	mov	r5, r0
24053620:	f7fe fc0e 	bl	24051e40 <HAL_GetTick>
24053624:	4607      	mov	r7, r0
24053626:	b145      	cbz	r5, 2405363a <HAL_DMA_Abort+0x1e>
24053628:	f895 3035 	ldrb.w	r3, [r5, #53]	; 0x35
2405362c:	2b02      	cmp	r3, #2
2405362e:	d006      	beq.n	2405363e <HAL_DMA_Abort+0x22>
24053630:	2380      	movs	r3, #128	; 0x80
24053632:	656b      	str	r3, [r5, #84]	; 0x54
24053634:	2300      	movs	r3, #0
24053636:	f885 3034 	strb.w	r3, [r5, #52]	; 0x34
2405363a:	2001      	movs	r0, #1
2405363c:	e152      	b.n	240538e4 <HAL_DMA_Abort+0x2c8>
2405363e:	682c      	ldr	r4, [r5, #0]
24053640:	4ec4      	ldr	r6, [pc, #784]	; (24053954 <HAL_DMA_Abort+0x338>)
24053642:	42b4      	cmp	r4, r6
24053644:	d04a      	beq.n	240536dc <HAL_DMA_Abort+0xc0>
24053646:	4bc4      	ldr	r3, [pc, #784]	; (24053958 <HAL_DMA_Abort+0x33c>)
24053648:	429c      	cmp	r4, r3
2405364a:	d047      	beq.n	240536dc <HAL_DMA_Abort+0xc0>
2405364c:	3318      	adds	r3, #24
2405364e:	429c      	cmp	r4, r3
24053650:	d044      	beq.n	240536dc <HAL_DMA_Abort+0xc0>
24053652:	3318      	adds	r3, #24
24053654:	429c      	cmp	r4, r3
24053656:	d041      	beq.n	240536dc <HAL_DMA_Abort+0xc0>
24053658:	3318      	adds	r3, #24
2405365a:	429c      	cmp	r4, r3
2405365c:	d03e      	beq.n	240536dc <HAL_DMA_Abort+0xc0>
2405365e:	3318      	adds	r3, #24
24053660:	429c      	cmp	r4, r3
24053662:	d03b      	beq.n	240536dc <HAL_DMA_Abort+0xc0>
24053664:	3318      	adds	r3, #24
24053666:	429c      	cmp	r4, r3
24053668:	d038      	beq.n	240536dc <HAL_DMA_Abort+0xc0>
2405366a:	3318      	adds	r3, #24
2405366c:	429c      	cmp	r4, r3
2405366e:	d035      	beq.n	240536dc <HAL_DMA_Abort+0xc0>
24053670:	f503 7356 	add.w	r3, r3, #856	; 0x358
24053674:	429c      	cmp	r4, r3
24053676:	d031      	beq.n	240536dc <HAL_DMA_Abort+0xc0>
24053678:	3318      	adds	r3, #24
2405367a:	429c      	cmp	r4, r3
2405367c:	d02e      	beq.n	240536dc <HAL_DMA_Abort+0xc0>
2405367e:	3318      	adds	r3, #24
24053680:	429c      	cmp	r4, r3
24053682:	d02b      	beq.n	240536dc <HAL_DMA_Abort+0xc0>
24053684:	3318      	adds	r3, #24
24053686:	429c      	cmp	r4, r3
24053688:	d028      	beq.n	240536dc <HAL_DMA_Abort+0xc0>
2405368a:	3318      	adds	r3, #24
2405368c:	429c      	cmp	r4, r3
2405368e:	d025      	beq.n	240536dc <HAL_DMA_Abort+0xc0>
24053690:	3318      	adds	r3, #24
24053692:	429c      	cmp	r4, r3
24053694:	d022      	beq.n	240536dc <HAL_DMA_Abort+0xc0>
24053696:	3318      	adds	r3, #24
24053698:	429c      	cmp	r4, r3
2405369a:	d01f      	beq.n	240536dc <HAL_DMA_Abort+0xc0>
2405369c:	3318      	adds	r3, #24
2405369e:	429c      	cmp	r4, r3
240536a0:	d01c      	beq.n	240536dc <HAL_DMA_Abort+0xc0>
240536a2:	6823      	ldr	r3, [r4, #0]
240536a4:	f023 030e 	bic.w	r3, r3, #14
240536a8:	6023      	str	r3, [r4, #0]
240536aa:	4bac      	ldr	r3, [pc, #688]	; (2405395c <HAL_DMA_Abort+0x340>)
240536ac:	429c      	cmp	r4, r3
240536ae:	d01f      	beq.n	240536f0 <HAL_DMA_Abort+0xd4>
240536b0:	3314      	adds	r3, #20
240536b2:	429c      	cmp	r4, r3
240536b4:	d01c      	beq.n	240536f0 <HAL_DMA_Abort+0xd4>
240536b6:	3314      	adds	r3, #20
240536b8:	429c      	cmp	r4, r3
240536ba:	d019      	beq.n	240536f0 <HAL_DMA_Abort+0xd4>
240536bc:	3314      	adds	r3, #20
240536be:	429c      	cmp	r4, r3
240536c0:	d016      	beq.n	240536f0 <HAL_DMA_Abort+0xd4>
240536c2:	3314      	adds	r3, #20
240536c4:	429c      	cmp	r4, r3
240536c6:	d013      	beq.n	240536f0 <HAL_DMA_Abort+0xd4>
240536c8:	3314      	adds	r3, #20
240536ca:	429c      	cmp	r4, r3
240536cc:	d010      	beq.n	240536f0 <HAL_DMA_Abort+0xd4>
240536ce:	3314      	adds	r3, #20
240536d0:	429c      	cmp	r4, r3
240536d2:	d00d      	beq.n	240536f0 <HAL_DMA_Abort+0xd4>
240536d4:	3314      	adds	r3, #20
240536d6:	429c      	cmp	r4, r3
240536d8:	d112      	bne.n	24053700 <HAL_DMA_Abort+0xe4>
240536da:	e009      	b.n	240536f0 <HAL_DMA_Abort+0xd4>
240536dc:	6823      	ldr	r3, [r4, #0]
240536de:	42b4      	cmp	r4, r6
240536e0:	f023 031e 	bic.w	r3, r3, #30
240536e4:	6023      	str	r3, [r4, #0]
240536e6:	6963      	ldr	r3, [r4, #20]
240536e8:	f023 0380 	bic.w	r3, r3, #128	; 0x80
240536ec:	6163      	str	r3, [r4, #20]
240536ee:	d176      	bne.n	240537de <HAL_DMA_Abort+0x1c2>
240536f0:	6e2a      	ldr	r2, [r5, #96]	; 0x60
240536f2:	42b4      	cmp	r4, r6
240536f4:	6813      	ldr	r3, [r2, #0]
240536f6:	f423 7380 	bic.w	r3, r3, #256	; 0x100
240536fa:	6013      	str	r3, [r2, #0]
240536fc:	f040 80ab 	bne.w	24053856 <HAL_DMA_Abort+0x23a>
24053700:	6823      	ldr	r3, [r4, #0]
24053702:	f023 0301 	bic.w	r3, r3, #1
24053706:	6023      	str	r3, [r4, #0]
24053708:	6823      	ldr	r3, [r4, #0]
2405370a:	07db      	lsls	r3, r3, #31
2405370c:	f100 80cd 	bmi.w	240538aa <HAL_DMA_Abort+0x28e>
24053710:	682b      	ldr	r3, [r5, #0]
24053712:	6dea      	ldr	r2, [r5, #92]	; 0x5c
24053714:	42b3      	cmp	r3, r6
24053716:	6da8      	ldr	r0, [r5, #88]	; 0x58
24053718:	f002 021f 	and.w	r2, r2, #31
2405371c:	f000 80d1 	beq.w	240538c2 <HAL_DMA_Abort+0x2a6>
24053720:	498d      	ldr	r1, [pc, #564]	; (24053958 <HAL_DMA_Abort+0x33c>)
24053722:	428b      	cmp	r3, r1
24053724:	f000 80cd 	beq.w	240538c2 <HAL_DMA_Abort+0x2a6>
24053728:	3118      	adds	r1, #24
2405372a:	428b      	cmp	r3, r1
2405372c:	f000 80c9 	beq.w	240538c2 <HAL_DMA_Abort+0x2a6>
24053730:	3118      	adds	r1, #24
24053732:	428b      	cmp	r3, r1
24053734:	f000 80c5 	beq.w	240538c2 <HAL_DMA_Abort+0x2a6>
24053738:	3118      	adds	r1, #24
2405373a:	428b      	cmp	r3, r1
2405373c:	f000 80c1 	beq.w	240538c2 <HAL_DMA_Abort+0x2a6>
24053740:	3118      	adds	r1, #24
24053742:	428b      	cmp	r3, r1
24053744:	f000 80bd 	beq.w	240538c2 <HAL_DMA_Abort+0x2a6>
24053748:	3118      	adds	r1, #24
2405374a:	428b      	cmp	r3, r1
2405374c:	f000 80b9 	beq.w	240538c2 <HAL_DMA_Abort+0x2a6>
24053750:	3118      	adds	r1, #24
24053752:	428b      	cmp	r3, r1
24053754:	f000 80b5 	beq.w	240538c2 <HAL_DMA_Abort+0x2a6>
24053758:	f501 7156 	add.w	r1, r1, #856	; 0x358
2405375c:	428b      	cmp	r3, r1
2405375e:	f000 80b0 	beq.w	240538c2 <HAL_DMA_Abort+0x2a6>
24053762:	3118      	adds	r1, #24
24053764:	428b      	cmp	r3, r1
24053766:	f000 80ac 	beq.w	240538c2 <HAL_DMA_Abort+0x2a6>
2405376a:	3118      	adds	r1, #24
2405376c:	428b      	cmp	r3, r1
2405376e:	f000 80a8 	beq.w	240538c2 <HAL_DMA_Abort+0x2a6>
24053772:	3118      	adds	r1, #24
24053774:	428b      	cmp	r3, r1
24053776:	f000 80a4 	beq.w	240538c2 <HAL_DMA_Abort+0x2a6>
2405377a:	3118      	adds	r1, #24
2405377c:	428b      	cmp	r3, r1
2405377e:	f000 80a0 	beq.w	240538c2 <HAL_DMA_Abort+0x2a6>
24053782:	3118      	adds	r1, #24
24053784:	428b      	cmp	r3, r1
24053786:	f000 809c 	beq.w	240538c2 <HAL_DMA_Abort+0x2a6>
2405378a:	3118      	adds	r1, #24
2405378c:	428b      	cmp	r3, r1
2405378e:	f000 8098 	beq.w	240538c2 <HAL_DMA_Abort+0x2a6>
24053792:	3118      	adds	r1, #24
24053794:	428b      	cmp	r3, r1
24053796:	f000 8094 	beq.w	240538c2 <HAL_DMA_Abort+0x2a6>
2405379a:	2101      	movs	r1, #1
2405379c:	fa01 f202 	lsl.w	r2, r1, r2
240537a0:	6042      	str	r2, [r0, #4]
240537a2:	4a6e      	ldr	r2, [pc, #440]	; (2405395c <HAL_DMA_Abort+0x340>)
240537a4:	4293      	cmp	r3, r2
240537a6:	f000 8092 	beq.w	240538ce <HAL_DMA_Abort+0x2b2>
240537aa:	3214      	adds	r2, #20
240537ac:	4293      	cmp	r3, r2
240537ae:	f000 808e 	beq.w	240538ce <HAL_DMA_Abort+0x2b2>
240537b2:	3214      	adds	r2, #20
240537b4:	4293      	cmp	r3, r2
240537b6:	f000 808a 	beq.w	240538ce <HAL_DMA_Abort+0x2b2>
240537ba:	3214      	adds	r2, #20
240537bc:	4293      	cmp	r3, r2
240537be:	f000 8086 	beq.w	240538ce <HAL_DMA_Abort+0x2b2>
240537c2:	3214      	adds	r2, #20
240537c4:	4293      	cmp	r3, r2
240537c6:	f000 8082 	beq.w	240538ce <HAL_DMA_Abort+0x2b2>
240537ca:	3214      	adds	r2, #20
240537cc:	4293      	cmp	r3, r2
240537ce:	d07e      	beq.n	240538ce <HAL_DMA_Abort+0x2b2>
240537d0:	3214      	adds	r2, #20
240537d2:	4293      	cmp	r3, r2
240537d4:	d07b      	beq.n	240538ce <HAL_DMA_Abort+0x2b2>
240537d6:	3214      	adds	r2, #20
240537d8:	4293      	cmp	r3, r2
240537da:	d17d      	bne.n	240538d8 <HAL_DMA_Abort+0x2bc>
240537dc:	e077      	b.n	240538ce <HAL_DMA_Abort+0x2b2>
240537de:	4b5e      	ldr	r3, [pc, #376]	; (24053958 <HAL_DMA_Abort+0x33c>)
240537e0:	429c      	cmp	r4, r3
240537e2:	d085      	beq.n	240536f0 <HAL_DMA_Abort+0xd4>
240537e4:	3318      	adds	r3, #24
240537e6:	429c      	cmp	r4, r3
240537e8:	d082      	beq.n	240536f0 <HAL_DMA_Abort+0xd4>
240537ea:	3318      	adds	r3, #24
240537ec:	429c      	cmp	r4, r3
240537ee:	f43f af7f 	beq.w	240536f0 <HAL_DMA_Abort+0xd4>
240537f2:	3318      	adds	r3, #24
240537f4:	429c      	cmp	r4, r3
240537f6:	f43f af7b 	beq.w	240536f0 <HAL_DMA_Abort+0xd4>
240537fa:	3318      	adds	r3, #24
240537fc:	429c      	cmp	r4, r3
240537fe:	f43f af77 	beq.w	240536f0 <HAL_DMA_Abort+0xd4>
24053802:	3318      	adds	r3, #24
24053804:	429c      	cmp	r4, r3
24053806:	f43f af73 	beq.w	240536f0 <HAL_DMA_Abort+0xd4>
2405380a:	3318      	adds	r3, #24
2405380c:	429c      	cmp	r4, r3
2405380e:	f43f af6f 	beq.w	240536f0 <HAL_DMA_Abort+0xd4>
24053812:	f503 7356 	add.w	r3, r3, #856	; 0x358
24053816:	429c      	cmp	r4, r3
24053818:	f43f af6a 	beq.w	240536f0 <HAL_DMA_Abort+0xd4>
2405381c:	3318      	adds	r3, #24
2405381e:	429c      	cmp	r4, r3
24053820:	f43f af66 	beq.w	240536f0 <HAL_DMA_Abort+0xd4>
24053824:	3318      	adds	r3, #24
24053826:	429c      	cmp	r4, r3
24053828:	f43f af62 	beq.w	240536f0 <HAL_DMA_Abort+0xd4>
2405382c:	3318      	adds	r3, #24
2405382e:	429c      	cmp	r4, r3
24053830:	f43f af5e 	beq.w	240536f0 <HAL_DMA_Abort+0xd4>
24053834:	3318      	adds	r3, #24
24053836:	429c      	cmp	r4, r3
24053838:	f43f af5a 	beq.w	240536f0 <HAL_DMA_Abort+0xd4>
2405383c:	3318      	adds	r3, #24
2405383e:	429c      	cmp	r4, r3
24053840:	f43f af56 	beq.w	240536f0 <HAL_DMA_Abort+0xd4>
24053844:	3318      	adds	r3, #24
24053846:	429c      	cmp	r4, r3
24053848:	f43f af52 	beq.w	240536f0 <HAL_DMA_Abort+0xd4>
2405384c:	3318      	adds	r3, #24
2405384e:	429c      	cmp	r4, r3
24053850:	f43f af4e 	beq.w	240536f0 <HAL_DMA_Abort+0xd4>
24053854:	e729      	b.n	240536aa <HAL_DMA_Abort+0x8e>
24053856:	4b40      	ldr	r3, [pc, #256]	; (24053958 <HAL_DMA_Abort+0x33c>)
24053858:	429c      	cmp	r4, r3
2405385a:	f43f af51 	beq.w	24053700 <HAL_DMA_Abort+0xe4>
2405385e:	3318      	adds	r3, #24
24053860:	429c      	cmp	r4, r3
24053862:	f43f af4d 	beq.w	24053700 <HAL_DMA_Abort+0xe4>
24053866:	3318      	adds	r3, #24
24053868:	429c      	cmp	r4, r3
2405386a:	f43f af49 	beq.w	24053700 <HAL_DMA_Abort+0xe4>
2405386e:	3318      	adds	r3, #24
24053870:	429c      	cmp	r4, r3
24053872:	f43f af45 	beq.w	24053700 <HAL_DMA_Abort+0xe4>
24053876:	3318      	adds	r3, #24
24053878:	429c      	cmp	r4, r3
2405387a:	f43f af41 	beq.w	24053700 <HAL_DMA_Abort+0xe4>
2405387e:	3318      	adds	r3, #24
24053880:	429c      	cmp	r4, r3
24053882:	f43f af3d 	beq.w	24053700 <HAL_DMA_Abort+0xe4>
24053886:	3318      	adds	r3, #24
24053888:	429c      	cmp	r4, r3
2405388a:	f43f af39 	beq.w	24053700 <HAL_DMA_Abort+0xe4>
2405388e:	f503 7356 	add.w	r3, r3, #856	; 0x358
24053892:	429c      	cmp	r4, r3
24053894:	f43f af34 	beq.w	24053700 <HAL_DMA_Abort+0xe4>
24053898:	3318      	adds	r3, #24
2405389a:	429c      	cmp	r4, r3
2405389c:	f43f af30 	beq.w	24053700 <HAL_DMA_Abort+0xe4>
240538a0:	3318      	adds	r3, #24
240538a2:	429c      	cmp	r4, r3
240538a4:	f43f af2c 	beq.w	24053700 <HAL_DMA_Abort+0xe4>
240538a8:	e72a      	b.n	24053700 <HAL_DMA_Abort+0xe4>
240538aa:	f7fe fac9 	bl	24051e40 <HAL_GetTick>
240538ae:	1bc0      	subs	r0, r0, r7
240538b0:	2805      	cmp	r0, #5
240538b2:	f67f af29 	bls.w	24053708 <HAL_DMA_Abort+0xec>
240538b6:	2320      	movs	r3, #32
240538b8:	656b      	str	r3, [r5, #84]	; 0x54
240538ba:	2303      	movs	r3, #3
240538bc:	f885 3035 	strb.w	r3, [r5, #53]	; 0x35
240538c0:	e6b8      	b.n	24053634 <HAL_DMA_Abort+0x18>
240538c2:	213f      	movs	r1, #63	; 0x3f
240538c4:	42b3      	cmp	r3, r6
240538c6:	fa01 f202 	lsl.w	r2, r1, r2
240538ca:	6082      	str	r2, [r0, #8]
240538cc:	d10b      	bne.n	240538e6 <HAL_DMA_Abort+0x2ca>
240538ce:	e9d5 3219 	ldrd	r3, r2, [r5, #100]	; 0x64
240538d2:	605a      	str	r2, [r3, #4]
240538d4:	6eeb      	ldr	r3, [r5, #108]	; 0x6c
240538d6:	bbab      	cbnz	r3, 24053944 <HAL_DMA_Abort+0x328>
240538d8:	2301      	movs	r3, #1
240538da:	2000      	movs	r0, #0
240538dc:	f885 3035 	strb.w	r3, [r5, #53]	; 0x35
240538e0:	f885 0034 	strb.w	r0, [r5, #52]	; 0x34
240538e4:	bdf8      	pop	{r3, r4, r5, r6, r7, pc}
240538e6:	4a1c      	ldr	r2, [pc, #112]	; (24053958 <HAL_DMA_Abort+0x33c>)
240538e8:	4293      	cmp	r3, r2
240538ea:	d0f0      	beq.n	240538ce <HAL_DMA_Abort+0x2b2>
240538ec:	3218      	adds	r2, #24
240538ee:	4293      	cmp	r3, r2
240538f0:	d0ed      	beq.n	240538ce <HAL_DMA_Abort+0x2b2>
240538f2:	3218      	adds	r2, #24
240538f4:	4293      	cmp	r3, r2
240538f6:	d0ea      	beq.n	240538ce <HAL_DMA_Abort+0x2b2>
240538f8:	3218      	adds	r2, #24
240538fa:	4293      	cmp	r3, r2
240538fc:	d0e7      	beq.n	240538ce <HAL_DMA_Abort+0x2b2>
240538fe:	3218      	adds	r2, #24
24053900:	4293      	cmp	r3, r2
24053902:	d0e4      	beq.n	240538ce <HAL_DMA_Abort+0x2b2>
24053904:	3218      	adds	r2, #24
24053906:	4293      	cmp	r3, r2
24053908:	d0e1      	beq.n	240538ce <HAL_DMA_Abort+0x2b2>
2405390a:	3218      	adds	r2, #24
2405390c:	4293      	cmp	r3, r2
2405390e:	d0de      	beq.n	240538ce <HAL_DMA_Abort+0x2b2>
24053910:	f502 7256 	add.w	r2, r2, #856	; 0x358
24053914:	4293      	cmp	r3, r2
24053916:	d0da      	beq.n	240538ce <HAL_DMA_Abort+0x2b2>
24053918:	3218      	adds	r2, #24
2405391a:	4293      	cmp	r3, r2
2405391c:	d0d7      	beq.n	240538ce <HAL_DMA_Abort+0x2b2>
2405391e:	3218      	adds	r2, #24
24053920:	4293      	cmp	r3, r2
24053922:	d0d4      	beq.n	240538ce <HAL_DMA_Abort+0x2b2>
24053924:	3218      	adds	r2, #24
24053926:	4293      	cmp	r3, r2
24053928:	d0d1      	beq.n	240538ce <HAL_DMA_Abort+0x2b2>
2405392a:	3218      	adds	r2, #24
2405392c:	4293      	cmp	r3, r2
2405392e:	d0ce      	beq.n	240538ce <HAL_DMA_Abort+0x2b2>
24053930:	3218      	adds	r2, #24
24053932:	4293      	cmp	r3, r2
24053934:	d0cb      	beq.n	240538ce <HAL_DMA_Abort+0x2b2>
24053936:	3218      	adds	r2, #24
24053938:	4293      	cmp	r3, r2
2405393a:	d0c8      	beq.n	240538ce <HAL_DMA_Abort+0x2b2>
2405393c:	3218      	adds	r2, #24
2405393e:	4293      	cmp	r3, r2
24053940:	d0c5      	beq.n	240538ce <HAL_DMA_Abort+0x2b2>
24053942:	e72e      	b.n	240537a2 <HAL_DMA_Abort+0x186>
24053944:	681a      	ldr	r2, [r3, #0]
24053946:	f422 7280 	bic.w	r2, r2, #256	; 0x100
2405394a:	601a      	str	r2, [r3, #0]
2405394c:	e9d5 321c 	ldrd	r3, r2, [r5, #112]	; 0x70
24053950:	605a      	str	r2, [r3, #4]
24053952:	e7c1      	b.n	240538d8 <HAL_DMA_Abort+0x2bc>
24053954:	40020010 	.word	0x40020010
24053958:	40020028 	.word	0x40020028
2405395c:	58025408 	.word	0x58025408

24053960 <HAL_DMA_Abort_IT>:
24053960:	b510      	push	{r4, lr}
24053962:	b128      	cbz	r0, 24053970 <HAL_DMA_Abort_IT+0x10>
24053964:	f890 3035 	ldrb.w	r3, [r0, #53]	; 0x35
24053968:	2b02      	cmp	r3, #2
2405396a:	d003      	beq.n	24053974 <HAL_DMA_Abort_IT+0x14>
2405396c:	2380      	movs	r3, #128	; 0x80
2405396e:	6543      	str	r3, [r0, #84]	; 0x54
24053970:	2001      	movs	r0, #1
24053972:	e07f      	b.n	24053a74 <HAL_DMA_Abort_IT+0x114>
24053974:	6803      	ldr	r3, [r0, #0]
24053976:	4a50      	ldr	r2, [pc, #320]	; (24053ab8 <HAL_DMA_Abort_IT+0x158>)
24053978:	4293      	cmp	r3, r2
2405397a:	d052      	beq.n	24053a22 <HAL_DMA_Abort_IT+0xc2>
2405397c:	494f      	ldr	r1, [pc, #316]	; (24053abc <HAL_DMA_Abort_IT+0x15c>)
2405397e:	428b      	cmp	r3, r1
24053980:	d04f      	beq.n	24053a22 <HAL_DMA_Abort_IT+0xc2>
24053982:	3118      	adds	r1, #24
24053984:	428b      	cmp	r3, r1
24053986:	d04c      	beq.n	24053a22 <HAL_DMA_Abort_IT+0xc2>
24053988:	3118      	adds	r1, #24
2405398a:	428b      	cmp	r3, r1
2405398c:	d049      	beq.n	24053a22 <HAL_DMA_Abort_IT+0xc2>
2405398e:	3118      	adds	r1, #24
24053990:	428b      	cmp	r3, r1
24053992:	d046      	beq.n	24053a22 <HAL_DMA_Abort_IT+0xc2>
24053994:	3118      	adds	r1, #24
24053996:	428b      	cmp	r3, r1
24053998:	d043      	beq.n	24053a22 <HAL_DMA_Abort_IT+0xc2>
2405399a:	3118      	adds	r1, #24
2405399c:	428b      	cmp	r3, r1
2405399e:	d040      	beq.n	24053a22 <HAL_DMA_Abort_IT+0xc2>
240539a0:	3118      	adds	r1, #24
240539a2:	428b      	cmp	r3, r1
240539a4:	d03d      	beq.n	24053a22 <HAL_DMA_Abort_IT+0xc2>
240539a6:	f501 7156 	add.w	r1, r1, #856	; 0x358
240539aa:	428b      	cmp	r3, r1
240539ac:	d039      	beq.n	24053a22 <HAL_DMA_Abort_IT+0xc2>
240539ae:	3118      	adds	r1, #24
240539b0:	428b      	cmp	r3, r1
240539b2:	d036      	beq.n	24053a22 <HAL_DMA_Abort_IT+0xc2>
240539b4:	3118      	adds	r1, #24
240539b6:	428b      	cmp	r3, r1
240539b8:	d033      	beq.n	24053a22 <HAL_DMA_Abort_IT+0xc2>
240539ba:	3118      	adds	r1, #24
240539bc:	428b      	cmp	r3, r1
240539be:	d030      	beq.n	24053a22 <HAL_DMA_Abort_IT+0xc2>
240539c0:	3118      	adds	r1, #24
240539c2:	428b      	cmp	r3, r1
240539c4:	d02d      	beq.n	24053a22 <HAL_DMA_Abort_IT+0xc2>
240539c6:	3118      	adds	r1, #24
240539c8:	428b      	cmp	r3, r1
240539ca:	d02a      	beq.n	24053a22 <HAL_DMA_Abort_IT+0xc2>
240539cc:	3118      	adds	r1, #24
240539ce:	428b      	cmp	r3, r1
240539d0:	d027      	beq.n	24053a22 <HAL_DMA_Abort_IT+0xc2>
240539d2:	3118      	adds	r1, #24
240539d4:	428b      	cmp	r3, r1
240539d6:	d024      	beq.n	24053a22 <HAL_DMA_Abort_IT+0xc2>
240539d8:	681a      	ldr	r2, [r3, #0]
240539da:	f022 020e 	bic.w	r2, r2, #14
240539de:	601a      	str	r2, [r3, #0]
240539e0:	681a      	ldr	r2, [r3, #0]
240539e2:	f022 0201 	bic.w	r2, r2, #1
240539e6:	601a      	str	r2, [r3, #0]
240539e8:	4a35      	ldr	r2, [pc, #212]	; (24053ac0 <HAL_DMA_Abort_IT+0x160>)
240539ea:	4293      	cmp	r3, r2
240539ec:	d143      	bne.n	24053a76 <HAL_DMA_Abort_IT+0x116>
240539ee:	6e02      	ldr	r2, [r0, #96]	; 0x60
240539f0:	6813      	ldr	r3, [r2, #0]
240539f2:	f423 7380 	bic.w	r3, r3, #256	; 0x100
240539f6:	6013      	str	r3, [r2, #0]
240539f8:	e9d0 1316 	ldrd	r1, r3, [r0, #88]	; 0x58
240539fc:	f003 021f 	and.w	r2, r3, #31
24053a00:	2301      	movs	r3, #1
24053a02:	4093      	lsls	r3, r2
24053a04:	604b      	str	r3, [r1, #4]
24053a06:	e9d0 3219 	ldrd	r3, r2, [r0, #100]	; 0x64
24053a0a:	605a      	str	r2, [r3, #4]
24053a0c:	6ec3      	ldr	r3, [r0, #108]	; 0x6c
24053a0e:	2b00      	cmp	r3, #0
24053a10:	d046      	beq.n	24053aa0 <HAL_DMA_Abort_IT+0x140>
24053a12:	681a      	ldr	r2, [r3, #0]
24053a14:	f422 7280 	bic.w	r2, r2, #256	; 0x100
24053a18:	601a      	str	r2, [r3, #0]
24053a1a:	e9d0 321c 	ldrd	r3, r2, [r0, #112]	; 0x70
24053a1e:	605a      	str	r2, [r3, #4]
24053a20:	e03e      	b.n	24053aa0 <HAL_DMA_Abort_IT+0x140>
24053a22:	2104      	movs	r1, #4
24053a24:	4293      	cmp	r3, r2
24053a26:	f880 1035 	strb.w	r1, [r0, #53]	; 0x35
24053a2a:	d01e      	beq.n	24053a6a <HAL_DMA_Abort_IT+0x10a>
24053a2c:	4a23      	ldr	r2, [pc, #140]	; (24053abc <HAL_DMA_Abort_IT+0x15c>)
24053a2e:	4293      	cmp	r3, r2
24053a30:	d01b      	beq.n	24053a6a <HAL_DMA_Abort_IT+0x10a>
24053a32:	3218      	adds	r2, #24
24053a34:	4293      	cmp	r3, r2
24053a36:	d018      	beq.n	24053a6a <HAL_DMA_Abort_IT+0x10a>
24053a38:	3218      	adds	r2, #24
24053a3a:	4293      	cmp	r3, r2
24053a3c:	d015      	beq.n	24053a6a <HAL_DMA_Abort_IT+0x10a>
24053a3e:	3218      	adds	r2, #24
24053a40:	4293      	cmp	r3, r2
24053a42:	d012      	beq.n	24053a6a <HAL_DMA_Abort_IT+0x10a>
24053a44:	3218      	adds	r2, #24
24053a46:	4293      	cmp	r3, r2
24053a48:	d00f      	beq.n	24053a6a <HAL_DMA_Abort_IT+0x10a>
24053a4a:	3218      	adds	r2, #24
24053a4c:	4293      	cmp	r3, r2
24053a4e:	d00c      	beq.n	24053a6a <HAL_DMA_Abort_IT+0x10a>
24053a50:	3218      	adds	r2, #24
24053a52:	4293      	cmp	r3, r2
24053a54:	d009      	beq.n	24053a6a <HAL_DMA_Abort_IT+0x10a>
24053a56:	f502 7256 	add.w	r2, r2, #856	; 0x358
24053a5a:	4293      	cmp	r3, r2
24053a5c:	d005      	beq.n	24053a6a <HAL_DMA_Abort_IT+0x10a>
24053a5e:	3218      	adds	r2, #24
24053a60:	4293      	cmp	r3, r2
24053a62:	d002      	beq.n	24053a6a <HAL_DMA_Abort_IT+0x10a>
24053a64:	3218      	adds	r2, #24
24053a66:	4293      	cmp	r3, r2
24053a68:	d0ff      	beq.n	24053a6a <HAL_DMA_Abort_IT+0x10a>
24053a6a:	681a      	ldr	r2, [r3, #0]
24053a6c:	f022 0201 	bic.w	r2, r2, #1
24053a70:	601a      	str	r2, [r3, #0]
24053a72:	2000      	movs	r0, #0
24053a74:	bd10      	pop	{r4, pc}
24053a76:	4a13      	ldr	r2, [pc, #76]	; (24053ac4 <HAL_DMA_Abort_IT+0x164>)
24053a78:	4293      	cmp	r3, r2
24053a7a:	d0b8      	beq.n	240539ee <HAL_DMA_Abort_IT+0x8e>
24053a7c:	3214      	adds	r2, #20
24053a7e:	4293      	cmp	r3, r2
24053a80:	d0b5      	beq.n	240539ee <HAL_DMA_Abort_IT+0x8e>
24053a82:	3214      	adds	r2, #20
24053a84:	4293      	cmp	r3, r2
24053a86:	d0b2      	beq.n	240539ee <HAL_DMA_Abort_IT+0x8e>
24053a88:	3214      	adds	r2, #20
24053a8a:	4293      	cmp	r3, r2
24053a8c:	d0af      	beq.n	240539ee <HAL_DMA_Abort_IT+0x8e>
24053a8e:	3214      	adds	r2, #20
24053a90:	4293      	cmp	r3, r2
24053a92:	d0ac      	beq.n	240539ee <HAL_DMA_Abort_IT+0x8e>
24053a94:	3214      	adds	r2, #20
24053a96:	4293      	cmp	r3, r2
24053a98:	d0a9      	beq.n	240539ee <HAL_DMA_Abort_IT+0x8e>
24053a9a:	3214      	adds	r2, #20
24053a9c:	4293      	cmp	r3, r2
24053a9e:	d0a6      	beq.n	240539ee <HAL_DMA_Abort_IT+0x8e>
24053aa0:	2301      	movs	r3, #1
24053aa2:	2400      	movs	r4, #0
24053aa4:	f880 3035 	strb.w	r3, [r0, #53]	; 0x35
24053aa8:	6d03      	ldr	r3, [r0, #80]	; 0x50
24053aaa:	f880 4034 	strb.w	r4, [r0, #52]	; 0x34
24053aae:	b10b      	cbz	r3, 24053ab4 <HAL_DMA_Abort_IT+0x154>
24053ab0:	4798      	blx	r3
24053ab2:	e7de      	b.n	24053a72 <HAL_DMA_Abort_IT+0x112>
24053ab4:	4618      	mov	r0, r3
24053ab6:	e7dd      	b.n	24053a74 <HAL_DMA_Abort_IT+0x114>
24053ab8:	40020010 	.word	0x40020010
24053abc:	40020028 	.word	0x40020028
24053ac0:	58025408 	.word	0x58025408
24053ac4:	5802541c 	.word	0x5802541c

24053ac8 <HAL_DMA_IRQHandler>:
24053ac8:	2300      	movs	r3, #0
24053aca:	e92d 41f3 	stmdb	sp!, {r0, r1, r4, r5, r6, r7, r8, lr}
24053ace:	9301      	str	r3, [sp, #4]
24053ad0:	4604      	mov	r4, r0
24053ad2:	4bb4      	ldr	r3, [pc, #720]	; (24053da4 <HAL_DMA_IRQHandler+0x2dc>)
24053ad4:	4eb4      	ldr	r6, [pc, #720]	; (24053da8 <HAL_DMA_IRQHandler+0x2e0>)
24053ad6:	681f      	ldr	r7, [r3, #0]
24053ad8:	6803      	ldr	r3, [r0, #0]
24053ada:	6d85      	ldr	r5, [r0, #88]	; 0x58
24053adc:	42b3      	cmp	r3, r6
24053ade:	f8d5 8000 	ldr.w	r8, [r5]
24053ae2:	f8d5 c000 	ldr.w	ip, [r5]
24053ae6:	d047      	beq.n	24053b78 <HAL_DMA_IRQHandler+0xb0>
24053ae8:	4ab0      	ldr	r2, [pc, #704]	; (24053dac <HAL_DMA_IRQHandler+0x2e4>)
24053aea:	4293      	cmp	r3, r2
24053aec:	d044      	beq.n	24053b78 <HAL_DMA_IRQHandler+0xb0>
24053aee:	3218      	adds	r2, #24
24053af0:	4293      	cmp	r3, r2
24053af2:	d041      	beq.n	24053b78 <HAL_DMA_IRQHandler+0xb0>
24053af4:	3218      	adds	r2, #24
24053af6:	4293      	cmp	r3, r2
24053af8:	d03e      	beq.n	24053b78 <HAL_DMA_IRQHandler+0xb0>
24053afa:	3218      	adds	r2, #24
24053afc:	4293      	cmp	r3, r2
24053afe:	d03b      	beq.n	24053b78 <HAL_DMA_IRQHandler+0xb0>
24053b00:	3218      	adds	r2, #24
24053b02:	4293      	cmp	r3, r2
24053b04:	d038      	beq.n	24053b78 <HAL_DMA_IRQHandler+0xb0>
24053b06:	3218      	adds	r2, #24
24053b08:	4293      	cmp	r3, r2
24053b0a:	d035      	beq.n	24053b78 <HAL_DMA_IRQHandler+0xb0>
24053b0c:	3218      	adds	r2, #24
24053b0e:	4293      	cmp	r3, r2
24053b10:	d032      	beq.n	24053b78 <HAL_DMA_IRQHandler+0xb0>
24053b12:	f502 7256 	add.w	r2, r2, #856	; 0x358
24053b16:	4293      	cmp	r3, r2
24053b18:	d02e      	beq.n	24053b78 <HAL_DMA_IRQHandler+0xb0>
24053b1a:	3218      	adds	r2, #24
24053b1c:	4293      	cmp	r3, r2
24053b1e:	d02b      	beq.n	24053b78 <HAL_DMA_IRQHandler+0xb0>
24053b20:	3218      	adds	r2, #24
24053b22:	4293      	cmp	r3, r2
24053b24:	d028      	beq.n	24053b78 <HAL_DMA_IRQHandler+0xb0>
24053b26:	3218      	adds	r2, #24
24053b28:	4293      	cmp	r3, r2
24053b2a:	d025      	beq.n	24053b78 <HAL_DMA_IRQHandler+0xb0>
24053b2c:	3218      	adds	r2, #24
24053b2e:	4293      	cmp	r3, r2
24053b30:	d022      	beq.n	24053b78 <HAL_DMA_IRQHandler+0xb0>
24053b32:	3218      	adds	r2, #24
24053b34:	4293      	cmp	r3, r2
24053b36:	d01f      	beq.n	24053b78 <HAL_DMA_IRQHandler+0xb0>
24053b38:	3218      	adds	r2, #24
24053b3a:	4293      	cmp	r3, r2
24053b3c:	d01c      	beq.n	24053b78 <HAL_DMA_IRQHandler+0xb0>
24053b3e:	3218      	adds	r2, #24
24053b40:	4293      	cmp	r3, r2
24053b42:	d019      	beq.n	24053b78 <HAL_DMA_IRQHandler+0xb0>
24053b44:	4a9a      	ldr	r2, [pc, #616]	; (24053db0 <HAL_DMA_IRQHandler+0x2e8>)
24053b46:	4293      	cmp	r3, r2
24053b48:	f040 820b 	bne.w	24053f62 <HAL_DMA_IRQHandler+0x49a>
24053b4c:	6de1      	ldr	r1, [r4, #92]	; 0x5c
24053b4e:	2004      	movs	r0, #4
24053b50:	681a      	ldr	r2, [r3, #0]
24053b52:	f001 011f 	and.w	r1, r1, #31
24053b56:	4088      	lsls	r0, r1
24053b58:	ea10 0f0c 	tst.w	r0, ip
24053b5c:	f000 8248 	beq.w	24053ff0 <HAL_DMA_IRQHandler+0x528>
24053b60:	0756      	lsls	r6, r2, #29
24053b62:	f140 8245 	bpl.w	24053ff0 <HAL_DMA_IRQHandler+0x528>
24053b66:	0411      	lsls	r1, r2, #16
24053b68:	6068      	str	r0, [r5, #4]
24053b6a:	f140 8239 	bpl.w	24053fe0 <HAL_DMA_IRQHandler+0x518>
24053b6e:	03d3      	lsls	r3, r2, #15
24053b70:	f100 823c 	bmi.w	24053fec <HAL_DMA_IRQHandler+0x524>
24053b74:	6ca3      	ldr	r3, [r4, #72]	; 0x48
24053b76:	e17f      	b.n	24053e78 <HAL_DMA_IRQHandler+0x3b0>
24053b78:	6de2      	ldr	r2, [r4, #92]	; 0x5c
24053b7a:	2008      	movs	r0, #8
24053b7c:	f002 021f 	and.w	r2, r2, #31
24053b80:	4090      	lsls	r0, r2
24053b82:	ea10 0f08 	tst.w	r0, r8
24053b86:	d03d      	beq.n	24053c04 <HAL_DMA_IRQHandler+0x13c>
24053b88:	42b3      	cmp	r3, r6
24053b8a:	d02e      	beq.n	24053bea <HAL_DMA_IRQHandler+0x122>
24053b8c:	4987      	ldr	r1, [pc, #540]	; (24053dac <HAL_DMA_IRQHandler+0x2e4>)
24053b8e:	428b      	cmp	r3, r1
24053b90:	d02b      	beq.n	24053bea <HAL_DMA_IRQHandler+0x122>
24053b92:	3118      	adds	r1, #24
24053b94:	428b      	cmp	r3, r1
24053b96:	d028      	beq.n	24053bea <HAL_DMA_IRQHandler+0x122>
24053b98:	3118      	adds	r1, #24
24053b9a:	428b      	cmp	r3, r1
24053b9c:	d025      	beq.n	24053bea <HAL_DMA_IRQHandler+0x122>
24053b9e:	3118      	adds	r1, #24
24053ba0:	428b      	cmp	r3, r1
24053ba2:	d022      	beq.n	24053bea <HAL_DMA_IRQHandler+0x122>
24053ba4:	3118      	adds	r1, #24
24053ba6:	428b      	cmp	r3, r1
24053ba8:	d01f      	beq.n	24053bea <HAL_DMA_IRQHandler+0x122>
24053baa:	3118      	adds	r1, #24
24053bac:	428b      	cmp	r3, r1
24053bae:	d01c      	beq.n	24053bea <HAL_DMA_IRQHandler+0x122>
24053bb0:	3118      	adds	r1, #24
24053bb2:	428b      	cmp	r3, r1
24053bb4:	d019      	beq.n	24053bea <HAL_DMA_IRQHandler+0x122>
24053bb6:	f501 7156 	add.w	r1, r1, #856	; 0x358
24053bba:	428b      	cmp	r3, r1
24053bbc:	d015      	beq.n	24053bea <HAL_DMA_IRQHandler+0x122>
24053bbe:	3118      	adds	r1, #24
24053bc0:	428b      	cmp	r3, r1
24053bc2:	d012      	beq.n	24053bea <HAL_DMA_IRQHandler+0x122>
24053bc4:	3118      	adds	r1, #24
24053bc6:	428b      	cmp	r3, r1
24053bc8:	d00f      	beq.n	24053bea <HAL_DMA_IRQHandler+0x122>
24053bca:	3118      	adds	r1, #24
24053bcc:	428b      	cmp	r3, r1
24053bce:	d00c      	beq.n	24053bea <HAL_DMA_IRQHandler+0x122>
24053bd0:	3118      	adds	r1, #24
24053bd2:	428b      	cmp	r3, r1
24053bd4:	d009      	beq.n	24053bea <HAL_DMA_IRQHandler+0x122>
24053bd6:	3118      	adds	r1, #24
24053bd8:	428b      	cmp	r3, r1
24053bda:	d006      	beq.n	24053bea <HAL_DMA_IRQHandler+0x122>
24053bdc:	3118      	adds	r1, #24
24053bde:	428b      	cmp	r3, r1
24053be0:	d003      	beq.n	24053bea <HAL_DMA_IRQHandler+0x122>
24053be2:	3118      	adds	r1, #24
24053be4:	428b      	cmp	r3, r1
24053be6:	f040 80c3 	bne.w	24053d70 <HAL_DMA_IRQHandler+0x2a8>
24053bea:	6819      	ldr	r1, [r3, #0]
24053bec:	f3c1 0180 	ubfx	r1, r1, #2, #1
24053bf0:	b141      	cbz	r1, 24053c04 <HAL_DMA_IRQHandler+0x13c>
24053bf2:	6819      	ldr	r1, [r3, #0]
24053bf4:	f021 0104 	bic.w	r1, r1, #4
24053bf8:	6019      	str	r1, [r3, #0]
24053bfa:	60a8      	str	r0, [r5, #8]
24053bfc:	6d61      	ldr	r1, [r4, #84]	; 0x54
24053bfe:	f041 0101 	orr.w	r1, r1, #1
24053c02:	6561      	str	r1, [r4, #84]	; 0x54
24053c04:	fa28 f102 	lsr.w	r1, r8, r2
24053c08:	07c8      	lsls	r0, r1, #31
24053c0a:	d534      	bpl.n	24053c76 <HAL_DMA_IRQHandler+0x1ae>
24053c0c:	42b3      	cmp	r3, r6
24053c0e:	d02e      	beq.n	24053c6e <HAL_DMA_IRQHandler+0x1a6>
24053c10:	4966      	ldr	r1, [pc, #408]	; (24053dac <HAL_DMA_IRQHandler+0x2e4>)
24053c12:	428b      	cmp	r3, r1
24053c14:	d02b      	beq.n	24053c6e <HAL_DMA_IRQHandler+0x1a6>
24053c16:	3118      	adds	r1, #24
24053c18:	428b      	cmp	r3, r1
24053c1a:	d028      	beq.n	24053c6e <HAL_DMA_IRQHandler+0x1a6>
24053c1c:	3118      	adds	r1, #24
24053c1e:	428b      	cmp	r3, r1
24053c20:	d025      	beq.n	24053c6e <HAL_DMA_IRQHandler+0x1a6>
24053c22:	3118      	adds	r1, #24
24053c24:	428b      	cmp	r3, r1
24053c26:	d022      	beq.n	24053c6e <HAL_DMA_IRQHandler+0x1a6>
24053c28:	3118      	adds	r1, #24
24053c2a:	428b      	cmp	r3, r1
24053c2c:	d01f      	beq.n	24053c6e <HAL_DMA_IRQHandler+0x1a6>
24053c2e:	3118      	adds	r1, #24
24053c30:	428b      	cmp	r3, r1
24053c32:	d01c      	beq.n	24053c6e <HAL_DMA_IRQHandler+0x1a6>
24053c34:	3118      	adds	r1, #24
24053c36:	428b      	cmp	r3, r1
24053c38:	d019      	beq.n	24053c6e <HAL_DMA_IRQHandler+0x1a6>
24053c3a:	f501 7156 	add.w	r1, r1, #856	; 0x358
24053c3e:	428b      	cmp	r3, r1
24053c40:	d015      	beq.n	24053c6e <HAL_DMA_IRQHandler+0x1a6>
24053c42:	3118      	adds	r1, #24
24053c44:	428b      	cmp	r3, r1
24053c46:	d012      	beq.n	24053c6e <HAL_DMA_IRQHandler+0x1a6>
24053c48:	3118      	adds	r1, #24
24053c4a:	428b      	cmp	r3, r1
24053c4c:	d00f      	beq.n	24053c6e <HAL_DMA_IRQHandler+0x1a6>
24053c4e:	3118      	adds	r1, #24
24053c50:	428b      	cmp	r3, r1
24053c52:	d00c      	beq.n	24053c6e <HAL_DMA_IRQHandler+0x1a6>
24053c54:	3118      	adds	r1, #24
24053c56:	428b      	cmp	r3, r1
24053c58:	d009      	beq.n	24053c6e <HAL_DMA_IRQHandler+0x1a6>
24053c5a:	3118      	adds	r1, #24
24053c5c:	428b      	cmp	r3, r1
24053c5e:	d006      	beq.n	24053c6e <HAL_DMA_IRQHandler+0x1a6>
24053c60:	3118      	adds	r1, #24
24053c62:	428b      	cmp	r3, r1
24053c64:	d003      	beq.n	24053c6e <HAL_DMA_IRQHandler+0x1a6>
24053c66:	3118      	adds	r1, #24
24053c68:	428b      	cmp	r3, r1
24053c6a:	f040 8085 	bne.w	24053d78 <HAL_DMA_IRQHandler+0x2b0>
24053c6e:	6959      	ldr	r1, [r3, #20]
24053c70:	0609      	lsls	r1, r1, #24
24053c72:	f100 8083 	bmi.w	24053d7c <HAL_DMA_IRQHandler+0x2b4>
24053c76:	2104      	movs	r1, #4
24053c78:	4091      	lsls	r1, r2
24053c7a:	ea11 0f08 	tst.w	r1, r8
24053c7e:	d032      	beq.n	24053ce6 <HAL_DMA_IRQHandler+0x21e>
24053c80:	42b3      	cmp	r3, r6
24053c82:	d02d      	beq.n	24053ce0 <HAL_DMA_IRQHandler+0x218>
24053c84:	4849      	ldr	r0, [pc, #292]	; (24053dac <HAL_DMA_IRQHandler+0x2e4>)
24053c86:	4283      	cmp	r3, r0
24053c88:	d02a      	beq.n	24053ce0 <HAL_DMA_IRQHandler+0x218>
24053c8a:	3018      	adds	r0, #24
24053c8c:	4283      	cmp	r3, r0
24053c8e:	d027      	beq.n	24053ce0 <HAL_DMA_IRQHandler+0x218>
24053c90:	3018      	adds	r0, #24
24053c92:	4283      	cmp	r3, r0
24053c94:	d024      	beq.n	24053ce0 <HAL_DMA_IRQHandler+0x218>
24053c96:	3018      	adds	r0, #24
24053c98:	4283      	cmp	r3, r0
24053c9a:	d021      	beq.n	24053ce0 <HAL_DMA_IRQHandler+0x218>
24053c9c:	3018      	adds	r0, #24
24053c9e:	4283      	cmp	r3, r0
24053ca0:	d01e      	beq.n	24053ce0 <HAL_DMA_IRQHandler+0x218>
24053ca2:	3018      	adds	r0, #24
24053ca4:	4283      	cmp	r3, r0
24053ca6:	d01b      	beq.n	24053ce0 <HAL_DMA_IRQHandler+0x218>
24053ca8:	3018      	adds	r0, #24
24053caa:	4283      	cmp	r3, r0
24053cac:	d018      	beq.n	24053ce0 <HAL_DMA_IRQHandler+0x218>
24053cae:	f500 7056 	add.w	r0, r0, #856	; 0x358
24053cb2:	4283      	cmp	r3, r0
24053cb4:	d014      	beq.n	24053ce0 <HAL_DMA_IRQHandler+0x218>
24053cb6:	3018      	adds	r0, #24
24053cb8:	4283      	cmp	r3, r0
24053cba:	d011      	beq.n	24053ce0 <HAL_DMA_IRQHandler+0x218>
24053cbc:	3018      	adds	r0, #24
24053cbe:	4283      	cmp	r3, r0
24053cc0:	d00e      	beq.n	24053ce0 <HAL_DMA_IRQHandler+0x218>
24053cc2:	3018      	adds	r0, #24
24053cc4:	4283      	cmp	r3, r0
24053cc6:	d00b      	beq.n	24053ce0 <HAL_DMA_IRQHandler+0x218>
24053cc8:	3018      	adds	r0, #24
24053cca:	4283      	cmp	r3, r0
24053ccc:	d008      	beq.n	24053ce0 <HAL_DMA_IRQHandler+0x218>
24053cce:	3018      	adds	r0, #24
24053cd0:	4283      	cmp	r3, r0
24053cd2:	d005      	beq.n	24053ce0 <HAL_DMA_IRQHandler+0x218>
24053cd4:	3018      	adds	r0, #24
24053cd6:	4283      	cmp	r3, r0
24053cd8:	d002      	beq.n	24053ce0 <HAL_DMA_IRQHandler+0x218>
24053cda:	3018      	adds	r0, #24
24053cdc:	4283      	cmp	r3, r0
24053cde:	d155      	bne.n	24053d8c <HAL_DMA_IRQHandler+0x2c4>
24053ce0:	6818      	ldr	r0, [r3, #0]
24053ce2:	0780      	lsls	r0, r0, #30
24053ce4:	d454      	bmi.n	24053d90 <HAL_DMA_IRQHandler+0x2c8>
24053ce6:	2110      	movs	r1, #16
24053ce8:	fa01 f202 	lsl.w	r2, r1, r2
24053cec:	ea12 0f08 	tst.w	r2, r8
24053cf0:	d064      	beq.n	24053dbc <HAL_DMA_IRQHandler+0x2f4>
24053cf2:	42b3      	cmp	r3, r6
24053cf4:	d02d      	beq.n	24053d52 <HAL_DMA_IRQHandler+0x28a>
24053cf6:	492d      	ldr	r1, [pc, #180]	; (24053dac <HAL_DMA_IRQHandler+0x2e4>)
24053cf8:	428b      	cmp	r3, r1
24053cfa:	d02a      	beq.n	24053d52 <HAL_DMA_IRQHandler+0x28a>
24053cfc:	3118      	adds	r1, #24
24053cfe:	428b      	cmp	r3, r1
24053d00:	d027      	beq.n	24053d52 <HAL_DMA_IRQHandler+0x28a>
24053d02:	3118      	adds	r1, #24
24053d04:	428b      	cmp	r3, r1
24053d06:	d024      	beq.n	24053d52 <HAL_DMA_IRQHandler+0x28a>
24053d08:	3118      	adds	r1, #24
24053d0a:	428b      	cmp	r3, r1
24053d0c:	d021      	beq.n	24053d52 <HAL_DMA_IRQHandler+0x28a>
24053d0e:	3118      	adds	r1, #24
24053d10:	428b      	cmp	r3, r1
24053d12:	d01e      	beq.n	24053d52 <HAL_DMA_IRQHandler+0x28a>
24053d14:	3118      	adds	r1, #24
24053d16:	428b      	cmp	r3, r1
24053d18:	d01b      	beq.n	24053d52 <HAL_DMA_IRQHandler+0x28a>
24053d1a:	3118      	adds	r1, #24
24053d1c:	428b      	cmp	r3, r1
24053d1e:	d018      	beq.n	24053d52 <HAL_DMA_IRQHandler+0x28a>
24053d20:	f501 7156 	add.w	r1, r1, #856	; 0x358
24053d24:	428b      	cmp	r3, r1
24053d26:	d014      	beq.n	24053d52 <HAL_DMA_IRQHandler+0x28a>
24053d28:	3118      	adds	r1, #24
24053d2a:	428b      	cmp	r3, r1
24053d2c:	d011      	beq.n	24053d52 <HAL_DMA_IRQHandler+0x28a>
24053d2e:	3118      	adds	r1, #24
24053d30:	428b      	cmp	r3, r1
24053d32:	d00e      	beq.n	24053d52 <HAL_DMA_IRQHandler+0x28a>
24053d34:	3118      	adds	r1, #24
24053d36:	428b      	cmp	r3, r1
24053d38:	d00b      	beq.n	24053d52 <HAL_DMA_IRQHandler+0x28a>
24053d3a:	3118      	adds	r1, #24
24053d3c:	428b      	cmp	r3, r1
24053d3e:	d008      	beq.n	24053d52 <HAL_DMA_IRQHandler+0x28a>
24053d40:	3118      	adds	r1, #24
24053d42:	428b      	cmp	r3, r1
24053d44:	d005      	beq.n	24053d52 <HAL_DMA_IRQHandler+0x28a>
24053d46:	3118      	adds	r1, #24
24053d48:	428b      	cmp	r3, r1
24053d4a:	d002      	beq.n	24053d52 <HAL_DMA_IRQHandler+0x28a>
24053d4c:	3118      	adds	r1, #24
24053d4e:	428b      	cmp	r3, r1
24053d50:	d124      	bne.n	24053d9c <HAL_DMA_IRQHandler+0x2d4>
24053d52:	6819      	ldr	r1, [r3, #0]
24053d54:	f3c1 01c0 	ubfx	r1, r1, #3, #1
24053d58:	2900      	cmp	r1, #0
24053d5a:	d02f      	beq.n	24053dbc <HAL_DMA_IRQHandler+0x2f4>
24053d5c:	60aa      	str	r2, [r5, #8]
24053d5e:	681a      	ldr	r2, [r3, #0]
24053d60:	0350      	lsls	r0, r2, #13
24053d62:	f140 8091 	bpl.w	24053e88 <HAL_DMA_IRQHandler+0x3c0>
24053d66:	681b      	ldr	r3, [r3, #0]
24053d68:	0319      	lsls	r1, r3, #12
24053d6a:	d423      	bmi.n	24053db4 <HAL_DMA_IRQHandler+0x2ec>
24053d6c:	6c23      	ldr	r3, [r4, #64]	; 0x40
24053d6e:	e022      	b.n	24053db6 <HAL_DMA_IRQHandler+0x2ee>
24053d70:	6819      	ldr	r1, [r3, #0]
24053d72:	f3c1 01c0 	ubfx	r1, r1, #3, #1
24053d76:	e73b      	b.n	24053bf0 <HAL_DMA_IRQHandler+0x128>
24053d78:	6819      	ldr	r1, [r3, #0]
24053d7a:	e77c      	b.n	24053c76 <HAL_DMA_IRQHandler+0x1ae>
24053d7c:	2101      	movs	r1, #1
24053d7e:	4091      	lsls	r1, r2
24053d80:	60a9      	str	r1, [r5, #8]
24053d82:	6d61      	ldr	r1, [r4, #84]	; 0x54
24053d84:	f041 0102 	orr.w	r1, r1, #2
24053d88:	6561      	str	r1, [r4, #84]	; 0x54
24053d8a:	e774      	b.n	24053c76 <HAL_DMA_IRQHandler+0x1ae>
24053d8c:	6819      	ldr	r1, [r3, #0]
24053d8e:	e7aa      	b.n	24053ce6 <HAL_DMA_IRQHandler+0x21e>
24053d90:	60a9      	str	r1, [r5, #8]
24053d92:	6d61      	ldr	r1, [r4, #84]	; 0x54
24053d94:	f041 0104 	orr.w	r1, r1, #4
24053d98:	6561      	str	r1, [r4, #84]	; 0x54
24053d9a:	e7a4      	b.n	24053ce6 <HAL_DMA_IRQHandler+0x21e>
24053d9c:	6819      	ldr	r1, [r3, #0]
24053d9e:	f3c1 0180 	ubfx	r1, r1, #2, #1
24053da2:	e7d9      	b.n	24053d58 <HAL_DMA_IRQHandler+0x290>
24053da4:	20000030 	.word	0x20000030
24053da8:	40020010 	.word	0x40020010
24053dac:	40020028 	.word	0x40020028
24053db0:	48022c08 	.word	0x48022c08
24053db4:	6ca3      	ldr	r3, [r4, #72]	; 0x48
24053db6:	b10b      	cbz	r3, 24053dbc <HAL_DMA_IRQHandler+0x2f4>
24053db8:	4620      	mov	r0, r4
24053dba:	4798      	blx	r3
24053dbc:	6de1      	ldr	r1, [r4, #92]	; 0x5c
24053dbe:	2020      	movs	r0, #32
24053dc0:	f001 011f 	and.w	r1, r1, #31
24053dc4:	4088      	lsls	r0, r1
24053dc6:	ea10 0f08 	tst.w	r0, r8
24053dca:	d073      	beq.n	24053eb4 <HAL_DMA_IRQHandler+0x3ec>
24053dcc:	6823      	ldr	r3, [r4, #0]
24053dce:	42b3      	cmp	r3, r6
24053dd0:	d02d      	beq.n	24053e2e <HAL_DMA_IRQHandler+0x366>
24053dd2:	4a9e      	ldr	r2, [pc, #632]	; (2405404c <HAL_DMA_IRQHandler+0x584>)
24053dd4:	4293      	cmp	r3, r2
24053dd6:	d02a      	beq.n	24053e2e <HAL_DMA_IRQHandler+0x366>
24053dd8:	3218      	adds	r2, #24
24053dda:	4293      	cmp	r3, r2
24053ddc:	d027      	beq.n	24053e2e <HAL_DMA_IRQHandler+0x366>
24053dde:	3218      	adds	r2, #24
24053de0:	4293      	cmp	r3, r2
24053de2:	d024      	beq.n	24053e2e <HAL_DMA_IRQHandler+0x366>
24053de4:	3218      	adds	r2, #24
24053de6:	4293      	cmp	r3, r2
24053de8:	d021      	beq.n	24053e2e <HAL_DMA_IRQHandler+0x366>
24053dea:	3218      	adds	r2, #24
24053dec:	4293      	cmp	r3, r2
24053dee:	d01e      	beq.n	24053e2e <HAL_DMA_IRQHandler+0x366>
24053df0:	3218      	adds	r2, #24
24053df2:	4293      	cmp	r3, r2
24053df4:	d01b      	beq.n	24053e2e <HAL_DMA_IRQHandler+0x366>
24053df6:	3218      	adds	r2, #24
24053df8:	4293      	cmp	r3, r2
24053dfa:	d018      	beq.n	24053e2e <HAL_DMA_IRQHandler+0x366>
24053dfc:	f502 7256 	add.w	r2, r2, #856	; 0x358
24053e00:	4293      	cmp	r3, r2
24053e02:	d014      	beq.n	24053e2e <HAL_DMA_IRQHandler+0x366>
24053e04:	3218      	adds	r2, #24
24053e06:	4293      	cmp	r3, r2
24053e08:	d011      	beq.n	24053e2e <HAL_DMA_IRQHandler+0x366>
24053e0a:	3218      	adds	r2, #24
24053e0c:	4293      	cmp	r3, r2
24053e0e:	d00e      	beq.n	24053e2e <HAL_DMA_IRQHandler+0x366>
24053e10:	3218      	adds	r2, #24
24053e12:	4293      	cmp	r3, r2
24053e14:	d00b      	beq.n	24053e2e <HAL_DMA_IRQHandler+0x366>
24053e16:	3218      	adds	r2, #24
24053e18:	4293      	cmp	r3, r2
24053e1a:	d008      	beq.n	24053e2e <HAL_DMA_IRQHandler+0x366>
24053e1c:	3218      	adds	r2, #24
24053e1e:	4293      	cmp	r3, r2
24053e20:	d005      	beq.n	24053e2e <HAL_DMA_IRQHandler+0x366>
24053e22:	3218      	adds	r2, #24
24053e24:	4293      	cmp	r3, r2
24053e26:	d002      	beq.n	24053e2e <HAL_DMA_IRQHandler+0x366>
24053e28:	3218      	adds	r2, #24
24053e2a:	4293      	cmp	r3, r2
24053e2c:	d135      	bne.n	24053e9a <HAL_DMA_IRQHandler+0x3d2>
24053e2e:	681a      	ldr	r2, [r3, #0]
24053e30:	f3c2 1200 	ubfx	r2, r2, #4, #1
24053e34:	2a00      	cmp	r2, #0
24053e36:	d03d      	beq.n	24053eb4 <HAL_DMA_IRQHandler+0x3ec>
24053e38:	60a8      	str	r0, [r5, #8]
24053e3a:	f894 2035 	ldrb.w	r2, [r4, #53]	; 0x35
24053e3e:	2a04      	cmp	r2, #4
24053e40:	681a      	ldr	r2, [r3, #0]
24053e42:	d12e      	bne.n	24053ea2 <HAL_DMA_IRQHandler+0x3da>
24053e44:	f022 0216 	bic.w	r2, r2, #22
24053e48:	601a      	str	r2, [r3, #0]
24053e4a:	695a      	ldr	r2, [r3, #20]
24053e4c:	f022 0280 	bic.w	r2, r2, #128	; 0x80
24053e50:	615a      	str	r2, [r3, #20]
24053e52:	6c22      	ldr	r2, [r4, #64]	; 0x40
24053e54:	b90a      	cbnz	r2, 24053e5a <HAL_DMA_IRQHandler+0x392>
24053e56:	6ca2      	ldr	r2, [r4, #72]	; 0x48
24053e58:	b11a      	cbz	r2, 24053e62 <HAL_DMA_IRQHandler+0x39a>
24053e5a:	681a      	ldr	r2, [r3, #0]
24053e5c:	f022 0208 	bic.w	r2, r2, #8
24053e60:	601a      	str	r2, [r3, #0]
24053e62:	233f      	movs	r3, #63	; 0x3f
24053e64:	fa03 f101 	lsl.w	r1, r3, r1
24053e68:	2301      	movs	r3, #1
24053e6a:	60a9      	str	r1, [r5, #8]
24053e6c:	f884 3035 	strb.w	r3, [r4, #53]	; 0x35
24053e70:	2300      	movs	r3, #0
24053e72:	f884 3034 	strb.w	r3, [r4, #52]	; 0x34
24053e76:	6d23      	ldr	r3, [r4, #80]	; 0x50
24053e78:	2b00      	cmp	r3, #0
24053e7a:	f000 80ae 	beq.w	24053fda <HAL_DMA_IRQHandler+0x512>
24053e7e:	4620      	mov	r0, r4
24053e80:	b002      	add	sp, #8
24053e82:	e8bd 41f0 	ldmia.w	sp!, {r4, r5, r6, r7, r8, lr}
24053e86:	4718      	bx	r3
24053e88:	681a      	ldr	r2, [r3, #0]
24053e8a:	05d2      	lsls	r2, r2, #23
24053e8c:	f53f af6e 	bmi.w	24053d6c <HAL_DMA_IRQHandler+0x2a4>
24053e90:	681a      	ldr	r2, [r3, #0]
24053e92:	f022 0208 	bic.w	r2, r2, #8
24053e96:	601a      	str	r2, [r3, #0]
24053e98:	e768      	b.n	24053d6c <HAL_DMA_IRQHandler+0x2a4>
24053e9a:	681a      	ldr	r2, [r3, #0]
24053e9c:	f3c2 0240 	ubfx	r2, r2, #1, #1
24053ea0:	e7c8      	b.n	24053e34 <HAL_DMA_IRQHandler+0x36c>
24053ea2:	0355      	lsls	r5, r2, #13
24053ea4:	d54e      	bpl.n	24053f44 <HAL_DMA_IRQHandler+0x47c>
24053ea6:	681b      	ldr	r3, [r3, #0]
24053ea8:	0318      	lsls	r0, r3, #12
24053eaa:	d458      	bmi.n	24053f5e <HAL_DMA_IRQHandler+0x496>
24053eac:	6c63      	ldr	r3, [r4, #68]	; 0x44
24053eae:	b10b      	cbz	r3, 24053eb4 <HAL_DMA_IRQHandler+0x3ec>
24053eb0:	4620      	mov	r0, r4
24053eb2:	4798      	blx	r3
24053eb4:	6d63      	ldr	r3, [r4, #84]	; 0x54
24053eb6:	2b00      	cmp	r3, #0
24053eb8:	f000 808f 	beq.w	24053fda <HAL_DMA_IRQHandler+0x512>
24053ebc:	6d63      	ldr	r3, [r4, #84]	; 0x54
24053ebe:	07d9      	lsls	r1, r3, #31
24053ec0:	d53e      	bpl.n	24053f40 <HAL_DMA_IRQHandler+0x478>
24053ec2:	2304      	movs	r3, #4
24053ec4:	f884 3035 	strb.w	r3, [r4, #53]	; 0x35
24053ec8:	6823      	ldr	r3, [r4, #0]
24053eca:	42b3      	cmp	r3, r6
24053ecc:	d01e      	beq.n	24053f0c <HAL_DMA_IRQHandler+0x444>
24053ece:	4a5f      	ldr	r2, [pc, #380]	; (2405404c <HAL_DMA_IRQHandler+0x584>)
24053ed0:	4293      	cmp	r3, r2
24053ed2:	d01b      	beq.n	24053f0c <HAL_DMA_IRQHandler+0x444>
24053ed4:	3218      	adds	r2, #24
24053ed6:	4293      	cmp	r3, r2
24053ed8:	d018      	beq.n	24053f0c <HAL_DMA_IRQHandler+0x444>
24053eda:	3218      	adds	r2, #24
24053edc:	4293      	cmp	r3, r2
24053ede:	d015      	beq.n	24053f0c <HAL_DMA_IRQHandler+0x444>
24053ee0:	3218      	adds	r2, #24
24053ee2:	4293      	cmp	r3, r2
24053ee4:	d012      	beq.n	24053f0c <HAL_DMA_IRQHandler+0x444>
24053ee6:	3218      	adds	r2, #24
24053ee8:	4293      	cmp	r3, r2
24053eea:	d00f      	beq.n	24053f0c <HAL_DMA_IRQHandler+0x444>
24053eec:	3218      	adds	r2, #24
24053eee:	4293      	cmp	r3, r2
24053ef0:	d00c      	beq.n	24053f0c <HAL_DMA_IRQHandler+0x444>
24053ef2:	3218      	adds	r2, #24
24053ef4:	4293      	cmp	r3, r2
24053ef6:	d009      	beq.n	24053f0c <HAL_DMA_IRQHandler+0x444>
24053ef8:	f502 7256 	add.w	r2, r2, #856	; 0x358
24053efc:	4293      	cmp	r3, r2
24053efe:	d005      	beq.n	24053f0c <HAL_DMA_IRQHandler+0x444>
24053f00:	3218      	adds	r2, #24
24053f02:	4293      	cmp	r3, r2
24053f04:	d002      	beq.n	24053f0c <HAL_DMA_IRQHandler+0x444>
24053f06:	3218      	adds	r2, #24
24053f08:	4293      	cmp	r3, r2
24053f0a:	d0ff      	beq.n	24053f0c <HAL_DMA_IRQHandler+0x444>
24053f0c:	681a      	ldr	r2, [r3, #0]
24053f0e:	f022 0201 	bic.w	r2, r2, #1
24053f12:	601a      	str	r2, [r3, #0]
24053f14:	f44f 5216 	mov.w	r2, #9600	; 0x2580
24053f18:	fbb7 f7f2 	udiv	r7, r7, r2
24053f1c:	9a01      	ldr	r2, [sp, #4]
24053f1e:	3201      	adds	r2, #1
24053f20:	42ba      	cmp	r2, r7
24053f22:	9201      	str	r2, [sp, #4]
24053f24:	d802      	bhi.n	24053f2c <HAL_DMA_IRQHandler+0x464>
24053f26:	681a      	ldr	r2, [r3, #0]
24053f28:	07d2      	lsls	r2, r2, #31
24053f2a:	d4f7      	bmi.n	24053f1c <HAL_DMA_IRQHandler+0x454>
24053f2c:	681b      	ldr	r3, [r3, #0]
24053f2e:	07df      	lsls	r7, r3, #31
24053f30:	bf4c      	ite	mi
24053f32:	2303      	movmi	r3, #3
24053f34:	2301      	movpl	r3, #1
24053f36:	f884 3035 	strb.w	r3, [r4, #53]	; 0x35
24053f3a:	2300      	movs	r3, #0
24053f3c:	f884 3034 	strb.w	r3, [r4, #52]	; 0x34
24053f40:	6ce3      	ldr	r3, [r4, #76]	; 0x4c
24053f42:	e799      	b.n	24053e78 <HAL_DMA_IRQHandler+0x3b0>
24053f44:	681a      	ldr	r2, [r3, #0]
24053f46:	f412 7280 	ands.w	r2, r2, #256	; 0x100
24053f4a:	d108      	bne.n	24053f5e <HAL_DMA_IRQHandler+0x496>
24053f4c:	6819      	ldr	r1, [r3, #0]
24053f4e:	f021 0110 	bic.w	r1, r1, #16
24053f52:	6019      	str	r1, [r3, #0]
24053f54:	2301      	movs	r3, #1
24053f56:	f884 2034 	strb.w	r2, [r4, #52]	; 0x34
24053f5a:	f884 3035 	strb.w	r3, [r4, #53]	; 0x35
24053f5e:	6be3      	ldr	r3, [r4, #60]	; 0x3c
24053f60:	e7a5      	b.n	24053eae <HAL_DMA_IRQHandler+0x3e6>
24053f62:	4a3b      	ldr	r2, [pc, #236]	; (24054050 <HAL_DMA_IRQHandler+0x588>)
24053f64:	4293      	cmp	r3, r2
24053f66:	f43f adf1 	beq.w	24053b4c <HAL_DMA_IRQHandler+0x84>
24053f6a:	3214      	adds	r2, #20
24053f6c:	4293      	cmp	r3, r2
24053f6e:	f43f aded 	beq.w	24053b4c <HAL_DMA_IRQHandler+0x84>
24053f72:	3214      	adds	r2, #20
24053f74:	4293      	cmp	r3, r2
24053f76:	f43f ade9 	beq.w	24053b4c <HAL_DMA_IRQHandler+0x84>
24053f7a:	3214      	adds	r2, #20
24053f7c:	4293      	cmp	r3, r2
24053f7e:	f43f ade5 	beq.w	24053b4c <HAL_DMA_IRQHandler+0x84>
24053f82:	3214      	adds	r2, #20
24053f84:	4293      	cmp	r3, r2
24053f86:	f43f ade1 	beq.w	24053b4c <HAL_DMA_IRQHandler+0x84>
24053f8a:	3214      	adds	r2, #20
24053f8c:	4293      	cmp	r3, r2
24053f8e:	f43f addd 	beq.w	24053b4c <HAL_DMA_IRQHandler+0x84>
24053f92:	3214      	adds	r2, #20
24053f94:	4293      	cmp	r3, r2
24053f96:	f43f add9 	beq.w	24053b4c <HAL_DMA_IRQHandler+0x84>
24053f9a:	4a2e      	ldr	r2, [pc, #184]	; (24054054 <HAL_DMA_IRQHandler+0x58c>)
24053f9c:	4293      	cmp	r3, r2
24053f9e:	f43f add5 	beq.w	24053b4c <HAL_DMA_IRQHandler+0x84>
24053fa2:	3214      	adds	r2, #20
24053fa4:	4293      	cmp	r3, r2
24053fa6:	f43f add1 	beq.w	24053b4c <HAL_DMA_IRQHandler+0x84>
24053faa:	3214      	adds	r2, #20
24053fac:	4293      	cmp	r3, r2
24053fae:	f43f adcd 	beq.w	24053b4c <HAL_DMA_IRQHandler+0x84>
24053fb2:	3214      	adds	r2, #20
24053fb4:	4293      	cmp	r3, r2
24053fb6:	f43f adc9 	beq.w	24053b4c <HAL_DMA_IRQHandler+0x84>
24053fba:	3214      	adds	r2, #20
24053fbc:	4293      	cmp	r3, r2
24053fbe:	f43f adc5 	beq.w	24053b4c <HAL_DMA_IRQHandler+0x84>
24053fc2:	3214      	adds	r2, #20
24053fc4:	4293      	cmp	r3, r2
24053fc6:	f43f adc1 	beq.w	24053b4c <HAL_DMA_IRQHandler+0x84>
24053fca:	3214      	adds	r2, #20
24053fcc:	4293      	cmp	r3, r2
24053fce:	f43f adbd 	beq.w	24053b4c <HAL_DMA_IRQHandler+0x84>
24053fd2:	3214      	adds	r2, #20
24053fd4:	4293      	cmp	r3, r2
24053fd6:	f43f adb9 	beq.w	24053b4c <HAL_DMA_IRQHandler+0x84>
24053fda:	b002      	add	sp, #8
24053fdc:	e8bd 81f0 	ldmia.w	sp!, {r4, r5, r6, r7, r8, pc}
24053fe0:	0697      	lsls	r7, r2, #26
24053fe2:	d403      	bmi.n	24053fec <HAL_DMA_IRQHandler+0x524>
24053fe4:	681a      	ldr	r2, [r3, #0]
24053fe6:	f022 0204 	bic.w	r2, r2, #4
24053fea:	601a      	str	r2, [r3, #0]
24053fec:	6c23      	ldr	r3, [r4, #64]	; 0x40
24053fee:	e743      	b.n	24053e78 <HAL_DMA_IRQHandler+0x3b0>
24053ff0:	2002      	movs	r0, #2
24053ff2:	4088      	lsls	r0, r1
24053ff4:	ea10 0f0c 	tst.w	r0, ip
24053ff8:	d016      	beq.n	24054028 <HAL_DMA_IRQHandler+0x560>
24053ffa:	0796      	lsls	r6, r2, #30
24053ffc:	d514      	bpl.n	24054028 <HAL_DMA_IRQHandler+0x560>
24053ffe:	6068      	str	r0, [r5, #4]
24054000:	0410      	lsls	r0, r2, #16
24054002:	d503      	bpl.n	2405400c <HAL_DMA_IRQHandler+0x544>
24054004:	03d1      	lsls	r1, r2, #15
24054006:	d40d      	bmi.n	24054024 <HAL_DMA_IRQHandler+0x55c>
24054008:	6c63      	ldr	r3, [r4, #68]	; 0x44
2405400a:	e735      	b.n	24053e78 <HAL_DMA_IRQHandler+0x3b0>
2405400c:	f012 0220 	ands.w	r2, r2, #32
24054010:	d108      	bne.n	24054024 <HAL_DMA_IRQHandler+0x55c>
24054012:	6819      	ldr	r1, [r3, #0]
24054014:	f021 010a 	bic.w	r1, r1, #10
24054018:	6019      	str	r1, [r3, #0]
2405401a:	2301      	movs	r3, #1
2405401c:	f884 2034 	strb.w	r2, [r4, #52]	; 0x34
24054020:	f884 3035 	strb.w	r3, [r4, #53]	; 0x35
24054024:	6be3      	ldr	r3, [r4, #60]	; 0x3c
24054026:	e727      	b.n	24053e78 <HAL_DMA_IRQHandler+0x3b0>
24054028:	2008      	movs	r0, #8
2405402a:	4088      	lsls	r0, r1
2405402c:	ea10 0f0c 	tst.w	r0, ip
24054030:	d0d3      	beq.n	24053fda <HAL_DMA_IRQHandler+0x512>
24054032:	0712      	lsls	r2, r2, #28
24054034:	d5d1      	bpl.n	24053fda <HAL_DMA_IRQHandler+0x512>
24054036:	681a      	ldr	r2, [r3, #0]
24054038:	f022 020e 	bic.w	r2, r2, #14
2405403c:	601a      	str	r2, [r3, #0]
2405403e:	2301      	movs	r3, #1
24054040:	fa03 f101 	lsl.w	r1, r3, r1
24054044:	6069      	str	r1, [r5, #4]
24054046:	6563      	str	r3, [r4, #84]	; 0x54
24054048:	e775      	b.n	24053f36 <HAL_DMA_IRQHandler+0x46e>
2405404a:	bf00      	nop
2405404c:	40020028 	.word	0x40020028
24054050:	48022c1c 	.word	0x48022c1c
24054054:	58025408 	.word	0x58025408

24054058 <HAL_DMA_GetError>:
24054058:	6d40      	ldr	r0, [r0, #84]	; 0x54
2405405a:	4770      	bx	lr

2405405c <HAL_DMA2D_Init>:
2405405c:	b510      	push	{r4, lr}
2405405e:	4604      	mov	r4, r0
24054060:	2800      	cmp	r0, #0
24054062:	d036      	beq.n	240540d2 <HAL_DMA2D_Init+0x76>
24054064:	f890 3061 	ldrb.w	r3, [r0, #97]	; 0x61
24054068:	f003 02ff 	and.w	r2, r3, #255	; 0xff
2405406c:	b91b      	cbnz	r3, 24054076 <HAL_DMA2D_Init+0x1a>
2405406e:	f880 2060 	strb.w	r2, [r0, #96]	; 0x60
24054072:	f7fd fad9 	bl	24051628 <HAL_DMA2D_MspInit>
24054076:	2302      	movs	r3, #2
24054078:	69e0      	ldr	r0, [r4, #28]
2405407a:	6862      	ldr	r2, [r4, #4]
2405407c:	f884 3061 	strb.w	r3, [r4, #97]	; 0x61
24054080:	6823      	ldr	r3, [r4, #0]
24054082:	4302      	orrs	r2, r0
24054084:	69a0      	ldr	r0, [r4, #24]
24054086:	6819      	ldr	r1, [r3, #0]
24054088:	f421 21e0 	bic.w	r1, r1, #458752	; 0x70000
2405408c:	f021 0140 	bic.w	r1, r1, #64	; 0x40
24054090:	430a      	orrs	r2, r1
24054092:	601a      	str	r2, [r3, #0]
24054094:	6b59      	ldr	r1, [r3, #52]	; 0x34
24054096:	68a2      	ldr	r2, [r4, #8]
24054098:	f421 7183 	bic.w	r1, r1, #262	; 0x106
2405409c:	4302      	orrs	r2, r0
2405409e:	f021 0101 	bic.w	r1, r1, #1
240540a2:	430a      	orrs	r2, r1
240540a4:	68e1      	ldr	r1, [r4, #12]
240540a6:	635a      	str	r2, [r3, #52]	; 0x34
240540a8:	6c1a      	ldr	r2, [r3, #64]	; 0x40
240540aa:	0c12      	lsrs	r2, r2, #16
240540ac:	0412      	lsls	r2, r2, #16
240540ae:	430a      	orrs	r2, r1
240540b0:	641a      	str	r2, [r3, #64]	; 0x40
240540b2:	6b59      	ldr	r1, [r3, #52]	; 0x34
240540b4:	e9d4 0204 	ldrd	r0, r2, [r4, #16]
240540b8:	f421 1140 	bic.w	r1, r1, #3145728	; 0x300000
240540bc:	0552      	lsls	r2, r2, #21
240540be:	ea42 5200 	orr.w	r2, r2, r0, lsl #20
240540c2:	2000      	movs	r0, #0
240540c4:	430a      	orrs	r2, r1
240540c6:	635a      	str	r2, [r3, #52]	; 0x34
240540c8:	2301      	movs	r3, #1
240540ca:	6660      	str	r0, [r4, #100]	; 0x64
240540cc:	f884 3061 	strb.w	r3, [r4, #97]	; 0x61
240540d0:	bd10      	pop	{r4, pc}
240540d2:	2001      	movs	r0, #1
240540d4:	e7fc      	b.n	240540d0 <HAL_DMA2D_Init+0x74>
	...

240540d8 <HAL_GPIO_Init>:
240540d8:	e92d 4ff7 	stmdb	sp!, {r0, r1, r2, r4, r5, r6, r7, r8, r9, sl, fp, lr}
240540dc:	2300      	movs	r3, #0
240540de:	f04f 49b0 	mov.w	r9, #1476395008	; 0x58000000
240540e2:	f8df e1c8 	ldr.w	lr, [pc, #456]	; 240542ac <HAL_GPIO_Init+0x1d4>
240540e6:	680a      	ldr	r2, [r1, #0]
240540e8:	fa32 f403 	lsrs.w	r4, r2, r3
240540ec:	d102      	bne.n	240540f4 <HAL_GPIO_Init+0x1c>
240540ee:	b003      	add	sp, #12
240540f0:	e8bd 8ff0 	ldmia.w	sp!, {r4, r5, r6, r7, r8, r9, sl, fp, pc}
240540f4:	f04f 0c01 	mov.w	ip, #1
240540f8:	fa0c fc03 	lsl.w	ip, ip, r3
240540fc:	ea1c 0202 	ands.w	r2, ip, r2
24054100:	f000 80bb 	beq.w	2405427a <HAL_GPIO_Init+0x1a2>
24054104:	684d      	ldr	r5, [r1, #4]
24054106:	ea4f 0843 	mov.w	r8, r3, lsl #1
2405410a:	2603      	movs	r6, #3
2405410c:	f005 0403 	and.w	r4, r5, #3
24054110:	fa06 f608 	lsl.w	r6, r6, r8
24054114:	1e67      	subs	r7, r4, #1
24054116:	43f6      	mvns	r6, r6
24054118:	2f01      	cmp	r7, #1
2405411a:	d834      	bhi.n	24054186 <HAL_GPIO_Init+0xae>
2405411c:	6887      	ldr	r7, [r0, #8]
2405411e:	ea07 0a06 	and.w	sl, r7, r6
24054122:	68cf      	ldr	r7, [r1, #12]
24054124:	fa07 f708 	lsl.w	r7, r7, r8
24054128:	ea47 070a 	orr.w	r7, r7, sl
2405412c:	6087      	str	r7, [r0, #8]
2405412e:	6847      	ldr	r7, [r0, #4]
24054130:	ea27 0c0c 	bic.w	ip, r7, ip
24054134:	f3c5 1700 	ubfx	r7, r5, #4, #1
24054138:	409f      	lsls	r7, r3
2405413a:	ea47 070c 	orr.w	r7, r7, ip
2405413e:	6047      	str	r7, [r0, #4]
24054140:	68c7      	ldr	r7, [r0, #12]
24054142:	2c02      	cmp	r4, #2
24054144:	ea07 0c06 	and.w	ip, r7, r6
24054148:	688f      	ldr	r7, [r1, #8]
2405414a:	fa07 f708 	lsl.w	r7, r7, r8
2405414e:	ea47 070c 	orr.w	r7, r7, ip
24054152:	60c7      	str	r7, [r0, #12]
24054154:	d119      	bne.n	2405418a <HAL_GPIO_Init+0xb2>
24054156:	ea4f 0ad3 	mov.w	sl, r3, lsr #3
2405415a:	f003 0b07 	and.w	fp, r3, #7
2405415e:	f04f 0c0f 	mov.w	ip, #15
24054162:	eb00 0a8a 	add.w	sl, r0, sl, lsl #2
24054166:	ea4f 0b8b 	mov.w	fp, fp, lsl #2
2405416a:	f8da 7020 	ldr.w	r7, [sl, #32]
2405416e:	fa0c fc0b 	lsl.w	ip, ip, fp
24054172:	ea27 0c0c 	bic.w	ip, r7, ip
24054176:	690f      	ldr	r7, [r1, #16]
24054178:	fa07 f70b 	lsl.w	r7, r7, fp
2405417c:	ea47 070c 	orr.w	r7, r7, ip
24054180:	f8ca 7020 	str.w	r7, [sl, #32]
24054184:	e001      	b.n	2405418a <HAL_GPIO_Init+0xb2>
24054186:	2c03      	cmp	r4, #3
24054188:	d1da      	bne.n	24054140 <HAL_GPIO_Init+0x68>
2405418a:	6807      	ldr	r7, [r0, #0]
2405418c:	fa04 f408 	lsl.w	r4, r4, r8
24054190:	f415 3f40 	tst.w	r5, #196608	; 0x30000
24054194:	ea06 0607 	and.w	r6, r6, r7
24054198:	ea46 0604 	orr.w	r6, r6, r4
2405419c:	6006      	str	r6, [r0, #0]
2405419e:	d06c      	beq.n	2405427a <HAL_GPIO_Init+0x1a2>
240541a0:	4e40      	ldr	r6, [pc, #256]	; (240542a4 <HAL_GPIO_Init+0x1cc>)
240541a2:	f003 0703 	and.w	r7, r3, #3
240541a6:	f04f 0c0f 	mov.w	ip, #15
240541aa:	f8d6 4154 	ldr.w	r4, [r6, #340]	; 0x154
240541ae:	00bf      	lsls	r7, r7, #2
240541b0:	f044 0402 	orr.w	r4, r4, #2
240541b4:	f8c6 4154 	str.w	r4, [r6, #340]	; 0x154
240541b8:	f8d6 4154 	ldr.w	r4, [r6, #340]	; 0x154
240541bc:	f023 0603 	bic.w	r6, r3, #3
240541c0:	f106 46b0 	add.w	r6, r6, #1476395008	; 0x58000000
240541c4:	f004 0402 	and.w	r4, r4, #2
240541c8:	f506 6680 	add.w	r6, r6, #1024	; 0x400
240541cc:	9401      	str	r4, [sp, #4]
240541ce:	9c01      	ldr	r4, [sp, #4]
240541d0:	fa0c f407 	lsl.w	r4, ip, r7
240541d4:	f8d6 8008 	ldr.w	r8, [r6, #8]
240541d8:	ea28 0c04 	bic.w	ip, r8, r4
240541dc:	4c32      	ldr	r4, [pc, #200]	; (240542a8 <HAL_GPIO_Init+0x1d0>)
240541de:	42a0      	cmp	r0, r4
240541e0:	d04d      	beq.n	2405427e <HAL_GPIO_Init+0x1a6>
240541e2:	f504 6480 	add.w	r4, r4, #1024	; 0x400
240541e6:	42a0      	cmp	r0, r4
240541e8:	d04b      	beq.n	24054282 <HAL_GPIO_Init+0x1aa>
240541ea:	f504 6480 	add.w	r4, r4, #1024	; 0x400
240541ee:	42a0      	cmp	r0, r4
240541f0:	d049      	beq.n	24054286 <HAL_GPIO_Init+0x1ae>
240541f2:	f504 6480 	add.w	r4, r4, #1024	; 0x400
240541f6:	42a0      	cmp	r0, r4
240541f8:	d047      	beq.n	2405428a <HAL_GPIO_Init+0x1b2>
240541fa:	f504 6480 	add.w	r4, r4, #1024	; 0x400
240541fe:	42a0      	cmp	r0, r4
24054200:	d045      	beq.n	2405428e <HAL_GPIO_Init+0x1b6>
24054202:	f504 6480 	add.w	r4, r4, #1024	; 0x400
24054206:	42a0      	cmp	r0, r4
24054208:	d043      	beq.n	24054292 <HAL_GPIO_Init+0x1ba>
2405420a:	f504 6480 	add.w	r4, r4, #1024	; 0x400
2405420e:	42a0      	cmp	r0, r4
24054210:	d041      	beq.n	24054296 <HAL_GPIO_Init+0x1be>
24054212:	f504 6480 	add.w	r4, r4, #1024	; 0x400
24054216:	42a0      	cmp	r0, r4
24054218:	d03f      	beq.n	2405429a <HAL_GPIO_Init+0x1c2>
2405421a:	f504 6480 	add.w	r4, r4, #1024	; 0x400
2405421e:	42a0      	cmp	r0, r4
24054220:	d03d      	beq.n	2405429e <HAL_GPIO_Init+0x1c6>
24054222:	f504 6480 	add.w	r4, r4, #1024	; 0x400
24054226:	42a0      	cmp	r0, r4
24054228:	bf0c      	ite	eq
2405422a:	2409      	moveq	r4, #9
2405422c:	240a      	movne	r4, #10
2405422e:	40bc      	lsls	r4, r7
24054230:	02ef      	lsls	r7, r5, #11
24054232:	f04f 47b0 	mov.w	r7, #1476395008	; 0x58000000
24054236:	ea44 040c 	orr.w	r4, r4, ip
2405423a:	60b4      	str	r4, [r6, #8]
2405423c:	ea6f 0602 	mvn.w	r6, r2
24054240:	f8d9 4000 	ldr.w	r4, [r9]
24054244:	bf54      	ite	pl
24054246:	4034      	andpl	r4, r6
24054248:	4314      	orrmi	r4, r2
2405424a:	603c      	str	r4, [r7, #0]
2405424c:	687c      	ldr	r4, [r7, #4]
2405424e:	02af      	lsls	r7, r5, #10
24054250:	bf54      	ite	pl
24054252:	4034      	andpl	r4, r6
24054254:	4314      	orrmi	r4, r2
24054256:	03af      	lsls	r7, r5, #14
24054258:	f8c9 4004 	str.w	r4, [r9, #4]
2405425c:	f8de 4004 	ldr.w	r4, [lr, #4]
24054260:	bf54      	ite	pl
24054262:	4034      	andpl	r4, r6
24054264:	4314      	orrmi	r4, r2
24054266:	03ed      	lsls	r5, r5, #15
24054268:	f8ce 4004 	str.w	r4, [lr, #4]
2405426c:	f8de 4000 	ldr.w	r4, [lr]
24054270:	bf54      	ite	pl
24054272:	4034      	andpl	r4, r6
24054274:	4314      	orrmi	r4, r2
24054276:	f8ce 4000 	str.w	r4, [lr]
2405427a:	3301      	adds	r3, #1
2405427c:	e733      	b.n	240540e6 <HAL_GPIO_Init+0xe>
2405427e:	2400      	movs	r4, #0
24054280:	e7d5      	b.n	2405422e <HAL_GPIO_Init+0x156>
24054282:	2401      	movs	r4, #1
24054284:	e7d3      	b.n	2405422e <HAL_GPIO_Init+0x156>
24054286:	2402      	movs	r4, #2
24054288:	e7d1      	b.n	2405422e <HAL_GPIO_Init+0x156>
2405428a:	2403      	movs	r4, #3
2405428c:	e7cf      	b.n	2405422e <HAL_GPIO_Init+0x156>
2405428e:	2404      	movs	r4, #4
24054290:	e7cd      	b.n	2405422e <HAL_GPIO_Init+0x156>
24054292:	2405      	movs	r4, #5
24054294:	e7cb      	b.n	2405422e <HAL_GPIO_Init+0x156>
24054296:	2406      	movs	r4, #6
24054298:	e7c9      	b.n	2405422e <HAL_GPIO_Init+0x156>
2405429a:	2407      	movs	r4, #7
2405429c:	e7c7      	b.n	2405422e <HAL_GPIO_Init+0x156>
2405429e:	2408      	movs	r4, #8
240542a0:	e7c5      	b.n	2405422e <HAL_GPIO_Init+0x156>
240542a2:	bf00      	nop
240542a4:	58024400 	.word	0x58024400
240542a8:	58020000 	.word	0x58020000
240542ac:	58000080 	.word	0x58000080

240542b0 <HAL_GPIO_ReadPin>:
240542b0:	6903      	ldr	r3, [r0, #16]
240542b2:	4219      	tst	r1, r3
240542b4:	bf14      	ite	ne
240542b6:	2001      	movne	r0, #1
240542b8:	2000      	moveq	r0, #0
240542ba:	4770      	bx	lr

240542bc <HAL_GPIO_WritePin>:
240542bc:	b10a      	cbz	r2, 240542c2 <HAL_GPIO_WritePin+0x6>
240542be:	6181      	str	r1, [r0, #24]
240542c0:	4770      	bx	lr
240542c2:	0409      	lsls	r1, r1, #16
240542c4:	e7fb      	b.n	240542be <HAL_GPIO_WritePin+0x2>

240542c6 <LTDC_SetConfig>:
240542c6:	01d2      	lsls	r2, r2, #7
240542c8:	f8d1 c000 	ldr.w	ip, [r1]
240542cc:	e92d 43f0 	stmdb	sp!, {r4, r5, r6, r7, r8, r9, lr}
240542d0:	3284      	adds	r2, #132	; 0x84
240542d2:	6804      	ldr	r4, [r0, #0]
240542d4:	684f      	ldr	r7, [r1, #4]
240542d6:	f10c 0601 	add.w	r6, ip, #1
240542da:	18a3      	adds	r3, r4, r2
240542dc:	68e5      	ldr	r5, [r4, #12]
240542de:	f04f 0e00 	mov.w	lr, #0
240542e2:	f8d1 9018 	ldr.w	r9, [r1, #24]
240542e6:	6858      	ldr	r0, [r3, #4]
240542e8:	f3c5 450b 	ubfx	r5, r5, #16, #12
240542ec:	f400 4070 	and.w	r0, r0, #61440	; 0xf000
240542f0:	443d      	add	r5, r7
240542f2:	6058      	str	r0, [r3, #4]
240542f4:	68e0      	ldr	r0, [r4, #12]
240542f6:	f3c0 400b 	ubfx	r0, r0, #16, #12
240542fa:	4430      	add	r0, r6
240542fc:	ea40 4005 	orr.w	r0, r0, r5, lsl #16
24054300:	68cd      	ldr	r5, [r1, #12]
24054302:	6058      	str	r0, [r3, #4]
24054304:	68e0      	ldr	r0, [r4, #12]
24054306:	f3c0 000a 	ubfx	r0, r0, #0, #11
2405430a:	4405      	add	r5, r0
2405430c:	6898      	ldr	r0, [r3, #8]
2405430e:	f400 4070 	and.w	r0, r0, #61440	; 0xf000
24054312:	6098      	str	r0, [r3, #8]
24054314:	6888      	ldr	r0, [r1, #8]
24054316:	68e6      	ldr	r6, [r4, #12]
24054318:	3001      	adds	r0, #1
2405431a:	f3c6 060a 	ubfx	r6, r6, #0, #11
2405431e:	4430      	add	r0, r6
24054320:	690e      	ldr	r6, [r1, #16]
24054322:	ea40 4005 	orr.w	r0, r0, r5, lsl #16
24054326:	6098      	str	r0, [r3, #8]
24054328:	6918      	ldr	r0, [r3, #16]
2405432a:	f020 0007 	bic.w	r0, r0, #7
2405432e:	6118      	str	r0, [r3, #16]
24054330:	611e      	str	r6, [r3, #16]
24054332:	699d      	ldr	r5, [r3, #24]
24054334:	f891 0032 	ldrb.w	r0, [r1, #50]	; 0x32
24054338:	f891 8031 	ldrb.w	r8, [r1, #49]	; 0x31
2405433c:	f8c3 e018 	str.w	lr, [r3, #24]
24054340:	f891 5030 	ldrb.w	r5, [r1, #48]	; 0x30
24054344:	ea45 6509 	orr.w	r5, r5, r9, lsl #24
24054348:	ea45 2508 	orr.w	r5, r5, r8, lsl #8
2405434c:	ea45 4500 	orr.w	r5, r5, r0, lsl #16
24054350:	619d      	str	r5, [r3, #24]
24054352:	6958      	ldr	r0, [r3, #20]
24054354:	f020 00ff 	bic.w	r0, r0, #255	; 0xff
24054358:	6158      	str	r0, [r3, #20]
2405435a:	6948      	ldr	r0, [r1, #20]
2405435c:	6158      	str	r0, [r3, #20]
2405435e:	69d8      	ldr	r0, [r3, #28]
24054360:	f420 60e0 	bic.w	r0, r0, #1792	; 0x700
24054364:	f020 0007 	bic.w	r0, r0, #7
24054368:	61d8      	str	r0, [r3, #28]
2405436a:	e9d1 5007 	ldrd	r5, r0, [r1, #28]
2405436e:	4305      	orrs	r5, r0
24054370:	61dd      	str	r5, [r3, #28]
24054372:	6a98      	ldr	r0, [r3, #40]	; 0x28
24054374:	6a48      	ldr	r0, [r1, #36]	; 0x24
24054376:	f8c3 e028 	str.w	lr, [r3, #40]	; 0x28
2405437a:	6298      	str	r0, [r3, #40]	; 0x28
2405437c:	b31e      	cbz	r6, 240543c6 <LTDC_SetConfig+0x100>
2405437e:	2e01      	cmp	r6, #1
24054380:	d023      	beq.n	240543ca <LTDC_SetConfig+0x104>
24054382:	1eb0      	subs	r0, r6, #2
24054384:	2802      	cmp	r0, #2
24054386:	d922      	bls.n	240543ce <LTDC_SetConfig+0x108>
24054388:	2e07      	cmp	r6, #7
2405438a:	bf0c      	ite	eq
2405438c:	2002      	moveq	r0, #2
2405438e:	2001      	movne	r0, #1
24054390:	6add      	ldr	r5, [r3, #44]	; 0x2c
24054392:	eba7 070c 	sub.w	r7, r7, ip
24054396:	f005 25e0 	and.w	r5, r5, #3758153728	; 0xe000e000
2405439a:	62dd      	str	r5, [r3, #44]	; 0x2c
2405439c:	6a8d      	ldr	r5, [r1, #40]	; 0x28
2405439e:	6ac9      	ldr	r1, [r1, #44]	; 0x2c
240543a0:	4345      	muls	r5, r0
240543a2:	4378      	muls	r0, r7
240543a4:	3007      	adds	r0, #7
240543a6:	ea40 4005 	orr.w	r0, r0, r5, lsl #16
240543aa:	62d8      	str	r0, [r3, #44]	; 0x2c
240543ac:	6b18      	ldr	r0, [r3, #48]	; 0x30
240543ae:	f420 60ff 	bic.w	r0, r0, #2040	; 0x7f8
240543b2:	f020 0007 	bic.w	r0, r0, #7
240543b6:	6318      	str	r0, [r3, #48]	; 0x30
240543b8:	6319      	str	r1, [r3, #48]	; 0x30
240543ba:	58a3      	ldr	r3, [r4, r2]
240543bc:	f043 0301 	orr.w	r3, r3, #1
240543c0:	50a3      	str	r3, [r4, r2]
240543c2:	e8bd 83f0 	ldmia.w	sp!, {r4, r5, r6, r7, r8, r9, pc}
240543c6:	2004      	movs	r0, #4
240543c8:	e7e2      	b.n	24054390 <LTDC_SetConfig+0xca>
240543ca:	2003      	movs	r0, #3
240543cc:	e7e0      	b.n	24054390 <LTDC_SetConfig+0xca>
240543ce:	2002      	movs	r0, #2
240543d0:	e7de      	b.n	24054390 <LTDC_SetConfig+0xca>
	...

240543d4 <HAL_LTDC_Init>:
240543d4:	b538      	push	{r3, r4, r5, lr}
240543d6:	4604      	mov	r4, r0
240543d8:	2800      	cmp	r0, #0
240543da:	d063      	beq.n	240544a4 <HAL_LTDC_Init+0xd0>
240543dc:	f890 30a1 	ldrb.w	r3, [r0, #161]	; 0xa1
240543e0:	f003 02ff 	and.w	r2, r3, #255	; 0xff
240543e4:	b91b      	cbnz	r3, 240543ee <HAL_LTDC_Init+0x1a>
240543e6:	f880 20a0 	strb.w	r2, [r0, #160]	; 0xa0
240543ea:	f7fd f935 	bl	24051658 <HAL_LTDC_MspInit>
240543ee:	2302      	movs	r3, #2
240543f0:	f884 30a1 	strb.w	r3, [r4, #161]	; 0xa1
240543f4:	6823      	ldr	r3, [r4, #0]
240543f6:	699a      	ldr	r2, [r3, #24]
240543f8:	f022 4270 	bic.w	r2, r2, #4026531840	; 0xf0000000
240543fc:	619a      	str	r2, [r3, #24]
240543fe:	6999      	ldr	r1, [r3, #24]
24054400:	e9d4 2001 	ldrd	r2, r0, [r4, #4]
24054404:	4302      	orrs	r2, r0
24054406:	68e0      	ldr	r0, [r4, #12]
24054408:	4302      	orrs	r2, r0
2405440a:	6920      	ldr	r0, [r4, #16]
2405440c:	4302      	orrs	r2, r0
2405440e:	6960      	ldr	r0, [r4, #20]
24054410:	430a      	orrs	r2, r1
24054412:	4925      	ldr	r1, [pc, #148]	; (240544a8 <HAL_LTDC_Init+0xd4>)
24054414:	619a      	str	r2, [r3, #24]
24054416:	689a      	ldr	r2, [r3, #8]
24054418:	400a      	ands	r2, r1
2405441a:	609a      	str	r2, [r3, #8]
2405441c:	689a      	ldr	r2, [r3, #8]
2405441e:	ea42 4200 	orr.w	r2, r2, r0, lsl #16
24054422:	69a0      	ldr	r0, [r4, #24]
24054424:	4302      	orrs	r2, r0
24054426:	69e0      	ldr	r0, [r4, #28]
24054428:	609a      	str	r2, [r3, #8]
2405442a:	68da      	ldr	r2, [r3, #12]
2405442c:	400a      	ands	r2, r1
2405442e:	60da      	str	r2, [r3, #12]
24054430:	68da      	ldr	r2, [r3, #12]
24054432:	ea42 4200 	orr.w	r2, r2, r0, lsl #16
24054436:	6a20      	ldr	r0, [r4, #32]
24054438:	4302      	orrs	r2, r0
2405443a:	6a60      	ldr	r0, [r4, #36]	; 0x24
2405443c:	60da      	str	r2, [r3, #12]
2405443e:	691a      	ldr	r2, [r3, #16]
24054440:	400a      	ands	r2, r1
24054442:	611a      	str	r2, [r3, #16]
24054444:	691a      	ldr	r2, [r3, #16]
24054446:	ea42 4200 	orr.w	r2, r2, r0, lsl #16
2405444a:	6aa0      	ldr	r0, [r4, #40]	; 0x28
2405444c:	4302      	orrs	r2, r0
2405444e:	611a      	str	r2, [r3, #16]
24054450:	695a      	ldr	r2, [r3, #20]
24054452:	4011      	ands	r1, r2
24054454:	6159      	str	r1, [r3, #20]
24054456:	6ae1      	ldr	r1, [r4, #44]	; 0x2c
24054458:	695a      	ldr	r2, [r3, #20]
2405445a:	ea42 4201 	orr.w	r2, r2, r1, lsl #16
2405445e:	6b21      	ldr	r1, [r4, #48]	; 0x30
24054460:	430a      	orrs	r2, r1
24054462:	615a      	str	r2, [r3, #20]
24054464:	6ad9      	ldr	r1, [r3, #44]	; 0x2c
24054466:	f894 0036 	ldrb.w	r0, [r4, #54]	; 0x36
2405446a:	f001 417f 	and.w	r1, r1, #4278190080	; 0xff000000
2405446e:	f894 5035 	ldrb.w	r5, [r4, #53]	; 0x35
24054472:	62d9      	str	r1, [r3, #44]	; 0x2c
24054474:	6ad9      	ldr	r1, [r3, #44]	; 0x2c
24054476:	f894 2034 	ldrb.w	r2, [r4, #52]	; 0x34
2405447a:	430a      	orrs	r2, r1
2405447c:	ea42 2205 	orr.w	r2, r2, r5, lsl #8
24054480:	ea42 4200 	orr.w	r2, r2, r0, lsl #16
24054484:	2000      	movs	r0, #0
24054486:	62da      	str	r2, [r3, #44]	; 0x2c
24054488:	6b5a      	ldr	r2, [r3, #52]	; 0x34
2405448a:	f042 0206 	orr.w	r2, r2, #6
2405448e:	635a      	str	r2, [r3, #52]	; 0x34
24054490:	699a      	ldr	r2, [r3, #24]
24054492:	f042 0201 	orr.w	r2, r2, #1
24054496:	619a      	str	r2, [r3, #24]
24054498:	2301      	movs	r3, #1
2405449a:	f8c4 00a4 	str.w	r0, [r4, #164]	; 0xa4
2405449e:	f884 30a1 	strb.w	r3, [r4, #161]	; 0xa1
240544a2:	bd38      	pop	{r3, r4, r5, pc}
240544a4:	2001      	movs	r0, #1
240544a6:	e7fc      	b.n	240544a2 <HAL_LTDC_Init+0xce>
240544a8:	f000f800 	.word	0xf000f800

240544ac <HAL_LTDC_ErrorCallback>:
240544ac:	4770      	bx	lr

240544ae <HAL_LTDC_LineEventCallback>:
240544ae:	4770      	bx	lr

240544b0 <HAL_LTDC_IRQHandler>:
240544b0:	6803      	ldr	r3, [r0, #0]
240544b2:	b570      	push	{r4, r5, r6, lr}
240544b4:	6b9e      	ldr	r6, [r3, #56]	; 0x38
240544b6:	4604      	mov	r4, r0
240544b8:	6b5d      	ldr	r5, [r3, #52]	; 0x34
240544ba:	0772      	lsls	r2, r6, #29
240544bc:	d514      	bpl.n	240544e8 <HAL_LTDC_IRQHandler+0x38>
240544be:	0769      	lsls	r1, r5, #29
240544c0:	d512      	bpl.n	240544e8 <HAL_LTDC_IRQHandler+0x38>
240544c2:	6b5a      	ldr	r2, [r3, #52]	; 0x34
240544c4:	f022 0204 	bic.w	r2, r2, #4
240544c8:	635a      	str	r2, [r3, #52]	; 0x34
240544ca:	2204      	movs	r2, #4
240544cc:	63da      	str	r2, [r3, #60]	; 0x3c
240544ce:	f8d0 30a4 	ldr.w	r3, [r0, #164]	; 0xa4
240544d2:	f043 0301 	orr.w	r3, r3, #1
240544d6:	f8c0 30a4 	str.w	r3, [r0, #164]	; 0xa4
240544da:	2300      	movs	r3, #0
240544dc:	f880 20a1 	strb.w	r2, [r0, #161]	; 0xa1
240544e0:	f880 30a0 	strb.w	r3, [r0, #160]	; 0xa0
240544e4:	f7ff ffe2 	bl	240544ac <HAL_LTDC_ErrorCallback>
240544e8:	07b2      	lsls	r2, r6, #30
240544ea:	d516      	bpl.n	2405451a <HAL_LTDC_IRQHandler+0x6a>
240544ec:	07ab      	lsls	r3, r5, #30
240544ee:	d514      	bpl.n	2405451a <HAL_LTDC_IRQHandler+0x6a>
240544f0:	6823      	ldr	r3, [r4, #0]
240544f2:	4620      	mov	r0, r4
240544f4:	6b5a      	ldr	r2, [r3, #52]	; 0x34
240544f6:	f022 0202 	bic.w	r2, r2, #2
240544fa:	635a      	str	r2, [r3, #52]	; 0x34
240544fc:	2202      	movs	r2, #2
240544fe:	63da      	str	r2, [r3, #60]	; 0x3c
24054500:	f8d4 30a4 	ldr.w	r3, [r4, #164]	; 0xa4
24054504:	4313      	orrs	r3, r2
24054506:	f8c4 30a4 	str.w	r3, [r4, #164]	; 0xa4
2405450a:	2304      	movs	r3, #4
2405450c:	f884 30a1 	strb.w	r3, [r4, #161]	; 0xa1
24054510:	2300      	movs	r3, #0
24054512:	f884 30a0 	strb.w	r3, [r4, #160]	; 0xa0
24054516:	f7ff ffc9 	bl	240544ac <HAL_LTDC_ErrorCallback>
2405451a:	07f0      	lsls	r0, r6, #31
2405451c:	d510      	bpl.n	24054540 <HAL_LTDC_IRQHandler+0x90>
2405451e:	07e9      	lsls	r1, r5, #31
24054520:	d50e      	bpl.n	24054540 <HAL_LTDC_IRQHandler+0x90>
24054522:	6823      	ldr	r3, [r4, #0]
24054524:	4620      	mov	r0, r4
24054526:	6b5a      	ldr	r2, [r3, #52]	; 0x34
24054528:	f022 0201 	bic.w	r2, r2, #1
2405452c:	635a      	str	r2, [r3, #52]	; 0x34
2405452e:	2201      	movs	r2, #1
24054530:	63da      	str	r2, [r3, #60]	; 0x3c
24054532:	2300      	movs	r3, #0
24054534:	f884 20a1 	strb.w	r2, [r4, #161]	; 0xa1
24054538:	f884 30a0 	strb.w	r3, [r4, #160]	; 0xa0
2405453c:	f7ff ffb7 	bl	240544ae <HAL_LTDC_LineEventCallback>
24054540:	0732      	lsls	r2, r6, #28
24054542:	d511      	bpl.n	24054568 <HAL_LTDC_IRQHandler+0xb8>
24054544:	072b      	lsls	r3, r5, #28
24054546:	d50f      	bpl.n	24054568 <HAL_LTDC_IRQHandler+0xb8>
24054548:	6823      	ldr	r3, [r4, #0]
2405454a:	4620      	mov	r0, r4
2405454c:	6b5a      	ldr	r2, [r3, #52]	; 0x34
2405454e:	f022 0208 	bic.w	r2, r2, #8
24054552:	635a      	str	r2, [r3, #52]	; 0x34
24054554:	2208      	movs	r2, #8
24054556:	63da      	str	r2, [r3, #60]	; 0x3c
24054558:	2301      	movs	r3, #1
2405455a:	f884 30a1 	strb.w	r3, [r4, #161]	; 0xa1
2405455e:	2300      	movs	r3, #0
24054560:	f884 30a0 	strb.w	r3, [r4, #160]	; 0xa0
24054564:	f7fc fc22 	bl	24050dac <HAL_LTDC_ReloadEventCallback>
24054568:	bd70      	pop	{r4, r5, r6, pc}

2405456a <HAL_LTDC_ConfigLayer>:
2405456a:	e92d 41f0 	stmdb	sp!, {r4, r5, r6, r7, r8, lr}
2405456e:	f890 30a0 	ldrb.w	r3, [r0, #160]	; 0xa0
24054572:	4606      	mov	r6, r0
24054574:	460f      	mov	r7, r1
24054576:	4694      	mov	ip, r2
24054578:	2b01      	cmp	r3, #1
2405457a:	f04f 0002 	mov.w	r0, #2
2405457e:	d01f      	beq.n	240545c0 <HAL_LTDC_ConfigLayer+0x56>
24054580:	2434      	movs	r4, #52	; 0x34
24054582:	f04f 0801 	mov.w	r8, #1
24054586:	460d      	mov	r5, r1
24054588:	f886 00a1 	strb.w	r0, [r6, #161]	; 0xa1
2405458c:	fb04 6402 	mla	r4, r4, r2, r6
24054590:	f886 80a0 	strb.w	r8, [r6, #160]	; 0xa0
24054594:	3438      	adds	r4, #56	; 0x38
24054596:	cd0f      	ldmia	r5!, {r0, r1, r2, r3}
24054598:	c40f      	stmia	r4!, {r0, r1, r2, r3}
2405459a:	cd0f      	ldmia	r5!, {r0, r1, r2, r3}
2405459c:	c40f      	stmia	r4!, {r0, r1, r2, r3}
2405459e:	cd0f      	ldmia	r5!, {r0, r1, r2, r3}
240545a0:	c40f      	stmia	r4!, {r0, r1, r2, r3}
240545a2:	682b      	ldr	r3, [r5, #0]
240545a4:	4630      	mov	r0, r6
240545a6:	4662      	mov	r2, ip
240545a8:	4639      	mov	r1, r7
240545aa:	6023      	str	r3, [r4, #0]
240545ac:	f7ff fe8b 	bl	240542c6 <LTDC_SetConfig>
240545b0:	6833      	ldr	r3, [r6, #0]
240545b2:	2000      	movs	r0, #0
240545b4:	f8c3 8024 	str.w	r8, [r3, #36]	; 0x24
240545b8:	f886 80a1 	strb.w	r8, [r6, #161]	; 0xa1
240545bc:	f886 00a0 	strb.w	r0, [r6, #160]	; 0xa0
240545c0:	e8bd 81f0 	ldmia.w	sp!, {r4, r5, r6, r7, r8, pc}

240545c4 <HAL_LTDC_SetAddress>:
240545c4:	b5f8      	push	{r3, r4, r5, r6, r7, lr}
240545c6:	f890 30a0 	ldrb.w	r3, [r0, #160]	; 0xa0
240545ca:	4604      	mov	r4, r0
240545cc:	2b01      	cmp	r3, #1
240545ce:	f04f 0302 	mov.w	r3, #2
240545d2:	d016      	beq.n	24054602 <HAL_LTDC_SetAddress+0x3e>
240545d4:	2534      	movs	r5, #52	; 0x34
240545d6:	f880 30a1 	strb.w	r3, [r0, #161]	; 0xa1
240545da:	2601      	movs	r6, #1
240545dc:	fb05 f302 	mul.w	r3, r5, r2
240545e0:	f880 60a0 	strb.w	r6, [r0, #160]	; 0xa0
240545e4:	18c5      	adds	r5, r0, r3
240545e6:	65e9      	str	r1, [r5, #92]	; 0x5c
240545e8:	f103 0138 	add.w	r1, r3, #56	; 0x38
240545ec:	4401      	add	r1, r0
240545ee:	f7ff fe6a 	bl	240542c6 <LTDC_SetConfig>
240545f2:	6823      	ldr	r3, [r4, #0]
240545f4:	2000      	movs	r0, #0
240545f6:	625e      	str	r6, [r3, #36]	; 0x24
240545f8:	f884 60a1 	strb.w	r6, [r4, #161]	; 0xa1
240545fc:	f884 00a0 	strb.w	r0, [r4, #160]	; 0xa0
24054600:	bdf8      	pop	{r3, r4, r5, r6, r7, pc}
24054602:	4618      	mov	r0, r3
24054604:	e7fc      	b.n	24054600 <HAL_LTDC_SetAddress+0x3c>

24054606 <HAL_LTDC_Reload>:
24054606:	f890 30a0 	ldrb.w	r3, [r0, #160]	; 0xa0
2405460a:	2b01      	cmp	r3, #1
2405460c:	f04f 0302 	mov.w	r3, #2
24054610:	d00d      	beq.n	2405462e <HAL_LTDC_Reload+0x28>
24054612:	f880 30a1 	strb.w	r3, [r0, #161]	; 0xa1
24054616:	6803      	ldr	r3, [r0, #0]
24054618:	6b5a      	ldr	r2, [r3, #52]	; 0x34
2405461a:	f042 0208 	orr.w	r2, r2, #8
2405461e:	635a      	str	r2, [r3, #52]	; 0x34
24054620:	6259      	str	r1, [r3, #36]	; 0x24
24054622:	2301      	movs	r3, #1
24054624:	f880 30a1 	strb.w	r3, [r0, #161]	; 0xa1
24054628:	2300      	movs	r3, #0
2405462a:	f880 30a0 	strb.w	r3, [r0, #160]	; 0xa0
2405462e:	4618      	mov	r0, r3
24054630:	4770      	bx	lr

24054632 <HAL_MDMA_Abort_IT>:
24054632:	b128      	cbz	r0, 24054640 <HAL_MDMA_Abort_IT+0xe>
24054634:	f890 303d 	ldrb.w	r3, [r0, #61]	; 0x3d
24054638:	2b02      	cmp	r3, #2
2405463a:	d003      	beq.n	24054644 <HAL_MDMA_Abort_IT+0x12>
2405463c:	2380      	movs	r3, #128	; 0x80
2405463e:	6683      	str	r3, [r0, #104]	; 0x68
24054640:	2001      	movs	r0, #1
24054642:	4770      	bx	lr
24054644:	6802      	ldr	r2, [r0, #0]
24054646:	2304      	movs	r3, #4
24054648:	f880 303d 	strb.w	r3, [r0, #61]	; 0x3d
2405464c:	2000      	movs	r0, #0
2405464e:	68d3      	ldr	r3, [r2, #12]
24054650:	f023 0301 	bic.w	r3, r3, #1
24054654:	60d3      	str	r3, [r2, #12]
24054656:	4770      	bx	lr

24054658 <OSPI_ConfigCmd>:
24054658:	e92d 47f0 	stmdb	sp!, {r4, r5, r6, r7, r8, r9, sl, lr}
2405465c:	6804      	ldr	r4, [r0, #0]
2405465e:	6823      	ldr	r3, [r4, #0]
24054660:	f023 5340 	bic.w	r3, r3, #805306368	; 0x30000000
24054664:	6023      	str	r3, [r4, #0]
24054666:	6883      	ldr	r3, [r0, #8]
24054668:	b92b      	cbnz	r3, 24054676 <OSPI_ConfigCmd+0x1e>
2405466a:	6823      	ldr	r3, [r4, #0]
2405466c:	684a      	ldr	r2, [r1, #4]
2405466e:	f023 0380 	bic.w	r3, r3, #128	; 0x80
24054672:	4313      	orrs	r3, r2
24054674:	6023      	str	r3, [r4, #0]
24054676:	680b      	ldr	r3, [r1, #0]
24054678:	2b02      	cmp	r3, #2
2405467a:	d14e      	bne.n	2405471a <OSPI_ConfigCmd+0xc2>
2405467c:	f504 72c0 	add.w	r2, r4, #384	; 0x180
24054680:	f504 76c4 	add.w	r6, r4, #392	; 0x188
24054684:	f504 75c8 	add.w	r5, r4, #400	; 0x190
24054688:	f504 7cd0 	add.w	ip, r4, #416	; 0x1a0
2405468c:	e9d1 3712 	ldrd	r3, r7, [r1, #72]	; 0x48
24054690:	433b      	orrs	r3, r7
24054692:	6013      	str	r3, [r2, #0]
24054694:	6acb      	ldr	r3, [r1, #44]	; 0x2c
24054696:	b16b      	cbz	r3, 240546b4 <OSPI_ConfigCmd+0x5c>
24054698:	6a8b      	ldr	r3, [r1, #40]	; 0x28
2405469a:	f8cc 3000 	str.w	r3, [ip]
2405469e:	6b4f      	ldr	r7, [r1, #52]	; 0x34
240546a0:	6acb      	ldr	r3, [r1, #44]	; 0x2c
240546a2:	f8d2 c000 	ldr.w	ip, [r2]
240546a6:	433b      	orrs	r3, r7
240546a8:	6b0f      	ldr	r7, [r1, #48]	; 0x30
240546aa:	433b      	orrs	r3, r7
240546ac:	f42c 177c 	bic.w	r7, ip, #4128768	; 0x3f0000
240546b0:	433b      	orrs	r3, r7
240546b2:	6013      	str	r3, [r2, #0]
240546b4:	6833      	ldr	r3, [r6, #0]
240546b6:	6c4f      	ldr	r7, [r1, #68]	; 0x44
240546b8:	f023 031f 	bic.w	r3, r3, #31
240546bc:	433b      	orrs	r3, r7
240546be:	6033      	str	r3, [r6, #0]
240546c0:	6b8b      	ldr	r3, [r1, #56]	; 0x38
240546c2:	b123      	cbz	r3, 240546ce <OSPI_ConfigCmd+0x76>
240546c4:	680e      	ldr	r6, [r1, #0]
240546c6:	b916      	cbnz	r6, 240546ce <OSPI_ConfigCmd+0x76>
240546c8:	6bce      	ldr	r6, [r1, #60]	; 0x3c
240546ca:	3e01      	subs	r6, #1
240546cc:	6426      	str	r6, [r4, #64]	; 0x40
240546ce:	f8d1 a00c 	ldr.w	sl, [r1, #12]
240546d2:	f8d1 901c 	ldr.w	r9, [r1, #28]
240546d6:	f1ba 0f00 	cmp.w	sl, #0
240546da:	d076      	beq.n	240547ca <OSPI_ConfigCmd+0x172>
240546dc:	e9d1 e804 	ldrd	lr, r8, [r1, #16]
240546e0:	f1b9 0f00 	cmp.w	r9, #0
240546e4:	d047      	beq.n	24054776 <OSPI_ConfigCmd+0x11e>
240546e6:	6817      	ldr	r7, [r2, #0]
240546e8:	e9d1 6c08 	ldrd	r6, ip, [r1, #32]
240546ec:	b34b      	cbz	r3, 24054742 <OSPI_ConfigCmd+0xea>
240546ee:	ea43 000a 	orr.w	r0, r3, sl
240546f2:	ea40 0309 	orr.w	r3, r0, r9
240546f6:	6c08      	ldr	r0, [r1, #64]	; 0x40
240546f8:	ea43 0308 	orr.w	r3, r3, r8
240546fc:	ea43 030e 	orr.w	r3, r3, lr
24054700:	ea43 030c 	orr.w	r3, r3, ip
24054704:	4333      	orrs	r3, r6
24054706:	4303      	orrs	r3, r0
24054708:	483e      	ldr	r0, [pc, #248]	; (24054804 <OSPI_ConfigCmd+0x1ac>)
2405470a:	4038      	ands	r0, r7
2405470c:	4303      	orrs	r3, r0
2405470e:	6013      	str	r3, [r2, #0]
24054710:	688b      	ldr	r3, [r1, #8]
24054712:	602b      	str	r3, [r5, #0]
24054714:	698b      	ldr	r3, [r1, #24]
24054716:	64a3      	str	r3, [r4, #72]	; 0x48
24054718:	e040      	b.n	2405479c <OSPI_ConfigCmd+0x144>
2405471a:	2b03      	cmp	r3, #3
2405471c:	bf01      	itttt	eq
2405471e:	f504 72a0 	addeq.w	r2, r4, #320	; 0x140
24054722:	f504 76a4 	addeq.w	r6, r4, #328	; 0x148
24054726:	f504 75a8 	addeq.w	r5, r4, #336	; 0x150
2405472a:	f504 7cb0 	addeq.w	ip, r4, #352	; 0x160
2405472e:	bf1f      	itttt	ne
24054730:	f504 7280 	addne.w	r2, r4, #256	; 0x100
24054734:	f504 7684 	addne.w	r6, r4, #264	; 0x108
24054738:	f504 7588 	addne.w	r5, r4, #272	; 0x110
2405473c:	f504 7c90 	addne.w	ip, r4, #288	; 0x120
24054740:	e7a4      	b.n	2405468c <OSPI_ConfigCmd+0x34>
24054742:	ea4a 0309 	orr.w	r3, sl, r9
24054746:	f427 577c 	bic.w	r7, r7, #16128	; 0x3f00
2405474a:	ea43 0308 	orr.w	r3, r3, r8
2405474e:	f027 073f 	bic.w	r7, r7, #63	; 0x3f
24054752:	ea43 030e 	orr.w	r3, r3, lr
24054756:	ea43 030c 	orr.w	r3, r3, ip
2405475a:	4333      	orrs	r3, r6
2405475c:	433b      	orrs	r3, r7
2405475e:	6013      	str	r3, [r2, #0]
24054760:	6ac3      	ldr	r3, [r0, #44]	; 0x2c
24054762:	f1b3 5f80 	cmp.w	r3, #268435456	; 0x10000000
24054766:	d1d3      	bne.n	24054710 <OSPI_ConfigCmd+0xb8>
24054768:	694b      	ldr	r3, [r1, #20]
2405476a:	2b08      	cmp	r3, #8
2405476c:	d1d0      	bne.n	24054710 <OSPI_ConfigCmd+0xb8>
2405476e:	6813      	ldr	r3, [r2, #0]
24054770:	f043 6300 	orr.w	r3, r3, #134217728	; 0x8000000
24054774:	e7cb      	b.n	2405470e <OSPI_ConfigCmd+0xb6>
24054776:	b1a3      	cbz	r3, 240547a2 <OSPI_ConfigCmd+0x14a>
24054778:	ea43 030a 	orr.w	r3, r3, sl
2405477c:	6810      	ldr	r0, [r2, #0]
2405477e:	6c0c      	ldr	r4, [r1, #64]	; 0x40
24054780:	ea43 0308 	orr.w	r3, r3, r8
24054784:	ea43 030e 	orr.w	r3, r3, lr
24054788:	f020 6e70 	bic.w	lr, r0, #251658240	; 0xf000000
2405478c:	4323      	orrs	r3, r4
2405478e:	f02e 0e3f 	bic.w	lr, lr, #63	; 0x3f
24054792:	ea43 030e 	orr.w	r3, r3, lr
24054796:	6013      	str	r3, [r2, #0]
24054798:	688b      	ldr	r3, [r1, #8]
2405479a:	602b      	str	r3, [r5, #0]
2405479c:	2000      	movs	r0, #0
2405479e:	e8bd 87f0 	ldmia.w	sp!, {r4, r5, r6, r7, r8, r9, sl, pc}
240547a2:	6814      	ldr	r4, [r2, #0]
240547a4:	ea4a 0308 	orr.w	r3, sl, r8
240547a8:	f024 043f 	bic.w	r4, r4, #63	; 0x3f
240547ac:	ea43 030e 	orr.w	r3, r3, lr
240547b0:	4323      	orrs	r3, r4
240547b2:	6013      	str	r3, [r2, #0]
240547b4:	6ac3      	ldr	r3, [r0, #44]	; 0x2c
240547b6:	f1b3 5f80 	cmp.w	r3, #268435456	; 0x10000000
240547ba:	d1ed      	bne.n	24054798 <OSPI_ConfigCmd+0x140>
240547bc:	694b      	ldr	r3, [r1, #20]
240547be:	2b08      	cmp	r3, #8
240547c0:	d1ea      	bne.n	24054798 <OSPI_ConfigCmd+0x140>
240547c2:	6813      	ldr	r3, [r2, #0]
240547c4:	f043 6300 	orr.w	r3, r3, #134217728	; 0x8000000
240547c8:	e7e5      	b.n	24054796 <OSPI_ConfigCmd+0x13e>
240547ca:	f1b9 0f00 	cmp.w	r9, #0
240547ce:	d014      	beq.n	240547fa <OSPI_ConfigCmd+0x1a2>
240547d0:	6810      	ldr	r0, [r2, #0]
240547d2:	e9d1 5608 	ldrd	r5, r6, [r1, #32]
240547d6:	b163      	cbz	r3, 240547f2 <OSPI_ConfigCmd+0x19a>
240547d8:	ea43 0309 	orr.w	r3, r3, r9
240547dc:	f020 6070 	bic.w	r0, r0, #251658240	; 0xf000000
240547e0:	4333      	orrs	r3, r6
240547e2:	432b      	orrs	r3, r5
240547e4:	6c0d      	ldr	r5, [r1, #64]	; 0x40
240547e6:	432b      	orrs	r3, r5
240547e8:	f420 507c 	bic.w	r0, r0, #16128	; 0x3f00
240547ec:	4303      	orrs	r3, r0
240547ee:	6013      	str	r3, [r2, #0]
240547f0:	e790      	b.n	24054714 <OSPI_ConfigCmd+0xbc>
240547f2:	ea49 0306 	orr.w	r3, r9, r6
240547f6:	432b      	orrs	r3, r5
240547f8:	e7f6      	b.n	240547e8 <OSPI_ConfigCmd+0x190>
240547fa:	2308      	movs	r3, #8
240547fc:	6583      	str	r3, [r0, #88]	; 0x58
240547fe:	2001      	movs	r0, #1
24054800:	e7cd      	b.n	2405479e <OSPI_ConfigCmd+0x146>
24054802:	bf00      	nop
24054804:	f0ffc0c0 	.word	0xf0ffc0c0

24054808 <OSPI_WaitFlagStateUntilTimeout>:
24054808:	e92d 41f0 	stmdb	sp!, {r4, r5, r6, r7, r8, lr}
2405480c:	f8dd 8018 	ldr.w	r8, [sp, #24]
24054810:	4604      	mov	r4, r0
24054812:	460e      	mov	r6, r1
24054814:	4615      	mov	r5, r2
24054816:	461f      	mov	r7, r3
24054818:	6822      	ldr	r2, [r4, #0]
2405481a:	6a13      	ldr	r3, [r2, #32]
2405481c:	4233      	tst	r3, r6
2405481e:	bf14      	ite	ne
24054820:	2301      	movne	r3, #1
24054822:	2300      	moveq	r3, #0
24054824:	42ab      	cmp	r3, r5
24054826:	d101      	bne.n	2405482c <OSPI_WaitFlagStateUntilTimeout+0x24>
24054828:	2000      	movs	r0, #0
2405482a:	e012      	b.n	24054852 <OSPI_WaitFlagStateUntilTimeout+0x4a>
2405482c:	f1b8 3fff 	cmp.w	r8, #4294967295
24054830:	d0f3      	beq.n	2405481a <OSPI_WaitFlagStateUntilTimeout+0x12>
24054832:	f7fd fb05 	bl	24051e40 <HAL_GetTick>
24054836:	1bc0      	subs	r0, r0, r7
24054838:	4540      	cmp	r0, r8
2405483a:	d802      	bhi.n	24054842 <OSPI_WaitFlagStateUntilTimeout+0x3a>
2405483c:	f1b8 0f00 	cmp.w	r8, #0
24054840:	d1ea      	bne.n	24054818 <OSPI_WaitFlagStateUntilTimeout+0x10>
24054842:	f44f 7300 	mov.w	r3, #512	; 0x200
24054846:	2001      	movs	r0, #1
24054848:	6563      	str	r3, [r4, #84]	; 0x54
2405484a:	6da3      	ldr	r3, [r4, #88]	; 0x58
2405484c:	f043 0301 	orr.w	r3, r3, #1
24054850:	65a3      	str	r3, [r4, #88]	; 0x58
24054852:	e8bd 81f0 	ldmia.w	sp!, {r4, r5, r6, r7, r8, pc}
	...

24054858 <HAL_OSPI_Init>:
24054858:	b5f0      	push	{r4, r5, r6, r7, lr}
2405485a:	4604      	mov	r4, r0
2405485c:	b085      	sub	sp, #20
2405485e:	f7fd faef 	bl	24051e40 <HAL_GetTick>
24054862:	4603      	mov	r3, r0
24054864:	2c00      	cmp	r4, #0
24054866:	d068      	beq.n	2405493a <HAL_OSPI_Init+0xe2>
24054868:	2000      	movs	r0, #0
2405486a:	65a0      	str	r0, [r4, #88]	; 0x58
2405486c:	6d66      	ldr	r6, [r4, #84]	; 0x54
2405486e:	2e00      	cmp	r6, #0
24054870:	d161      	bne.n	24054936 <HAL_OSPI_Init+0xde>
24054872:	4620      	mov	r0, r4
24054874:	9303      	str	r3, [sp, #12]
24054876:	f7fc fffb 	bl	24051870 <HAL_OSPI_MspInit>
2405487a:	69e0      	ldr	r0, [r4, #28]
2405487c:	68e1      	ldr	r1, [r4, #12]
2405487e:	f241 3288 	movw	r2, #5000	; 0x1388
24054882:	6825      	ldr	r5, [r4, #0]
24054884:	4301      	orrs	r1, r0
24054886:	6b60      	ldr	r0, [r4, #52]	; 0x34
24054888:	68af      	ldr	r7, [r5, #8]
2405488a:	ea41 1100 	orr.w	r1, r1, r0, lsl #4
2405488e:	482c      	ldr	r0, [pc, #176]	; (24054940 <HAL_OSPI_Init+0xe8>)
24054890:	65e2      	str	r2, [r4, #92]	; 0x5c
24054892:	4038      	ands	r0, r7
24054894:	9b03      	ldr	r3, [sp, #12]
24054896:	4301      	orrs	r1, r0
24054898:	6920      	ldr	r0, [r4, #16]
2405489a:	3801      	subs	r0, #1
2405489c:	ea41 4100 	orr.w	r1, r1, r0, lsl #16
240548a0:	6960      	ldr	r0, [r4, #20]
240548a2:	3801      	subs	r0, #1
240548a4:	ea41 2100 	orr.w	r1, r1, r0, lsl #8
240548a8:	6a20      	ldr	r0, [r4, #32]
240548aa:	60a9      	str	r1, [r5, #8]
240548ac:	68e9      	ldr	r1, [r5, #12]
240548ae:	f421 21e0 	bic.w	r1, r1, #458752	; 0x70000
240548b2:	4301      	orrs	r1, r0
240548b4:	6b20      	ldr	r0, [r4, #48]	; 0x30
240548b6:	60e9      	str	r1, [r5, #12]
240548b8:	6be1      	ldr	r1, [r4, #60]	; 0x3c
240548ba:	ea41 4100 	orr.w	r1, r1, r0, lsl #16
240548be:	6860      	ldr	r0, [r4, #4]
240548c0:	6129      	str	r1, [r5, #16]
240548c2:	3801      	subs	r0, #1
240548c4:	6c21      	ldr	r1, [r4, #64]	; 0x40
240548c6:	6169      	str	r1, [r5, #20]
240548c8:	6829      	ldr	r1, [r5, #0]
240548ca:	f421 51f8 	bic.w	r1, r1, #7936	; 0x1f00
240548ce:	ea41 2100 	orr.w	r1, r1, r0, lsl #8
240548d2:	4620      	mov	r0, r4
240548d4:	6029      	str	r1, [r5, #0]
240548d6:	2120      	movs	r1, #32
240548d8:	9200      	str	r2, [sp, #0]
240548da:	4632      	mov	r2, r6
240548dc:	f7ff ff94 	bl	24054808 <OSPI_WaitFlagStateUntilTimeout>
240548e0:	bb48      	cbnz	r0, 24054936 <HAL_OSPI_Init+0xde>
240548e2:	6823      	ldr	r3, [r4, #0]
240548e4:	6a62      	ldr	r2, [r4, #36]	; 0x24
240548e6:	68d9      	ldr	r1, [r3, #12]
240548e8:	3a01      	subs	r2, #1
240548ea:	f021 01ff 	bic.w	r1, r1, #255	; 0xff
240548ee:	430a      	orrs	r2, r1
240548f0:	68a1      	ldr	r1, [r4, #8]
240548f2:	60da      	str	r2, [r3, #12]
240548f4:	681a      	ldr	r2, [r3, #0]
240548f6:	f022 0240 	bic.w	r2, r2, #64	; 0x40
240548fa:	430a      	orrs	r2, r1
240548fc:	601a      	str	r2, [r3, #0]
240548fe:	f8d3 1108 	ldr.w	r1, [r3, #264]	; 0x108
24054902:	e9d4 250a 	ldrd	r2, r5, [r4, #40]	; 0x28
24054906:	f021 41a0 	bic.w	r1, r1, #1342177280	; 0x50000000
2405490a:	432a      	orrs	r2, r5
2405490c:	430a      	orrs	r2, r1
2405490e:	f8c3 2108 	str.w	r2, [r3, #264]	; 0x108
24054912:	681a      	ldr	r2, [r3, #0]
24054914:	f042 0201 	orr.w	r2, r2, #1
24054918:	601a      	str	r2, [r3, #0]
2405491a:	69a2      	ldr	r2, [r4, #24]
2405491c:	2a02      	cmp	r2, #2
2405491e:	d103      	bne.n	24054928 <HAL_OSPI_Init+0xd0>
24054920:	689a      	ldr	r2, [r3, #8]
24054922:	f042 0202 	orr.w	r2, r2, #2
24054926:	609a      	str	r2, [r3, #8]
24054928:	68e3      	ldr	r3, [r4, #12]
2405492a:	f1b3 6f80 	cmp.w	r3, #67108864	; 0x4000000
2405492e:	bf0c      	ite	eq
24054930:	2301      	moveq	r3, #1
24054932:	2302      	movne	r3, #2
24054934:	6563      	str	r3, [r4, #84]	; 0x54
24054936:	b005      	add	sp, #20
24054938:	bdf0      	pop	{r4, r5, r6, r7, pc}
2405493a:	2001      	movs	r0, #1
2405493c:	e7fb      	b.n	24054936 <HAL_OSPI_Init+0xde>
2405493e:	bf00      	nop
24054940:	f8e0f88c 	.word	0xf8e0f88c

24054944 <HAL_OSPI_Command>:
24054944:	b57f      	push	{r0, r1, r2, r3, r4, r5, r6, lr}
24054946:	4604      	mov	r4, r0
24054948:	4616      	mov	r6, r2
2405494a:	460d      	mov	r5, r1
2405494c:	f7fd fa78 	bl	24051e40 <HAL_GetTick>
24054950:	6d62      	ldr	r2, [r4, #84]	; 0x54
24054952:	4603      	mov	r3, r0
24054954:	2a02      	cmp	r2, #2
24054956:	d107      	bne.n	24054968 <HAL_OSPI_Command+0x24>
24054958:	68e2      	ldr	r2, [r4, #12]
2405495a:	f1b2 6f80 	cmp.w	r2, #67108864	; 0x4000000
2405495e:	d109      	bne.n	24054974 <HAL_OSPI_Command+0x30>
24054960:	2310      	movs	r3, #16
24054962:	2001      	movs	r0, #1
24054964:	65a3      	str	r3, [r4, #88]	; 0x58
24054966:	e01f      	b.n	240549a8 <HAL_OSPI_Command+0x64>
24054968:	2a14      	cmp	r2, #20
2405496a:	d11f      	bne.n	240549ac <HAL_OSPI_Command+0x68>
2405496c:	682a      	ldr	r2, [r5, #0]
2405496e:	3a02      	subs	r2, #2
24054970:	2a01      	cmp	r2, #1
24054972:	d8f5      	bhi.n	24054960 <HAL_OSPI_Command+0x1c>
24054974:	2200      	movs	r2, #0
24054976:	2120      	movs	r1, #32
24054978:	4620      	mov	r0, r4
2405497a:	9600      	str	r6, [sp, #0]
2405497c:	9303      	str	r3, [sp, #12]
2405497e:	f7ff ff43 	bl	24054808 <OSPI_WaitFlagStateUntilTimeout>
24054982:	b988      	cbnz	r0, 240549a8 <HAL_OSPI_Command+0x64>
24054984:	65a0      	str	r0, [r4, #88]	; 0x58
24054986:	4629      	mov	r1, r5
24054988:	4620      	mov	r0, r4
2405498a:	f7ff fe65 	bl	24054658 <OSPI_ConfigCmd>
2405498e:	b958      	cbnz	r0, 240549a8 <HAL_OSPI_Command+0x64>
24054990:	6baa      	ldr	r2, [r5, #56]	; 0x38
24054992:	9b03      	ldr	r3, [sp, #12]
24054994:	b992      	cbnz	r2, 240549bc <HAL_OSPI_Command+0x78>
24054996:	2201      	movs	r2, #1
24054998:	2102      	movs	r1, #2
2405499a:	4620      	mov	r0, r4
2405499c:	9600      	str	r6, [sp, #0]
2405499e:	f7ff ff33 	bl	24054808 <OSPI_WaitFlagStateUntilTimeout>
240549a2:	6823      	ldr	r3, [r4, #0]
240549a4:	2202      	movs	r2, #2
240549a6:	625a      	str	r2, [r3, #36]	; 0x24
240549a8:	b004      	add	sp, #16
240549aa:	bd70      	pop	{r4, r5, r6, pc}
240549ac:	2a24      	cmp	r2, #36	; 0x24
240549ae:	d1d7      	bne.n	24054960 <HAL_OSPI_Command+0x1c>
240549b0:	682a      	ldr	r2, [r5, #0]
240549b2:	f022 0202 	bic.w	r2, r2, #2
240549b6:	2a01      	cmp	r2, #1
240549b8:	d1d2      	bne.n	24054960 <HAL_OSPI_Command+0x1c>
240549ba:	e7db      	b.n	24054974 <HAL_OSPI_Command+0x30>
240549bc:	682b      	ldr	r3, [r5, #0]
240549be:	b90b      	cbnz	r3, 240549c4 <HAL_OSPI_Command+0x80>
240549c0:	2304      	movs	r3, #4
240549c2:	e005      	b.n	240549d0 <HAL_OSPI_Command+0x8c>
240549c4:	2b01      	cmp	r3, #1
240549c6:	d105      	bne.n	240549d4 <HAL_OSPI_Command+0x90>
240549c8:	6d63      	ldr	r3, [r4, #84]	; 0x54
240549ca:	2b24      	cmp	r3, #36	; 0x24
240549cc:	d0f8      	beq.n	240549c0 <HAL_OSPI_Command+0x7c>
240549ce:	2314      	movs	r3, #20
240549d0:	6563      	str	r3, [r4, #84]	; 0x54
240549d2:	e7e9      	b.n	240549a8 <HAL_OSPI_Command+0x64>
240549d4:	2b02      	cmp	r3, #2
240549d6:	d1e7      	bne.n	240549a8 <HAL_OSPI_Command+0x64>
240549d8:	6d63      	ldr	r3, [r4, #84]	; 0x54
240549da:	2b14      	cmp	r3, #20
240549dc:	d0f0      	beq.n	240549c0 <HAL_OSPI_Command+0x7c>
240549de:	2324      	movs	r3, #36	; 0x24
240549e0:	e7f6      	b.n	240549d0 <HAL_OSPI_Command+0x8c>

240549e2 <HAL_OSPI_MemoryMapped>:
240549e2:	b573      	push	{r0, r1, r4, r5, r6, lr}
240549e4:	4604      	mov	r4, r0
240549e6:	460d      	mov	r5, r1
240549e8:	f7fd fa2a 	bl	24051e40 <HAL_GetTick>
240549ec:	4603      	mov	r3, r0
240549ee:	6d62      	ldr	r2, [r4, #84]	; 0x54
240549f0:	2a04      	cmp	r2, #4
240549f2:	d121      	bne.n	24054a38 <HAL_OSPI_MemoryMapped+0x56>
240549f4:	6de2      	ldr	r2, [r4, #92]	; 0x5c
240549f6:	2120      	movs	r1, #32
240549f8:	4620      	mov	r0, r4
240549fa:	9200      	str	r2, [sp, #0]
240549fc:	2200      	movs	r2, #0
240549fe:	f7ff ff03 	bl	24054808 <OSPI_WaitFlagStateUntilTimeout>
24054a02:	b9b8      	cbnz	r0, 24054a34 <HAL_OSPI_MemoryMapped+0x52>
24054a04:	682e      	ldr	r6, [r5, #0]
24054a06:	2388      	movs	r3, #136	; 0x88
24054a08:	6822      	ldr	r2, [r4, #0]
24054a0a:	2e08      	cmp	r6, #8
24054a0c:	6563      	str	r3, [r4, #84]	; 0x54
24054a0e:	d108      	bne.n	24054a22 <HAL_OSPI_MemoryMapped+0x40>
24054a10:	686b      	ldr	r3, [r5, #4]
24054a12:	f8c2 3130 	str.w	r3, [r2, #304]	; 0x130
24054a16:	2310      	movs	r3, #16
24054a18:	6253      	str	r3, [r2, #36]	; 0x24
24054a1a:	6811      	ldr	r1, [r2, #0]
24054a1c:	f441 1180 	orr.w	r1, r1, #1048576	; 0x100000
24054a20:	6011      	str	r1, [r2, #0]
24054a22:	6813      	ldr	r3, [r2, #0]
24054a24:	f023 5340 	bic.w	r3, r3, #805306368	; 0x30000000
24054a28:	f023 0308 	bic.w	r3, r3, #8
24054a2c:	4333      	orrs	r3, r6
24054a2e:	f043 5340 	orr.w	r3, r3, #805306368	; 0x30000000
24054a32:	6013      	str	r3, [r2, #0]
24054a34:	b002      	add	sp, #8
24054a36:	bd70      	pop	{r4, r5, r6, pc}
24054a38:	2310      	movs	r3, #16
24054a3a:	2001      	movs	r0, #1
24054a3c:	65a3      	str	r3, [r4, #88]	; 0x58
24054a3e:	e7f9      	b.n	24054a34 <HAL_OSPI_MemoryMapped+0x52>

24054a40 <HAL_OSPI_ErrorCallback>:
24054a40:	4770      	bx	lr

24054a42 <HAL_OSPI_AbortCpltCallback>:
24054a42:	4770      	bx	lr

24054a44 <OSPI_DMAAbortCplt>:
24054a44:	6c00      	ldr	r0, [r0, #64]	; 0x40
24054a46:	b508      	push	{r3, lr}
24054a48:	2300      	movs	r3, #0
24054a4a:	64c3      	str	r3, [r0, #76]	; 0x4c
24054a4c:	6d43      	ldr	r3, [r0, #84]	; 0x54
24054a4e:	f5b3 7f80 	cmp.w	r3, #256	; 0x100
24054a52:	d114      	bne.n	24054a7e <OSPI_DMAAbortCplt+0x3a>
24054a54:	6803      	ldr	r3, [r0, #0]
24054a56:	6a1a      	ldr	r2, [r3, #32]
24054a58:	f012 0f20 	tst.w	r2, #32
24054a5c:	f04f 0202 	mov.w	r2, #2
24054a60:	d009      	beq.n	24054a76 <OSPI_DMAAbortCplt+0x32>
24054a62:	625a      	str	r2, [r3, #36]	; 0x24
24054a64:	681a      	ldr	r2, [r3, #0]
24054a66:	f442 3200 	orr.w	r2, r2, #131072	; 0x20000
24054a6a:	601a      	str	r2, [r3, #0]
24054a6c:	681a      	ldr	r2, [r3, #0]
24054a6e:	f042 0202 	orr.w	r2, r2, #2
24054a72:	601a      	str	r2, [r3, #0]
24054a74:	bd08      	pop	{r3, pc}
24054a76:	6542      	str	r2, [r0, #84]	; 0x54
24054a78:	f7ff ffe3 	bl	24054a42 <HAL_OSPI_AbortCpltCallback>
24054a7c:	e7fa      	b.n	24054a74 <OSPI_DMAAbortCplt+0x30>
24054a7e:	2302      	movs	r3, #2
24054a80:	6543      	str	r3, [r0, #84]	; 0x54
24054a82:	f7ff ffdd 	bl	24054a40 <HAL_OSPI_ErrorCallback>
24054a86:	e7f5      	b.n	24054a74 <OSPI_DMAAbortCplt+0x30>

24054a88 <HAL_OSPI_FifoThresholdCallback>:
24054a88:	4770      	bx	lr

24054a8a <HAL_OSPI_CmdCpltCallback>:
24054a8a:	4770      	bx	lr

24054a8c <HAL_OSPI_RxCpltCallback>:
24054a8c:	4770      	bx	lr

24054a8e <HAL_OSPI_TxCpltCallback>:
24054a8e:	4770      	bx	lr

24054a90 <HAL_OSPI_StatusMatchCallback>:
24054a90:	4770      	bx	lr

24054a92 <HAL_OSPI_TimeOutCallback>:
24054a92:	4770      	bx	lr

24054a94 <HAL_OSPI_IRQHandler>:
24054a94:	b538      	push	{r3, r4, r5, lr}
24054a96:	6803      	ldr	r3, [r0, #0]
24054a98:	4604      	mov	r4, r0
24054a9a:	6a1a      	ldr	r2, [r3, #32]
24054a9c:	6818      	ldr	r0, [r3, #0]
24054a9e:	0755      	lsls	r5, r2, #29
24054aa0:	6d61      	ldr	r1, [r4, #84]	; 0x54
24054aa2:	d51f      	bpl.n	24054ae4 <HAL_OSPI_IRQHandler+0x50>
24054aa4:	0345      	lsls	r5, r0, #13
24054aa6:	d51d      	bpl.n	24054ae4 <HAL_OSPI_IRQHandler+0x50>
24054aa8:	2918      	cmp	r1, #24
24054aaa:	d114      	bne.n	24054ad6 <HAL_OSPI_IRQHandler+0x42>
24054aac:	6c62      	ldr	r2, [r4, #68]	; 0x44
24054aae:	7812      	ldrb	r2, [r2, #0]
24054ab0:	f883 2050 	strb.w	r2, [r3, #80]	; 0x50
24054ab4:	6c63      	ldr	r3, [r4, #68]	; 0x44
24054ab6:	3301      	adds	r3, #1
24054ab8:	6463      	str	r3, [r4, #68]	; 0x44
24054aba:	6ce3      	ldr	r3, [r4, #76]	; 0x4c
24054abc:	3b01      	subs	r3, #1
24054abe:	64e3      	str	r3, [r4, #76]	; 0x4c
24054ac0:	6ce3      	ldr	r3, [r4, #76]	; 0x4c
24054ac2:	b923      	cbnz	r3, 24054ace <HAL_OSPI_IRQHandler+0x3a>
24054ac4:	6822      	ldr	r2, [r4, #0]
24054ac6:	6813      	ldr	r3, [r2, #0]
24054ac8:	f423 2380 	bic.w	r3, r3, #262144	; 0x40000
24054acc:	6013      	str	r3, [r2, #0]
24054ace:	4620      	mov	r0, r4
24054ad0:	f7ff ffda 	bl	24054a88 <HAL_OSPI_FifoThresholdCallback>
24054ad4:	bd38      	pop	{r3, r4, r5, pc}
24054ad6:	2928      	cmp	r1, #40	; 0x28
24054ad8:	d1f2      	bne.n	24054ac0 <HAL_OSPI_IRQHandler+0x2c>
24054ada:	6c62      	ldr	r2, [r4, #68]	; 0x44
24054adc:	f893 3050 	ldrb.w	r3, [r3, #80]	; 0x50
24054ae0:	7013      	strb	r3, [r2, #0]
24054ae2:	e7e7      	b.n	24054ab4 <HAL_OSPI_IRQHandler+0x20>
24054ae4:	0795      	lsls	r5, r2, #30
24054ae6:	d53e      	bpl.n	24054b66 <HAL_OSPI_IRQHandler+0xd2>
24054ae8:	0385      	lsls	r5, r0, #14
24054aea:	d53c      	bpl.n	24054b66 <HAL_OSPI_IRQHandler+0xd2>
24054aec:	2928      	cmp	r1, #40	; 0x28
24054aee:	d11d      	bne.n	24054b2c <HAL_OSPI_IRQHandler+0x98>
24054af0:	6ce1      	ldr	r1, [r4, #76]	; 0x4c
24054af2:	b169      	cbz	r1, 24054b10 <HAL_OSPI_IRQHandler+0x7c>
24054af4:	f412 5f7c 	tst.w	r2, #16128	; 0x3f00
24054af8:	d00a      	beq.n	24054b10 <HAL_OSPI_IRQHandler+0x7c>
24054afa:	f893 3050 	ldrb.w	r3, [r3, #80]	; 0x50
24054afe:	6c62      	ldr	r2, [r4, #68]	; 0x44
24054b00:	7013      	strb	r3, [r2, #0]
24054b02:	6c63      	ldr	r3, [r4, #68]	; 0x44
24054b04:	3301      	adds	r3, #1
24054b06:	6463      	str	r3, [r4, #68]	; 0x44
24054b08:	6ce3      	ldr	r3, [r4, #76]	; 0x4c
24054b0a:	3b01      	subs	r3, #1
24054b0c:	64e3      	str	r3, [r4, #76]	; 0x4c
24054b0e:	e7e1      	b.n	24054ad4 <HAL_OSPI_IRQHandler+0x40>
24054b10:	6ce2      	ldr	r2, [r4, #76]	; 0x4c
24054b12:	2a00      	cmp	r2, #0
24054b14:	d1de      	bne.n	24054ad4 <HAL_OSPI_IRQHandler+0x40>
24054b16:	2102      	movs	r1, #2
24054b18:	4620      	mov	r0, r4
24054b1a:	6259      	str	r1, [r3, #36]	; 0x24
24054b1c:	681a      	ldr	r2, [r3, #0]
24054b1e:	f422 22e0 	bic.w	r2, r2, #458752	; 0x70000
24054b22:	601a      	str	r2, [r3, #0]
24054b24:	6561      	str	r1, [r4, #84]	; 0x54
24054b26:	f7ff ffb1 	bl	24054a8c <HAL_OSPI_RxCpltCallback>
24054b2a:	e7d3      	b.n	24054ad4 <HAL_OSPI_IRQHandler+0x40>
24054b2c:	2002      	movs	r0, #2
24054b2e:	2918      	cmp	r1, #24
24054b30:	6258      	str	r0, [r3, #36]	; 0x24
24054b32:	681a      	ldr	r2, [r3, #0]
24054b34:	f422 22e0 	bic.w	r2, r2, #458752	; 0x70000
24054b38:	601a      	str	r2, [r3, #0]
24054b3a:	6560      	str	r0, [r4, #84]	; 0x54
24054b3c:	d103      	bne.n	24054b46 <HAL_OSPI_IRQHandler+0xb2>
24054b3e:	4620      	mov	r0, r4
24054b40:	f7ff ffa5 	bl	24054a8e <HAL_OSPI_TxCpltCallback>
24054b44:	e7c6      	b.n	24054ad4 <HAL_OSPI_IRQHandler+0x40>
24054b46:	2908      	cmp	r1, #8
24054b48:	d103      	bne.n	24054b52 <HAL_OSPI_IRQHandler+0xbe>
24054b4a:	4620      	mov	r0, r4
24054b4c:	f7ff ff9d 	bl	24054a8a <HAL_OSPI_CmdCpltCallback>
24054b50:	e7c0      	b.n	24054ad4 <HAL_OSPI_IRQHandler+0x40>
24054b52:	f5b1 7f80 	cmp.w	r1, #256	; 0x100
24054b56:	d1bd      	bne.n	24054ad4 <HAL_OSPI_IRQHandler+0x40>
24054b58:	6da3      	ldr	r3, [r4, #88]	; 0x58
24054b5a:	4620      	mov	r0, r4
24054b5c:	2b00      	cmp	r3, #0
24054b5e:	d131      	bne.n	24054bc4 <HAL_OSPI_IRQHandler+0x130>
24054b60:	f7ff ff6f 	bl	24054a42 <HAL_OSPI_AbortCpltCallback>
24054b64:	e7b6      	b.n	24054ad4 <HAL_OSPI_IRQHandler+0x40>
24054b66:	0711      	lsls	r1, r2, #28
24054b68:	d510      	bpl.n	24054b8c <HAL_OSPI_IRQHandler+0xf8>
24054b6a:	0305      	lsls	r5, r0, #12
24054b6c:	d50e      	bpl.n	24054b8c <HAL_OSPI_IRQHandler+0xf8>
24054b6e:	2208      	movs	r2, #8
24054b70:	625a      	str	r2, [r3, #36]	; 0x24
24054b72:	681a      	ldr	r2, [r3, #0]
24054b74:	0250      	lsls	r0, r2, #9
24054b76:	d505      	bpl.n	24054b84 <HAL_OSPI_IRQHandler+0xf0>
24054b78:	681a      	ldr	r2, [r3, #0]
24054b7a:	f422 2210 	bic.w	r2, r2, #589824	; 0x90000
24054b7e:	601a      	str	r2, [r3, #0]
24054b80:	2302      	movs	r3, #2
24054b82:	6563      	str	r3, [r4, #84]	; 0x54
24054b84:	4620      	mov	r0, r4
24054b86:	f7ff ff83 	bl	24054a90 <HAL_OSPI_StatusMatchCallback>
24054b8a:	e7a3      	b.n	24054ad4 <HAL_OSPI_IRQHandler+0x40>
24054b8c:	07d1      	lsls	r1, r2, #31
24054b8e:	d51c      	bpl.n	24054bca <HAL_OSPI_IRQHandler+0x136>
24054b90:	03c5      	lsls	r5, r0, #15
24054b92:	d51a      	bpl.n	24054bca <HAL_OSPI_IRQHandler+0x136>
24054b94:	2201      	movs	r2, #1
24054b96:	2502      	movs	r5, #2
24054b98:	625a      	str	r2, [r3, #36]	; 0x24
24054b9a:	681a      	ldr	r2, [r3, #0]
24054b9c:	f422 12f8 	bic.w	r2, r2, #2031616	; 0x1f0000
24054ba0:	601a      	str	r2, [r3, #0]
24054ba2:	65a5      	str	r5, [r4, #88]	; 0x58
24054ba4:	681a      	ldr	r2, [r3, #0]
24054ba6:	0750      	lsls	r0, r2, #29
24054ba8:	d50a      	bpl.n	24054bc0 <HAL_OSPI_IRQHandler+0x12c>
24054baa:	681a      	ldr	r2, [r3, #0]
24054bac:	6d20      	ldr	r0, [r4, #80]	; 0x50
24054bae:	f022 0204 	bic.w	r2, r2, #4
24054bb2:	601a      	str	r2, [r3, #0]
24054bb4:	4b0a      	ldr	r3, [pc, #40]	; (24054be0 <HAL_OSPI_IRQHandler+0x14c>)
24054bb6:	6583      	str	r3, [r0, #88]	; 0x58
24054bb8:	f7ff fd3b 	bl	24054632 <HAL_MDMA_Abort_IT>
24054bbc:	2800      	cmp	r0, #0
24054bbe:	d089      	beq.n	24054ad4 <HAL_OSPI_IRQHandler+0x40>
24054bc0:	4620      	mov	r0, r4
24054bc2:	6565      	str	r5, [r4, #84]	; 0x54
24054bc4:	f7ff ff3c 	bl	24054a40 <HAL_OSPI_ErrorCallback>
24054bc8:	e784      	b.n	24054ad4 <HAL_OSPI_IRQHandler+0x40>
24054bca:	06d1      	lsls	r1, r2, #27
24054bcc:	d582      	bpl.n	24054ad4 <HAL_OSPI_IRQHandler+0x40>
24054bce:	02c2      	lsls	r2, r0, #11
24054bd0:	d580      	bpl.n	24054ad4 <HAL_OSPI_IRQHandler+0x40>
24054bd2:	2210      	movs	r2, #16
24054bd4:	4620      	mov	r0, r4
24054bd6:	625a      	str	r2, [r3, #36]	; 0x24
24054bd8:	f7ff ff5b 	bl	24054a92 <HAL_OSPI_TimeOutCallback>
24054bdc:	e77a      	b.n	24054ad4 <HAL_OSPI_IRQHandler+0x40>
24054bde:	bf00      	nop
24054be0:	24054a45 	.word	0x24054a45

24054be4 <HAL_OSPIM_Config>:
24054be4:	4bc4      	ldr	r3, [pc, #784]	; (24054ef8 <HAL_OSPIM_Config+0x314>)
24054be6:	6802      	ldr	r2, [r0, #0]
24054be8:	e92d 4ff0 	stmdb	sp!, {r4, r5, r6, r7, r8, r9, sl, fp, lr}
24054bec:	429a      	cmp	r2, r3
24054bee:	b08f      	sub	sp, #60	; 0x3c
24054bf0:	4688      	mov	r8, r1
24054bf2:	f04f 0501 	mov.w	r5, #1
24054bf6:	bf0b      	itete	eq
24054bf8:	f04f 0c01 	moveq.w	ip, #1
24054bfc:	f04f 0c00 	movne.w	ip, #0
24054c00:	2400      	moveq	r4, #0
24054c02:	2401      	movne	r4, #1
24054c04:	ab02      	add	r3, sp, #8
24054c06:	2600      	movs	r6, #0
24054c08:	f8df e2f4 	ldr.w	lr, [pc, #756]	; 24054f00 <HAL_OSPIM_Config+0x31c>
24054c0c:	f8df 92f4 	ldr.w	r9, [pc, #756]	; 24054f04 <HAL_OSPIM_Config+0x320>
24054c10:	2d02      	cmp	r5, #2
24054c12:	611e      	str	r6, [r3, #16]
24054c14:	e9c3 6600 	strd	r6, r6, [r3]
24054c18:	e9c3 6602 	strd	r6, r6, [r3, #8]
24054c1c:	f040 8126 	bne.w	24054e6c <HAL_OSPIM_Config+0x288>
24054c20:	f8de 2000 	ldr.w	r2, [lr]
24054c24:	f012 0f01 	tst.w	r2, #1
24054c28:	bf0c      	ite	eq
24054c2a:	4648      	moveq	r0, r9
24054c2c:	f44f 7000 	movne.w	r0, #512	; 0x200
24054c30:	2700      	movs	r7, #0
24054c32:	eb0e 0287 	add.w	r2, lr, r7, lsl #2
24054c36:	1c79      	adds	r1, r7, #1
24054c38:	6852      	ldr	r2, [r2, #4]
24054c3a:	07d7      	lsls	r7, r2, #31
24054c3c:	d504      	bpl.n	24054c48 <HAL_OSPIM_Config+0x64>
24054c3e:	ea82 0700 	eor.w	r7, r2, r0
24054c42:	07bf      	lsls	r7, r7, #30
24054c44:	bf58      	it	pl
24054c46:	6019      	strpl	r1, [r3, #0]
24054c48:	06d7      	lsls	r7, r2, #27
24054c4a:	d504      	bpl.n	24054c56 <HAL_OSPIM_Config+0x72>
24054c4c:	ea82 0700 	eor.w	r7, r2, r0
24054c50:	06bf      	lsls	r7, r7, #26
24054c52:	bf58      	it	pl
24054c54:	6059      	strpl	r1, [r3, #4]
24054c56:	05d7      	lsls	r7, r2, #23
24054c58:	d504      	bpl.n	24054c64 <HAL_OSPIM_Config+0x80>
24054c5a:	ea82 0700 	eor.w	r7, r2, r0
24054c5e:	05bf      	lsls	r7, r7, #22
24054c60:	bf58      	it	pl
24054c62:	6099      	strpl	r1, [r3, #8]
24054c64:	03d7      	lsls	r7, r2, #15
24054c66:	d50a      	bpl.n	24054c7e <HAL_OSPIM_Config+0x9a>
24054c68:	ea82 0700 	eor.w	r7, r2, r0
24054c6c:	037f      	lsls	r7, r7, #13
24054c6e:	d406      	bmi.n	24054c7e <HAL_OSPIM_Config+0x9a>
24054c70:	0397      	lsls	r7, r2, #14
24054c72:	bf54      	ite	pl
24054c74:	f441 3780 	orrpl.w	r7, r1, #65536	; 0x10000
24054c78:	f041 7780 	orrmi.w	r7, r1, #16777216	; 0x1000000
24054c7c:	60df      	str	r7, [r3, #12]
24054c7e:	01d7      	lsls	r7, r2, #7
24054c80:	d50a      	bpl.n	24054c98 <HAL_OSPIM_Config+0xb4>
24054c82:	ea82 0700 	eor.w	r7, r2, r0
24054c86:	017f      	lsls	r7, r7, #5
24054c88:	d406      	bmi.n	24054c98 <HAL_OSPIM_Config+0xb4>
24054c8a:	0197      	lsls	r7, r2, #6
24054c8c:	bf54      	ite	pl
24054c8e:	f441 3280 	orrpl.w	r2, r1, #65536	; 0x10000
24054c92:	f041 7280 	orrmi.w	r2, r1, #16777216	; 0x1000000
24054c96:	611a      	str	r2, [r3, #16]
24054c98:	2902      	cmp	r1, #2
24054c9a:	f04f 0701 	mov.w	r7, #1
24054c9e:	d1c8      	bne.n	24054c32 <HAL_OSPIM_Config+0x4e>
24054ca0:	2d02      	cmp	r5, #2
24054ca2:	f103 0318 	add.w	r3, r3, #24
24054ca6:	f040 80df 	bne.w	24054e68 <HAL_OSPIM_Config+0x284>
24054caa:	4a93      	ldr	r2, [pc, #588]	; (24054ef8 <HAL_OSPIM_Config+0x314>)
24054cac:	6815      	ldr	r5, [r2, #0]
24054cae:	403d      	ands	r5, r7
24054cb0:	d004      	beq.n	24054cbc <HAL_OSPIM_Config+0xd8>
24054cb2:	6813      	ldr	r3, [r2, #0]
24054cb4:	463d      	mov	r5, r7
24054cb6:	f023 0301 	bic.w	r3, r3, #1
24054cba:	6013      	str	r3, [r2, #0]
24054cbc:	4b8f      	ldr	r3, [pc, #572]	; (24054efc <HAL_OSPIM_Config+0x318>)
24054cbe:	681a      	ldr	r2, [r3, #0]
24054cc0:	07d0      	lsls	r0, r2, #31
24054cc2:	f140 80d5 	bpl.w	24054e70 <HAL_OSPIM_Config+0x28c>
24054cc6:	681a      	ldr	r2, [r3, #0]
24054cc8:	f022 0201 	bic.w	r2, r2, #1
24054ccc:	601a      	str	r2, [r3, #0]
24054cce:	f045 0302 	orr.w	r3, r5, #2
24054cd2:	9301      	str	r3, [sp, #4]
24054cd4:	ab0e      	add	r3, sp, #56	; 0x38
24054cd6:	2218      	movs	r2, #24
24054cd8:	fb02 3204 	mla	r2, r2, r4, r3
24054cdc:	f852 3c28 	ldr.w	r3, [r2, #-40]
24054ce0:	009b      	lsls	r3, r3, #2
24054ce2:	f103 43a4 	add.w	r3, r3, #1375731712	; 0x52000000
24054ce6:	f503 4334 	add.w	r3, r3, #46080	; 0xb400
24054cea:	6819      	ldr	r1, [r3, #0]
24054cec:	f421 7180 	bic.w	r1, r1, #256	; 0x100
24054cf0:	6019      	str	r1, [r3, #0]
24054cf2:	4b83      	ldr	r3, [pc, #524]	; (24054f00 <HAL_OSPIM_Config+0x31c>)
24054cf4:	6819      	ldr	r1, [r3, #0]
24054cf6:	07c9      	lsls	r1, r1, #31
24054cf8:	f140 80bc 	bpl.w	24054e74 <HAL_OSPIM_Config+0x290>
24054cfc:	681a      	ldr	r2, [r3, #0]
24054cfe:	f022 0201 	bic.w	r2, r2, #1
24054d02:	601a      	str	r2, [r3, #0]
24054d04:	f1bc 0f00 	cmp.w	ip, #0
24054d08:	d030      	beq.n	24054d6c <HAL_OSPIM_Config+0x188>
24054d0a:	9b08      	ldr	r3, [sp, #32]
24054d0c:	009b      	lsls	r3, r3, #2
24054d0e:	f103 43a4 	add.w	r3, r3, #1375731712	; 0x52000000
24054d12:	f503 4334 	add.w	r3, r3, #46080	; 0xb400
24054d16:	681a      	ldr	r2, [r3, #0]
24054d18:	f042 0202 	orr.w	r2, r2, #2
24054d1c:	601a      	str	r2, [r3, #0]
24054d1e:	9b09      	ldr	r3, [sp, #36]	; 0x24
24054d20:	b143      	cbz	r3, 24054d34 <HAL_OSPIM_Config+0x150>
24054d22:	009b      	lsls	r3, r3, #2
24054d24:	f103 43a4 	add.w	r3, r3, #1375731712	; 0x52000000
24054d28:	f503 4334 	add.w	r3, r3, #46080	; 0xb400
24054d2c:	681a      	ldr	r2, [r3, #0]
24054d2e:	f042 0220 	orr.w	r2, r2, #32
24054d32:	601a      	str	r2, [r3, #0]
24054d34:	9b0b      	ldr	r3, [sp, #44]	; 0x2c
24054d36:	b15b      	cbz	r3, 24054d50 <HAL_OSPIM_Config+0x16c>
24054d38:	3b01      	subs	r3, #1
24054d3a:	f003 0301 	and.w	r3, r3, #1
24054d3e:	009b      	lsls	r3, r3, #2
24054d40:	f103 43a4 	add.w	r3, r3, #1375731712	; 0x52000000
24054d44:	f503 4334 	add.w	r3, r3, #46080	; 0xb400
24054d48:	685a      	ldr	r2, [r3, #4]
24054d4a:	f442 2280 	orr.w	r2, r2, #262144	; 0x40000
24054d4e:	605a      	str	r2, [r3, #4]
24054d50:	9b0c      	ldr	r3, [sp, #48]	; 0x30
24054d52:	b15b      	cbz	r3, 24054d6c <HAL_OSPIM_Config+0x188>
24054d54:	3b01      	subs	r3, #1
24054d56:	f003 0301 	and.w	r3, r3, #1
24054d5a:	009b      	lsls	r3, r3, #2
24054d5c:	f103 43a4 	add.w	r3, r3, #1375731712	; 0x52000000
24054d60:	f503 4334 	add.w	r3, r3, #46080	; 0xb400
24054d64:	685a      	ldr	r2, [r3, #4]
24054d66:	f042 6280 	orr.w	r2, r2, #67108864	; 0x4000000
24054d6a:	605a      	str	r2, [r3, #4]
24054d6c:	ab0e      	add	r3, sp, #56	; 0x38
24054d6e:	f04f 0a18 	mov.w	sl, #24
24054d72:	f8d8 7000 	ldr.w	r7, [r8]
24054d76:	fb0a 3a0c 	mla	sl, sl, ip, r3
24054d7a:	f85a 9c30 	ldr.w	r9, [sl, #-48]
24054d7e:	f85a 1c20 	ldr.w	r1, [sl, #-32]
24054d82:	454f      	cmp	r7, r9
24054d84:	f85a bc2c 	ldr.w	fp, [sl, #-44]
24054d88:	e9d8 0e01 	ldrd	r0, lr, [r8, #4]
24054d8c:	e9d8 2303 	ldrd	r2, r3, [r8, #12]
24054d90:	f000 80ba 	beq.w	24054f08 <HAL_OSPIM_Config+0x324>
24054d94:	4583      	cmp	fp, r0
24054d96:	d00a      	beq.n	24054dae <HAL_OSPIM_Config+0x1ca>
24054d98:	f85a 6c28 	ldr.w	r6, [sl, #-40]
24054d9c:	4576      	cmp	r6, lr
24054d9e:	d006      	beq.n	24054dae <HAL_OSPIM_Config+0x1ca>
24054da0:	f85a ac24 	ldr.w	sl, [sl, #-36]
24054da4:	4592      	cmp	sl, r2
24054da6:	d002      	beq.n	24054dae <HAL_OSPIM_Config+0x1ca>
24054da8:	4299      	cmp	r1, r3
24054daa:	f040 80c0 	bne.w	24054f2e <HAL_OSPIM_Config+0x34a>
24054dae:	ea4f 0989 	mov.w	r9, r9, lsl #2
24054db2:	ae0e      	add	r6, sp, #56	; 0x38
24054db4:	f109 49a4 	add.w	r9, r9, #1375731712	; 0x52000000
24054db8:	f509 4934 	add.w	r9, r9, #46080	; 0xb400
24054dbc:	f8d9 a000 	ldr.w	sl, [r9]
24054dc0:	f02a 0a01 	bic.w	sl, sl, #1
24054dc4:	f8c9 a000 	str.w	sl, [r9]
24054dc8:	f04f 0918 	mov.w	r9, #24
24054dcc:	fb09 690c 	mla	r9, r9, ip, r6
24054dd0:	f859 9c2c 	ldr.w	r9, [r9, #-44]
24054dd4:	f1b9 0f00 	cmp.w	r9, #0
24054dd8:	d00b      	beq.n	24054df2 <HAL_OSPIM_Config+0x20e>
24054dda:	ea4f 0989 	mov.w	r9, r9, lsl #2
24054dde:	f109 49a4 	add.w	r9, r9, #1375731712	; 0x52000000
24054de2:	f509 4934 	add.w	r9, r9, #46080	; 0xb400
24054de6:	f8d9 a000 	ldr.w	sl, [r9]
24054dea:	f02a 0a10 	bic.w	sl, sl, #16
24054dee:	f8c9 a000 	str.w	sl, [r9]
24054df2:	f04f 0918 	mov.w	r9, #24
24054df6:	ae0e      	add	r6, sp, #56	; 0x38
24054df8:	fb09 6c0c 	mla	ip, r9, ip, r6
24054dfc:	f85c 6c28 	ldr.w	r6, [ip, #-40]
24054e00:	f85c cc24 	ldr.w	ip, [ip, #-36]
24054e04:	ea4f 0986 	mov.w	r9, r6, lsl #2
24054e08:	f109 49a4 	add.w	r9, r9, #1375731712	; 0x52000000
24054e0c:	f509 4934 	add.w	r9, r9, #46080	; 0xb400
24054e10:	f8d9 a000 	ldr.w	sl, [r9]
24054e14:	f42a 7a80 	bic.w	sl, sl, #256	; 0x100
24054e18:	f8c9 a000 	str.w	sl, [r9]
24054e1c:	f1bc 0f00 	cmp.w	ip, #0
24054e20:	d00f      	beq.n	24054e42 <HAL_OSPIM_Config+0x25e>
24054e22:	f10c 3cff 	add.w	ip, ip, #4294967295
24054e26:	f00c 0c01 	and.w	ip, ip, #1
24054e2a:	ea4f 0c8c 	mov.w	ip, ip, lsl #2
24054e2e:	f10c 4ca4 	add.w	ip, ip, #1375731712	; 0x52000000
24054e32:	f50c 4c34 	add.w	ip, ip, #46080	; 0xb400
24054e36:	f8dc 9004 	ldr.w	r9, [ip, #4]
24054e3a:	f429 3980 	bic.w	r9, r9, #65536	; 0x10000
24054e3e:	f8cc 9004 	str.w	r9, [ip, #4]
24054e42:	2900      	cmp	r1, #0
24054e44:	d073      	beq.n	24054f2e <HAL_OSPIM_Config+0x34a>
24054e46:	f101 3cff 	add.w	ip, r1, #4294967295
24054e4a:	f00c 0c01 	and.w	ip, ip, #1
24054e4e:	ea4f 0c8c 	mov.w	ip, ip, lsl #2
24054e52:	f10c 4ca4 	add.w	ip, ip, #1375731712	; 0x52000000
24054e56:	f50c 4c34 	add.w	ip, ip, #46080	; 0xb400
24054e5a:	f8dc 1004 	ldr.w	r1, [ip, #4]
24054e5e:	f021 7180 	bic.w	r1, r1, #16777216	; 0x1000000
24054e62:	f8cc 1004 	str.w	r1, [ip, #4]
24054e66:	e062      	b.n	24054f2e <HAL_OSPIM_Config+0x34a>
24054e68:	460d      	mov	r5, r1
24054e6a:	e6d1      	b.n	24054c10 <HAL_OSPIM_Config+0x2c>
24054e6c:	2000      	movs	r0, #0
24054e6e:	e6df      	b.n	24054c30 <HAL_OSPIM_Config+0x4c>
24054e70:	9501      	str	r5, [sp, #4]
24054e72:	e72f      	b.n	24054cd4 <HAL_OSPIM_Config+0xf0>
24054e74:	f852 3c30 	ldr.w	r3, [r2, #-48]
24054e78:	2b00      	cmp	r3, #0
24054e7a:	f43f af77 	beq.w	24054d6c <HAL_OSPIM_Config+0x188>
24054e7e:	009b      	lsls	r3, r3, #2
24054e80:	f103 43a4 	add.w	r3, r3, #1375731712	; 0x52000000
24054e84:	f503 4334 	add.w	r3, r3, #46080	; 0xb400
24054e88:	6819      	ldr	r1, [r3, #0]
24054e8a:	f021 0101 	bic.w	r1, r1, #1
24054e8e:	6019      	str	r1, [r3, #0]
24054e90:	f852 3c2c 	ldr.w	r3, [r2, #-44]
24054e94:	b143      	cbz	r3, 24054ea8 <HAL_OSPIM_Config+0x2c4>
24054e96:	009b      	lsls	r3, r3, #2
24054e98:	f103 43a4 	add.w	r3, r3, #1375731712	; 0x52000000
24054e9c:	f503 4334 	add.w	r3, r3, #46080	; 0xb400
24054ea0:	681a      	ldr	r2, [r3, #0]
24054ea2:	f022 0210 	bic.w	r2, r2, #16
24054ea6:	601a      	str	r2, [r3, #0]
24054ea8:	2318      	movs	r3, #24
24054eaa:	aa0e      	add	r2, sp, #56	; 0x38
24054eac:	fb03 2304 	mla	r3, r3, r4, r2
24054eb0:	f853 3c24 	ldr.w	r3, [r3, #-36]
24054eb4:	b15b      	cbz	r3, 24054ece <HAL_OSPIM_Config+0x2ea>
24054eb6:	3b01      	subs	r3, #1
24054eb8:	f003 0301 	and.w	r3, r3, #1
24054ebc:	009b      	lsls	r3, r3, #2
24054ebe:	f103 43a4 	add.w	r3, r3, #1375731712	; 0x52000000
24054ec2:	f503 4334 	add.w	r3, r3, #46080	; 0xb400
24054ec6:	685a      	ldr	r2, [r3, #4]
24054ec8:	f422 3280 	bic.w	r2, r2, #65536	; 0x10000
24054ecc:	605a      	str	r2, [r3, #4]
24054ece:	2318      	movs	r3, #24
24054ed0:	aa0e      	add	r2, sp, #56	; 0x38
24054ed2:	fb03 2304 	mla	r3, r3, r4, r2
24054ed6:	f853 3c20 	ldr.w	r3, [r3, #-32]
24054eda:	2b00      	cmp	r3, #0
24054edc:	f43f af46 	beq.w	24054d6c <HAL_OSPIM_Config+0x188>
24054ee0:	3b01      	subs	r3, #1
24054ee2:	f003 0301 	and.w	r3, r3, #1
24054ee6:	009b      	lsls	r3, r3, #2
24054ee8:	f103 43a4 	add.w	r3, r3, #1375731712	; 0x52000000
24054eec:	f503 4334 	add.w	r3, r3, #46080	; 0xb400
24054ef0:	685a      	ldr	r2, [r3, #4]
24054ef2:	f022 7280 	bic.w	r2, r2, #16777216	; 0x1000000
24054ef6:	e738      	b.n	24054d6a <HAL_OSPIM_Config+0x186>
24054ef8:	52005000 	.word	0x52005000
24054efc:	5200a000 	.word	0x5200a000
24054f00:	5200b400 	.word	0x5200b400
24054f04:	04040222 	.word	0x04040222
24054f08:	4583      	cmp	fp, r0
24054f0a:	f47f af50 	bne.w	24054dae <HAL_OSPIM_Config+0x1ca>
24054f0e:	f85a ac24 	ldr.w	sl, [sl, #-36]
24054f12:	4592      	cmp	sl, r2
24054f14:	f47f af4b 	bne.w	24054dae <HAL_OSPIM_Config+0x1ca>
24054f18:	4299      	cmp	r1, r3
24054f1a:	f47f af48 	bne.w	24054dae <HAL_OSPIM_Config+0x1ca>
24054f1e:	f8df c1fc 	ldr.w	ip, [pc, #508]	; 2405511c <HAL_OSPIM_Config+0x538>
24054f22:	f8dc 1000 	ldr.w	r1, [ip]
24054f26:	f041 0101 	orr.w	r1, r1, #1
24054f2a:	f8cc 1000 	str.w	r1, [ip]
24054f2e:	ea4f 0e8e 	mov.w	lr, lr, lsl #2
24054f32:	f10e 4ea4 	add.w	lr, lr, #1375731712	; 0x52000000
24054f36:	f50e 4e34 	add.w	lr, lr, #46080	; 0xb400
24054f3a:	f8de 1000 	ldr.w	r1, [lr]
24054f3e:	f421 7140 	bic.w	r1, r1, #768	; 0x300
24054f42:	ea41 2144 	orr.w	r1, r1, r4, lsl #9
24054f46:	f441 7180 	orr.w	r1, r1, #256	; 0x100
24054f4a:	f8ce 1000 	str.w	r1, [lr]
24054f4e:	f8d8 1014 	ldr.w	r1, [r8, #20]
24054f52:	f101 3eff 	add.w	lr, r1, #4294967295
24054f56:	4971      	ldr	r1, [pc, #452]	; (2405511c <HAL_OSPIM_Config+0x538>)
24054f58:	f8d1 c000 	ldr.w	ip, [r1]
24054f5c:	f3cc 4c07 	ubfx	ip, ip, #16, #8
24054f60:	45e6      	cmp	lr, ip
24054f62:	d907      	bls.n	24054f74 <HAL_OSPIM_Config+0x390>
24054f64:	f8d1 c000 	ldr.w	ip, [r1]
24054f68:	f42c 0c7f 	bic.w	ip, ip, #16711680	; 0xff0000
24054f6c:	ea4c 4c0e 	orr.w	ip, ip, lr, lsl #16
24054f70:	f8c1 c000 	str.w	ip, [r1]
24054f74:	6809      	ldr	r1, [r1, #0]
24054f76:	f402 3c80 	and.w	ip, r2, #65536	; 0x10000
24054f7a:	f011 0f01 	tst.w	r1, #1
24054f7e:	ea4f 0187 	mov.w	r1, r7, lsl #2
24054f82:	f403 3780 	and.w	r7, r3, #65536	; 0x10000
24054f86:	f101 41a4 	add.w	r1, r1, #1375731712	; 0x52000000
24054f8a:	f501 4134 	add.w	r1, r1, #46080	; 0xb400
24054f8e:	d063      	beq.n	24055058 <HAL_OSPIM_Config+0x474>
24054f90:	680c      	ldr	r4, [r1, #0]
24054f92:	f024 0403 	bic.w	r4, r4, #3
24054f96:	f044 0401 	orr.w	r4, r4, #1
24054f9a:	600c      	str	r4, [r1, #0]
24054f9c:	b150      	cbz	r0, 24054fb4 <HAL_OSPIM_Config+0x3d0>
24054f9e:	0080      	lsls	r0, r0, #2
24054fa0:	f100 40a4 	add.w	r0, r0, #1375731712	; 0x52000000
24054fa4:	f500 4034 	add.w	r0, r0, #46080	; 0xb400
24054fa8:	6801      	ldr	r1, [r0, #0]
24054faa:	f021 0130 	bic.w	r1, r1, #48	; 0x30
24054fae:	f041 0110 	orr.w	r1, r1, #16
24054fb2:	6001      	str	r1, [r0, #0]
24054fb4:	f1bc 0f00 	cmp.w	ip, #0
24054fb8:	d02e      	beq.n	24055018 <HAL_OSPIM_Config+0x434>
24054fba:	3a01      	subs	r2, #1
24054fbc:	f002 0201 	and.w	r2, r2, #1
24054fc0:	0092      	lsls	r2, r2, #2
24054fc2:	f102 42a4 	add.w	r2, r2, #1375731712	; 0x52000000
24054fc6:	f502 4234 	add.w	r2, r2, #46080	; 0xb400
24054fca:	6851      	ldr	r1, [r2, #4]
24054fcc:	f421 21e0 	bic.w	r1, r1, #458752	; 0x70000
24054fd0:	f441 3180 	orr.w	r1, r1, #65536	; 0x10000
24054fd4:	6051      	str	r1, [r2, #4]
24054fd6:	b37f      	cbz	r7, 24055038 <HAL_OSPIM_Config+0x454>
24054fd8:	3b01      	subs	r3, #1
24054fda:	f003 0301 	and.w	r3, r3, #1
24054fde:	009b      	lsls	r3, r3, #2
24054fe0:	f103 43a4 	add.w	r3, r3, #1375731712	; 0x52000000
24054fe4:	f503 4334 	add.w	r3, r3, #46080	; 0xb400
24054fe8:	685a      	ldr	r2, [r3, #4]
24054fea:	f422 22e0 	bic.w	r2, r2, #458752	; 0x70000
24054fee:	f442 3240 	orr.w	r2, r2, #196608	; 0x30000
24054ff2:	605a      	str	r2, [r3, #4]
24054ff4:	b125      	cbz	r5, 24055000 <HAL_OSPIM_Config+0x41c>
24054ff6:	4a4a      	ldr	r2, [pc, #296]	; (24055120 <HAL_OSPIM_Config+0x53c>)
24054ff8:	6813      	ldr	r3, [r2, #0]
24054ffa:	f043 0301 	orr.w	r3, r3, #1
24054ffe:	6013      	str	r3, [r2, #0]
24055000:	9b01      	ldr	r3, [sp, #4]
24055002:	079b      	lsls	r3, r3, #30
24055004:	d504      	bpl.n	24055010 <HAL_OSPIM_Config+0x42c>
24055006:	4a47      	ldr	r2, [pc, #284]	; (24055124 <HAL_OSPIM_Config+0x540>)
24055008:	6813      	ldr	r3, [r2, #0]
2405500a:	f043 0301 	orr.w	r3, r3, #1
2405500e:	6013      	str	r3, [r2, #0]
24055010:	2000      	movs	r0, #0
24055012:	b00f      	add	sp, #60	; 0x3c
24055014:	e8bd 8ff0 	ldmia.w	sp!, {r4, r5, r6, r7, r8, r9, sl, fp, pc}
24055018:	2a00      	cmp	r2, #0
2405501a:	d0dc      	beq.n	24054fd6 <HAL_OSPIM_Config+0x3f2>
2405501c:	3a01      	subs	r2, #1
2405501e:	f002 0201 	and.w	r2, r2, #1
24055022:	0092      	lsls	r2, r2, #2
24055024:	f102 42a4 	add.w	r2, r2, #1375731712	; 0x52000000
24055028:	f502 4234 	add.w	r2, r2, #46080	; 0xb400
2405502c:	6851      	ldr	r1, [r2, #4]
2405502e:	f021 61e0 	bic.w	r1, r1, #117440512	; 0x7000000
24055032:	f041 7180 	orr.w	r1, r1, #16777216	; 0x1000000
24055036:	e7cd      	b.n	24054fd4 <HAL_OSPIM_Config+0x3f0>
24055038:	2b00      	cmp	r3, #0
2405503a:	d0db      	beq.n	24054ff4 <HAL_OSPIM_Config+0x410>
2405503c:	3b01      	subs	r3, #1
2405503e:	f003 0301 	and.w	r3, r3, #1
24055042:	009b      	lsls	r3, r3, #2
24055044:	f103 43a4 	add.w	r3, r3, #1375731712	; 0x52000000
24055048:	f503 4334 	add.w	r3, r3, #46080	; 0xb400
2405504c:	685a      	ldr	r2, [r3, #4]
2405504e:	f022 62e0 	bic.w	r2, r2, #117440512	; 0x7000000
24055052:	f042 7240 	orr.w	r2, r2, #50331648	; 0x3000000
24055056:	e7cc      	b.n	24054ff2 <HAL_OSPIM_Config+0x40e>
24055058:	f8d1 e000 	ldr.w	lr, [r1]
2405505c:	f02e 0e03 	bic.w	lr, lr, #3
24055060:	ea4e 0e44 	orr.w	lr, lr, r4, lsl #1
24055064:	f04e 0e01 	orr.w	lr, lr, #1
24055068:	f8c1 e000 	str.w	lr, [r1]
2405506c:	b160      	cbz	r0, 24055088 <HAL_OSPIM_Config+0x4a4>
2405506e:	0080      	lsls	r0, r0, #2
24055070:	f100 40a4 	add.w	r0, r0, #1375731712	; 0x52000000
24055074:	f500 4034 	add.w	r0, r0, #46080	; 0xb400
24055078:	6801      	ldr	r1, [r0, #0]
2405507a:	f021 0130 	bic.w	r1, r1, #48	; 0x30
2405507e:	ea41 1144 	orr.w	r1, r1, r4, lsl #5
24055082:	f041 0110 	orr.w	r1, r1, #16
24055086:	6001      	str	r1, [r0, #0]
24055088:	f1bc 0f00 	cmp.w	ip, #0
2405508c:	d021      	beq.n	240550d2 <HAL_OSPIM_Config+0x4ee>
2405508e:	3a01      	subs	r2, #1
24055090:	f002 0201 	and.w	r2, r2, #1
24055094:	0092      	lsls	r2, r2, #2
24055096:	f102 42a4 	add.w	r2, r2, #1375731712	; 0x52000000
2405509a:	f502 4234 	add.w	r2, r2, #46080	; 0xb400
2405509e:	6851      	ldr	r1, [r2, #4]
240550a0:	f421 21e0 	bic.w	r1, r1, #458752	; 0x70000
240550a4:	ea41 4184 	orr.w	r1, r1, r4, lsl #18
240550a8:	f441 3180 	orr.w	r1, r1, #65536	; 0x10000
240550ac:	6051      	str	r1, [r2, #4]
240550ae:	b317      	cbz	r7, 240550f6 <HAL_OSPIM_Config+0x512>
240550b0:	3b01      	subs	r3, #1
240550b2:	f003 0301 	and.w	r3, r3, #1
240550b6:	009b      	lsls	r3, r3, #2
240550b8:	f103 43a4 	add.w	r3, r3, #1375731712	; 0x52000000
240550bc:	f503 4334 	add.w	r3, r3, #46080	; 0xb400
240550c0:	685a      	ldr	r2, [r3, #4]
240550c2:	f422 22e0 	bic.w	r2, r2, #458752	; 0x70000
240550c6:	ea42 4484 	orr.w	r4, r2, r4, lsl #18
240550ca:	f444 3440 	orr.w	r4, r4, #196608	; 0x30000
240550ce:	605c      	str	r4, [r3, #4]
240550d0:	e790      	b.n	24054ff4 <HAL_OSPIM_Config+0x410>
240550d2:	2a00      	cmp	r2, #0
240550d4:	d0eb      	beq.n	240550ae <HAL_OSPIM_Config+0x4ca>
240550d6:	3a01      	subs	r2, #1
240550d8:	f002 0201 	and.w	r2, r2, #1
240550dc:	0092      	lsls	r2, r2, #2
240550de:	f102 42a4 	add.w	r2, r2, #1375731712	; 0x52000000
240550e2:	f502 4234 	add.w	r2, r2, #46080	; 0xb400
240550e6:	6851      	ldr	r1, [r2, #4]
240550e8:	f021 61e0 	bic.w	r1, r1, #117440512	; 0x7000000
240550ec:	ea41 6184 	orr.w	r1, r1, r4, lsl #26
240550f0:	f041 7180 	orr.w	r1, r1, #16777216	; 0x1000000
240550f4:	e7da      	b.n	240550ac <HAL_OSPIM_Config+0x4c8>
240550f6:	2b00      	cmp	r3, #0
240550f8:	f43f af7c 	beq.w	24054ff4 <HAL_OSPIM_Config+0x410>
240550fc:	3b01      	subs	r3, #1
240550fe:	f003 0301 	and.w	r3, r3, #1
24055102:	009b      	lsls	r3, r3, #2
24055104:	f103 43a4 	add.w	r3, r3, #1375731712	; 0x52000000
24055108:	f503 4334 	add.w	r3, r3, #46080	; 0xb400
2405510c:	685a      	ldr	r2, [r3, #4]
2405510e:	f022 62e0 	bic.w	r2, r2, #117440512	; 0x7000000
24055112:	ea42 6484 	orr.w	r4, r2, r4, lsl #26
24055116:	f044 7440 	orr.w	r4, r4, #50331648	; 0x3000000
2405511a:	e7d8      	b.n	240550ce <HAL_OSPIM_Config+0x4ea>
2405511c:	5200b400 	.word	0x5200b400
24055120:	52005000 	.word	0x52005000
24055124:	5200a000 	.word	0x5200a000

24055128 <HAL_PWR_EnableBkUpAccess>:
24055128:	4a02      	ldr	r2, [pc, #8]	; (24055134 <HAL_PWR_EnableBkUpAccess+0xc>)
2405512a:	6813      	ldr	r3, [r2, #0]
2405512c:	f443 7380 	orr.w	r3, r3, #256	; 0x100
24055130:	6013      	str	r3, [r2, #0]
24055132:	4770      	bx	lr
24055134:	58024800 	.word	0x58024800

24055138 <HAL_PWREx_ConfigSupply>:
24055138:	b538      	push	{r3, r4, r5, lr}
2405513a:	4c10      	ldr	r4, [pc, #64]	; (2405517c <HAL_PWREx_ConfigSupply+0x44>)
2405513c:	68e3      	ldr	r3, [r4, #12]
2405513e:	f013 0f04 	tst.w	r3, #4
24055142:	68e3      	ldr	r3, [r4, #12]
24055144:	d105      	bne.n	24055152 <HAL_PWREx_ConfigSupply+0x1a>
24055146:	f003 0307 	and.w	r3, r3, #7
2405514a:	1a18      	subs	r0, r3, r0
2405514c:	bf18      	it	ne
2405514e:	2001      	movne	r0, #1
24055150:	bd38      	pop	{r3, r4, r5, pc}
24055152:	f023 0307 	bic.w	r3, r3, #7
24055156:	4318      	orrs	r0, r3
24055158:	60e0      	str	r0, [r4, #12]
2405515a:	f7fc fe71 	bl	24051e40 <HAL_GetTick>
2405515e:	4605      	mov	r5, r0
24055160:	6863      	ldr	r3, [r4, #4]
24055162:	049b      	lsls	r3, r3, #18
24055164:	d501      	bpl.n	2405516a <HAL_PWREx_ConfigSupply+0x32>
24055166:	2000      	movs	r0, #0
24055168:	e7f2      	b.n	24055150 <HAL_PWREx_ConfigSupply+0x18>
2405516a:	f7fc fe69 	bl	24051e40 <HAL_GetTick>
2405516e:	1b40      	subs	r0, r0, r5
24055170:	f5b0 7f7a 	cmp.w	r0, #1000	; 0x3e8
24055174:	d9f4      	bls.n	24055160 <HAL_PWREx_ConfigSupply+0x28>
24055176:	2001      	movs	r0, #1
24055178:	e7ea      	b.n	24055150 <HAL_PWREx_ConfigSupply+0x18>
2405517a:	bf00      	nop
2405517c:	58024800 	.word	0x58024800

24055180 <HAL_RCC_OscConfig>:
24055180:	b5f8      	push	{r3, r4, r5, r6, r7, lr}
24055182:	4604      	mov	r4, r0
24055184:	b908      	cbnz	r0, 2405518a <HAL_RCC_OscConfig+0xa>
24055186:	2001      	movs	r0, #1
24055188:	e07f      	b.n	2405528a <HAL_RCC_OscConfig+0x10a>
2405518a:	6803      	ldr	r3, [r0, #0]
2405518c:	07df      	lsls	r7, r3, #31
2405518e:	d453      	bmi.n	24055238 <HAL_RCC_OscConfig+0xb8>
24055190:	6823      	ldr	r3, [r4, #0]
24055192:	079e      	lsls	r6, r3, #30
24055194:	f100 80b9 	bmi.w	2405530a <HAL_RCC_OscConfig+0x18a>
24055198:	6823      	ldr	r3, [r4, #0]
2405519a:	06da      	lsls	r2, r3, #27
2405519c:	d51c      	bpl.n	240551d8 <HAL_RCC_OscConfig+0x58>
2405519e:	4ba3      	ldr	r3, [pc, #652]	; (2405542c <HAL_RCC_OscConfig+0x2ac>)
240551a0:	691a      	ldr	r2, [r3, #16]
240551a2:	6a99      	ldr	r1, [r3, #40]	; 0x28
240551a4:	f002 0238 	and.w	r2, r2, #56	; 0x38
240551a8:	2a08      	cmp	r2, #8
240551aa:	d007      	beq.n	240551bc <HAL_RCC_OscConfig+0x3c>
240551ac:	2a18      	cmp	r2, #24
240551ae:	f040 80fb 	bne.w	240553a8 <HAL_RCC_OscConfig+0x228>
240551b2:	f001 0203 	and.w	r2, r1, #3
240551b6:	2a01      	cmp	r2, #1
240551b8:	f040 80f6 	bne.w	240553a8 <HAL_RCC_OscConfig+0x228>
240551bc:	681b      	ldr	r3, [r3, #0]
240551be:	05db      	lsls	r3, r3, #23
240551c0:	d502      	bpl.n	240551c8 <HAL_RCC_OscConfig+0x48>
240551c2:	69e3      	ldr	r3, [r4, #28]
240551c4:	2b80      	cmp	r3, #128	; 0x80
240551c6:	d1de      	bne.n	24055186 <HAL_RCC_OscConfig+0x6>
240551c8:	4a98      	ldr	r2, [pc, #608]	; (2405542c <HAL_RCC_OscConfig+0x2ac>)
240551ca:	6a21      	ldr	r1, [r4, #32]
240551cc:	68d3      	ldr	r3, [r2, #12]
240551ce:	f023 537c 	bic.w	r3, r3, #1056964608	; 0x3f000000
240551d2:	ea43 6301 	orr.w	r3, r3, r1, lsl #24
240551d6:	60d3      	str	r3, [r2, #12]
240551d8:	6823      	ldr	r3, [r4, #0]
240551da:	0719      	lsls	r1, r3, #28
240551dc:	f100 8111 	bmi.w	24055402 <HAL_RCC_OscConfig+0x282>
240551e0:	6823      	ldr	r3, [r4, #0]
240551e2:	069a      	lsls	r2, r3, #26
240551e4:	f100 8137 	bmi.w	24055456 <HAL_RCC_OscConfig+0x2d6>
240551e8:	6823      	ldr	r3, [r4, #0]
240551ea:	075d      	lsls	r5, r3, #29
240551ec:	d51e      	bpl.n	2405522c <HAL_RCC_OscConfig+0xac>
240551ee:	4d90      	ldr	r5, [pc, #576]	; (24055430 <HAL_RCC_OscConfig+0x2b0>)
240551f0:	682b      	ldr	r3, [r5, #0]
240551f2:	f443 7380 	orr.w	r3, r3, #256	; 0x100
240551f6:	602b      	str	r3, [r5, #0]
240551f8:	f7fc fe22 	bl	24051e40 <HAL_GetTick>
240551fc:	4606      	mov	r6, r0
240551fe:	682b      	ldr	r3, [r5, #0]
24055200:	05da      	lsls	r2, r3, #23
24055202:	f140 814d 	bpl.w	240554a0 <HAL_RCC_OscConfig+0x320>
24055206:	68a3      	ldr	r3, [r4, #8]
24055208:	4d88      	ldr	r5, [pc, #544]	; (2405542c <HAL_RCC_OscConfig+0x2ac>)
2405520a:	2b01      	cmp	r3, #1
2405520c:	f040 814f 	bne.w	240554ae <HAL_RCC_OscConfig+0x32e>
24055210:	6f2b      	ldr	r3, [r5, #112]	; 0x70
24055212:	f043 0301 	orr.w	r3, r3, #1
24055216:	672b      	str	r3, [r5, #112]	; 0x70
24055218:	f241 3788 	movw	r7, #5000	; 0x1388
2405521c:	f7fc fe10 	bl	24051e40 <HAL_GetTick>
24055220:	4e82      	ldr	r6, [pc, #520]	; (2405542c <HAL_RCC_OscConfig+0x2ac>)
24055222:	4605      	mov	r5, r0
24055224:	6f33      	ldr	r3, [r6, #112]	; 0x70
24055226:	079b      	lsls	r3, r3, #30
24055228:	f140 817d 	bpl.w	24055526 <HAL_RCC_OscConfig+0x3a6>
2405522c:	6a60      	ldr	r0, [r4, #36]	; 0x24
2405522e:	2800      	cmp	r0, #0
24055230:	f040 8180 	bne.w	24055534 <HAL_RCC_OscConfig+0x3b4>
24055234:	2000      	movs	r0, #0
24055236:	e028      	b.n	2405528a <HAL_RCC_OscConfig+0x10a>
24055238:	4b7c      	ldr	r3, [pc, #496]	; (2405542c <HAL_RCC_OscConfig+0x2ac>)
2405523a:	691a      	ldr	r2, [r3, #16]
2405523c:	6a99      	ldr	r1, [r3, #40]	; 0x28
2405523e:	f002 0238 	and.w	r2, r2, #56	; 0x38
24055242:	2a10      	cmp	r2, #16
24055244:	d005      	beq.n	24055252 <HAL_RCC_OscConfig+0xd2>
24055246:	2a18      	cmp	r2, #24
24055248:	d10a      	bne.n	24055260 <HAL_RCC_OscConfig+0xe0>
2405524a:	f001 0203 	and.w	r2, r1, #3
2405524e:	2a02      	cmp	r2, #2
24055250:	d106      	bne.n	24055260 <HAL_RCC_OscConfig+0xe0>
24055252:	681b      	ldr	r3, [r3, #0]
24055254:	039d      	lsls	r5, r3, #14
24055256:	d59b      	bpl.n	24055190 <HAL_RCC_OscConfig+0x10>
24055258:	6863      	ldr	r3, [r4, #4]
2405525a:	2b00      	cmp	r3, #0
2405525c:	d198      	bne.n	24055190 <HAL_RCC_OscConfig+0x10>
2405525e:	e792      	b.n	24055186 <HAL_RCC_OscConfig+0x6>
24055260:	6862      	ldr	r2, [r4, #4]
24055262:	f5b2 3f80 	cmp.w	r2, #65536	; 0x10000
24055266:	d111      	bne.n	2405528c <HAL_RCC_OscConfig+0x10c>
24055268:	681a      	ldr	r2, [r3, #0]
2405526a:	f442 3280 	orr.w	r2, r2, #65536	; 0x10000
2405526e:	601a      	str	r2, [r3, #0]
24055270:	f7fc fde6 	bl	24051e40 <HAL_GetTick>
24055274:	4e6d      	ldr	r6, [pc, #436]	; (2405542c <HAL_RCC_OscConfig+0x2ac>)
24055276:	4605      	mov	r5, r0
24055278:	6833      	ldr	r3, [r6, #0]
2405527a:	0398      	lsls	r0, r3, #14
2405527c:	d488      	bmi.n	24055190 <HAL_RCC_OscConfig+0x10>
2405527e:	f7fc fddf 	bl	24051e40 <HAL_GetTick>
24055282:	1b40      	subs	r0, r0, r5
24055284:	2864      	cmp	r0, #100	; 0x64
24055286:	d9f7      	bls.n	24055278 <HAL_RCC_OscConfig+0xf8>
24055288:	2003      	movs	r0, #3
2405528a:	bdf8      	pop	{r3, r4, r5, r6, r7, pc}
2405528c:	4d67      	ldr	r5, [pc, #412]	; (2405542c <HAL_RCC_OscConfig+0x2ac>)
2405528e:	682b      	ldr	r3, [r5, #0]
24055290:	b9ba      	cbnz	r2, 240552c2 <HAL_RCC_OscConfig+0x142>
24055292:	f423 3380 	bic.w	r3, r3, #65536	; 0x10000
24055296:	602b      	str	r3, [r5, #0]
24055298:	682b      	ldr	r3, [r5, #0]
2405529a:	f423 1380 	bic.w	r3, r3, #1048576	; 0x100000
2405529e:	602b      	str	r3, [r5, #0]
240552a0:	682b      	ldr	r3, [r5, #0]
240552a2:	f423 2380 	bic.w	r3, r3, #262144	; 0x40000
240552a6:	602b      	str	r3, [r5, #0]
240552a8:	f7fc fdca 	bl	24051e40 <HAL_GetTick>
240552ac:	4606      	mov	r6, r0
240552ae:	682b      	ldr	r3, [r5, #0]
240552b0:	0399      	lsls	r1, r3, #14
240552b2:	f57f af6d 	bpl.w	24055190 <HAL_RCC_OscConfig+0x10>
240552b6:	f7fc fdc3 	bl	24051e40 <HAL_GetTick>
240552ba:	1b80      	subs	r0, r0, r6
240552bc:	2864      	cmp	r0, #100	; 0x64
240552be:	d9f6      	bls.n	240552ae <HAL_RCC_OscConfig+0x12e>
240552c0:	e7e2      	b.n	24055288 <HAL_RCC_OscConfig+0x108>
240552c2:	f5b2 2fa0 	cmp.w	r2, #327680	; 0x50000
240552c6:	d10b      	bne.n	240552e0 <HAL_RCC_OscConfig+0x160>
240552c8:	f443 2380 	orr.w	r3, r3, #262144	; 0x40000
240552cc:	602b      	str	r3, [r5, #0]
240552ce:	682b      	ldr	r3, [r5, #0]
240552d0:	f423 1380 	bic.w	r3, r3, #1048576	; 0x100000
240552d4:	602b      	str	r3, [r5, #0]
240552d6:	682b      	ldr	r3, [r5, #0]
240552d8:	f443 3380 	orr.w	r3, r3, #65536	; 0x10000
240552dc:	602b      	str	r3, [r5, #0]
240552de:	e7c7      	b.n	24055270 <HAL_RCC_OscConfig+0xf0>
240552e0:	f5b2 1fa8 	cmp.w	r2, #1376256	; 0x150000
240552e4:	d106      	bne.n	240552f4 <HAL_RCC_OscConfig+0x174>
240552e6:	f443 2380 	orr.w	r3, r3, #262144	; 0x40000
240552ea:	602b      	str	r3, [r5, #0]
240552ec:	682b      	ldr	r3, [r5, #0]
240552ee:	f443 1380 	orr.w	r3, r3, #1048576	; 0x100000
240552f2:	e7ef      	b.n	240552d4 <HAL_RCC_OscConfig+0x154>
240552f4:	f423 3380 	bic.w	r3, r3, #65536	; 0x10000
240552f8:	602b      	str	r3, [r5, #0]
240552fa:	682b      	ldr	r3, [r5, #0]
240552fc:	f423 2380 	bic.w	r3, r3, #262144	; 0x40000
24055300:	602b      	str	r3, [r5, #0]
24055302:	682b      	ldr	r3, [r5, #0]
24055304:	f423 1380 	bic.w	r3, r3, #1048576	; 0x100000
24055308:	e7e8      	b.n	240552dc <HAL_RCC_OscConfig+0x15c>
2405530a:	4b48      	ldr	r3, [pc, #288]	; (2405542c <HAL_RCC_OscConfig+0x2ac>)
2405530c:	68e1      	ldr	r1, [r4, #12]
2405530e:	691a      	ldr	r2, [r3, #16]
24055310:	6a98      	ldr	r0, [r3, #40]	; 0x28
24055312:	f012 0238 	ands.w	r2, r2, #56	; 0x38
24055316:	d003      	beq.n	24055320 <HAL_RCC_OscConfig+0x1a0>
24055318:	2a18      	cmp	r2, #24
2405531a:	d121      	bne.n	24055360 <HAL_RCC_OscConfig+0x1e0>
2405531c:	0782      	lsls	r2, r0, #30
2405531e:	d11f      	bne.n	24055360 <HAL_RCC_OscConfig+0x1e0>
24055320:	681b      	ldr	r3, [r3, #0]
24055322:	075b      	lsls	r3, r3, #29
24055324:	d502      	bpl.n	2405532c <HAL_RCC_OscConfig+0x1ac>
24055326:	2900      	cmp	r1, #0
24055328:	f43f af2d 	beq.w	24055186 <HAL_RCC_OscConfig+0x6>
2405532c:	4d3f      	ldr	r5, [pc, #252]	; (2405542c <HAL_RCC_OscConfig+0x2ac>)
2405532e:	682a      	ldr	r2, [r5, #0]
24055330:	f022 0219 	bic.w	r2, r2, #25
24055334:	430a      	orrs	r2, r1
24055336:	602a      	str	r2, [r5, #0]
24055338:	f7fc fd82 	bl	24051e40 <HAL_GetTick>
2405533c:	4606      	mov	r6, r0
2405533e:	682b      	ldr	r3, [r5, #0]
24055340:	075f      	lsls	r7, r3, #29
24055342:	d507      	bpl.n	24055354 <HAL_RCC_OscConfig+0x1d4>
24055344:	686b      	ldr	r3, [r5, #4]
24055346:	6922      	ldr	r2, [r4, #16]
24055348:	f023 43fe 	bic.w	r3, r3, #2130706432	; 0x7f000000
2405534c:	ea43 6302 	orr.w	r3, r3, r2, lsl #24
24055350:	606b      	str	r3, [r5, #4]
24055352:	e721      	b.n	24055198 <HAL_RCC_OscConfig+0x18>
24055354:	f7fc fd74 	bl	24051e40 <HAL_GetTick>
24055358:	1b80      	subs	r0, r0, r6
2405535a:	2802      	cmp	r0, #2
2405535c:	d9ef      	bls.n	2405533e <HAL_RCC_OscConfig+0x1be>
2405535e:	e793      	b.n	24055288 <HAL_RCC_OscConfig+0x108>
24055360:	681a      	ldr	r2, [r3, #0]
24055362:	b181      	cbz	r1, 24055386 <HAL_RCC_OscConfig+0x206>
24055364:	f022 0219 	bic.w	r2, r2, #25
24055368:	4d30      	ldr	r5, [pc, #192]	; (2405542c <HAL_RCC_OscConfig+0x2ac>)
2405536a:	430a      	orrs	r2, r1
2405536c:	601a      	str	r2, [r3, #0]
2405536e:	f7fc fd67 	bl	24051e40 <HAL_GetTick>
24055372:	4606      	mov	r6, r0
24055374:	682b      	ldr	r3, [r5, #0]
24055376:	0758      	lsls	r0, r3, #29
24055378:	d4e4      	bmi.n	24055344 <HAL_RCC_OscConfig+0x1c4>
2405537a:	f7fc fd61 	bl	24051e40 <HAL_GetTick>
2405537e:	1b80      	subs	r0, r0, r6
24055380:	2802      	cmp	r0, #2
24055382:	d9f7      	bls.n	24055374 <HAL_RCC_OscConfig+0x1f4>
24055384:	e780      	b.n	24055288 <HAL_RCC_OscConfig+0x108>
24055386:	f022 0201 	bic.w	r2, r2, #1
2405538a:	4e28      	ldr	r6, [pc, #160]	; (2405542c <HAL_RCC_OscConfig+0x2ac>)
2405538c:	601a      	str	r2, [r3, #0]
2405538e:	f7fc fd57 	bl	24051e40 <HAL_GetTick>
24055392:	4605      	mov	r5, r0
24055394:	6833      	ldr	r3, [r6, #0]
24055396:	0759      	lsls	r1, r3, #29
24055398:	f57f aefe 	bpl.w	24055198 <HAL_RCC_OscConfig+0x18>
2405539c:	f7fc fd50 	bl	24051e40 <HAL_GetTick>
240553a0:	1b40      	subs	r0, r0, r5
240553a2:	2802      	cmp	r0, #2
240553a4:	d9f6      	bls.n	24055394 <HAL_RCC_OscConfig+0x214>
240553a6:	e76f      	b.n	24055288 <HAL_RCC_OscConfig+0x108>
240553a8:	69e2      	ldr	r2, [r4, #28]
240553aa:	b1c2      	cbz	r2, 240553de <HAL_RCC_OscConfig+0x25e>
240553ac:	681a      	ldr	r2, [r3, #0]
240553ae:	4d1f      	ldr	r5, [pc, #124]	; (2405542c <HAL_RCC_OscConfig+0x2ac>)
240553b0:	f042 0280 	orr.w	r2, r2, #128	; 0x80
240553b4:	601a      	str	r2, [r3, #0]
240553b6:	f7fc fd43 	bl	24051e40 <HAL_GetTick>
240553ba:	4606      	mov	r6, r0
240553bc:	682b      	ldr	r3, [r5, #0]
240553be:	05df      	lsls	r7, r3, #23
240553c0:	d507      	bpl.n	240553d2 <HAL_RCC_OscConfig+0x252>
240553c2:	68eb      	ldr	r3, [r5, #12]
240553c4:	6a22      	ldr	r2, [r4, #32]
240553c6:	f023 537c 	bic.w	r3, r3, #1056964608	; 0x3f000000
240553ca:	ea43 6302 	orr.w	r3, r3, r2, lsl #24
240553ce:	60eb      	str	r3, [r5, #12]
240553d0:	e702      	b.n	240551d8 <HAL_RCC_OscConfig+0x58>
240553d2:	f7fc fd35 	bl	24051e40 <HAL_GetTick>
240553d6:	1b80      	subs	r0, r0, r6
240553d8:	2802      	cmp	r0, #2
240553da:	d9ef      	bls.n	240553bc <HAL_RCC_OscConfig+0x23c>
240553dc:	e754      	b.n	24055288 <HAL_RCC_OscConfig+0x108>
240553de:	681a      	ldr	r2, [r3, #0]
240553e0:	4e12      	ldr	r6, [pc, #72]	; (2405542c <HAL_RCC_OscConfig+0x2ac>)
240553e2:	f022 0280 	bic.w	r2, r2, #128	; 0x80
240553e6:	601a      	str	r2, [r3, #0]
240553e8:	f7fc fd2a 	bl	24051e40 <HAL_GetTick>
240553ec:	4605      	mov	r5, r0
240553ee:	6833      	ldr	r3, [r6, #0]
240553f0:	05d8      	lsls	r0, r3, #23
240553f2:	f57f aef1 	bpl.w	240551d8 <HAL_RCC_OscConfig+0x58>
240553f6:	f7fc fd23 	bl	24051e40 <HAL_GetTick>
240553fa:	1b40      	subs	r0, r0, r5
240553fc:	2802      	cmp	r0, #2
240553fe:	d9f6      	bls.n	240553ee <HAL_RCC_OscConfig+0x26e>
24055400:	e742      	b.n	24055288 <HAL_RCC_OscConfig+0x108>
24055402:	6963      	ldr	r3, [r4, #20]
24055404:	4d09      	ldr	r5, [pc, #36]	; (2405542c <HAL_RCC_OscConfig+0x2ac>)
24055406:	b1ab      	cbz	r3, 24055434 <HAL_RCC_OscConfig+0x2b4>
24055408:	6f6b      	ldr	r3, [r5, #116]	; 0x74
2405540a:	f043 0301 	orr.w	r3, r3, #1
2405540e:	676b      	str	r3, [r5, #116]	; 0x74
24055410:	f7fc fd16 	bl	24051e40 <HAL_GetTick>
24055414:	4606      	mov	r6, r0
24055416:	6f6b      	ldr	r3, [r5, #116]	; 0x74
24055418:	079b      	lsls	r3, r3, #30
2405541a:	f53f aee1 	bmi.w	240551e0 <HAL_RCC_OscConfig+0x60>
2405541e:	f7fc fd0f 	bl	24051e40 <HAL_GetTick>
24055422:	1b80      	subs	r0, r0, r6
24055424:	2802      	cmp	r0, #2
24055426:	d9f6      	bls.n	24055416 <HAL_RCC_OscConfig+0x296>
24055428:	e72e      	b.n	24055288 <HAL_RCC_OscConfig+0x108>
2405542a:	bf00      	nop
2405542c:	58024400 	.word	0x58024400
24055430:	58024800 	.word	0x58024800
24055434:	6f6b      	ldr	r3, [r5, #116]	; 0x74
24055436:	f023 0301 	bic.w	r3, r3, #1
2405543a:	676b      	str	r3, [r5, #116]	; 0x74
2405543c:	f7fc fd00 	bl	24051e40 <HAL_GetTick>
24055440:	4606      	mov	r6, r0
24055442:	6f6b      	ldr	r3, [r5, #116]	; 0x74
24055444:	079f      	lsls	r7, r3, #30
24055446:	f57f aecb 	bpl.w	240551e0 <HAL_RCC_OscConfig+0x60>
2405544a:	f7fc fcf9 	bl	24051e40 <HAL_GetTick>
2405544e:	1b80      	subs	r0, r0, r6
24055450:	2802      	cmp	r0, #2
24055452:	d9f6      	bls.n	24055442 <HAL_RCC_OscConfig+0x2c2>
24055454:	e718      	b.n	24055288 <HAL_RCC_OscConfig+0x108>
24055456:	69a3      	ldr	r3, [r4, #24]
24055458:	4d8e      	ldr	r5, [pc, #568]	; (24055694 <HAL_RCC_OscConfig+0x514>)
2405545a:	b183      	cbz	r3, 2405547e <HAL_RCC_OscConfig+0x2fe>
2405545c:	682b      	ldr	r3, [r5, #0]
2405545e:	f443 5380 	orr.w	r3, r3, #4096	; 0x1000
24055462:	602b      	str	r3, [r5, #0]
24055464:	f7fc fcec 	bl	24051e40 <HAL_GetTick>
24055468:	4606      	mov	r6, r0
2405546a:	682b      	ldr	r3, [r5, #0]
2405546c:	0498      	lsls	r0, r3, #18
2405546e:	f53f aebb 	bmi.w	240551e8 <HAL_RCC_OscConfig+0x68>
24055472:	f7fc fce5 	bl	24051e40 <HAL_GetTick>
24055476:	1b80      	subs	r0, r0, r6
24055478:	2802      	cmp	r0, #2
2405547a:	d9f6      	bls.n	2405546a <HAL_RCC_OscConfig+0x2ea>
2405547c:	e704      	b.n	24055288 <HAL_RCC_OscConfig+0x108>
2405547e:	682b      	ldr	r3, [r5, #0]
24055480:	f423 5380 	bic.w	r3, r3, #4096	; 0x1000
24055484:	602b      	str	r3, [r5, #0]
24055486:	f7fc fcdb 	bl	24051e40 <HAL_GetTick>
2405548a:	4606      	mov	r6, r0
2405548c:	682b      	ldr	r3, [r5, #0]
2405548e:	0499      	lsls	r1, r3, #18
24055490:	f57f aeaa 	bpl.w	240551e8 <HAL_RCC_OscConfig+0x68>
24055494:	f7fc fcd4 	bl	24051e40 <HAL_GetTick>
24055498:	1b80      	subs	r0, r0, r6
2405549a:	2802      	cmp	r0, #2
2405549c:	d9f6      	bls.n	2405548c <HAL_RCC_OscConfig+0x30c>
2405549e:	e6f3      	b.n	24055288 <HAL_RCC_OscConfig+0x108>
240554a0:	f7fc fcce 	bl	24051e40 <HAL_GetTick>
240554a4:	1b80      	subs	r0, r0, r6
240554a6:	2864      	cmp	r0, #100	; 0x64
240554a8:	f67f aea9 	bls.w	240551fe <HAL_RCC_OscConfig+0x7e>
240554ac:	e6ec      	b.n	24055288 <HAL_RCC_OscConfig+0x108>
240554ae:	b9d3      	cbnz	r3, 240554e6 <HAL_RCC_OscConfig+0x366>
240554b0:	6f2b      	ldr	r3, [r5, #112]	; 0x70
240554b2:	f241 3788 	movw	r7, #5000	; 0x1388
240554b6:	f023 0301 	bic.w	r3, r3, #1
240554ba:	672b      	str	r3, [r5, #112]	; 0x70
240554bc:	6f2b      	ldr	r3, [r5, #112]	; 0x70
240554be:	f023 0380 	bic.w	r3, r3, #128	; 0x80
240554c2:	672b      	str	r3, [r5, #112]	; 0x70
240554c4:	6f2b      	ldr	r3, [r5, #112]	; 0x70
240554c6:	f023 0304 	bic.w	r3, r3, #4
240554ca:	672b      	str	r3, [r5, #112]	; 0x70
240554cc:	f7fc fcb8 	bl	24051e40 <HAL_GetTick>
240554d0:	4606      	mov	r6, r0
240554d2:	6f2b      	ldr	r3, [r5, #112]	; 0x70
240554d4:	0798      	lsls	r0, r3, #30
240554d6:	f57f aea9 	bpl.w	2405522c <HAL_RCC_OscConfig+0xac>
240554da:	f7fc fcb1 	bl	24051e40 <HAL_GetTick>
240554de:	1b80      	subs	r0, r0, r6
240554e0:	42b8      	cmp	r0, r7
240554e2:	d9f6      	bls.n	240554d2 <HAL_RCC_OscConfig+0x352>
240554e4:	e6d0      	b.n	24055288 <HAL_RCC_OscConfig+0x108>
240554e6:	2b05      	cmp	r3, #5
240554e8:	d108      	bne.n	240554fc <HAL_RCC_OscConfig+0x37c>
240554ea:	6f2b      	ldr	r3, [r5, #112]	; 0x70
240554ec:	f043 0304 	orr.w	r3, r3, #4
240554f0:	672b      	str	r3, [r5, #112]	; 0x70
240554f2:	6f2b      	ldr	r3, [r5, #112]	; 0x70
240554f4:	f023 0380 	bic.w	r3, r3, #128	; 0x80
240554f8:	672b      	str	r3, [r5, #112]	; 0x70
240554fa:	e689      	b.n	24055210 <HAL_RCC_OscConfig+0x90>
240554fc:	2b85      	cmp	r3, #133	; 0x85
240554fe:	6f2b      	ldr	r3, [r5, #112]	; 0x70
24055500:	d106      	bne.n	24055510 <HAL_RCC_OscConfig+0x390>
24055502:	f043 0304 	orr.w	r3, r3, #4
24055506:	672b      	str	r3, [r5, #112]	; 0x70
24055508:	6f2b      	ldr	r3, [r5, #112]	; 0x70
2405550a:	f043 0380 	orr.w	r3, r3, #128	; 0x80
2405550e:	e7f3      	b.n	240554f8 <HAL_RCC_OscConfig+0x378>
24055510:	f023 0301 	bic.w	r3, r3, #1
24055514:	672b      	str	r3, [r5, #112]	; 0x70
24055516:	6f2b      	ldr	r3, [r5, #112]	; 0x70
24055518:	f023 0304 	bic.w	r3, r3, #4
2405551c:	672b      	str	r3, [r5, #112]	; 0x70
2405551e:	6f2b      	ldr	r3, [r5, #112]	; 0x70
24055520:	f023 0380 	bic.w	r3, r3, #128	; 0x80
24055524:	e677      	b.n	24055216 <HAL_RCC_OscConfig+0x96>
24055526:	f7fc fc8b 	bl	24051e40 <HAL_GetTick>
2405552a:	1b40      	subs	r0, r0, r5
2405552c:	42b8      	cmp	r0, r7
2405552e:	f67f ae79 	bls.w	24055224 <HAL_RCC_OscConfig+0xa4>
24055532:	e6a9      	b.n	24055288 <HAL_RCC_OscConfig+0x108>
24055534:	4d57      	ldr	r5, [pc, #348]	; (24055694 <HAL_RCC_OscConfig+0x514>)
24055536:	692b      	ldr	r3, [r5, #16]
24055538:	f003 0338 	and.w	r3, r3, #56	; 0x38
2405553c:	2b18      	cmp	r3, #24
2405553e:	d07a      	beq.n	24055636 <HAL_RCC_OscConfig+0x4b6>
24055540:	682b      	ldr	r3, [r5, #0]
24055542:	2802      	cmp	r0, #2
24055544:	f023 7380 	bic.w	r3, r3, #16777216	; 0x1000000
24055548:	602b      	str	r3, [r5, #0]
2405554a:	d167      	bne.n	2405561c <HAL_RCC_OscConfig+0x49c>
2405554c:	f7fc fc78 	bl	24051e40 <HAL_GetTick>
24055550:	4606      	mov	r6, r0
24055552:	682b      	ldr	r3, [r5, #0]
24055554:	0199      	lsls	r1, r3, #6
24055556:	d45b      	bmi.n	24055610 <HAL_RCC_OscConfig+0x490>
24055558:	6aab      	ldr	r3, [r5, #40]	; 0x28
2405555a:	6aa2      	ldr	r2, [r4, #40]	; 0x28
2405555c:	f423 737c 	bic.w	r3, r3, #1008	; 0x3f0
24055560:	f023 0303 	bic.w	r3, r3, #3
24055564:	4313      	orrs	r3, r2
24055566:	6ae2      	ldr	r2, [r4, #44]	; 0x2c
24055568:	ea43 1302 	orr.w	r3, r3, r2, lsl #4
2405556c:	62ab      	str	r3, [r5, #40]	; 0x28
2405556e:	6b63      	ldr	r3, [r4, #52]	; 0x34
24055570:	6ba2      	ldr	r2, [r4, #56]	; 0x38
24055572:	3b01      	subs	r3, #1
24055574:	3a01      	subs	r2, #1
24055576:	025b      	lsls	r3, r3, #9
24055578:	0412      	lsls	r2, r2, #16
2405557a:	b29b      	uxth	r3, r3
2405557c:	f402 02fe 	and.w	r2, r2, #8323072	; 0x7f0000
24055580:	4313      	orrs	r3, r2
24055582:	6b22      	ldr	r2, [r4, #48]	; 0x30
24055584:	3a01      	subs	r2, #1
24055586:	f3c2 0208 	ubfx	r2, r2, #0, #9
2405558a:	4313      	orrs	r3, r2
2405558c:	6be2      	ldr	r2, [r4, #60]	; 0x3c
2405558e:	3a01      	subs	r2, #1
24055590:	0612      	lsls	r2, r2, #24
24055592:	f002 42fe 	and.w	r2, r2, #2130706432	; 0x7f000000
24055596:	4313      	orrs	r3, r2
24055598:	632b      	str	r3, [r5, #48]	; 0x30
2405559a:	6aeb      	ldr	r3, [r5, #44]	; 0x2c
2405559c:	f023 0301 	bic.w	r3, r3, #1
240555a0:	62eb      	str	r3, [r5, #44]	; 0x2c
240555a2:	6b6b      	ldr	r3, [r5, #52]	; 0x34
240555a4:	6ca2      	ldr	r2, [r4, #72]	; 0x48
240555a6:	f423 437f 	bic.w	r3, r3, #65280	; 0xff00
240555aa:	f023 03f8 	bic.w	r3, r3, #248	; 0xf8
240555ae:	ea43 03c2 	orr.w	r3, r3, r2, lsl #3
240555b2:	636b      	str	r3, [r5, #52]	; 0x34
240555b4:	6aeb      	ldr	r3, [r5, #44]	; 0x2c
240555b6:	6c22      	ldr	r2, [r4, #64]	; 0x40
240555b8:	f023 030c 	bic.w	r3, r3, #12
240555bc:	4313      	orrs	r3, r2
240555be:	62eb      	str	r3, [r5, #44]	; 0x2c
240555c0:	6aeb      	ldr	r3, [r5, #44]	; 0x2c
240555c2:	6c62      	ldr	r2, [r4, #68]	; 0x44
240555c4:	f023 0302 	bic.w	r3, r3, #2
240555c8:	4313      	orrs	r3, r2
240555ca:	62eb      	str	r3, [r5, #44]	; 0x2c
240555cc:	6aeb      	ldr	r3, [r5, #44]	; 0x2c
240555ce:	f443 3380 	orr.w	r3, r3, #65536	; 0x10000
240555d2:	62eb      	str	r3, [r5, #44]	; 0x2c
240555d4:	6aeb      	ldr	r3, [r5, #44]	; 0x2c
240555d6:	f443 3300 	orr.w	r3, r3, #131072	; 0x20000
240555da:	62eb      	str	r3, [r5, #44]	; 0x2c
240555dc:	6aeb      	ldr	r3, [r5, #44]	; 0x2c
240555de:	f443 2380 	orr.w	r3, r3, #262144	; 0x40000
240555e2:	62eb      	str	r3, [r5, #44]	; 0x2c
240555e4:	6aeb      	ldr	r3, [r5, #44]	; 0x2c
240555e6:	f043 0301 	orr.w	r3, r3, #1
240555ea:	62eb      	str	r3, [r5, #44]	; 0x2c
240555ec:	682b      	ldr	r3, [r5, #0]
240555ee:	f043 7380 	orr.w	r3, r3, #16777216	; 0x1000000
240555f2:	602b      	str	r3, [r5, #0]
240555f4:	f7fc fc24 	bl	24051e40 <HAL_GetTick>
240555f8:	4d26      	ldr	r5, [pc, #152]	; (24055694 <HAL_RCC_OscConfig+0x514>)
240555fa:	4604      	mov	r4, r0
240555fc:	682b      	ldr	r3, [r5, #0]
240555fe:	019a      	lsls	r2, r3, #6
24055600:	f53f ae18 	bmi.w	24055234 <HAL_RCC_OscConfig+0xb4>
24055604:	f7fc fc1c 	bl	24051e40 <HAL_GetTick>
24055608:	1b00      	subs	r0, r0, r4
2405560a:	2802      	cmp	r0, #2
2405560c:	d9f6      	bls.n	240555fc <HAL_RCC_OscConfig+0x47c>
2405560e:	e63b      	b.n	24055288 <HAL_RCC_OscConfig+0x108>
24055610:	f7fc fc16 	bl	24051e40 <HAL_GetTick>
24055614:	1b80      	subs	r0, r0, r6
24055616:	2802      	cmp	r0, #2
24055618:	d99b      	bls.n	24055552 <HAL_RCC_OscConfig+0x3d2>
2405561a:	e635      	b.n	24055288 <HAL_RCC_OscConfig+0x108>
2405561c:	f7fc fc10 	bl	24051e40 <HAL_GetTick>
24055620:	4604      	mov	r4, r0
24055622:	682b      	ldr	r3, [r5, #0]
24055624:	019b      	lsls	r3, r3, #6
24055626:	f57f ae05 	bpl.w	24055234 <HAL_RCC_OscConfig+0xb4>
2405562a:	f7fc fc09 	bl	24051e40 <HAL_GetTick>
2405562e:	1b00      	subs	r0, r0, r4
24055630:	2802      	cmp	r0, #2
24055632:	d9f6      	bls.n	24055622 <HAL_RCC_OscConfig+0x4a2>
24055634:	e628      	b.n	24055288 <HAL_RCC_OscConfig+0x108>
24055636:	2801      	cmp	r0, #1
24055638:	6aaa      	ldr	r2, [r5, #40]	; 0x28
2405563a:	6b2b      	ldr	r3, [r5, #48]	; 0x30
2405563c:	f43f ae25 	beq.w	2405528a <HAL_RCC_OscConfig+0x10a>
24055640:	f002 0103 	and.w	r1, r2, #3
24055644:	6aa0      	ldr	r0, [r4, #40]	; 0x28
24055646:	4281      	cmp	r1, r0
24055648:	f47f ad9d 	bne.w	24055186 <HAL_RCC_OscConfig+0x6>
2405564c:	f3c2 1205 	ubfx	r2, r2, #4, #6
24055650:	6ae1      	ldr	r1, [r4, #44]	; 0x2c
24055652:	428a      	cmp	r2, r1
24055654:	f47f ad97 	bne.w	24055186 <HAL_RCC_OscConfig+0x6>
24055658:	6b22      	ldr	r2, [r4, #48]	; 0x30
2405565a:	f3c3 0108 	ubfx	r1, r3, #0, #9
2405565e:	3a01      	subs	r2, #1
24055660:	4291      	cmp	r1, r2
24055662:	f47f ad90 	bne.w	24055186 <HAL_RCC_OscConfig+0x6>
24055666:	6b62      	ldr	r2, [r4, #52]	; 0x34
24055668:	f3c3 2146 	ubfx	r1, r3, #9, #7
2405566c:	3a01      	subs	r2, #1
2405566e:	4291      	cmp	r1, r2
24055670:	f47f ad89 	bne.w	24055186 <HAL_RCC_OscConfig+0x6>
24055674:	6ba2      	ldr	r2, [r4, #56]	; 0x38
24055676:	f3c3 4106 	ubfx	r1, r3, #16, #7
2405567a:	3a01      	subs	r2, #1
2405567c:	4291      	cmp	r1, r2
2405567e:	f47f ad82 	bne.w	24055186 <HAL_RCC_OscConfig+0x6>
24055682:	6be0      	ldr	r0, [r4, #60]	; 0x3c
24055684:	f3c3 6306 	ubfx	r3, r3, #24, #7
24055688:	3801      	subs	r0, #1
2405568a:	1a18      	subs	r0, r3, r0
2405568c:	bf18      	it	ne
2405568e:	2001      	movne	r0, #1
24055690:	e5fb      	b.n	2405528a <HAL_RCC_OscConfig+0x10a>
24055692:	bf00      	nop
24055694:	58024400 	.word	0x58024400

24055698 <HAL_RCC_GetSysClockFreq>:
24055698:	4b48      	ldr	r3, [pc, #288]	; (240557bc <HAL_RCC_GetSysClockFreq+0x124>)
2405569a:	691a      	ldr	r2, [r3, #16]
2405569c:	f002 0238 	and.w	r2, r2, #56	; 0x38
240556a0:	2a10      	cmp	r2, #16
240556a2:	b530      	push	{r4, r5, lr}
240556a4:	f000 8086 	beq.w	240557b4 <HAL_RCC_GetSysClockFreq+0x11c>
240556a8:	2a18      	cmp	r2, #24
240556aa:	d00c      	beq.n	240556c6 <HAL_RCC_GetSysClockFreq+0x2e>
240556ac:	2a00      	cmp	r2, #0
240556ae:	f040 8083 	bne.w	240557b8 <HAL_RCC_GetSysClockFreq+0x120>
240556b2:	681a      	ldr	r2, [r3, #0]
240556b4:	4842      	ldr	r0, [pc, #264]	; (240557c0 <HAL_RCC_GetSysClockFreq+0x128>)
240556b6:	f012 0f20 	tst.w	r2, #32
240556ba:	d003      	beq.n	240556c4 <HAL_RCC_GetSysClockFreq+0x2c>
240556bc:	681b      	ldr	r3, [r3, #0]
240556be:	f3c3 03c1 	ubfx	r3, r3, #3, #2
240556c2:	40d8      	lsrs	r0, r3
240556c4:	bd30      	pop	{r4, r5, pc}
240556c6:	6a99      	ldr	r1, [r3, #40]	; 0x28
240556c8:	6a9d      	ldr	r5, [r3, #40]	; 0x28
240556ca:	6ada      	ldr	r2, [r3, #44]	; 0x2c
240556cc:	f415 7f7c 	tst.w	r5, #1008	; 0x3f0
240556d0:	f3c5 1005 	ubfx	r0, r5, #4, #6
240556d4:	6b5c      	ldr	r4, [r3, #52]	; 0x34
240556d6:	d0f5      	beq.n	240556c4 <HAL_RCC_GetSysClockFreq+0x2c>
240556d8:	f3c4 04cc 	ubfx	r4, r4, #3, #13
240556dc:	f002 0201 	and.w	r2, r2, #1
240556e0:	ee07 0a90 	vmov	s15, r0
240556e4:	f001 0103 	and.w	r1, r1, #3
240556e8:	4362      	muls	r2, r4
240556ea:	eeb7 6a00 	vmov.f32	s12, #112	; 0x3f800000  1.0
240556ee:	eef8 6ae7 	vcvt.f32.s32	s13, s15
240556f2:	2901      	cmp	r1, #1
240556f4:	ee07 2a90 	vmov	s15, r2
240556f8:	eefa 7ae9 	vcvt.f32.s32	s15, s15, #13
240556fc:	d04c      	beq.n	24055798 <HAL_RCC_GetSysClockFreq+0x100>
240556fe:	2902      	cmp	r1, #2
24055700:	d03c      	beq.n	2405577c <HAL_RCC_GetSysClockFreq+0xe4>
24055702:	2900      	cmp	r1, #0
24055704:	d148      	bne.n	24055798 <HAL_RCC_GetSysClockFreq+0x100>
24055706:	681a      	ldr	r2, [r3, #0]
24055708:	0692      	lsls	r2, r2, #26
2405570a:	d527      	bpl.n	2405575c <HAL_RCC_GetSysClockFreq+0xc4>
2405570c:	6819      	ldr	r1, [r3, #0]
2405570e:	4a2c      	ldr	r2, [pc, #176]	; (240557c0 <HAL_RCC_GetSysClockFreq+0x128>)
24055710:	f3c1 01c1 	ubfx	r1, r1, #3, #2
24055714:	6b1b      	ldr	r3, [r3, #48]	; 0x30
24055716:	40ca      	lsrs	r2, r1
24055718:	f3c3 0308 	ubfx	r3, r3, #0, #9
2405571c:	ee07 2a10 	vmov	s14, r2
24055720:	eef8 5ac7 	vcvt.f32.s32	s11, s14
24055724:	ee85 7aa6 	vdiv.f32	s14, s11, s13
24055728:	ee06 3a90 	vmov	s13, r3
2405572c:	eef8 6ae6 	vcvt.f32.s32	s13, s13
24055730:	ee76 7aa7 	vadd.f32	s15, s13, s15
24055734:	ee77 7a86 	vadd.f32	s15, s15, s12
24055738:	4b20      	ldr	r3, [pc, #128]	; (240557bc <HAL_RCC_GetSysClockFreq+0x124>)
2405573a:	ee67 7a87 	vmul.f32	s15, s15, s14
2405573e:	6b1b      	ldr	r3, [r3, #48]	; 0x30
24055740:	f3c3 2346 	ubfx	r3, r3, #9, #7
24055744:	3301      	adds	r3, #1
24055746:	ee07 3a10 	vmov	s14, r3
2405574a:	eef8 6ac7 	vcvt.f32.s32	s13, s14
2405574e:	ee87 7aa6 	vdiv.f32	s14, s15, s13
24055752:	eefc 7ac7 	vcvt.u32.f32	s15, s14
24055756:	ee17 0a90 	vmov	r0, s15
2405575a:	e7b3      	b.n	240556c4 <HAL_RCC_GetSysClockFreq+0x2c>
2405575c:	6b1b      	ldr	r3, [r3, #48]	; 0x30
2405575e:	f3c3 0308 	ubfx	r3, r3, #0, #9
24055762:	ee07 3a10 	vmov	s14, r3
24055766:	eeb8 7ac7 	vcvt.f32.s32	s14, s14
2405576a:	ee77 7a27 	vadd.f32	s15, s14, s15
2405576e:	ee77 7a86 	vadd.f32	s15, s15, s12
24055772:	ed9f 6a14 	vldr	s12, [pc, #80]	; 240557c4 <HAL_RCC_GetSysClockFreq+0x12c>
24055776:	ee86 7a26 	vdiv.f32	s14, s12, s13
2405577a:	e7dd      	b.n	24055738 <HAL_RCC_GetSysClockFreq+0xa0>
2405577c:	6b1b      	ldr	r3, [r3, #48]	; 0x30
2405577e:	f3c3 0308 	ubfx	r3, r3, #0, #9
24055782:	ee07 3a10 	vmov	s14, r3
24055786:	eeb8 7ac7 	vcvt.f32.s32	s14, s14
2405578a:	ee77 7a27 	vadd.f32	s15, s14, s15
2405578e:	ee77 7a86 	vadd.f32	s15, s15, s12
24055792:	ed9f 6a0d 	vldr	s12, [pc, #52]	; 240557c8 <HAL_RCC_GetSysClockFreq+0x130>
24055796:	e7ee      	b.n	24055776 <HAL_RCC_GetSysClockFreq+0xde>
24055798:	6b1b      	ldr	r3, [r3, #48]	; 0x30
2405579a:	f3c3 0308 	ubfx	r3, r3, #0, #9
2405579e:	ee07 3a10 	vmov	s14, r3
240557a2:	eeb8 7ac7 	vcvt.f32.s32	s14, s14
240557a6:	ee77 7a27 	vadd.f32	s15, s14, s15
240557aa:	ee77 7a86 	vadd.f32	s15, s15, s12
240557ae:	ed9f 6a07 	vldr	s12, [pc, #28]	; 240557cc <HAL_RCC_GetSysClockFreq+0x134>
240557b2:	e7e0      	b.n	24055776 <HAL_RCC_GetSysClockFreq+0xde>
240557b4:	4806      	ldr	r0, [pc, #24]	; (240557d0 <HAL_RCC_GetSysClockFreq+0x138>)
240557b6:	e785      	b.n	240556c4 <HAL_RCC_GetSysClockFreq+0x2c>
240557b8:	4806      	ldr	r0, [pc, #24]	; (240557d4 <HAL_RCC_GetSysClockFreq+0x13c>)
240557ba:	e783      	b.n	240556c4 <HAL_RCC_GetSysClockFreq+0x2c>
240557bc:	58024400 	.word	0x58024400
240557c0:	03d09000 	.word	0x03d09000
240557c4:	4c742400 	.word	0x4c742400
240557c8:	4bb71b00 	.word	0x4bb71b00
240557cc:	4a742400 	.word	0x4a742400
240557d0:	016e3600 	.word	0x016e3600
240557d4:	003d0900 	.word	0x003d0900

240557d8 <HAL_RCC_ClockConfig>:
240557d8:	e92d 41f0 	stmdb	sp!, {r4, r5, r6, r7, r8, lr}
240557dc:	460d      	mov	r5, r1
240557de:	4604      	mov	r4, r0
240557e0:	b910      	cbnz	r0, 240557e8 <HAL_RCC_ClockConfig+0x10>
240557e2:	2001      	movs	r0, #1
240557e4:	e8bd 81f0 	ldmia.w	sp!, {r4, r5, r6, r7, r8, pc}
240557e8:	4a88      	ldr	r2, [pc, #544]	; (24055a0c <HAL_RCC_ClockConfig+0x234>)
240557ea:	6813      	ldr	r3, [r2, #0]
240557ec:	f003 030f 	and.w	r3, r3, #15
240557f0:	428b      	cmp	r3, r1
240557f2:	f0c0 8093 	bcc.w	2405591c <HAL_RCC_ClockConfig+0x144>
240557f6:	6823      	ldr	r3, [r4, #0]
240557f8:	075f      	lsls	r7, r3, #29
240557fa:	f100 809b 	bmi.w	24055934 <HAL_RCC_ClockConfig+0x15c>
240557fe:	071e      	lsls	r6, r3, #28
24055800:	d50b      	bpl.n	2405581a <HAL_RCC_ClockConfig+0x42>
24055802:	4983      	ldr	r1, [pc, #524]	; (24055a10 <HAL_RCC_ClockConfig+0x238>)
24055804:	6966      	ldr	r6, [r4, #20]
24055806:	69c8      	ldr	r0, [r1, #28]
24055808:	f000 0070 	and.w	r0, r0, #112	; 0x70
2405580c:	4286      	cmp	r6, r0
2405580e:	d904      	bls.n	2405581a <HAL_RCC_ClockConfig+0x42>
24055810:	69ca      	ldr	r2, [r1, #28]
24055812:	f022 0270 	bic.w	r2, r2, #112	; 0x70
24055816:	4332      	orrs	r2, r6
24055818:	61ca      	str	r2, [r1, #28]
2405581a:	06d8      	lsls	r0, r3, #27
2405581c:	d50b      	bpl.n	24055836 <HAL_RCC_ClockConfig+0x5e>
2405581e:	497c      	ldr	r1, [pc, #496]	; (24055a10 <HAL_RCC_ClockConfig+0x238>)
24055820:	69a6      	ldr	r6, [r4, #24]
24055822:	69c8      	ldr	r0, [r1, #28]
24055824:	f400 60e0 	and.w	r0, r0, #1792	; 0x700
24055828:	4286      	cmp	r6, r0
2405582a:	d904      	bls.n	24055836 <HAL_RCC_ClockConfig+0x5e>
2405582c:	69ca      	ldr	r2, [r1, #28]
2405582e:	f422 62e0 	bic.w	r2, r2, #1792	; 0x700
24055832:	4332      	orrs	r2, r6
24055834:	61ca      	str	r2, [r1, #28]
24055836:	0699      	lsls	r1, r3, #26
24055838:	d50b      	bpl.n	24055852 <HAL_RCC_ClockConfig+0x7a>
2405583a:	4975      	ldr	r1, [pc, #468]	; (24055a10 <HAL_RCC_ClockConfig+0x238>)
2405583c:	69e6      	ldr	r6, [r4, #28]
2405583e:	6a08      	ldr	r0, [r1, #32]
24055840:	f000 0070 	and.w	r0, r0, #112	; 0x70
24055844:	4286      	cmp	r6, r0
24055846:	d904      	bls.n	24055852 <HAL_RCC_ClockConfig+0x7a>
24055848:	6a0a      	ldr	r2, [r1, #32]
2405584a:	f022 0270 	bic.w	r2, r2, #112	; 0x70
2405584e:	4332      	orrs	r2, r6
24055850:	620a      	str	r2, [r1, #32]
24055852:	079a      	lsls	r2, r3, #30
24055854:	d50b      	bpl.n	2405586e <HAL_RCC_ClockConfig+0x96>
24055856:	496e      	ldr	r1, [pc, #440]	; (24055a10 <HAL_RCC_ClockConfig+0x238>)
24055858:	68e6      	ldr	r6, [r4, #12]
2405585a:	6988      	ldr	r0, [r1, #24]
2405585c:	f000 000f 	and.w	r0, r0, #15
24055860:	4286      	cmp	r6, r0
24055862:	d904      	bls.n	2405586e <HAL_RCC_ClockConfig+0x96>
24055864:	698a      	ldr	r2, [r1, #24]
24055866:	f022 020f 	bic.w	r2, r2, #15
2405586a:	4332      	orrs	r2, r6
2405586c:	618a      	str	r2, [r1, #24]
2405586e:	07df      	lsls	r7, r3, #31
24055870:	d46e      	bmi.n	24055950 <HAL_RCC_ClockConfig+0x178>
24055872:	6823      	ldr	r3, [r4, #0]
24055874:	079e      	lsls	r6, r3, #30
24055876:	f100 80a1 	bmi.w	240559bc <HAL_RCC_ClockConfig+0x1e4>
2405587a:	4964      	ldr	r1, [pc, #400]	; (24055a0c <HAL_RCC_ClockConfig+0x234>)
2405587c:	680a      	ldr	r2, [r1, #0]
2405587e:	f002 020f 	and.w	r2, r2, #15
24055882:	42aa      	cmp	r2, r5
24055884:	f200 80a8 	bhi.w	240559d8 <HAL_RCC_ClockConfig+0x200>
24055888:	0758      	lsls	r0, r3, #29
2405588a:	f100 80b1 	bmi.w	240559f0 <HAL_RCC_ClockConfig+0x218>
2405588e:	0719      	lsls	r1, r3, #28
24055890:	d50b      	bpl.n	240558aa <HAL_RCC_ClockConfig+0xd2>
24055892:	495f      	ldr	r1, [pc, #380]	; (24055a10 <HAL_RCC_ClockConfig+0x238>)
24055894:	6965      	ldr	r5, [r4, #20]
24055896:	69c8      	ldr	r0, [r1, #28]
24055898:	f000 0070 	and.w	r0, r0, #112	; 0x70
2405589c:	4285      	cmp	r5, r0
2405589e:	d204      	bcs.n	240558aa <HAL_RCC_ClockConfig+0xd2>
240558a0:	69ca      	ldr	r2, [r1, #28]
240558a2:	f022 0270 	bic.w	r2, r2, #112	; 0x70
240558a6:	432a      	orrs	r2, r5
240558a8:	61ca      	str	r2, [r1, #28]
240558aa:	06da      	lsls	r2, r3, #27
240558ac:	d50b      	bpl.n	240558c6 <HAL_RCC_ClockConfig+0xee>
240558ae:	4958      	ldr	r1, [pc, #352]	; (24055a10 <HAL_RCC_ClockConfig+0x238>)
240558b0:	69a5      	ldr	r5, [r4, #24]
240558b2:	69c8      	ldr	r0, [r1, #28]
240558b4:	f400 60e0 	and.w	r0, r0, #1792	; 0x700
240558b8:	4285      	cmp	r5, r0
240558ba:	d204      	bcs.n	240558c6 <HAL_RCC_ClockConfig+0xee>
240558bc:	69ca      	ldr	r2, [r1, #28]
240558be:	f422 62e0 	bic.w	r2, r2, #1792	; 0x700
240558c2:	432a      	orrs	r2, r5
240558c4:	61ca      	str	r2, [r1, #28]
240558c6:	069b      	lsls	r3, r3, #26
240558c8:	d50b      	bpl.n	240558e2 <HAL_RCC_ClockConfig+0x10a>
240558ca:	4a51      	ldr	r2, [pc, #324]	; (24055a10 <HAL_RCC_ClockConfig+0x238>)
240558cc:	69e0      	ldr	r0, [r4, #28]
240558ce:	6a11      	ldr	r1, [r2, #32]
240558d0:	f001 0170 	and.w	r1, r1, #112	; 0x70
240558d4:	4288      	cmp	r0, r1
240558d6:	d204      	bcs.n	240558e2 <HAL_RCC_ClockConfig+0x10a>
240558d8:	6a13      	ldr	r3, [r2, #32]
240558da:	f023 0370 	bic.w	r3, r3, #112	; 0x70
240558de:	4303      	orrs	r3, r0
240558e0:	6213      	str	r3, [r2, #32]
240558e2:	f7ff fed9 	bl	24055698 <HAL_RCC_GetSysClockFreq>
240558e6:	494a      	ldr	r1, [pc, #296]	; (24055a10 <HAL_RCC_ClockConfig+0x238>)
240558e8:	4a4a      	ldr	r2, [pc, #296]	; (24055a14 <HAL_RCC_ClockConfig+0x23c>)
240558ea:	698b      	ldr	r3, [r1, #24]
240558ec:	f3c3 2303 	ubfx	r3, r3, #8, #4
240558f0:	5cd3      	ldrb	r3, [r2, r3]
240558f2:	f003 031f 	and.w	r3, r3, #31
240558f6:	40d8      	lsrs	r0, r3
240558f8:	698b      	ldr	r3, [r1, #24]
240558fa:	f003 030f 	and.w	r3, r3, #15
240558fe:	5cd3      	ldrb	r3, [r2, r3]
24055900:	4a45      	ldr	r2, [pc, #276]	; (24055a18 <HAL_RCC_ClockConfig+0x240>)
24055902:	f003 031f 	and.w	r3, r3, #31
24055906:	fa20 f303 	lsr.w	r3, r0, r3
2405590a:	6013      	str	r3, [r2, #0]
2405590c:	4b43      	ldr	r3, [pc, #268]	; (24055a1c <HAL_RCC_ClockConfig+0x244>)
2405590e:	6018      	str	r0, [r3, #0]
24055910:	4b43      	ldr	r3, [pc, #268]	; (24055a20 <HAL_RCC_ClockConfig+0x248>)
24055912:	e8bd 41f0 	ldmia.w	sp!, {r4, r5, r6, r7, r8, lr}
24055916:	6818      	ldr	r0, [r3, #0]
24055918:	f7fc ba32 	b.w	24051d80 <HAL_InitTick>
2405591c:	6813      	ldr	r3, [r2, #0]
2405591e:	f023 030f 	bic.w	r3, r3, #15
24055922:	430b      	orrs	r3, r1
24055924:	6013      	str	r3, [r2, #0]
24055926:	6813      	ldr	r3, [r2, #0]
24055928:	f003 030f 	and.w	r3, r3, #15
2405592c:	428b      	cmp	r3, r1
2405592e:	f47f af58 	bne.w	240557e2 <HAL_RCC_ClockConfig+0xa>
24055932:	e760      	b.n	240557f6 <HAL_RCC_ClockConfig+0x1e>
24055934:	4936      	ldr	r1, [pc, #216]	; (24055a10 <HAL_RCC_ClockConfig+0x238>)
24055936:	6926      	ldr	r6, [r4, #16]
24055938:	6988      	ldr	r0, [r1, #24]
2405593a:	f000 0070 	and.w	r0, r0, #112	; 0x70
2405593e:	4286      	cmp	r6, r0
24055940:	f67f af5d 	bls.w	240557fe <HAL_RCC_ClockConfig+0x26>
24055944:	698a      	ldr	r2, [r1, #24]
24055946:	f022 0270 	bic.w	r2, r2, #112	; 0x70
2405594a:	4332      	orrs	r2, r6
2405594c:	618a      	str	r2, [r1, #24]
2405594e:	e756      	b.n	240557fe <HAL_RCC_ClockConfig+0x26>
24055950:	4b2f      	ldr	r3, [pc, #188]	; (24055a10 <HAL_RCC_ClockConfig+0x238>)
24055952:	68a1      	ldr	r1, [r4, #8]
24055954:	699a      	ldr	r2, [r3, #24]
24055956:	f422 6270 	bic.w	r2, r2, #3840	; 0xf00
2405595a:	430a      	orrs	r2, r1
2405595c:	619a      	str	r2, [r3, #24]
2405595e:	6862      	ldr	r2, [r4, #4]
24055960:	681b      	ldr	r3, [r3, #0]
24055962:	2a02      	cmp	r2, #2
24055964:	d11d      	bne.n	240559a2 <HAL_RCC_ClockConfig+0x1ca>
24055966:	f413 3f00 	tst.w	r3, #131072	; 0x20000
2405596a:	f43f af3a 	beq.w	240557e2 <HAL_RCC_ClockConfig+0xa>
2405596e:	4e28      	ldr	r6, [pc, #160]	; (24055a10 <HAL_RCC_ClockConfig+0x238>)
24055970:	f241 3888 	movw	r8, #5000	; 0x1388
24055974:	6933      	ldr	r3, [r6, #16]
24055976:	f023 0307 	bic.w	r3, r3, #7
2405597a:	4313      	orrs	r3, r2
2405597c:	6133      	str	r3, [r6, #16]
2405597e:	f7fc fa5f 	bl	24051e40 <HAL_GetTick>
24055982:	4607      	mov	r7, r0
24055984:	6933      	ldr	r3, [r6, #16]
24055986:	6862      	ldr	r2, [r4, #4]
24055988:	f003 0338 	and.w	r3, r3, #56	; 0x38
2405598c:	ebb3 0fc2 	cmp.w	r3, r2, lsl #3
24055990:	f43f af6f 	beq.w	24055872 <HAL_RCC_ClockConfig+0x9a>
24055994:	f7fc fa54 	bl	24051e40 <HAL_GetTick>
24055998:	1bc0      	subs	r0, r0, r7
2405599a:	4540      	cmp	r0, r8
2405599c:	d9f2      	bls.n	24055984 <HAL_RCC_ClockConfig+0x1ac>
2405599e:	2003      	movs	r0, #3
240559a0:	e720      	b.n	240557e4 <HAL_RCC_ClockConfig+0xc>
240559a2:	2a03      	cmp	r2, #3
240559a4:	d102      	bne.n	240559ac <HAL_RCC_ClockConfig+0x1d4>
240559a6:	f013 7f00 	tst.w	r3, #33554432	; 0x2000000
240559aa:	e7de      	b.n	2405596a <HAL_RCC_ClockConfig+0x192>
240559ac:	2a01      	cmp	r2, #1
240559ae:	d102      	bne.n	240559b6 <HAL_RCC_ClockConfig+0x1de>
240559b0:	f413 7f80 	tst.w	r3, #256	; 0x100
240559b4:	e7d9      	b.n	2405596a <HAL_RCC_ClockConfig+0x192>
240559b6:	f013 0f04 	tst.w	r3, #4
240559ba:	e7d6      	b.n	2405596a <HAL_RCC_ClockConfig+0x192>
240559bc:	4914      	ldr	r1, [pc, #80]	; (24055a10 <HAL_RCC_ClockConfig+0x238>)
240559be:	68e6      	ldr	r6, [r4, #12]
240559c0:	6988      	ldr	r0, [r1, #24]
240559c2:	f000 000f 	and.w	r0, r0, #15
240559c6:	4286      	cmp	r6, r0
240559c8:	f4bf af57 	bcs.w	2405587a <HAL_RCC_ClockConfig+0xa2>
240559cc:	698a      	ldr	r2, [r1, #24]
240559ce:	f022 020f 	bic.w	r2, r2, #15
240559d2:	4332      	orrs	r2, r6
240559d4:	618a      	str	r2, [r1, #24]
240559d6:	e750      	b.n	2405587a <HAL_RCC_ClockConfig+0xa2>
240559d8:	680a      	ldr	r2, [r1, #0]
240559da:	f022 020f 	bic.w	r2, r2, #15
240559de:	432a      	orrs	r2, r5
240559e0:	600a      	str	r2, [r1, #0]
240559e2:	680a      	ldr	r2, [r1, #0]
240559e4:	f002 020f 	and.w	r2, r2, #15
240559e8:	42aa      	cmp	r2, r5
240559ea:	f47f aefa 	bne.w	240557e2 <HAL_RCC_ClockConfig+0xa>
240559ee:	e74b      	b.n	24055888 <HAL_RCC_ClockConfig+0xb0>
240559f0:	4907      	ldr	r1, [pc, #28]	; (24055a10 <HAL_RCC_ClockConfig+0x238>)
240559f2:	6925      	ldr	r5, [r4, #16]
240559f4:	6988      	ldr	r0, [r1, #24]
240559f6:	f000 0070 	and.w	r0, r0, #112	; 0x70
240559fa:	4285      	cmp	r5, r0
240559fc:	f4bf af47 	bcs.w	2405588e <HAL_RCC_ClockConfig+0xb6>
24055a00:	698a      	ldr	r2, [r1, #24]
24055a02:	f022 0270 	bic.w	r2, r2, #112	; 0x70
24055a06:	432a      	orrs	r2, r5
24055a08:	618a      	str	r2, [r1, #24]
24055a0a:	e740      	b.n	2405588e <HAL_RCC_ClockConfig+0xb6>
24055a0c:	52002000 	.word	0x52002000
24055a10:	58024400 	.word	0x58024400
24055a14:	2405a02b 	.word	0x2405a02b
24055a18:	20000034 	.word	0x20000034
24055a1c:	20000030 	.word	0x20000030
24055a20:	2000003c 	.word	0x2000003c

24055a24 <HAL_RCC_GetHCLKFreq>:
24055a24:	b510      	push	{r4, lr}
24055a26:	4c0c      	ldr	r4, [pc, #48]	; (24055a58 <HAL_RCC_GetHCLKFreq+0x34>)
24055a28:	f7ff fe36 	bl	24055698 <HAL_RCC_GetSysClockFreq>
24055a2c:	490b      	ldr	r1, [pc, #44]	; (24055a5c <HAL_RCC_GetHCLKFreq+0x38>)
24055a2e:	69a3      	ldr	r3, [r4, #24]
24055a30:	f3c3 2303 	ubfx	r3, r3, #8, #4
24055a34:	5cca      	ldrb	r2, [r1, r3]
24055a36:	69a3      	ldr	r3, [r4, #24]
24055a38:	f002 021f 	and.w	r2, r2, #31
24055a3c:	f003 030f 	and.w	r3, r3, #15
24055a40:	fa20 f202 	lsr.w	r2, r0, r2
24055a44:	5ccb      	ldrb	r3, [r1, r3]
24055a46:	f003 031f 	and.w	r3, r3, #31
24055a4a:	fa22 f003 	lsr.w	r0, r2, r3
24055a4e:	4b04      	ldr	r3, [pc, #16]	; (24055a60 <HAL_RCC_GetHCLKFreq+0x3c>)
24055a50:	6018      	str	r0, [r3, #0]
24055a52:	4b04      	ldr	r3, [pc, #16]	; (24055a64 <HAL_RCC_GetHCLKFreq+0x40>)
24055a54:	601a      	str	r2, [r3, #0]
24055a56:	bd10      	pop	{r4, pc}
24055a58:	58024400 	.word	0x58024400
24055a5c:	2405a02b 	.word	0x2405a02b
24055a60:	20000034 	.word	0x20000034
24055a64:	20000030 	.word	0x20000030

24055a68 <RCCEx_PLL2_Config>:
24055a68:	b5f8      	push	{r3, r4, r5, r6, r7, lr}
24055a6a:	4c3a      	ldr	r4, [pc, #232]	; (24055b54 <RCCEx_PLL2_Config+0xec>)
24055a6c:	4606      	mov	r6, r0
24055a6e:	460d      	mov	r5, r1
24055a70:	6aa3      	ldr	r3, [r4, #40]	; 0x28
24055a72:	f003 0303 	and.w	r3, r3, #3
24055a76:	2b03      	cmp	r3, #3
24055a78:	d069      	beq.n	24055b4e <RCCEx_PLL2_Config+0xe6>
24055a7a:	6823      	ldr	r3, [r4, #0]
24055a7c:	f023 6380 	bic.w	r3, r3, #67108864	; 0x4000000
24055a80:	6023      	str	r3, [r4, #0]
24055a82:	f7fc f9dd 	bl	24051e40 <HAL_GetTick>
24055a86:	4607      	mov	r7, r0
24055a88:	6823      	ldr	r3, [r4, #0]
24055a8a:	011a      	lsls	r2, r3, #4
24055a8c:	d44b      	bmi.n	24055b26 <RCCEx_PLL2_Config+0xbe>
24055a8e:	6aa3      	ldr	r3, [r4, #40]	; 0x28
24055a90:	6832      	ldr	r2, [r6, #0]
24055a92:	f423 337c 	bic.w	r3, r3, #258048	; 0x3f000
24055a96:	ea43 3302 	orr.w	r3, r3, r2, lsl #12
24055a9a:	62a3      	str	r3, [r4, #40]	; 0x28
24055a9c:	68b3      	ldr	r3, [r6, #8]
24055a9e:	68f2      	ldr	r2, [r6, #12]
24055aa0:	3b01      	subs	r3, #1
24055aa2:	3a01      	subs	r2, #1
24055aa4:	025b      	lsls	r3, r3, #9
24055aa6:	0412      	lsls	r2, r2, #16
24055aa8:	b29b      	uxth	r3, r3
24055aaa:	f402 02fe 	and.w	r2, r2, #8323072	; 0x7f0000
24055aae:	4313      	orrs	r3, r2
24055ab0:	6872      	ldr	r2, [r6, #4]
24055ab2:	3a01      	subs	r2, #1
24055ab4:	f3c2 0208 	ubfx	r2, r2, #0, #9
24055ab8:	4313      	orrs	r3, r2
24055aba:	6932      	ldr	r2, [r6, #16]
24055abc:	3a01      	subs	r2, #1
24055abe:	0612      	lsls	r2, r2, #24
24055ac0:	f002 42fe 	and.w	r2, r2, #2130706432	; 0x7f000000
24055ac4:	4313      	orrs	r3, r2
24055ac6:	63a3      	str	r3, [r4, #56]	; 0x38
24055ac8:	6ae3      	ldr	r3, [r4, #44]	; 0x2c
24055aca:	6972      	ldr	r2, [r6, #20]
24055acc:	f023 03c0 	bic.w	r3, r3, #192	; 0xc0
24055ad0:	4313      	orrs	r3, r2
24055ad2:	62e3      	str	r3, [r4, #44]	; 0x2c
24055ad4:	6ae3      	ldr	r3, [r4, #44]	; 0x2c
24055ad6:	69b2      	ldr	r2, [r6, #24]
24055ad8:	f023 0320 	bic.w	r3, r3, #32
24055adc:	4313      	orrs	r3, r2
24055ade:	62e3      	str	r3, [r4, #44]	; 0x2c
24055ae0:	6ae3      	ldr	r3, [r4, #44]	; 0x2c
24055ae2:	f023 0310 	bic.w	r3, r3, #16
24055ae6:	62e3      	str	r3, [r4, #44]	; 0x2c
24055ae8:	6be3      	ldr	r3, [r4, #60]	; 0x3c
24055aea:	69f2      	ldr	r2, [r6, #28]
24055aec:	f423 437f 	bic.w	r3, r3, #65280	; 0xff00
24055af0:	f023 03f8 	bic.w	r3, r3, #248	; 0xf8
24055af4:	ea43 03c2 	orr.w	r3, r3, r2, lsl #3
24055af8:	63e3      	str	r3, [r4, #60]	; 0x3c
24055afa:	6ae3      	ldr	r3, [r4, #44]	; 0x2c
24055afc:	f043 0310 	orr.w	r3, r3, #16
24055b00:	62e3      	str	r3, [r4, #44]	; 0x2c
24055b02:	6ae3      	ldr	r3, [r4, #44]	; 0x2c
24055b04:	b9b5      	cbnz	r5, 24055b34 <RCCEx_PLL2_Config+0xcc>
24055b06:	f443 2300 	orr.w	r3, r3, #524288	; 0x80000
24055b0a:	62e3      	str	r3, [r4, #44]	; 0x2c
24055b0c:	4c11      	ldr	r4, [pc, #68]	; (24055b54 <RCCEx_PLL2_Config+0xec>)
24055b0e:	6823      	ldr	r3, [r4, #0]
24055b10:	f043 6380 	orr.w	r3, r3, #67108864	; 0x4000000
24055b14:	6023      	str	r3, [r4, #0]
24055b16:	f7fc f993 	bl	24051e40 <HAL_GetTick>
24055b1a:	4605      	mov	r5, r0
24055b1c:	6823      	ldr	r3, [r4, #0]
24055b1e:	011b      	lsls	r3, r3, #4
24055b20:	d50f      	bpl.n	24055b42 <RCCEx_PLL2_Config+0xda>
24055b22:	2000      	movs	r0, #0
24055b24:	e005      	b.n	24055b32 <RCCEx_PLL2_Config+0xca>
24055b26:	f7fc f98b 	bl	24051e40 <HAL_GetTick>
24055b2a:	1bc0      	subs	r0, r0, r7
24055b2c:	2802      	cmp	r0, #2
24055b2e:	d9ab      	bls.n	24055a88 <RCCEx_PLL2_Config+0x20>
24055b30:	2003      	movs	r0, #3
24055b32:	bdf8      	pop	{r3, r4, r5, r6, r7, pc}
24055b34:	2d01      	cmp	r5, #1
24055b36:	bf0c      	ite	eq
24055b38:	f443 1380 	orreq.w	r3, r3, #1048576	; 0x100000
24055b3c:	f443 1300 	orrne.w	r3, r3, #2097152	; 0x200000
24055b40:	e7e3      	b.n	24055b0a <RCCEx_PLL2_Config+0xa2>
24055b42:	f7fc f97d 	bl	24051e40 <HAL_GetTick>
24055b46:	1b40      	subs	r0, r0, r5
24055b48:	2802      	cmp	r0, #2
24055b4a:	d9e7      	bls.n	24055b1c <RCCEx_PLL2_Config+0xb4>
24055b4c:	e7f0      	b.n	24055b30 <RCCEx_PLL2_Config+0xc8>
24055b4e:	2001      	movs	r0, #1
24055b50:	e7ef      	b.n	24055b32 <RCCEx_PLL2_Config+0xca>
24055b52:	bf00      	nop
24055b54:	58024400 	.word	0x58024400

24055b58 <RCCEx_PLL3_Config>:
24055b58:	b5f8      	push	{r3, r4, r5, r6, r7, lr}
24055b5a:	4c3a      	ldr	r4, [pc, #232]	; (24055c44 <RCCEx_PLL3_Config+0xec>)
24055b5c:	4606      	mov	r6, r0
24055b5e:	460d      	mov	r5, r1
24055b60:	6aa3      	ldr	r3, [r4, #40]	; 0x28
24055b62:	f003 0303 	and.w	r3, r3, #3
24055b66:	2b03      	cmp	r3, #3
24055b68:	d069      	beq.n	24055c3e <RCCEx_PLL3_Config+0xe6>
24055b6a:	6823      	ldr	r3, [r4, #0]
24055b6c:	f023 5380 	bic.w	r3, r3, #268435456	; 0x10000000
24055b70:	6023      	str	r3, [r4, #0]
24055b72:	f7fc f965 	bl	24051e40 <HAL_GetTick>
24055b76:	4607      	mov	r7, r0
24055b78:	6823      	ldr	r3, [r4, #0]
24055b7a:	009a      	lsls	r2, r3, #2
24055b7c:	d44b      	bmi.n	24055c16 <RCCEx_PLL3_Config+0xbe>
24055b7e:	6aa3      	ldr	r3, [r4, #40]	; 0x28
24055b80:	6832      	ldr	r2, [r6, #0]
24055b82:	f023 737c 	bic.w	r3, r3, #66060288	; 0x3f00000
24055b86:	ea43 5302 	orr.w	r3, r3, r2, lsl #20
24055b8a:	62a3      	str	r3, [r4, #40]	; 0x28
24055b8c:	68b3      	ldr	r3, [r6, #8]
24055b8e:	68f2      	ldr	r2, [r6, #12]
24055b90:	3b01      	subs	r3, #1
24055b92:	3a01      	subs	r2, #1
24055b94:	025b      	lsls	r3, r3, #9
24055b96:	0412      	lsls	r2, r2, #16
24055b98:	b29b      	uxth	r3, r3
24055b9a:	f402 02fe 	and.w	r2, r2, #8323072	; 0x7f0000
24055b9e:	4313      	orrs	r3, r2
24055ba0:	6872      	ldr	r2, [r6, #4]
24055ba2:	3a01      	subs	r2, #1
24055ba4:	f3c2 0208 	ubfx	r2, r2, #0, #9
24055ba8:	4313      	orrs	r3, r2
24055baa:	6932      	ldr	r2, [r6, #16]
24055bac:	3a01      	subs	r2, #1
24055bae:	0612      	lsls	r2, r2, #24
24055bb0:	f002 42fe 	and.w	r2, r2, #2130706432	; 0x7f000000
24055bb4:	4313      	orrs	r3, r2
24055bb6:	6423      	str	r3, [r4, #64]	; 0x40
24055bb8:	6ae3      	ldr	r3, [r4, #44]	; 0x2c
24055bba:	6972      	ldr	r2, [r6, #20]
24055bbc:	f423 6340 	bic.w	r3, r3, #3072	; 0xc00
24055bc0:	4313      	orrs	r3, r2
24055bc2:	62e3      	str	r3, [r4, #44]	; 0x2c
24055bc4:	6ae3      	ldr	r3, [r4, #44]	; 0x2c
24055bc6:	69b2      	ldr	r2, [r6, #24]
24055bc8:	f423 7300 	bic.w	r3, r3, #512	; 0x200
24055bcc:	4313      	orrs	r3, r2
24055bce:	62e3      	str	r3, [r4, #44]	; 0x2c
24055bd0:	6ae3      	ldr	r3, [r4, #44]	; 0x2c
24055bd2:	f423 7380 	bic.w	r3, r3, #256	; 0x100
24055bd6:	62e3      	str	r3, [r4, #44]	; 0x2c
24055bd8:	6c63      	ldr	r3, [r4, #68]	; 0x44
24055bda:	69f2      	ldr	r2, [r6, #28]
24055bdc:	f423 437f 	bic.w	r3, r3, #65280	; 0xff00
24055be0:	f023 03f8 	bic.w	r3, r3, #248	; 0xf8
24055be4:	ea43 03c2 	orr.w	r3, r3, r2, lsl #3
24055be8:	6463      	str	r3, [r4, #68]	; 0x44
24055bea:	6ae3      	ldr	r3, [r4, #44]	; 0x2c
24055bec:	f443 7380 	orr.w	r3, r3, #256	; 0x100
24055bf0:	62e3      	str	r3, [r4, #44]	; 0x2c
24055bf2:	6ae3      	ldr	r3, [r4, #44]	; 0x2c
24055bf4:	b9b5      	cbnz	r5, 24055c24 <RCCEx_PLL3_Config+0xcc>
24055bf6:	f443 0380 	orr.w	r3, r3, #4194304	; 0x400000
24055bfa:	62e3      	str	r3, [r4, #44]	; 0x2c
24055bfc:	4c11      	ldr	r4, [pc, #68]	; (24055c44 <RCCEx_PLL3_Config+0xec>)
24055bfe:	6823      	ldr	r3, [r4, #0]
24055c00:	f043 5380 	orr.w	r3, r3, #268435456	; 0x10000000
24055c04:	6023      	str	r3, [r4, #0]
24055c06:	f7fc f91b 	bl	24051e40 <HAL_GetTick>
24055c0a:	4605      	mov	r5, r0
24055c0c:	6823      	ldr	r3, [r4, #0]
24055c0e:	009b      	lsls	r3, r3, #2
24055c10:	d50f      	bpl.n	24055c32 <RCCEx_PLL3_Config+0xda>
24055c12:	2000      	movs	r0, #0
24055c14:	e005      	b.n	24055c22 <RCCEx_PLL3_Config+0xca>
24055c16:	f7fc f913 	bl	24051e40 <HAL_GetTick>
24055c1a:	1bc0      	subs	r0, r0, r7
24055c1c:	2802      	cmp	r0, #2
24055c1e:	d9ab      	bls.n	24055b78 <RCCEx_PLL3_Config+0x20>
24055c20:	2003      	movs	r0, #3
24055c22:	bdf8      	pop	{r3, r4, r5, r6, r7, pc}
24055c24:	2d01      	cmp	r5, #1
24055c26:	bf0c      	ite	eq
24055c28:	f443 0300 	orreq.w	r3, r3, #8388608	; 0x800000
24055c2c:	f043 7380 	orrne.w	r3, r3, #16777216	; 0x1000000
24055c30:	e7e3      	b.n	24055bfa <RCCEx_PLL3_Config+0xa2>
24055c32:	f7fc f905 	bl	24051e40 <HAL_GetTick>
24055c36:	1b40      	subs	r0, r0, r5
24055c38:	2802      	cmp	r0, #2
24055c3a:	d9e7      	bls.n	24055c0c <RCCEx_PLL3_Config+0xb4>
24055c3c:	e7f0      	b.n	24055c20 <RCCEx_PLL3_Config+0xc8>
24055c3e:	2001      	movs	r0, #1
24055c40:	e7ef      	b.n	24055c22 <RCCEx_PLL3_Config+0xca>
24055c42:	bf00      	nop
24055c44:	58024400 	.word	0x58024400

24055c48 <HAL_RCCEx_PeriphCLKConfig>:
24055c48:	e92d 43f8 	stmdb	sp!, {r3, r4, r5, r6, r7, r8, r9, lr}
24055c4c:	6806      	ldr	r6, [r0, #0]
24055c4e:	4605      	mov	r5, r0
24055c50:	f016 6600 	ands.w	r6, r6, #134217728	; 0x8000000
24055c54:	d009      	beq.n	24055c6a <HAL_RCCEx_PeriphCLKConfig+0x22>
24055c56:	6e83      	ldr	r3, [r0, #104]	; 0x68
24055c58:	f5b3 1f00 	cmp.w	r3, #2097152	; 0x200000
24055c5c:	d02c      	beq.n	24055cb8 <HAL_RCCEx_PeriphCLKConfig+0x70>
24055c5e:	d811      	bhi.n	24055c84 <HAL_RCCEx_PeriphCLKConfig+0x3c>
24055c60:	b1e3      	cbz	r3, 24055c9c <HAL_RCCEx_PeriphCLKConfig+0x54>
24055c62:	f5b3 1f80 	cmp.w	r3, #1048576	; 0x100000
24055c66:	d01f      	beq.n	24055ca8 <HAL_RCCEx_PeriphCLKConfig+0x60>
24055c68:	2601      	movs	r6, #1
24055c6a:	682b      	ldr	r3, [r5, #0]
24055c6c:	05d8      	lsls	r0, r3, #23
24055c6e:	f140 80d3 	bpl.w	24055e18 <HAL_RCCEx_PeriphCLKConfig+0x1d0>
24055c72:	6d6b      	ldr	r3, [r5, #84]	; 0x54
24055c74:	2b04      	cmp	r3, #4
24055c76:	f200 80ce 	bhi.w	24055e16 <HAL_RCCEx_PeriphCLKConfig+0x1ce>
24055c7a:	e8df f003 	tbb	[pc, r3]
24055c7e:	2922      	.short	0x2922
24055c80:	27c6      	.short	0x27c6
24055c82:	27          	.byte	0x27
24055c83:	00          	.byte	0x00
24055c84:	f5b3 1f40 	cmp.w	r3, #3145728	; 0x300000
24055c88:	d1ee      	bne.n	24055c68 <HAL_RCCEx_PeriphCLKConfig+0x20>
24055c8a:	4ab6      	ldr	r2, [pc, #728]	; (24055f64 <HAL_RCCEx_PeriphCLKConfig+0x31c>)
24055c8c:	2600      	movs	r6, #0
24055c8e:	6ea9      	ldr	r1, [r5, #104]	; 0x68
24055c90:	6d13      	ldr	r3, [r2, #80]	; 0x50
24055c92:	f423 1340 	bic.w	r3, r3, #3145728	; 0x300000
24055c96:	430b      	orrs	r3, r1
24055c98:	6513      	str	r3, [r2, #80]	; 0x50
24055c9a:	e7e6      	b.n	24055c6a <HAL_RCCEx_PeriphCLKConfig+0x22>
24055c9c:	4ab1      	ldr	r2, [pc, #708]	; (24055f64 <HAL_RCCEx_PeriphCLKConfig+0x31c>)
24055c9e:	6ad3      	ldr	r3, [r2, #44]	; 0x2c
24055ca0:	f443 3300 	orr.w	r3, r3, #131072	; 0x20000
24055ca4:	62d3      	str	r3, [r2, #44]	; 0x2c
24055ca6:	e7f0      	b.n	24055c8a <HAL_RCCEx_PeriphCLKConfig+0x42>
24055ca8:	2102      	movs	r1, #2
24055caa:	3004      	adds	r0, #4
24055cac:	f7ff fedc 	bl	24055a68 <RCCEx_PLL2_Config>
24055cb0:	4606      	mov	r6, r0
24055cb2:	2800      	cmp	r0, #0
24055cb4:	d1d9      	bne.n	24055c6a <HAL_RCCEx_PeriphCLKConfig+0x22>
24055cb6:	e7e8      	b.n	24055c8a <HAL_RCCEx_PeriphCLKConfig+0x42>
24055cb8:	2102      	movs	r1, #2
24055cba:	3024      	adds	r0, #36	; 0x24
24055cbc:	f7ff ff4c 	bl	24055b58 <RCCEx_PLL3_Config>
24055cc0:	e7f6      	b.n	24055cb0 <HAL_RCCEx_PeriphCLKConfig+0x68>
24055cc2:	4aa8      	ldr	r2, [pc, #672]	; (24055f64 <HAL_RCCEx_PeriphCLKConfig+0x31c>)
24055cc4:	6ad3      	ldr	r3, [r2, #44]	; 0x2c
24055cc6:	f443 3300 	orr.w	r3, r3, #131072	; 0x20000
24055cca:	62d3      	str	r3, [r2, #44]	; 0x2c
24055ccc:	4634      	mov	r4, r6
24055cce:	e004      	b.n	24055cda <HAL_RCCEx_PeriphCLKConfig+0x92>
24055cd0:	2100      	movs	r1, #0
24055cd2:	1d28      	adds	r0, r5, #4
24055cd4:	f7ff fec8 	bl	24055a68 <RCCEx_PLL2_Config>
24055cd8:	4604      	mov	r4, r0
24055cda:	2c00      	cmp	r4, #0
24055cdc:	f040 809e 	bne.w	24055e1c <HAL_RCCEx_PeriphCLKConfig+0x1d4>
24055ce0:	4aa0      	ldr	r2, [pc, #640]	; (24055f64 <HAL_RCCEx_PeriphCLKConfig+0x31c>)
24055ce2:	6d69      	ldr	r1, [r5, #84]	; 0x54
24055ce4:	6d13      	ldr	r3, [r2, #80]	; 0x50
24055ce6:	f023 0307 	bic.w	r3, r3, #7
24055cea:	430b      	orrs	r3, r1
24055cec:	6513      	str	r3, [r2, #80]	; 0x50
24055cee:	682b      	ldr	r3, [r5, #0]
24055cf0:	0599      	lsls	r1, r3, #22
24055cf2:	d50d      	bpl.n	24055d10 <HAL_RCCEx_PeriphCLKConfig+0xc8>
24055cf4:	6dab      	ldr	r3, [r5, #88]	; 0x58
24055cf6:	2b80      	cmp	r3, #128	; 0x80
24055cf8:	f000 80af 	beq.w	24055e5a <HAL_RCCEx_PeriphCLKConfig+0x212>
24055cfc:	f200 8090 	bhi.w	24055e20 <HAL_RCCEx_PeriphCLKConfig+0x1d8>
24055d00:	2b00      	cmp	r3, #0
24055d02:	f000 809e 	beq.w	24055e42 <HAL_RCCEx_PeriphCLKConfig+0x1fa>
24055d06:	2b40      	cmp	r3, #64	; 0x40
24055d08:	f000 80a1 	beq.w	24055e4e <HAL_RCCEx_PeriphCLKConfig+0x206>
24055d0c:	2601      	movs	r6, #1
24055d0e:	4634      	mov	r4, r6
24055d10:	682b      	ldr	r3, [r5, #0]
24055d12:	055a      	lsls	r2, r3, #21
24055d14:	d50f      	bpl.n	24055d36 <HAL_RCCEx_PeriphCLKConfig+0xee>
24055d16:	6deb      	ldr	r3, [r5, #92]	; 0x5c
24055d18:	f5b3 6f80 	cmp.w	r3, #1024	; 0x400
24055d1c:	f000 80c3 	beq.w	24055ea6 <HAL_RCCEx_PeriphCLKConfig+0x25e>
24055d20:	f200 80a3 	bhi.w	24055e6a <HAL_RCCEx_PeriphCLKConfig+0x222>
24055d24:	2b00      	cmp	r3, #0
24055d26:	f000 80b2 	beq.w	24055e8e <HAL_RCCEx_PeriphCLKConfig+0x246>
24055d2a:	f5b3 7f00 	cmp.w	r3, #512	; 0x200
24055d2e:	f000 80b4 	beq.w	24055e9a <HAL_RCCEx_PeriphCLKConfig+0x252>
24055d32:	2601      	movs	r6, #1
24055d34:	4634      	mov	r4, r6
24055d36:	682b      	ldr	r3, [r5, #0]
24055d38:	019b      	lsls	r3, r3, #6
24055d3a:	d50d      	bpl.n	24055d58 <HAL_RCCEx_PeriphCLKConfig+0x110>
24055d3c:	6cab      	ldr	r3, [r5, #72]	; 0x48
24055d3e:	2b20      	cmp	r3, #32
24055d40:	f000 80cb 	beq.w	24055eda <HAL_RCCEx_PeriphCLKConfig+0x292>
24055d44:	f200 80b7 	bhi.w	24055eb6 <HAL_RCCEx_PeriphCLKConfig+0x26e>
24055d48:	2b00      	cmp	r3, #0
24055d4a:	f000 80b7 	beq.w	24055ebc <HAL_RCCEx_PeriphCLKConfig+0x274>
24055d4e:	2b10      	cmp	r3, #16
24055d50:	f000 80bd 	beq.w	24055ece <HAL_RCCEx_PeriphCLKConfig+0x286>
24055d54:	2601      	movs	r6, #1
24055d56:	4634      	mov	r4, r6
24055d58:	682b      	ldr	r3, [r5, #0]
24055d5a:	04df      	lsls	r7, r3, #19
24055d5c:	d50f      	bpl.n	24055d7e <HAL_RCCEx_PeriphCLKConfig+0x136>
24055d5e:	6e2b      	ldr	r3, [r5, #96]	; 0x60
24055d60:	f5b3 5f00 	cmp.w	r3, #8192	; 0x2000
24055d64:	f000 80dd 	beq.w	24055f22 <HAL_RCCEx_PeriphCLKConfig+0x2da>
24055d68:	f200 80bf 	bhi.w	24055eea <HAL_RCCEx_PeriphCLKConfig+0x2a2>
24055d6c:	2b00      	cmp	r3, #0
24055d6e:	f000 80cc 	beq.w	24055f0a <HAL_RCCEx_PeriphCLKConfig+0x2c2>
24055d72:	f5b3 5f80 	cmp.w	r3, #4096	; 0x1000
24055d76:	f000 80ce 	beq.w	24055f16 <HAL_RCCEx_PeriphCLKConfig+0x2ce>
24055d7a:	2601      	movs	r6, #1
24055d7c:	4634      	mov	r4, r6
24055d7e:	682b      	ldr	r3, [r5, #0]
24055d80:	0498      	lsls	r0, r3, #18
24055d82:	d50f      	bpl.n	24055da4 <HAL_RCCEx_PeriphCLKConfig+0x15c>
24055d84:	6e6b      	ldr	r3, [r5, #100]	; 0x64
24055d86:	f5b3 3f00 	cmp.w	r3, #131072	; 0x20000
24055d8a:	f000 80ed 	beq.w	24055f68 <HAL_RCCEx_PeriphCLKConfig+0x320>
24055d8e:	f200 80d0 	bhi.w	24055f32 <HAL_RCCEx_PeriphCLKConfig+0x2ea>
24055d92:	2b00      	cmp	r3, #0
24055d94:	f000 80d6 	beq.w	24055f44 <HAL_RCCEx_PeriphCLKConfig+0x2fc>
24055d98:	f5b3 3f80 	cmp.w	r3, #65536	; 0x10000
24055d9c:	f000 80db 	beq.w	24055f56 <HAL_RCCEx_PeriphCLKConfig+0x30e>
24055da0:	2601      	movs	r6, #1
24055da2:	4634      	mov	r4, r6
24055da4:	682b      	ldr	r3, [r5, #0]
24055da6:	0459      	lsls	r1, r3, #17
24055da8:	d510      	bpl.n	24055dcc <HAL_RCCEx_PeriphCLKConfig+0x184>
24055daa:	f8d5 30ac 	ldr.w	r3, [r5, #172]	; 0xac
24055dae:	f1b3 5f00 	cmp.w	r3, #536870912	; 0x20000000
24055db2:	f000 80ff 	beq.w	24055fb4 <HAL_RCCEx_PeriphCLKConfig+0x36c>
24055db6:	f200 80df 	bhi.w	24055f78 <HAL_RCCEx_PeriphCLKConfig+0x330>
24055dba:	2b00      	cmp	r3, #0
24055dbc:	f000 80e7 	beq.w	24055f8e <HAL_RCCEx_PeriphCLKConfig+0x346>
24055dc0:	f1b3 5f80 	cmp.w	r3, #268435456	; 0x10000000
24055dc4:	f000 80f0 	beq.w	24055fa8 <HAL_RCCEx_PeriphCLKConfig+0x360>
24055dc8:	2601      	movs	r6, #1
24055dca:	4634      	mov	r4, r6
24055dcc:	682b      	ldr	r3, [r5, #0]
24055dce:	041a      	lsls	r2, r3, #16
24055dd0:	d50d      	bpl.n	24055dee <HAL_RCCEx_PeriphCLKConfig+0x1a6>
24055dd2:	6f6b      	ldr	r3, [r5, #116]	; 0x74
24055dd4:	f1b3 5f80 	cmp.w	r3, #268435456	; 0x10000000
24055dd8:	f000 80f4 	beq.w	24055fc4 <HAL_RCCEx_PeriphCLKConfig+0x37c>
24055ddc:	f1b3 5f00 	cmp.w	r3, #536870912	; 0x20000000
24055de0:	f000 80fe 	beq.w	24055fe0 <HAL_RCCEx_PeriphCLKConfig+0x398>
24055de4:	2b00      	cmp	r3, #0
24055de6:	f000 80f2 	beq.w	24055fce <HAL_RCCEx_PeriphCLKConfig+0x386>
24055dea:	2601      	movs	r6, #1
24055dec:	4634      	mov	r4, r6
24055dee:	682b      	ldr	r3, [r5, #0]
24055df0:	01db      	lsls	r3, r3, #7
24055df2:	f140 810b 	bpl.w	2405600c <HAL_RCCEx_PeriphCLKConfig+0x3c4>
24055df6:	6c6b      	ldr	r3, [r5, #68]	; 0x44
24055df8:	2b03      	cmp	r3, #3
24055dfa:	f200 814b 	bhi.w	24056094 <HAL_RCCEx_PeriphCLKConfig+0x44c>
24055dfe:	e8df f013 	tbh	[pc, r3, lsl #1]
24055e02:	00fc      	.short	0x00fc
24055e04:	014300f7 	.word	0x014300f7
24055e08:	00fc      	.short	0x00fc
24055e0a:	2100      	movs	r1, #0
24055e0c:	f105 0024 	add.w	r0, r5, #36	; 0x24
24055e10:	f7ff fea2 	bl	24055b58 <RCCEx_PLL3_Config>
24055e14:	e760      	b.n	24055cd8 <HAL_RCCEx_PeriphCLKConfig+0x90>
24055e16:	2601      	movs	r6, #1
24055e18:	4634      	mov	r4, r6
24055e1a:	e768      	b.n	24055cee <HAL_RCCEx_PeriphCLKConfig+0xa6>
24055e1c:	4626      	mov	r6, r4
24055e1e:	e766      	b.n	24055cee <HAL_RCCEx_PeriphCLKConfig+0xa6>
24055e20:	f023 0240 	bic.w	r2, r3, #64	; 0x40
24055e24:	f5b2 7f80 	cmp.w	r2, #256	; 0x100
24055e28:	d002      	beq.n	24055e30 <HAL_RCCEx_PeriphCLKConfig+0x1e8>
24055e2a:	2bc0      	cmp	r3, #192	; 0xc0
24055e2c:	f47f af6e 	bne.w	24055d0c <HAL_RCCEx_PeriphCLKConfig+0xc4>
24055e30:	b9cc      	cbnz	r4, 24055e66 <HAL_RCCEx_PeriphCLKConfig+0x21e>
24055e32:	4a4c      	ldr	r2, [pc, #304]	; (24055f64 <HAL_RCCEx_PeriphCLKConfig+0x31c>)
24055e34:	6da9      	ldr	r1, [r5, #88]	; 0x58
24055e36:	6d13      	ldr	r3, [r2, #80]	; 0x50
24055e38:	f423 73e0 	bic.w	r3, r3, #448	; 0x1c0
24055e3c:	430b      	orrs	r3, r1
24055e3e:	6513      	str	r3, [r2, #80]	; 0x50
24055e40:	e766      	b.n	24055d10 <HAL_RCCEx_PeriphCLKConfig+0xc8>
24055e42:	4a48      	ldr	r2, [pc, #288]	; (24055f64 <HAL_RCCEx_PeriphCLKConfig+0x31c>)
24055e44:	6ad3      	ldr	r3, [r2, #44]	; 0x2c
24055e46:	f443 3300 	orr.w	r3, r3, #131072	; 0x20000
24055e4a:	62d3      	str	r3, [r2, #44]	; 0x2c
24055e4c:	e7f0      	b.n	24055e30 <HAL_RCCEx_PeriphCLKConfig+0x1e8>
24055e4e:	2100      	movs	r1, #0
24055e50:	1d28      	adds	r0, r5, #4
24055e52:	f7ff fe09 	bl	24055a68 <RCCEx_PLL2_Config>
24055e56:	4604      	mov	r4, r0
24055e58:	e7ea      	b.n	24055e30 <HAL_RCCEx_PeriphCLKConfig+0x1e8>
24055e5a:	2100      	movs	r1, #0
24055e5c:	f105 0024 	add.w	r0, r5, #36	; 0x24
24055e60:	f7ff fe7a 	bl	24055b58 <RCCEx_PLL3_Config>
24055e64:	e7f7      	b.n	24055e56 <HAL_RCCEx_PeriphCLKConfig+0x20e>
24055e66:	4626      	mov	r6, r4
24055e68:	e752      	b.n	24055d10 <HAL_RCCEx_PeriphCLKConfig+0xc8>
24055e6a:	f423 7200 	bic.w	r2, r3, #512	; 0x200
24055e6e:	f5b2 6f00 	cmp.w	r2, #2048	; 0x800
24055e72:	d003      	beq.n	24055e7c <HAL_RCCEx_PeriphCLKConfig+0x234>
24055e74:	f5b3 6fc0 	cmp.w	r3, #1536	; 0x600
24055e78:	f47f af5b 	bne.w	24055d32 <HAL_RCCEx_PeriphCLKConfig+0xea>
24055e7c:	b9cc      	cbnz	r4, 24055eb2 <HAL_RCCEx_PeriphCLKConfig+0x26a>
24055e7e:	4a39      	ldr	r2, [pc, #228]	; (24055f64 <HAL_RCCEx_PeriphCLKConfig+0x31c>)
24055e80:	6de9      	ldr	r1, [r5, #92]	; 0x5c
24055e82:	6d13      	ldr	r3, [r2, #80]	; 0x50
24055e84:	f423 6360 	bic.w	r3, r3, #3584	; 0xe00
24055e88:	430b      	orrs	r3, r1
24055e8a:	6513      	str	r3, [r2, #80]	; 0x50
24055e8c:	e753      	b.n	24055d36 <HAL_RCCEx_PeriphCLKConfig+0xee>
24055e8e:	4a35      	ldr	r2, [pc, #212]	; (24055f64 <HAL_RCCEx_PeriphCLKConfig+0x31c>)
24055e90:	6ad3      	ldr	r3, [r2, #44]	; 0x2c
24055e92:	f443 3300 	orr.w	r3, r3, #131072	; 0x20000
24055e96:	62d3      	str	r3, [r2, #44]	; 0x2c
24055e98:	e7f0      	b.n	24055e7c <HAL_RCCEx_PeriphCLKConfig+0x234>
24055e9a:	2100      	movs	r1, #0
24055e9c:	1d28      	adds	r0, r5, #4
24055e9e:	f7ff fde3 	bl	24055a68 <RCCEx_PLL2_Config>
24055ea2:	4604      	mov	r4, r0
24055ea4:	e7ea      	b.n	24055e7c <HAL_RCCEx_PeriphCLKConfig+0x234>
24055ea6:	2100      	movs	r1, #0
24055ea8:	f105 0024 	add.w	r0, r5, #36	; 0x24
24055eac:	f7ff fe54 	bl	24055b58 <RCCEx_PLL3_Config>
24055eb0:	e7f7      	b.n	24055ea2 <HAL_RCCEx_PeriphCLKConfig+0x25a>
24055eb2:	4626      	mov	r6, r4
24055eb4:	e73f      	b.n	24055d36 <HAL_RCCEx_PeriphCLKConfig+0xee>
24055eb6:	2b30      	cmp	r3, #48	; 0x30
24055eb8:	f47f af4c 	bne.w	24055d54 <HAL_RCCEx_PeriphCLKConfig+0x10c>
24055ebc:	b99c      	cbnz	r4, 24055ee6 <HAL_RCCEx_PeriphCLKConfig+0x29e>
24055ebe:	4a29      	ldr	r2, [pc, #164]	; (24055f64 <HAL_RCCEx_PeriphCLKConfig+0x31c>)
24055ec0:	6ca9      	ldr	r1, [r5, #72]	; 0x48
24055ec2:	6cd3      	ldr	r3, [r2, #76]	; 0x4c
24055ec4:	f023 0330 	bic.w	r3, r3, #48	; 0x30
24055ec8:	430b      	orrs	r3, r1
24055eca:	64d3      	str	r3, [r2, #76]	; 0x4c
24055ecc:	e744      	b.n	24055d58 <HAL_RCCEx_PeriphCLKConfig+0x110>
24055ece:	4a25      	ldr	r2, [pc, #148]	; (24055f64 <HAL_RCCEx_PeriphCLKConfig+0x31c>)
24055ed0:	6ad3      	ldr	r3, [r2, #44]	; 0x2c
24055ed2:	f443 3300 	orr.w	r3, r3, #131072	; 0x20000
24055ed6:	62d3      	str	r3, [r2, #44]	; 0x2c
24055ed8:	e7f0      	b.n	24055ebc <HAL_RCCEx_PeriphCLKConfig+0x274>
24055eda:	2102      	movs	r1, #2
24055edc:	1d28      	adds	r0, r5, #4
24055ede:	f7ff fdc3 	bl	24055a68 <RCCEx_PLL2_Config>
24055ee2:	4604      	mov	r4, r0
24055ee4:	e7ea      	b.n	24055ebc <HAL_RCCEx_PeriphCLKConfig+0x274>
24055ee6:	4626      	mov	r6, r4
24055ee8:	e736      	b.n	24055d58 <HAL_RCCEx_PeriphCLKConfig+0x110>
24055eea:	f5b3 5f40 	cmp.w	r3, #12288	; 0x3000
24055eee:	d003      	beq.n	24055ef8 <HAL_RCCEx_PeriphCLKConfig+0x2b0>
24055ef0:	f5b3 4f80 	cmp.w	r3, #16384	; 0x4000
24055ef4:	f47f af41 	bne.w	24055d7a <HAL_RCCEx_PeriphCLKConfig+0x132>
24055ef8:	b9cc      	cbnz	r4, 24055f2e <HAL_RCCEx_PeriphCLKConfig+0x2e6>
24055efa:	4a1a      	ldr	r2, [pc, #104]	; (24055f64 <HAL_RCCEx_PeriphCLKConfig+0x31c>)
24055efc:	6e29      	ldr	r1, [r5, #96]	; 0x60
24055efe:	6d13      	ldr	r3, [r2, #80]	; 0x50
24055f00:	f423 43e0 	bic.w	r3, r3, #28672	; 0x7000
24055f04:	430b      	orrs	r3, r1
24055f06:	6513      	str	r3, [r2, #80]	; 0x50
24055f08:	e739      	b.n	24055d7e <HAL_RCCEx_PeriphCLKConfig+0x136>
24055f0a:	4a16      	ldr	r2, [pc, #88]	; (24055f64 <HAL_RCCEx_PeriphCLKConfig+0x31c>)
24055f0c:	6ad3      	ldr	r3, [r2, #44]	; 0x2c
24055f0e:	f443 3300 	orr.w	r3, r3, #131072	; 0x20000
24055f12:	62d3      	str	r3, [r2, #44]	; 0x2c
24055f14:	e7f0      	b.n	24055ef8 <HAL_RCCEx_PeriphCLKConfig+0x2b0>
24055f16:	2100      	movs	r1, #0
24055f18:	1d28      	adds	r0, r5, #4
24055f1a:	f7ff fda5 	bl	24055a68 <RCCEx_PLL2_Config>
24055f1e:	4604      	mov	r4, r0
24055f20:	e7ea      	b.n	24055ef8 <HAL_RCCEx_PeriphCLKConfig+0x2b0>
24055f22:	2100      	movs	r1, #0
24055f24:	f105 0024 	add.w	r0, r5, #36	; 0x24
24055f28:	f7ff fe16 	bl	24055b58 <RCCEx_PLL3_Config>
24055f2c:	e7f7      	b.n	24055f1e <HAL_RCCEx_PeriphCLKConfig+0x2d6>
24055f2e:	4626      	mov	r6, r4
24055f30:	e725      	b.n	24055d7e <HAL_RCCEx_PeriphCLKConfig+0x136>
24055f32:	f423 3280 	bic.w	r2, r3, #65536	; 0x10000
24055f36:	f5b2 2f80 	cmp.w	r2, #262144	; 0x40000
24055f3a:	d003      	beq.n	24055f44 <HAL_RCCEx_PeriphCLKConfig+0x2fc>
24055f3c:	f5b3 3f40 	cmp.w	r3, #196608	; 0x30000
24055f40:	f47f af2e 	bne.w	24055da0 <HAL_RCCEx_PeriphCLKConfig+0x158>
24055f44:	b9b4      	cbnz	r4, 24055f74 <HAL_RCCEx_PeriphCLKConfig+0x32c>
24055f46:	4a07      	ldr	r2, [pc, #28]	; (24055f64 <HAL_RCCEx_PeriphCLKConfig+0x31c>)
24055f48:	6e69      	ldr	r1, [r5, #100]	; 0x64
24055f4a:	6d13      	ldr	r3, [r2, #80]	; 0x50
24055f4c:	f423 23e0 	bic.w	r3, r3, #458752	; 0x70000
24055f50:	430b      	orrs	r3, r1
24055f52:	6513      	str	r3, [r2, #80]	; 0x50
24055f54:	e726      	b.n	24055da4 <HAL_RCCEx_PeriphCLKConfig+0x15c>
24055f56:	2101      	movs	r1, #1
24055f58:	1d28      	adds	r0, r5, #4
24055f5a:	f7ff fd85 	bl	24055a68 <RCCEx_PLL2_Config>
24055f5e:	4604      	mov	r4, r0
24055f60:	e7f0      	b.n	24055f44 <HAL_RCCEx_PeriphCLKConfig+0x2fc>
24055f62:	bf00      	nop
24055f64:	58024400 	.word	0x58024400
24055f68:	2101      	movs	r1, #1
24055f6a:	f105 0024 	add.w	r0, r5, #36	; 0x24
24055f6e:	f7ff fdf3 	bl	24055b58 <RCCEx_PLL3_Config>
24055f72:	e7f4      	b.n	24055f5e <HAL_RCCEx_PeriphCLKConfig+0x316>
24055f74:	4626      	mov	r6, r4
24055f76:	e715      	b.n	24055da4 <HAL_RCCEx_PeriphCLKConfig+0x15c>
24055f78:	f1b3 4fa0 	cmp.w	r3, #1342177280	; 0x50000000
24055f7c:	d007      	beq.n	24055f8e <HAL_RCCEx_PeriphCLKConfig+0x346>
24055f7e:	d810      	bhi.n	24055fa2 <HAL_RCCEx_PeriphCLKConfig+0x35a>
24055f80:	f1b3 5f40 	cmp.w	r3, #805306368	; 0x30000000
24055f84:	d003      	beq.n	24055f8e <HAL_RCCEx_PeriphCLKConfig+0x346>
24055f86:	f1b3 4f80 	cmp.w	r3, #1073741824	; 0x40000000
24055f8a:	f47f af1d 	bne.w	24055dc8 <HAL_RCCEx_PeriphCLKConfig+0x180>
24055f8e:	b9bc      	cbnz	r4, 24055fc0 <HAL_RCCEx_PeriphCLKConfig+0x378>
24055f90:	4a81      	ldr	r2, [pc, #516]	; (24056198 <HAL_RCCEx_PeriphCLKConfig+0x550>)
24055f92:	f8d5 10ac 	ldr.w	r1, [r5, #172]	; 0xac
24055f96:	6d93      	ldr	r3, [r2, #88]	; 0x58
24055f98:	f023 43e0 	bic.w	r3, r3, #1879048192	; 0x70000000
24055f9c:	430b      	orrs	r3, r1
24055f9e:	6593      	str	r3, [r2, #88]	; 0x58
24055fa0:	e714      	b.n	24055dcc <HAL_RCCEx_PeriphCLKConfig+0x184>
24055fa2:	f1b3 4fc0 	cmp.w	r3, #1610612736	; 0x60000000
24055fa6:	e7f0      	b.n	24055f8a <HAL_RCCEx_PeriphCLKConfig+0x342>
24055fa8:	2101      	movs	r1, #1
24055faa:	1d28      	adds	r0, r5, #4
24055fac:	f7ff fd5c 	bl	24055a68 <RCCEx_PLL2_Config>
24055fb0:	4604      	mov	r4, r0
24055fb2:	e7ec      	b.n	24055f8e <HAL_RCCEx_PeriphCLKConfig+0x346>
24055fb4:	2101      	movs	r1, #1
24055fb6:	f105 0024 	add.w	r0, r5, #36	; 0x24
24055fba:	f7ff fdcd 	bl	24055b58 <RCCEx_PLL3_Config>
24055fbe:	e7f7      	b.n	24055fb0 <HAL_RCCEx_PeriphCLKConfig+0x368>
24055fc0:	4626      	mov	r6, r4
24055fc2:	e703      	b.n	24055dcc <HAL_RCCEx_PeriphCLKConfig+0x184>
24055fc4:	4a74      	ldr	r2, [pc, #464]	; (24056198 <HAL_RCCEx_PeriphCLKConfig+0x550>)
24055fc6:	6ad3      	ldr	r3, [r2, #44]	; 0x2c
24055fc8:	f443 3300 	orr.w	r3, r3, #131072	; 0x20000
24055fcc:	62d3      	str	r3, [r2, #44]	; 0x2c
24055fce:	b96c      	cbnz	r4, 24055fec <HAL_RCCEx_PeriphCLKConfig+0x3a4>
24055fd0:	4a71      	ldr	r2, [pc, #452]	; (24056198 <HAL_RCCEx_PeriphCLKConfig+0x550>)
24055fd2:	6f69      	ldr	r1, [r5, #116]	; 0x74
24055fd4:	6d13      	ldr	r3, [r2, #80]	; 0x50
24055fd6:	f023 5340 	bic.w	r3, r3, #805306368	; 0x30000000
24055fda:	430b      	orrs	r3, r1
24055fdc:	6513      	str	r3, [r2, #80]	; 0x50
24055fde:	e706      	b.n	24055dee <HAL_RCCEx_PeriphCLKConfig+0x1a6>
24055fe0:	2101      	movs	r1, #1
24055fe2:	1d28      	adds	r0, r5, #4
24055fe4:	f7ff fd40 	bl	24055a68 <RCCEx_PLL2_Config>
24055fe8:	4604      	mov	r4, r0
24055fea:	e7f0      	b.n	24055fce <HAL_RCCEx_PeriphCLKConfig+0x386>
24055fec:	4626      	mov	r6, r4
24055fee:	e6fe      	b.n	24055dee <HAL_RCCEx_PeriphCLKConfig+0x1a6>
24055ff0:	4a69      	ldr	r2, [pc, #420]	; (24056198 <HAL_RCCEx_PeriphCLKConfig+0x550>)
24055ff2:	6ad3      	ldr	r3, [r2, #44]	; 0x2c
24055ff4:	f443 3300 	orr.w	r3, r3, #131072	; 0x20000
24055ff8:	62d3      	str	r3, [r2, #44]	; 0x2c
24055ffa:	2c00      	cmp	r4, #0
24055ffc:	d14d      	bne.n	2405609a <HAL_RCCEx_PeriphCLKConfig+0x452>
24055ffe:	4a66      	ldr	r2, [pc, #408]	; (24056198 <HAL_RCCEx_PeriphCLKConfig+0x550>)
24056000:	6c69      	ldr	r1, [r5, #68]	; 0x44
24056002:	6cd3      	ldr	r3, [r2, #76]	; 0x4c
24056004:	f023 0303 	bic.w	r3, r3, #3
24056008:	430b      	orrs	r3, r1
2405600a:	64d3      	str	r3, [r2, #76]	; 0x4c
2405600c:	682b      	ldr	r3, [r5, #0]
2405600e:	025f      	lsls	r7, r3, #9
24056010:	d54d      	bpl.n	240560ae <HAL_RCCEx_PeriphCLKConfig+0x466>
24056012:	4f62      	ldr	r7, [pc, #392]	; (2405619c <HAL_RCCEx_PeriphCLKConfig+0x554>)
24056014:	683b      	ldr	r3, [r7, #0]
24056016:	f443 7380 	orr.w	r3, r3, #256	; 0x100
2405601a:	603b      	str	r3, [r7, #0]
2405601c:	f7fb ff10 	bl	24051e40 <HAL_GetTick>
24056020:	4680      	mov	r8, r0
24056022:	683b      	ldr	r3, [r7, #0]
24056024:	05d8      	lsls	r0, r3, #23
24056026:	d53a      	bpl.n	2405609e <HAL_RCCEx_PeriphCLKConfig+0x456>
24056028:	2c00      	cmp	r4, #0
2405602a:	d16d      	bne.n	24056108 <HAL_RCCEx_PeriphCLKConfig+0x4c0>
2405602c:	4b5a      	ldr	r3, [pc, #360]	; (24056198 <HAL_RCCEx_PeriphCLKConfig+0x550>)
2405602e:	f8d5 00b0 	ldr.w	r0, [r5, #176]	; 0xb0
24056032:	6f1a      	ldr	r2, [r3, #112]	; 0x70
24056034:	4042      	eors	r2, r0
24056036:	f412 7f40 	tst.w	r2, #768	; 0x300
2405603a:	d00b      	beq.n	24056054 <HAL_RCCEx_PeriphCLKConfig+0x40c>
2405603c:	6f1a      	ldr	r2, [r3, #112]	; 0x70
2405603e:	6f19      	ldr	r1, [r3, #112]	; 0x70
24056040:	f422 7240 	bic.w	r2, r2, #768	; 0x300
24056044:	f441 3180 	orr.w	r1, r1, #65536	; 0x10000
24056048:	6719      	str	r1, [r3, #112]	; 0x70
2405604a:	6f19      	ldr	r1, [r3, #112]	; 0x70
2405604c:	f421 3180 	bic.w	r1, r1, #65536	; 0x10000
24056050:	6719      	str	r1, [r3, #112]	; 0x70
24056052:	671a      	str	r2, [r3, #112]	; 0x70
24056054:	f5b0 7f80 	cmp.w	r0, #256	; 0x100
24056058:	d041      	beq.n	240560de <HAL_RCCEx_PeriphCLKConfig+0x496>
2405605a:	f8d5 30b0 	ldr.w	r3, [r5, #176]	; 0xb0
2405605e:	494e      	ldr	r1, [pc, #312]	; (24056198 <HAL_RCCEx_PeriphCLKConfig+0x550>)
24056060:	f403 7240 	and.w	r2, r3, #768	; 0x300
24056064:	f5b2 7f40 	cmp.w	r2, #768	; 0x300
24056068:	d14a      	bne.n	24056100 <HAL_RCCEx_PeriphCLKConfig+0x4b8>
2405606a:	6908      	ldr	r0, [r1, #16]
2405606c:	4a4c      	ldr	r2, [pc, #304]	; (240561a0 <HAL_RCCEx_PeriphCLKConfig+0x558>)
2405606e:	f420 507c 	bic.w	r0, r0, #16128	; 0x3f00
24056072:	ea02 1213 	and.w	r2, r2, r3, lsr #4
24056076:	4302      	orrs	r2, r0
24056078:	610a      	str	r2, [r1, #16]
2405607a:	f3c3 030b 	ubfx	r3, r3, #0, #12
2405607e:	4a46      	ldr	r2, [pc, #280]	; (24056198 <HAL_RCCEx_PeriphCLKConfig+0x550>)
24056080:	6f11      	ldr	r1, [r2, #112]	; 0x70
24056082:	430b      	orrs	r3, r1
24056084:	6713      	str	r3, [r2, #112]	; 0x70
24056086:	e012      	b.n	240560ae <HAL_RCCEx_PeriphCLKConfig+0x466>
24056088:	2102      	movs	r1, #2
2405608a:	1d28      	adds	r0, r5, #4
2405608c:	f7ff fcec 	bl	24055a68 <RCCEx_PLL2_Config>
24056090:	4604      	mov	r4, r0
24056092:	e7b2      	b.n	24055ffa <HAL_RCCEx_PeriphCLKConfig+0x3b2>
24056094:	2601      	movs	r6, #1
24056096:	4634      	mov	r4, r6
24056098:	e7b8      	b.n	2405600c <HAL_RCCEx_PeriphCLKConfig+0x3c4>
2405609a:	4626      	mov	r6, r4
2405609c:	e7b6      	b.n	2405600c <HAL_RCCEx_PeriphCLKConfig+0x3c4>
2405609e:	f7fb fecf 	bl	24051e40 <HAL_GetTick>
240560a2:	eba0 0008 	sub.w	r0, r0, r8
240560a6:	2864      	cmp	r0, #100	; 0x64
240560a8:	d9bb      	bls.n	24056022 <HAL_RCCEx_PeriphCLKConfig+0x3da>
240560aa:	2603      	movs	r6, #3
240560ac:	4634      	mov	r4, r6
240560ae:	682b      	ldr	r3, [r5, #0]
240560b0:	07da      	lsls	r2, r3, #31
240560b2:	d509      	bpl.n	240560c8 <HAL_RCCEx_PeriphCLKConfig+0x480>
240560b4:	f8d5 3080 	ldr.w	r3, [r5, #128]	; 0x80
240560b8:	2b10      	cmp	r3, #16
240560ba:	d03d      	beq.n	24056138 <HAL_RCCEx_PeriphCLKConfig+0x4f0>
240560bc:	d826      	bhi.n	2405610c <HAL_RCCEx_PeriphCLKConfig+0x4c4>
240560be:	b35b      	cbz	r3, 24056118 <HAL_RCCEx_PeriphCLKConfig+0x4d0>
240560c0:	2b08      	cmp	r3, #8
240560c2:	d033      	beq.n	2405612c <HAL_RCCEx_PeriphCLKConfig+0x4e4>
240560c4:	2601      	movs	r6, #1
240560c6:	4634      	mov	r4, r6
240560c8:	682b      	ldr	r3, [r5, #0]
240560ca:	079b      	lsls	r3, r3, #30
240560cc:	d549      	bpl.n	24056162 <HAL_RCCEx_PeriphCLKConfig+0x51a>
240560ce:	6feb      	ldr	r3, [r5, #124]	; 0x7c
240560d0:	2b05      	cmp	r3, #5
240560d2:	d85c      	bhi.n	2405618e <HAL_RCCEx_PeriphCLKConfig+0x546>
240560d4:	e8df f003 	tbb	[pc, r3]
240560d8:	3d55383d 	.word	0x3d55383d
240560dc:	3d3d      	.short	0x3d3d
240560de:	f7fb feaf 	bl	24051e40 <HAL_GetTick>
240560e2:	f8df 80b4 	ldr.w	r8, [pc, #180]	; 24056198 <HAL_RCCEx_PeriphCLKConfig+0x550>
240560e6:	4607      	mov	r7, r0
240560e8:	f241 3988 	movw	r9, #5000	; 0x1388
240560ec:	f8d8 3070 	ldr.w	r3, [r8, #112]	; 0x70
240560f0:	0799      	lsls	r1, r3, #30
240560f2:	d4b2      	bmi.n	2405605a <HAL_RCCEx_PeriphCLKConfig+0x412>
240560f4:	f7fb fea4 	bl	24051e40 <HAL_GetTick>
240560f8:	1bc0      	subs	r0, r0, r7
240560fa:	4548      	cmp	r0, r9
240560fc:	d9f6      	bls.n	240560ec <HAL_RCCEx_PeriphCLKConfig+0x4a4>
240560fe:	e7d4      	b.n	240560aa <HAL_RCCEx_PeriphCLKConfig+0x462>
24056100:	690a      	ldr	r2, [r1, #16]
24056102:	f422 527c 	bic.w	r2, r2, #16128	; 0x3f00
24056106:	e7b7      	b.n	24056078 <HAL_RCCEx_PeriphCLKConfig+0x430>
24056108:	4626      	mov	r6, r4
2405610a:	e7d0      	b.n	240560ae <HAL_RCCEx_PeriphCLKConfig+0x466>
2405610c:	f023 0208 	bic.w	r2, r3, #8
24056110:	2a20      	cmp	r2, #32
24056112:	d001      	beq.n	24056118 <HAL_RCCEx_PeriphCLKConfig+0x4d0>
24056114:	2b18      	cmp	r3, #24
24056116:	d1d5      	bne.n	240560c4 <HAL_RCCEx_PeriphCLKConfig+0x47c>
24056118:	b9a4      	cbnz	r4, 24056144 <HAL_RCCEx_PeriphCLKConfig+0x4fc>
2405611a:	4a1f      	ldr	r2, [pc, #124]	; (24056198 <HAL_RCCEx_PeriphCLKConfig+0x550>)
2405611c:	f8d5 1080 	ldr.w	r1, [r5, #128]	; 0x80
24056120:	6d53      	ldr	r3, [r2, #84]	; 0x54
24056122:	f023 0338 	bic.w	r3, r3, #56	; 0x38
24056126:	430b      	orrs	r3, r1
24056128:	6553      	str	r3, [r2, #84]	; 0x54
2405612a:	e7cd      	b.n	240560c8 <HAL_RCCEx_PeriphCLKConfig+0x480>
2405612c:	2101      	movs	r1, #1
2405612e:	1d28      	adds	r0, r5, #4
24056130:	f7ff fc9a 	bl	24055a68 <RCCEx_PLL2_Config>
24056134:	4604      	mov	r4, r0
24056136:	e7ef      	b.n	24056118 <HAL_RCCEx_PeriphCLKConfig+0x4d0>
24056138:	2101      	movs	r1, #1
2405613a:	f105 0024 	add.w	r0, r5, #36	; 0x24
2405613e:	f7ff fd0b 	bl	24055b58 <RCCEx_PLL3_Config>
24056142:	e7f7      	b.n	24056134 <HAL_RCCEx_PeriphCLKConfig+0x4ec>
24056144:	4626      	mov	r6, r4
24056146:	e7bf      	b.n	240560c8 <HAL_RCCEx_PeriphCLKConfig+0x480>
24056148:	2101      	movs	r1, #1
2405614a:	1d28      	adds	r0, r5, #4
2405614c:	f7ff fc8c 	bl	24055a68 <RCCEx_PLL2_Config>
24056150:	4604      	mov	r4, r0
24056152:	b9fc      	cbnz	r4, 24056194 <HAL_RCCEx_PeriphCLKConfig+0x54c>
24056154:	4a10      	ldr	r2, [pc, #64]	; (24056198 <HAL_RCCEx_PeriphCLKConfig+0x550>)
24056156:	6fe9      	ldr	r1, [r5, #124]	; 0x7c
24056158:	6d53      	ldr	r3, [r2, #84]	; 0x54
2405615a:	f023 0307 	bic.w	r3, r3, #7
2405615e:	430b      	orrs	r3, r1
24056160:	6553      	str	r3, [r2, #84]	; 0x54
24056162:	682b      	ldr	r3, [r5, #0]
24056164:	075f      	lsls	r7, r3, #29
24056166:	d52d      	bpl.n	240561c4 <HAL_RCCEx_PeriphCLKConfig+0x57c>
24056168:	f8d5 3098 	ldr.w	r3, [r5, #152]	; 0x98
2405616c:	2b05      	cmp	r3, #5
2405616e:	f200 813f 	bhi.w	240563f0 <HAL_RCCEx_PeriphCLKConfig+0x7a8>
24056172:	e8df f013 	tbh	[pc, r3, lsl #1]
24056176:	001c      	.short	0x001c
24056178:	01370017 	.word	0x01370017
2405617c:	001c001c 	.word	0x001c001c
24056180:	001c      	.short	0x001c
24056182:	2101      	movs	r1, #1
24056184:	f105 0024 	add.w	r0, r5, #36	; 0x24
24056188:	f7ff fce6 	bl	24055b58 <RCCEx_PLL3_Config>
2405618c:	e7e0      	b.n	24056150 <HAL_RCCEx_PeriphCLKConfig+0x508>
2405618e:	2601      	movs	r6, #1
24056190:	4634      	mov	r4, r6
24056192:	e7e6      	b.n	24056162 <HAL_RCCEx_PeriphCLKConfig+0x51a>
24056194:	4626      	mov	r6, r4
24056196:	e7e4      	b.n	24056162 <HAL_RCCEx_PeriphCLKConfig+0x51a>
24056198:	58024400 	.word	0x58024400
2405619c:	58024800 	.word	0x58024800
240561a0:	00ffffcf 	.word	0x00ffffcf
240561a4:	2101      	movs	r1, #1
240561a6:	1d28      	adds	r0, r5, #4
240561a8:	f7ff fc5e 	bl	24055a68 <RCCEx_PLL2_Config>
240561ac:	4604      	mov	r4, r0
240561ae:	2c00      	cmp	r4, #0
240561b0:	f040 8121 	bne.w	240563f6 <HAL_RCCEx_PeriphCLKConfig+0x7ae>
240561b4:	4ab2      	ldr	r2, [pc, #712]	; (24056480 <HAL_RCCEx_PeriphCLKConfig+0x838>)
240561b6:	f8d5 1098 	ldr.w	r1, [r5, #152]	; 0x98
240561ba:	6d93      	ldr	r3, [r2, #88]	; 0x58
240561bc:	f023 0307 	bic.w	r3, r3, #7
240561c0:	430b      	orrs	r3, r1
240561c2:	6593      	str	r3, [r2, #88]	; 0x58
240561c4:	682b      	ldr	r3, [r5, #0]
240561c6:	0698      	lsls	r0, r3, #26
240561c8:	d510      	bpl.n	240561ec <HAL_RCCEx_PeriphCLKConfig+0x5a4>
240561ca:	f8d5 3094 	ldr.w	r3, [r5, #148]	; 0x94
240561ce:	f1b3 5f00 	cmp.w	r3, #536870912	; 0x20000000
240561d2:	f000 812b 	beq.w	2405642c <HAL_RCCEx_PeriphCLKConfig+0x7e4>
240561d6:	f200 8110 	bhi.w	240563fa <HAL_RCCEx_PeriphCLKConfig+0x7b2>
240561da:	2b00      	cmp	r3, #0
240561dc:	f000 8116 	beq.w	2405640c <HAL_RCCEx_PeriphCLKConfig+0x7c4>
240561e0:	f1b3 5f80 	cmp.w	r3, #268435456	; 0x10000000
240561e4:	f000 811c 	beq.w	24056420 <HAL_RCCEx_PeriphCLKConfig+0x7d8>
240561e8:	2601      	movs	r6, #1
240561ea:	4634      	mov	r4, r6
240561ec:	682b      	ldr	r3, [r5, #0]
240561ee:	0659      	lsls	r1, r3, #25
240561f0:	d510      	bpl.n	24056214 <HAL_RCCEx_PeriphCLKConfig+0x5cc>
240561f2:	f8d5 30a0 	ldr.w	r3, [r5, #160]	; 0xa0
240561f6:	f5b3 6f00 	cmp.w	r3, #2048	; 0x800
240561fa:	f000 8138 	beq.w	2405646e <HAL_RCCEx_PeriphCLKConfig+0x826>
240561fe:	f200 811d 	bhi.w	2405643c <HAL_RCCEx_PeriphCLKConfig+0x7f4>
24056202:	2b00      	cmp	r3, #0
24056204:	f000 8123 	beq.w	2405644e <HAL_RCCEx_PeriphCLKConfig+0x806>
24056208:	f5b3 6f80 	cmp.w	r3, #1024	; 0x400
2405620c:	f000 8129 	beq.w	24056462 <HAL_RCCEx_PeriphCLKConfig+0x81a>
24056210:	2601      	movs	r6, #1
24056212:	4634      	mov	r4, r6
24056214:	682b      	ldr	r3, [r5, #0]
24056216:	061a      	lsls	r2, r3, #24
24056218:	d510      	bpl.n	2405623c <HAL_RCCEx_PeriphCLKConfig+0x5f4>
2405621a:	f8d5 30a4 	ldr.w	r3, [r5, #164]	; 0xa4
2405621e:	f5b3 4f80 	cmp.w	r3, #16384	; 0x4000
24056222:	f000 8148 	beq.w	240564b6 <HAL_RCCEx_PeriphCLKConfig+0x86e>
24056226:	f200 812d 	bhi.w	24056484 <HAL_RCCEx_PeriphCLKConfig+0x83c>
2405622a:	2b00      	cmp	r3, #0
2405622c:	f000 8133 	beq.w	24056496 <HAL_RCCEx_PeriphCLKConfig+0x84e>
24056230:	f5b3 5f00 	cmp.w	r3, #8192	; 0x2000
24056234:	f000 8139 	beq.w	240564aa <HAL_RCCEx_PeriphCLKConfig+0x862>
24056238:	2601      	movs	r6, #1
2405623a:	4634      	mov	r4, r6
2405623c:	682b      	ldr	r3, [r5, #0]
2405623e:	071b      	lsls	r3, r3, #28
24056240:	d514      	bpl.n	2405626c <HAL_RCCEx_PeriphCLKConfig+0x624>
24056242:	f8d5 3088 	ldr.w	r3, [r5, #136]	; 0x88
24056246:	f5b3 5f80 	cmp.w	r3, #4096	; 0x1000
2405624a:	d107      	bne.n	2405625c <HAL_RCCEx_PeriphCLKConfig+0x614>
2405624c:	2102      	movs	r1, #2
2405624e:	f105 0024 	add.w	r0, r5, #36	; 0x24
24056252:	f7ff fc81 	bl	24055b58 <RCCEx_PLL3_Config>
24056256:	2800      	cmp	r0, #0
24056258:	bf18      	it	ne
2405625a:	2601      	movne	r6, #1
2405625c:	4a88      	ldr	r2, [pc, #544]	; (24056480 <HAL_RCCEx_PeriphCLKConfig+0x838>)
2405625e:	f8d5 1088 	ldr.w	r1, [r5, #136]	; 0x88
24056262:	6d53      	ldr	r3, [r2, #84]	; 0x54
24056264:	f423 5340 	bic.w	r3, r3, #12288	; 0x3000
24056268:	430b      	orrs	r3, r1
2405626a:	6553      	str	r3, [r2, #84]	; 0x54
2405626c:	682b      	ldr	r3, [r5, #0]
2405626e:	06df      	lsls	r7, r3, #27
24056270:	d514      	bpl.n	2405629c <HAL_RCCEx_PeriphCLKConfig+0x654>
24056272:	f8d5 309c 	ldr.w	r3, [r5, #156]	; 0x9c
24056276:	f5b3 7f80 	cmp.w	r3, #256	; 0x100
2405627a:	d107      	bne.n	2405628c <HAL_RCCEx_PeriphCLKConfig+0x644>
2405627c:	2102      	movs	r1, #2
2405627e:	f105 0024 	add.w	r0, r5, #36	; 0x24
24056282:	f7ff fc69 	bl	24055b58 <RCCEx_PLL3_Config>
24056286:	2800      	cmp	r0, #0
24056288:	bf18      	it	ne
2405628a:	2601      	movne	r6, #1
2405628c:	4a7c      	ldr	r2, [pc, #496]	; (24056480 <HAL_RCCEx_PeriphCLKConfig+0x838>)
2405628e:	f8d5 109c 	ldr.w	r1, [r5, #156]	; 0x9c
24056292:	6d93      	ldr	r3, [r2, #88]	; 0x58
24056294:	f423 7340 	bic.w	r3, r3, #768	; 0x300
24056298:	430b      	orrs	r3, r1
2405629a:	6593      	str	r3, [r2, #88]	; 0x58
2405629c:	682b      	ldr	r3, [r5, #0]
2405629e:	0318      	lsls	r0, r3, #12
240562a0:	d51a      	bpl.n	240562d8 <HAL_RCCEx_PeriphCLKConfig+0x690>
240562a2:	f8d5 10a8 	ldr.w	r1, [r5, #168]	; 0xa8
240562a6:	f5b1 3f80 	cmp.w	r1, #65536	; 0x10000
240562aa:	f000 810c 	beq.w	240564c6 <HAL_RCCEx_PeriphCLKConfig+0x87e>
240562ae:	f5b1 3f00 	cmp.w	r1, #131072	; 0x20000
240562b2:	d006      	beq.n	240562c2 <HAL_RCCEx_PeriphCLKConfig+0x67a>
240562b4:	2900      	cmp	r1, #0
240562b6:	f040 810c 	bne.w	240564d2 <HAL_RCCEx_PeriphCLKConfig+0x88a>
240562ba:	1d28      	adds	r0, r5, #4
240562bc:	f7ff fbd4 	bl	24055a68 <RCCEx_PLL2_Config>
240562c0:	4604      	mov	r4, r0
240562c2:	2c00      	cmp	r4, #0
240562c4:	f040 8108 	bne.w	240564d8 <HAL_RCCEx_PeriphCLKConfig+0x890>
240562c8:	4a6d      	ldr	r2, [pc, #436]	; (24056480 <HAL_RCCEx_PeriphCLKConfig+0x838>)
240562ca:	f8d5 10a8 	ldr.w	r1, [r5, #168]	; 0xa8
240562ce:	6d93      	ldr	r3, [r2, #88]	; 0x58
240562d0:	f423 3340 	bic.w	r3, r3, #196608	; 0x30000
240562d4:	430b      	orrs	r3, r1
240562d6:	6593      	str	r3, [r2, #88]	; 0x58
240562d8:	682b      	ldr	r3, [r5, #0]
240562da:	0359      	lsls	r1, r3, #13
240562dc:	d51c      	bpl.n	24056318 <HAL_RCCEx_PeriphCLKConfig+0x6d0>
240562de:	f8d5 308c 	ldr.w	r3, [r5, #140]	; 0x8c
240562e2:	f5b3 1f00 	cmp.w	r3, #2097152	; 0x200000
240562e6:	f000 80f9 	beq.w	240564dc <HAL_RCCEx_PeriphCLKConfig+0x894>
240562ea:	f5b3 1f40 	cmp.w	r3, #3145728	; 0x300000
240562ee:	d008      	beq.n	24056302 <HAL_RCCEx_PeriphCLKConfig+0x6ba>
240562f0:	f5b3 1f80 	cmp.w	r3, #1048576	; 0x100000
240562f4:	f040 80f9 	bne.w	240564ea <HAL_RCCEx_PeriphCLKConfig+0x8a2>
240562f8:	4a61      	ldr	r2, [pc, #388]	; (24056480 <HAL_RCCEx_PeriphCLKConfig+0x838>)
240562fa:	6ad3      	ldr	r3, [r2, #44]	; 0x2c
240562fc:	f443 3300 	orr.w	r3, r3, #131072	; 0x20000
24056300:	62d3      	str	r3, [r2, #44]	; 0x2c
24056302:	2c00      	cmp	r4, #0
24056304:	f040 80f4 	bne.w	240564f0 <HAL_RCCEx_PeriphCLKConfig+0x8a8>
24056308:	4a5d      	ldr	r2, [pc, #372]	; (24056480 <HAL_RCCEx_PeriphCLKConfig+0x838>)
2405630a:	f8d5 108c 	ldr.w	r1, [r5, #140]	; 0x8c
2405630e:	6d53      	ldr	r3, [r2, #84]	; 0x54
24056310:	f423 1340 	bic.w	r3, r3, #3145728	; 0x300000
24056314:	430b      	orrs	r3, r1
24056316:	6553      	str	r3, [r2, #84]	; 0x54
24056318:	682b      	ldr	r3, [r5, #0]
2405631a:	03da      	lsls	r2, r3, #15
2405631c:	d509      	bpl.n	24056332 <HAL_RCCEx_PeriphCLKConfig+0x6ea>
2405631e:	6ceb      	ldr	r3, [r5, #76]	; 0x4c
24056320:	2b00      	cmp	r3, #0
24056322:	f000 80e7 	beq.w	240564f4 <HAL_RCCEx_PeriphCLKConfig+0x8ac>
24056326:	f5b3 3f80 	cmp.w	r3, #65536	; 0x10000
2405632a:	f000 80f1 	beq.w	24056510 <HAL_RCCEx_PeriphCLKConfig+0x8c8>
2405632e:	2601      	movs	r6, #1
24056330:	4634      	mov	r4, r6
24056332:	682b      	ldr	r3, [r5, #0]
24056334:	009b      	lsls	r3, r3, #2
24056336:	d507      	bpl.n	24056348 <HAL_RCCEx_PeriphCLKConfig+0x700>
24056338:	2102      	movs	r1, #2
2405633a:	f105 0024 	add.w	r0, r5, #36	; 0x24
2405633e:	f7ff fc0b 	bl	24055b58 <RCCEx_PLL3_Config>
24056342:	2800      	cmp	r0, #0
24056344:	bf18      	it	ne
24056346:	2601      	movne	r6, #1
24056348:	682b      	ldr	r3, [r5, #0]
2405634a:	039f      	lsls	r7, r3, #14
2405634c:	d50b      	bpl.n	24056366 <HAL_RCCEx_PeriphCLKConfig+0x71e>
2405634e:	f8d5 1084 	ldr.w	r1, [r5, #132]	; 0x84
24056352:	f5b1 7f80 	cmp.w	r1, #256	; 0x100
24056356:	f000 80f1 	beq.w	2405653c <HAL_RCCEx_PeriphCLKConfig+0x8f4>
2405635a:	f200 80e1 	bhi.w	24056520 <HAL_RCCEx_PeriphCLKConfig+0x8d8>
2405635e:	2900      	cmp	r1, #0
24056360:	f000 80e4 	beq.w	2405652c <HAL_RCCEx_PeriphCLKConfig+0x8e4>
24056364:	2601      	movs	r6, #1
24056366:	02dc      	lsls	r4, r3, #11
24056368:	d506      	bpl.n	24056378 <HAL_RCCEx_PeriphCLKConfig+0x730>
2405636a:	4945      	ldr	r1, [pc, #276]	; (24056480 <HAL_RCCEx_PeriphCLKConfig+0x838>)
2405636c:	6fa8      	ldr	r0, [r5, #120]	; 0x78
2405636e:	6d0a      	ldr	r2, [r1, #80]	; 0x50
24056370:	f022 4200 	bic.w	r2, r2, #2147483648	; 0x80000000
24056374:	4302      	orrs	r2, r0
24056376:	650a      	str	r2, [r1, #80]	; 0x50
24056378:	0298      	lsls	r0, r3, #10
2405637a:	d506      	bpl.n	2405638a <HAL_RCCEx_PeriphCLKConfig+0x742>
2405637c:	4940      	ldr	r1, [pc, #256]	; (24056480 <HAL_RCCEx_PeriphCLKConfig+0x838>)
2405637e:	6ee8      	ldr	r0, [r5, #108]	; 0x6c
24056380:	6d0a      	ldr	r2, [r1, #80]	; 0x50
24056382:	f022 7280 	bic.w	r2, r2, #16777216	; 0x1000000
24056386:	4302      	orrs	r2, r0
24056388:	650a      	str	r2, [r1, #80]	; 0x50
2405638a:	0519      	lsls	r1, r3, #20
2405638c:	d506      	bpl.n	2405639c <HAL_RCCEx_PeriphCLKConfig+0x754>
2405638e:	493c      	ldr	r1, [pc, #240]	; (24056480 <HAL_RCCEx_PeriphCLKConfig+0x838>)
24056390:	6f28      	ldr	r0, [r5, #112]	; 0x70
24056392:	6d8a      	ldr	r2, [r1, #88]	; 0x58
24056394:	f022 6200 	bic.w	r2, r2, #134217728	; 0x8000000
24056398:	4302      	orrs	r2, r0
2405639a:	658a      	str	r2, [r1, #88]	; 0x58
2405639c:	005a      	lsls	r2, r3, #1
2405639e:	d509      	bpl.n	240563b4 <HAL_RCCEx_PeriphCLKConfig+0x76c>
240563a0:	4a37      	ldr	r2, [pc, #220]	; (24056480 <HAL_RCCEx_PeriphCLKConfig+0x838>)
240563a2:	6911      	ldr	r1, [r2, #16]
240563a4:	f421 4100 	bic.w	r1, r1, #32768	; 0x8000
240563a8:	6111      	str	r1, [r2, #16]
240563aa:	6911      	ldr	r1, [r2, #16]
240563ac:	f8d5 00b4 	ldr.w	r0, [r5, #180]	; 0xb4
240563b0:	4301      	orrs	r1, r0
240563b2:	6111      	str	r1, [r2, #16]
240563b4:	2b00      	cmp	r3, #0
240563b6:	da06      	bge.n	240563c6 <HAL_RCCEx_PeriphCLKConfig+0x77e>
240563b8:	4931      	ldr	r1, [pc, #196]	; (24056480 <HAL_RCCEx_PeriphCLKConfig+0x838>)
240563ba:	6d28      	ldr	r0, [r5, #80]	; 0x50
240563bc:	6cca      	ldr	r2, [r1, #76]	; 0x4c
240563be:	f022 5240 	bic.w	r2, r2, #805306368	; 0x30000000
240563c2:	4302      	orrs	r2, r0
240563c4:	64ca      	str	r2, [r1, #76]	; 0x4c
240563c6:	021b      	lsls	r3, r3, #8
240563c8:	d507      	bpl.n	240563da <HAL_RCCEx_PeriphCLKConfig+0x792>
240563ca:	4a2d      	ldr	r2, [pc, #180]	; (24056480 <HAL_RCCEx_PeriphCLKConfig+0x838>)
240563cc:	f8d5 1090 	ldr.w	r1, [r5, #144]	; 0x90
240563d0:	6d53      	ldr	r3, [r2, #84]	; 0x54
240563d2:	f423 0340 	bic.w	r3, r3, #12582912	; 0xc00000
240563d6:	430b      	orrs	r3, r1
240563d8:	6553      	str	r3, [r2, #84]	; 0x54
240563da:	1e30      	subs	r0, r6, #0
240563dc:	bf18      	it	ne
240563de:	2001      	movne	r0, #1
240563e0:	e8bd 83f8 	ldmia.w	sp!, {r3, r4, r5, r6, r7, r8, r9, pc}
240563e4:	2101      	movs	r1, #1
240563e6:	f105 0024 	add.w	r0, r5, #36	; 0x24
240563ea:	f7ff fbb5 	bl	24055b58 <RCCEx_PLL3_Config>
240563ee:	e6dd      	b.n	240561ac <HAL_RCCEx_PeriphCLKConfig+0x564>
240563f0:	2601      	movs	r6, #1
240563f2:	4634      	mov	r4, r6
240563f4:	e6e6      	b.n	240561c4 <HAL_RCCEx_PeriphCLKConfig+0x57c>
240563f6:	4626      	mov	r6, r4
240563f8:	e6e4      	b.n	240561c4 <HAL_RCCEx_PeriphCLKConfig+0x57c>
240563fa:	f023 5280 	bic.w	r2, r3, #268435456	; 0x10000000
240563fe:	f1b2 4f80 	cmp.w	r2, #1073741824	; 0x40000000
24056402:	d003      	beq.n	2405640c <HAL_RCCEx_PeriphCLKConfig+0x7c4>
24056404:	f1b3 5f40 	cmp.w	r3, #805306368	; 0x30000000
24056408:	f47f aeee 	bne.w	240561e8 <HAL_RCCEx_PeriphCLKConfig+0x5a0>
2405640c:	b9a4      	cbnz	r4, 24056438 <HAL_RCCEx_PeriphCLKConfig+0x7f0>
2405640e:	4a1c      	ldr	r2, [pc, #112]	; (24056480 <HAL_RCCEx_PeriphCLKConfig+0x838>)
24056410:	f8d5 1094 	ldr.w	r1, [r5, #148]	; 0x94
24056414:	6d53      	ldr	r3, [r2, #84]	; 0x54
24056416:	f023 43e0 	bic.w	r3, r3, #1879048192	; 0x70000000
2405641a:	430b      	orrs	r3, r1
2405641c:	6553      	str	r3, [r2, #84]	; 0x54
2405641e:	e6e5      	b.n	240561ec <HAL_RCCEx_PeriphCLKConfig+0x5a4>
24056420:	2100      	movs	r1, #0
24056422:	1d28      	adds	r0, r5, #4
24056424:	f7ff fb20 	bl	24055a68 <RCCEx_PLL2_Config>
24056428:	4604      	mov	r4, r0
2405642a:	e7ef      	b.n	2405640c <HAL_RCCEx_PeriphCLKConfig+0x7c4>
2405642c:	2102      	movs	r1, #2
2405642e:	f105 0024 	add.w	r0, r5, #36	; 0x24
24056432:	f7ff fb91 	bl	24055b58 <RCCEx_PLL3_Config>
24056436:	e7f7      	b.n	24056428 <HAL_RCCEx_PeriphCLKConfig+0x7e0>
24056438:	4626      	mov	r6, r4
2405643a:	e6d7      	b.n	240561ec <HAL_RCCEx_PeriphCLKConfig+0x5a4>
2405643c:	f423 6280 	bic.w	r2, r3, #1024	; 0x400
24056440:	f5b2 5f80 	cmp.w	r2, #4096	; 0x1000
24056444:	d003      	beq.n	2405644e <HAL_RCCEx_PeriphCLKConfig+0x806>
24056446:	f5b3 6f40 	cmp.w	r3, #3072	; 0xc00
2405644a:	f47f aee1 	bne.w	24056210 <HAL_RCCEx_PeriphCLKConfig+0x5c8>
2405644e:	b9a4      	cbnz	r4, 2405647a <HAL_RCCEx_PeriphCLKConfig+0x832>
24056450:	4a0b      	ldr	r2, [pc, #44]	; (24056480 <HAL_RCCEx_PeriphCLKConfig+0x838>)
24056452:	f8d5 10a0 	ldr.w	r1, [r5, #160]	; 0xa0
24056456:	6d93      	ldr	r3, [r2, #88]	; 0x58
24056458:	f423 53e0 	bic.w	r3, r3, #7168	; 0x1c00
2405645c:	430b      	orrs	r3, r1
2405645e:	6593      	str	r3, [r2, #88]	; 0x58
24056460:	e6d8      	b.n	24056214 <HAL_RCCEx_PeriphCLKConfig+0x5cc>
24056462:	2100      	movs	r1, #0
24056464:	1d28      	adds	r0, r5, #4
24056466:	f7ff faff 	bl	24055a68 <RCCEx_PLL2_Config>
2405646a:	4604      	mov	r4, r0
2405646c:	e7ef      	b.n	2405644e <HAL_RCCEx_PeriphCLKConfig+0x806>
2405646e:	2102      	movs	r1, #2
24056470:	f105 0024 	add.w	r0, r5, #36	; 0x24
24056474:	f7ff fb70 	bl	24055b58 <RCCEx_PLL3_Config>
24056478:	e7f7      	b.n	2405646a <HAL_RCCEx_PeriphCLKConfig+0x822>
2405647a:	4626      	mov	r6, r4
2405647c:	e6ca      	b.n	24056214 <HAL_RCCEx_PeriphCLKConfig+0x5cc>
2405647e:	bf00      	nop
24056480:	58024400 	.word	0x58024400
24056484:	f423 5200 	bic.w	r2, r3, #8192	; 0x2000
24056488:	f5b2 4f00 	cmp.w	r2, #32768	; 0x8000
2405648c:	d003      	beq.n	24056496 <HAL_RCCEx_PeriphCLKConfig+0x84e>
2405648e:	f5b3 4fc0 	cmp.w	r3, #24576	; 0x6000
24056492:	f47f aed1 	bne.w	24056238 <HAL_RCCEx_PeriphCLKConfig+0x5f0>
24056496:	b9a4      	cbnz	r4, 240564c2 <HAL_RCCEx_PeriphCLKConfig+0x87a>
24056498:	4a2c      	ldr	r2, [pc, #176]	; (2405654c <HAL_RCCEx_PeriphCLKConfig+0x904>)
2405649a:	f8d5 10a4 	ldr.w	r1, [r5, #164]	; 0xa4
2405649e:	6d93      	ldr	r3, [r2, #88]	; 0x58
240564a0:	f423 4360 	bic.w	r3, r3, #57344	; 0xe000
240564a4:	430b      	orrs	r3, r1
240564a6:	6593      	str	r3, [r2, #88]	; 0x58
240564a8:	e6c8      	b.n	2405623c <HAL_RCCEx_PeriphCLKConfig+0x5f4>
240564aa:	2100      	movs	r1, #0
240564ac:	1d28      	adds	r0, r5, #4
240564ae:	f7ff fadb 	bl	24055a68 <RCCEx_PLL2_Config>
240564b2:	4604      	mov	r4, r0
240564b4:	e7ef      	b.n	24056496 <HAL_RCCEx_PeriphCLKConfig+0x84e>
240564b6:	2102      	movs	r1, #2
240564b8:	f105 0024 	add.w	r0, r5, #36	; 0x24
240564bc:	f7ff fb4c 	bl	24055b58 <RCCEx_PLL3_Config>
240564c0:	e7f7      	b.n	240564b2 <HAL_RCCEx_PeriphCLKConfig+0x86a>
240564c2:	4626      	mov	r6, r4
240564c4:	e6ba      	b.n	2405623c <HAL_RCCEx_PeriphCLKConfig+0x5f4>
240564c6:	2102      	movs	r1, #2
240564c8:	f105 0024 	add.w	r0, r5, #36	; 0x24
240564cc:	f7ff fb44 	bl	24055b58 <RCCEx_PLL3_Config>
240564d0:	e6f6      	b.n	240562c0 <HAL_RCCEx_PeriphCLKConfig+0x678>
240564d2:	2601      	movs	r6, #1
240564d4:	4634      	mov	r4, r6
240564d6:	e6ff      	b.n	240562d8 <HAL_RCCEx_PeriphCLKConfig+0x690>
240564d8:	4626      	mov	r6, r4
240564da:	e6fd      	b.n	240562d8 <HAL_RCCEx_PeriphCLKConfig+0x690>
240564dc:	2101      	movs	r1, #1
240564de:	f105 0024 	add.w	r0, r5, #36	; 0x24
240564e2:	f7ff fb39 	bl	24055b58 <RCCEx_PLL3_Config>
240564e6:	4604      	mov	r4, r0
240564e8:	e70b      	b.n	24056302 <HAL_RCCEx_PeriphCLKConfig+0x6ba>
240564ea:	2601      	movs	r6, #1
240564ec:	4634      	mov	r4, r6
240564ee:	e713      	b.n	24056318 <HAL_RCCEx_PeriphCLKConfig+0x6d0>
240564f0:	4626      	mov	r6, r4
240564f2:	e711      	b.n	24056318 <HAL_RCCEx_PeriphCLKConfig+0x6d0>
240564f4:	4a15      	ldr	r2, [pc, #84]	; (2405654c <HAL_RCCEx_PeriphCLKConfig+0x904>)
240564f6:	6ad3      	ldr	r3, [r2, #44]	; 0x2c
240564f8:	f443 3300 	orr.w	r3, r3, #131072	; 0x20000
240564fc:	62d3      	str	r3, [r2, #44]	; 0x2c
240564fe:	b96c      	cbnz	r4, 2405651c <HAL_RCCEx_PeriphCLKConfig+0x8d4>
24056500:	4a12      	ldr	r2, [pc, #72]	; (2405654c <HAL_RCCEx_PeriphCLKConfig+0x904>)
24056502:	6ce9      	ldr	r1, [r5, #76]	; 0x4c
24056504:	6cd3      	ldr	r3, [r2, #76]	; 0x4c
24056506:	f423 3380 	bic.w	r3, r3, #65536	; 0x10000
2405650a:	430b      	orrs	r3, r1
2405650c:	64d3      	str	r3, [r2, #76]	; 0x4c
2405650e:	e710      	b.n	24056332 <HAL_RCCEx_PeriphCLKConfig+0x6ea>
24056510:	2102      	movs	r1, #2
24056512:	1d28      	adds	r0, r5, #4
24056514:	f7ff faa8 	bl	24055a68 <RCCEx_PLL2_Config>
24056518:	4604      	mov	r4, r0
2405651a:	e7f0      	b.n	240564fe <HAL_RCCEx_PeriphCLKConfig+0x8b6>
2405651c:	4626      	mov	r6, r4
2405651e:	e708      	b.n	24056332 <HAL_RCCEx_PeriphCLKConfig+0x6ea>
24056520:	f421 7280 	bic.w	r2, r1, #256	; 0x100
24056524:	f5b2 7f00 	cmp.w	r2, #512	; 0x200
24056528:	f47f af1c 	bne.w	24056364 <HAL_RCCEx_PeriphCLKConfig+0x71c>
2405652c:	b964      	cbnz	r4, 24056548 <HAL_RCCEx_PeriphCLKConfig+0x900>
2405652e:	4807      	ldr	r0, [pc, #28]	; (2405654c <HAL_RCCEx_PeriphCLKConfig+0x904>)
24056530:	6d42      	ldr	r2, [r0, #84]	; 0x54
24056532:	f422 7240 	bic.w	r2, r2, #768	; 0x300
24056536:	430a      	orrs	r2, r1
24056538:	6542      	str	r2, [r0, #84]	; 0x54
2405653a:	e714      	b.n	24056366 <HAL_RCCEx_PeriphCLKConfig+0x71e>
2405653c:	4803      	ldr	r0, [pc, #12]	; (2405654c <HAL_RCCEx_PeriphCLKConfig+0x904>)
2405653e:	6ac2      	ldr	r2, [r0, #44]	; 0x2c
24056540:	f442 3200 	orr.w	r2, r2, #131072	; 0x20000
24056544:	62c2      	str	r2, [r0, #44]	; 0x2c
24056546:	e7f1      	b.n	2405652c <HAL_RCCEx_PeriphCLKConfig+0x8e4>
24056548:	4626      	mov	r6, r4
2405654a:	e70c      	b.n	24056366 <HAL_RCCEx_PeriphCLKConfig+0x71e>
2405654c:	58024400 	.word	0x58024400

24056550 <HAL_RCCEx_GetD3PCLK1Freq>:
24056550:	b508      	push	{r3, lr}
24056552:	f7ff fa67 	bl	24055a24 <HAL_RCC_GetHCLKFreq>
24056556:	4b05      	ldr	r3, [pc, #20]	; (2405656c <HAL_RCCEx_GetD3PCLK1Freq+0x1c>)
24056558:	4a05      	ldr	r2, [pc, #20]	; (24056570 <HAL_RCCEx_GetD3PCLK1Freq+0x20>)
2405655a:	6a1b      	ldr	r3, [r3, #32]
2405655c:	f3c3 1302 	ubfx	r3, r3, #4, #3
24056560:	5cd3      	ldrb	r3, [r2, r3]
24056562:	f003 031f 	and.w	r3, r3, #31
24056566:	40d8      	lsrs	r0, r3
24056568:	bd08      	pop	{r3, pc}
2405656a:	bf00      	nop
2405656c:	58024400 	.word	0x58024400
24056570:	2405a02b 	.word	0x2405a02b

24056574 <HAL_RCCEx_GetPLL2ClockFreq>:
24056574:	4a4e      	ldr	r2, [pc, #312]	; (240566b0 <HAL_RCCEx_GetPLL2ClockFreq+0x13c>)
24056576:	b570      	push	{r4, r5, r6, lr}
24056578:	6a94      	ldr	r4, [r2, #40]	; 0x28
2405657a:	6a96      	ldr	r6, [r2, #40]	; 0x28
2405657c:	6ad3      	ldr	r3, [r2, #44]	; 0x2c
2405657e:	f416 3f7c 	tst.w	r6, #258048	; 0x3f000
24056582:	f3c6 3105 	ubfx	r1, r6, #12, #6
24056586:	6bd5      	ldr	r5, [r2, #60]	; 0x3c
24056588:	f000 808d 	beq.w	240566a6 <HAL_RCCEx_GetPLL2ClockFreq+0x132>
2405658c:	ee07 1a90 	vmov	s15, r1
24056590:	f3c3 1300 	ubfx	r3, r3, #4, #1
24056594:	f3c5 01cc 	ubfx	r1, r5, #3, #13
24056598:	f004 0403 	and.w	r4, r4, #3
2405659c:	eef8 6ae7 	vcvt.f32.s32	s13, s15
240565a0:	434b      	muls	r3, r1
240565a2:	2c01      	cmp	r4, #1
240565a4:	eeb7 6a00 	vmov.f32	s12, #112	; 0x3f800000  1.0
240565a8:	ee07 3a90 	vmov	s15, r3
240565ac:	eefa 7ae9 	vcvt.f32.s32	s15, s15, #13
240565b0:	d06b      	beq.n	2405668a <HAL_RCCEx_GetPLL2ClockFreq+0x116>
240565b2:	2c02      	cmp	r4, #2
240565b4:	d05b      	beq.n	2405666e <HAL_RCCEx_GetPLL2ClockFreq+0xfa>
240565b6:	2c00      	cmp	r4, #0
240565b8:	d167      	bne.n	2405668a <HAL_RCCEx_GetPLL2ClockFreq+0x116>
240565ba:	6813      	ldr	r3, [r2, #0]
240565bc:	069b      	lsls	r3, r3, #26
240565be:	d546      	bpl.n	2405664e <HAL_RCCEx_GetPLL2ClockFreq+0xda>
240565c0:	6811      	ldr	r1, [r2, #0]
240565c2:	6b93      	ldr	r3, [r2, #56]	; 0x38
240565c4:	f3c1 01c1 	ubfx	r1, r1, #3, #2
240565c8:	4a3a      	ldr	r2, [pc, #232]	; (240566b4 <HAL_RCCEx_GetPLL2ClockFreq+0x140>)
240565ca:	f3c3 0308 	ubfx	r3, r3, #0, #9
240565ce:	40ca      	lsrs	r2, r1
240565d0:	ee07 2a10 	vmov	s14, r2
240565d4:	eef8 5ac7 	vcvt.f32.s32	s11, s14
240565d8:	ee85 7aa6 	vdiv.f32	s14, s11, s13
240565dc:	ee06 3a90 	vmov	s13, r3
240565e0:	eef8 6ae6 	vcvt.f32.s32	s13, s13
240565e4:	ee76 7aa7 	vadd.f32	s15, s13, s15
240565e8:	ee77 7a86 	vadd.f32	s15, s15, s12
240565ec:	4a30      	ldr	r2, [pc, #192]	; (240566b0 <HAL_RCCEx_GetPLL2ClockFreq+0x13c>)
240565ee:	ee67 7a87 	vmul.f32	s15, s15, s14
240565f2:	6b93      	ldr	r3, [r2, #56]	; 0x38
240565f4:	f3c3 2346 	ubfx	r3, r3, #9, #7
240565f8:	ee07 3a10 	vmov	s14, r3
240565fc:	eeb8 7ac7 	vcvt.f32.s32	s14, s14
24056600:	ee37 7a06 	vadd.f32	s14, s14, s12
24056604:	eec7 6a87 	vdiv.f32	s13, s15, s14
24056608:	eefc 6ae6 	vcvt.u32.f32	s13, s13
2405660c:	edc0 6a00 	vstr	s13, [r0]
24056610:	6b93      	ldr	r3, [r2, #56]	; 0x38
24056612:	f3c3 4306 	ubfx	r3, r3, #16, #7
24056616:	ee07 3a10 	vmov	s14, r3
2405661a:	eeb8 7ac7 	vcvt.f32.s32	s14, s14
2405661e:	ee37 7a06 	vadd.f32	s14, s14, s12
24056622:	eec7 6a87 	vdiv.f32	s13, s15, s14
24056626:	eefc 6ae6 	vcvt.u32.f32	s13, s13
2405662a:	edc0 6a01 	vstr	s13, [r0, #4]
2405662e:	6b93      	ldr	r3, [r2, #56]	; 0x38
24056630:	f3c3 6306 	ubfx	r3, r3, #24, #7
24056634:	ee07 3a10 	vmov	s14, r3
24056638:	eeb8 7ac7 	vcvt.f32.s32	s14, s14
2405663c:	ee37 6a06 	vadd.f32	s12, s14, s12
24056640:	ee87 7a86 	vdiv.f32	s14, s15, s12
24056644:	eebc 7ac7 	vcvt.u32.f32	s14, s14
24056648:	ed80 7a02 	vstr	s14, [r0, #8]
2405664c:	bd70      	pop	{r4, r5, r6, pc}
2405664e:	6b93      	ldr	r3, [r2, #56]	; 0x38
24056650:	eddf 5a19 	vldr	s11, [pc, #100]	; 240566b8 <HAL_RCCEx_GetPLL2ClockFreq+0x144>
24056654:	f3c3 0308 	ubfx	r3, r3, #0, #9
24056658:	ee07 3a10 	vmov	s14, r3
2405665c:	eeb8 7ac7 	vcvt.f32.s32	s14, s14
24056660:	ee77 7a27 	vadd.f32	s15, s14, s15
24056664:	ee77 7a86 	vadd.f32	s15, s15, s12
24056668:	ee85 7aa6 	vdiv.f32	s14, s11, s13
2405666c:	e7be      	b.n	240565ec <HAL_RCCEx_GetPLL2ClockFreq+0x78>
2405666e:	6b93      	ldr	r3, [r2, #56]	; 0x38
24056670:	eddf 5a12 	vldr	s11, [pc, #72]	; 240566bc <HAL_RCCEx_GetPLL2ClockFreq+0x148>
24056674:	f3c3 0308 	ubfx	r3, r3, #0, #9
24056678:	ee07 3a10 	vmov	s14, r3
2405667c:	eeb8 7ac7 	vcvt.f32.s32	s14, s14
24056680:	ee77 7a27 	vadd.f32	s15, s14, s15
24056684:	ee77 7a86 	vadd.f32	s15, s15, s12
24056688:	e7ee      	b.n	24056668 <HAL_RCCEx_GetPLL2ClockFreq+0xf4>
2405668a:	6b93      	ldr	r3, [r2, #56]	; 0x38
2405668c:	eddf 5a0c 	vldr	s11, [pc, #48]	; 240566c0 <HAL_RCCEx_GetPLL2ClockFreq+0x14c>
24056690:	f3c3 0308 	ubfx	r3, r3, #0, #9
24056694:	ee07 3a10 	vmov	s14, r3
24056698:	eeb8 7ac7 	vcvt.f32.s32	s14, s14
2405669c:	ee77 7a27 	vadd.f32	s15, s14, s15
240566a0:	ee77 7a86 	vadd.f32	s15, s15, s12
240566a4:	e7e0      	b.n	24056668 <HAL_RCCEx_GetPLL2ClockFreq+0xf4>
240566a6:	e9c0 1100 	strd	r1, r1, [r0]
240566aa:	6081      	str	r1, [r0, #8]
240566ac:	e7ce      	b.n	2405664c <HAL_RCCEx_GetPLL2ClockFreq+0xd8>
240566ae:	bf00      	nop
240566b0:	58024400 	.word	0x58024400
240566b4:	03d09000 	.word	0x03d09000
240566b8:	4c742400 	.word	0x4c742400
240566bc:	4bb71b00 	.word	0x4bb71b00
240566c0:	4a742400 	.word	0x4a742400

240566c4 <HAL_RCCEx_GetPLL3ClockFreq>:
240566c4:	4a4e      	ldr	r2, [pc, #312]	; (24056800 <HAL_RCCEx_GetPLL3ClockFreq+0x13c>)
240566c6:	b570      	push	{r4, r5, r6, lr}
240566c8:	6a94      	ldr	r4, [r2, #40]	; 0x28
240566ca:	6a96      	ldr	r6, [r2, #40]	; 0x28
240566cc:	6ad3      	ldr	r3, [r2, #44]	; 0x2c
240566ce:	f016 7f7c 	tst.w	r6, #66060288	; 0x3f00000
240566d2:	f3c6 5105 	ubfx	r1, r6, #20, #6
240566d6:	6c55      	ldr	r5, [r2, #68]	; 0x44
240566d8:	f000 808d 	beq.w	240567f6 <HAL_RCCEx_GetPLL3ClockFreq+0x132>
240566dc:	ee07 1a90 	vmov	s15, r1
240566e0:	f3c3 2300 	ubfx	r3, r3, #8, #1
240566e4:	f3c5 01cc 	ubfx	r1, r5, #3, #13
240566e8:	f004 0403 	and.w	r4, r4, #3
240566ec:	eef8 6ae7 	vcvt.f32.s32	s13, s15
240566f0:	434b      	muls	r3, r1
240566f2:	2c01      	cmp	r4, #1
240566f4:	eeb7 6a00 	vmov.f32	s12, #112	; 0x3f800000  1.0
240566f8:	ee07 3a90 	vmov	s15, r3
240566fc:	eefa 7ae9 	vcvt.f32.s32	s15, s15, #13
24056700:	d06b      	beq.n	240567da <HAL_RCCEx_GetPLL3ClockFreq+0x116>
24056702:	2c02      	cmp	r4, #2
24056704:	d05b      	beq.n	240567be <HAL_RCCEx_GetPLL3ClockFreq+0xfa>
24056706:	2c00      	cmp	r4, #0
24056708:	d167      	bne.n	240567da <HAL_RCCEx_GetPLL3ClockFreq+0x116>
2405670a:	6813      	ldr	r3, [r2, #0]
2405670c:	069b      	lsls	r3, r3, #26
2405670e:	d546      	bpl.n	2405679e <HAL_RCCEx_GetPLL3ClockFreq+0xda>
24056710:	6811      	ldr	r1, [r2, #0]
24056712:	6c13      	ldr	r3, [r2, #64]	; 0x40
24056714:	f3c1 01c1 	ubfx	r1, r1, #3, #2
24056718:	4a3a      	ldr	r2, [pc, #232]	; (24056804 <HAL_RCCEx_GetPLL3ClockFreq+0x140>)
2405671a:	f3c3 0308 	ubfx	r3, r3, #0, #9
2405671e:	40ca      	lsrs	r2, r1
24056720:	ee07 2a10 	vmov	s14, r2
24056724:	eef8 5ac7 	vcvt.f32.s32	s11, s14
24056728:	ee85 7aa6 	vdiv.f32	s14, s11, s13
2405672c:	ee06 3a90 	vmov	s13, r3
24056730:	eef8 6ae6 	vcvt.f32.s32	s13, s13
24056734:	ee76 7aa7 	vadd.f32	s15, s13, s15
24056738:	ee77 7a86 	vadd.f32	s15, s15, s12
2405673c:	4a30      	ldr	r2, [pc, #192]	; (24056800 <HAL_RCCEx_GetPLL3ClockFreq+0x13c>)
2405673e:	ee67 7a87 	vmul.f32	s15, s15, s14
24056742:	6c13      	ldr	r3, [r2, #64]	; 0x40
24056744:	f3c3 2346 	ubfx	r3, r3, #9, #7
24056748:	ee07 3a10 	vmov	s14, r3
2405674c:	eeb8 7ac7 	vcvt.f32.s32	s14, s14
24056750:	ee37 7a06 	vadd.f32	s14, s14, s12
24056754:	eec7 6a87 	vdiv.f32	s13, s15, s14
24056758:	eefc 6ae6 	vcvt.u32.f32	s13, s13
2405675c:	edc0 6a00 	vstr	s13, [r0]
24056760:	6c13      	ldr	r3, [r2, #64]	; 0x40
24056762:	f3c3 4306 	ubfx	r3, r3, #16, #7
24056766:	ee07 3a10 	vmov	s14, r3
2405676a:	eeb8 7ac7 	vcvt.f32.s32	s14, s14
2405676e:	ee37 7a06 	vadd.f32	s14, s14, s12
24056772:	eec7 6a87 	vdiv.f32	s13, s15, s14
24056776:	eefc 6ae6 	vcvt.u32.f32	s13, s13
2405677a:	edc0 6a01 	vstr	s13, [r0, #4]
2405677e:	6c13      	ldr	r3, [r2, #64]	; 0x40
24056780:	f3c3 6306 	ubfx	r3, r3, #24, #7
24056784:	ee07 3a10 	vmov	s14, r3
24056788:	eeb8 7ac7 	vcvt.f32.s32	s14, s14
2405678c:	ee37 6a06 	vadd.f32	s12, s14, s12
24056790:	ee87 7a86 	vdiv.f32	s14, s15, s12
24056794:	eebc 7ac7 	vcvt.u32.f32	s14, s14
24056798:	ed80 7a02 	vstr	s14, [r0, #8]
2405679c:	bd70      	pop	{r4, r5, r6, pc}
2405679e:	6c13      	ldr	r3, [r2, #64]	; 0x40
240567a0:	eddf 5a19 	vldr	s11, [pc, #100]	; 24056808 <HAL_RCCEx_GetPLL3ClockFreq+0x144>
240567a4:	f3c3 0308 	ubfx	r3, r3, #0, #9
240567a8:	ee07 3a10 	vmov	s14, r3
240567ac:	eeb8 7ac7 	vcvt.f32.s32	s14, s14
240567b0:	ee77 7a27 	vadd.f32	s15, s14, s15
240567b4:	ee77 7a86 	vadd.f32	s15, s15, s12
240567b8:	ee85 7aa6 	vdiv.f32	s14, s11, s13
240567bc:	e7be      	b.n	2405673c <HAL_RCCEx_GetPLL3ClockFreq+0x78>
240567be:	6c13      	ldr	r3, [r2, #64]	; 0x40
240567c0:	eddf 5a12 	vldr	s11, [pc, #72]	; 2405680c <HAL_RCCEx_GetPLL3ClockFreq+0x148>
240567c4:	f3c3 0308 	ubfx	r3, r3, #0, #9
240567c8:	ee07 3a10 	vmov	s14, r3
240567cc:	eeb8 7ac7 	vcvt.f32.s32	s14, s14
240567d0:	ee77 7a27 	vadd.f32	s15, s14, s15
240567d4:	ee77 7a86 	vadd.f32	s15, s15, s12
240567d8:	e7ee      	b.n	240567b8 <HAL_RCCEx_GetPLL3ClockFreq+0xf4>
240567da:	6c13      	ldr	r3, [r2, #64]	; 0x40
240567dc:	eddf 5a0c 	vldr	s11, [pc, #48]	; 24056810 <HAL_RCCEx_GetPLL3ClockFreq+0x14c>
240567e0:	f3c3 0308 	ubfx	r3, r3, #0, #9
240567e4:	ee07 3a10 	vmov	s14, r3
240567e8:	eeb8 7ac7 	vcvt.f32.s32	s14, s14
240567ec:	ee77 7a27 	vadd.f32	s15, s14, s15
240567f0:	ee77 7a86 	vadd.f32	s15, s15, s12
240567f4:	e7e0      	b.n	240567b8 <HAL_RCCEx_GetPLL3ClockFreq+0xf4>
240567f6:	e9c0 1100 	strd	r1, r1, [r0]
240567fa:	6081      	str	r1, [r0, #8]
240567fc:	e7ce      	b.n	2405679c <HAL_RCCEx_GetPLL3ClockFreq+0xd8>
240567fe:	bf00      	nop
24056800:	58024400 	.word	0x58024400
24056804:	03d09000 	.word	0x03d09000
24056808:	4c742400 	.word	0x4c742400
2405680c:	4bb71b00 	.word	0x4bb71b00
24056810:	4a742400 	.word	0x4a742400

24056814 <HAL_RCCEx_GetPLL1ClockFreq>:
24056814:	4a4e      	ldr	r2, [pc, #312]	; (24056950 <HAL_RCCEx_GetPLL1ClockFreq+0x13c>)
24056816:	b570      	push	{r4, r5, r6, lr}
24056818:	6a94      	ldr	r4, [r2, #40]	; 0x28
2405681a:	6a96      	ldr	r6, [r2, #40]	; 0x28
2405681c:	6ad3      	ldr	r3, [r2, #44]	; 0x2c
2405681e:	f416 7f7c 	tst.w	r6, #1008	; 0x3f0
24056822:	f3c6 1105 	ubfx	r1, r6, #4, #6
24056826:	6b55      	ldr	r5, [r2, #52]	; 0x34
24056828:	f000 808d 	beq.w	24056946 <HAL_RCCEx_GetPLL1ClockFreq+0x132>
2405682c:	ee07 1a90 	vmov	s15, r1
24056830:	f003 0301 	and.w	r3, r3, #1
24056834:	f3c5 01cc 	ubfx	r1, r5, #3, #13
24056838:	f004 0403 	and.w	r4, r4, #3
2405683c:	eef8 6ae7 	vcvt.f32.s32	s13, s15
24056840:	434b      	muls	r3, r1
24056842:	2c01      	cmp	r4, #1
24056844:	eeb7 6a00 	vmov.f32	s12, #112	; 0x3f800000  1.0
24056848:	ee07 3a90 	vmov	s15, r3
2405684c:	eefa 7ae9 	vcvt.f32.s32	s15, s15, #13
24056850:	d04d      	beq.n	240568ee <HAL_RCCEx_GetPLL1ClockFreq+0xda>
24056852:	2c02      	cmp	r4, #2
24056854:	d05b      	beq.n	2405690e <HAL_RCCEx_GetPLL1ClockFreq+0xfa>
24056856:	2c00      	cmp	r4, #0
24056858:	d167      	bne.n	2405692a <HAL_RCCEx_GetPLL1ClockFreq+0x116>
2405685a:	6813      	ldr	r3, [r2, #0]
2405685c:	069b      	lsls	r3, r3, #26
2405685e:	d564      	bpl.n	2405692a <HAL_RCCEx_GetPLL1ClockFreq+0x116>
24056860:	6811      	ldr	r1, [r2, #0]
24056862:	6b13      	ldr	r3, [r2, #48]	; 0x30
24056864:	f3c1 01c1 	ubfx	r1, r1, #3, #2
24056868:	4a3a      	ldr	r2, [pc, #232]	; (24056954 <HAL_RCCEx_GetPLL1ClockFreq+0x140>)
2405686a:	f3c3 0308 	ubfx	r3, r3, #0, #9
2405686e:	40ca      	lsrs	r2, r1
24056870:	ee07 2a10 	vmov	s14, r2
24056874:	eef8 5ac7 	vcvt.f32.s32	s11, s14
24056878:	ee85 7aa6 	vdiv.f32	s14, s11, s13
2405687c:	ee06 3a90 	vmov	s13, r3
24056880:	eef8 6ae6 	vcvt.f32.s32	s13, s13
24056884:	ee76 7aa7 	vadd.f32	s15, s13, s15
24056888:	ee77 7a86 	vadd.f32	s15, s15, s12
2405688c:	4a30      	ldr	r2, [pc, #192]	; (24056950 <HAL_RCCEx_GetPLL1ClockFreq+0x13c>)
2405688e:	ee67 7a87 	vmul.f32	s15, s15, s14
24056892:	6b13      	ldr	r3, [r2, #48]	; 0x30
24056894:	f3c3 2346 	ubfx	r3, r3, #9, #7
24056898:	ee07 3a10 	vmov	s14, r3
2405689c:	eeb8 7ac7 	vcvt.f32.s32	s14, s14
240568a0:	ee37 7a06 	vadd.f32	s14, s14, s12
240568a4:	eec7 6a87 	vdiv.f32	s13, s15, s14
240568a8:	eefc 6ae6 	vcvt.u32.f32	s13, s13
240568ac:	edc0 6a00 	vstr	s13, [r0]
240568b0:	6b13      	ldr	r3, [r2, #48]	; 0x30
240568b2:	f3c3 4306 	ubfx	r3, r3, #16, #7
240568b6:	ee07 3a10 	vmov	s14, r3
240568ba:	eeb8 7ac7 	vcvt.f32.s32	s14, s14
240568be:	ee37 7a06 	vadd.f32	s14, s14, s12
240568c2:	eec7 6a87 	vdiv.f32	s13, s15, s14
240568c6:	eefc 6ae6 	vcvt.u32.f32	s13, s13
240568ca:	edc0 6a01 	vstr	s13, [r0, #4]
240568ce:	6b13      	ldr	r3, [r2, #48]	; 0x30
240568d0:	f3c3 6306 	ubfx	r3, r3, #24, #7
240568d4:	ee07 3a10 	vmov	s14, r3
240568d8:	eeb8 7ac7 	vcvt.f32.s32	s14, s14
240568dc:	ee37 6a06 	vadd.f32	s12, s14, s12
240568e0:	ee87 7a86 	vdiv.f32	s14, s15, s12
240568e4:	eebc 7ac7 	vcvt.u32.f32	s14, s14
240568e8:	ed80 7a02 	vstr	s14, [r0, #8]
240568ec:	bd70      	pop	{r4, r5, r6, pc}
240568ee:	6b13      	ldr	r3, [r2, #48]	; 0x30
240568f0:	eddf 5a19 	vldr	s11, [pc, #100]	; 24056958 <HAL_RCCEx_GetPLL1ClockFreq+0x144>
240568f4:	f3c3 0308 	ubfx	r3, r3, #0, #9
240568f8:	ee07 3a10 	vmov	s14, r3
240568fc:	eeb8 7ac7 	vcvt.f32.s32	s14, s14
24056900:	ee77 7a27 	vadd.f32	s15, s14, s15
24056904:	ee77 7a86 	vadd.f32	s15, s15, s12
24056908:	ee85 7aa6 	vdiv.f32	s14, s11, s13
2405690c:	e7be      	b.n	2405688c <HAL_RCCEx_GetPLL1ClockFreq+0x78>
2405690e:	6b13      	ldr	r3, [r2, #48]	; 0x30
24056910:	eddf 5a12 	vldr	s11, [pc, #72]	; 2405695c <HAL_RCCEx_GetPLL1ClockFreq+0x148>
24056914:	f3c3 0308 	ubfx	r3, r3, #0, #9
24056918:	ee07 3a10 	vmov	s14, r3
2405691c:	eeb8 7ac7 	vcvt.f32.s32	s14, s14
24056920:	ee77 7a27 	vadd.f32	s15, s14, s15
24056924:	ee77 7a86 	vadd.f32	s15, s15, s12
24056928:	e7ee      	b.n	24056908 <HAL_RCCEx_GetPLL1ClockFreq+0xf4>
2405692a:	6b13      	ldr	r3, [r2, #48]	; 0x30
2405692c:	eddf 5a0c 	vldr	s11, [pc, #48]	; 24056960 <HAL_RCCEx_GetPLL1ClockFreq+0x14c>
24056930:	f3c3 0308 	ubfx	r3, r3, #0, #9
24056934:	ee07 3a10 	vmov	s14, r3
24056938:	eeb8 7ac7 	vcvt.f32.s32	s14, s14
2405693c:	ee77 7a27 	vadd.f32	s15, s14, s15
24056940:	ee77 7a86 	vadd.f32	s15, s15, s12
24056944:	e7e0      	b.n	24056908 <HAL_RCCEx_GetPLL1ClockFreq+0xf4>
24056946:	e9c0 1100 	strd	r1, r1, [r0]
2405694a:	6081      	str	r1, [r0, #8]
2405694c:	e7ce      	b.n	240568ec <HAL_RCCEx_GetPLL1ClockFreq+0xd8>
2405694e:	bf00      	nop
24056950:	58024400 	.word	0x58024400
24056954:	03d09000 	.word	0x03d09000
24056958:	4a742400 	.word	0x4a742400
2405695c:	4bb71b00 	.word	0x4bb71b00
24056960:	4c742400 	.word	0x4c742400

24056964 <HAL_RCCEx_GetPeriphCLKFreq>:
24056964:	f5b0 7f80 	cmp.w	r0, #256	; 0x100
24056968:	b51f      	push	{r0, r1, r2, r3, r4, lr}
2405696a:	d132      	bne.n	240569d2 <HAL_RCCEx_GetPeriphCLKFreq+0x6e>
2405696c:	4b97      	ldr	r3, [pc, #604]	; (24056bcc <HAL_RCCEx_GetPeriphCLKFreq+0x268>)
2405696e:	6d1a      	ldr	r2, [r3, #80]	; 0x50
24056970:	f002 0207 	and.w	r2, r2, #7
24056974:	2a04      	cmp	r2, #4
24056976:	d84b      	bhi.n	24056a10 <HAL_RCCEx_GetPeriphCLKFreq+0xac>
24056978:	e8df f012 	tbh	[pc, r2, lsl #1]
2405697c:	003900b6 	.word	0x003900b6
24056980:	01250005 	.word	0x01250005
24056984:	000d      	.short	0x000d
24056986:	6818      	ldr	r0, [r3, #0]
24056988:	f010 5000 	ands.w	r0, r0, #536870912	; 0x20000000
2405698c:	d037      	beq.n	240569fe <HAL_RCCEx_GetPeriphCLKFreq+0x9a>
2405698e:	a801      	add	r0, sp, #4
24056990:	f7ff fe98 	bl	240566c4 <HAL_RCCEx_GetPLL3ClockFreq>
24056994:	e032      	b.n	240569fc <HAL_RCCEx_GetPeriphCLKFreq+0x98>
24056996:	6cda      	ldr	r2, [r3, #76]	; 0x4c
24056998:	6819      	ldr	r1, [r3, #0]
2405699a:	f002 5240 	and.w	r2, r2, #805306368	; 0x30000000
2405699e:	681b      	ldr	r3, [r3, #0]
240569a0:	0749      	lsls	r1, r1, #29
240569a2:	d505      	bpl.n	240569b0 <HAL_RCCEx_GetPeriphCLKFreq+0x4c>
240569a4:	b922      	cbnz	r2, 240569b0 <HAL_RCCEx_GetPeriphCLKFreq+0x4c>
240569a6:	f3c3 03c1 	ubfx	r3, r3, #3, #2
240569aa:	4889      	ldr	r0, [pc, #548]	; (24056bd0 <HAL_RCCEx_GetPeriphCLKFreq+0x26c>)
240569ac:	40d8      	lsrs	r0, r3
240569ae:	e026      	b.n	240569fe <HAL_RCCEx_GetPeriphCLKFreq+0x9a>
240569b0:	05d8      	lsls	r0, r3, #23
240569b2:	d503      	bpl.n	240569bc <HAL_RCCEx_GetPeriphCLKFreq+0x58>
240569b4:	f1b2 5f80 	cmp.w	r2, #268435456	; 0x10000000
240569b8:	f000 808d 	beq.w	24056ad6 <HAL_RCCEx_GetPeriphCLKFreq+0x172>
240569bc:	4b83      	ldr	r3, [pc, #524]	; (24056bcc <HAL_RCCEx_GetPeriphCLKFreq+0x268>)
240569be:	6818      	ldr	r0, [r3, #0]
240569c0:	f410 3000 	ands.w	r0, r0, #131072	; 0x20000
240569c4:	d01b      	beq.n	240569fe <HAL_RCCEx_GetPeriphCLKFreq+0x9a>
240569c6:	f1b2 5f00 	cmp.w	r2, #536870912	; 0x20000000
240569ca:	4882      	ldr	r0, [pc, #520]	; (24056bd4 <HAL_RCCEx_GetPeriphCLKFreq+0x270>)
240569cc:	bf18      	it	ne
240569ce:	2000      	movne	r0, #0
240569d0:	e015      	b.n	240569fe <HAL_RCCEx_GetPeriphCLKFreq+0x9a>
240569d2:	f5b0 7f00 	cmp.w	r0, #512	; 0x200
240569d6:	d11d      	bne.n	24056a14 <HAL_RCCEx_GetPeriphCLKFreq+0xb0>
240569d8:	4b7c      	ldr	r3, [pc, #496]	; (24056bcc <HAL_RCCEx_GetPeriphCLKFreq+0x268>)
240569da:	6d1a      	ldr	r2, [r3, #80]	; 0x50
240569dc:	f402 72e0 	and.w	r2, r2, #448	; 0x1c0
240569e0:	2a80      	cmp	r2, #128	; 0x80
240569e2:	d0d0      	beq.n	24056986 <HAL_RCCEx_GetPeriphCLKFreq+0x22>
240569e4:	d80e      	bhi.n	24056a04 <HAL_RCCEx_GetPeriphCLKFreq+0xa0>
240569e6:	2a00      	cmp	r2, #0
240569e8:	d07e      	beq.n	24056ae8 <HAL_RCCEx_GetPeriphCLKFreq+0x184>
240569ea:	2a40      	cmp	r2, #64	; 0x40
240569ec:	d110      	bne.n	24056a10 <HAL_RCCEx_GetPeriphCLKFreq+0xac>
240569ee:	6818      	ldr	r0, [r3, #0]
240569f0:	f010 6000 	ands.w	r0, r0, #134217728	; 0x8000000
240569f4:	d003      	beq.n	240569fe <HAL_RCCEx_GetPeriphCLKFreq+0x9a>
240569f6:	a801      	add	r0, sp, #4
240569f8:	f7ff fdbc 	bl	24056574 <HAL_RCCEx_GetPLL2ClockFreq>
240569fc:	9801      	ldr	r0, [sp, #4]
240569fe:	b005      	add	sp, #20
24056a00:	f85d fb04 	ldr.w	pc, [sp], #4
24056a04:	2ac0      	cmp	r2, #192	; 0xc0
24056a06:	f000 80de 	beq.w	24056bc6 <HAL_RCCEx_GetPeriphCLKFreq+0x262>
24056a0a:	f5b2 7f80 	cmp.w	r2, #256	; 0x100
24056a0e:	d051      	beq.n	24056ab4 <HAL_RCCEx_GetPeriphCLKFreq+0x150>
24056a10:	2000      	movs	r0, #0
24056a12:	e7f4      	b.n	240569fe <HAL_RCCEx_GetPeriphCLKFreq+0x9a>
24056a14:	f5b0 6f80 	cmp.w	r0, #1024	; 0x400
24056a18:	d113      	bne.n	24056a42 <HAL_RCCEx_GetPeriphCLKFreq+0xde>
24056a1a:	4b6c      	ldr	r3, [pc, #432]	; (24056bcc <HAL_RCCEx_GetPeriphCLKFreq+0x268>)
24056a1c:	6d1a      	ldr	r2, [r3, #80]	; 0x50
24056a1e:	f402 6260 	and.w	r2, r2, #3584	; 0xe00
24056a22:	f5b2 6f80 	cmp.w	r2, #1024	; 0x400
24056a26:	d0ae      	beq.n	24056986 <HAL_RCCEx_GetPeriphCLKFreq+0x22>
24056a28:	d804      	bhi.n	24056a34 <HAL_RCCEx_GetPeriphCLKFreq+0xd0>
24056a2a:	2a00      	cmp	r2, #0
24056a2c:	d05c      	beq.n	24056ae8 <HAL_RCCEx_GetPeriphCLKFreq+0x184>
24056a2e:	f5b2 7f00 	cmp.w	r2, #512	; 0x200
24056a32:	e7db      	b.n	240569ec <HAL_RCCEx_GetPeriphCLKFreq+0x88>
24056a34:	f5b2 6fc0 	cmp.w	r2, #1536	; 0x600
24056a38:	f000 80c5 	beq.w	24056bc6 <HAL_RCCEx_GetPeriphCLKFreq+0x262>
24056a3c:	f5b2 6f00 	cmp.w	r2, #2048	; 0x800
24056a40:	e7e5      	b.n	24056a0e <HAL_RCCEx_GetPeriphCLKFreq+0xaa>
24056a42:	f5b0 5f80 	cmp.w	r0, #4096	; 0x1000
24056a46:	d11c      	bne.n	24056a82 <HAL_RCCEx_GetPeriphCLKFreq+0x11e>
24056a48:	4b60      	ldr	r3, [pc, #384]	; (24056bcc <HAL_RCCEx_GetPeriphCLKFreq+0x268>)
24056a4a:	6d1a      	ldr	r2, [r3, #80]	; 0x50
24056a4c:	f402 42e0 	and.w	r2, r2, #28672	; 0x7000
24056a50:	f5b2 5f00 	cmp.w	r2, #8192	; 0x2000
24056a54:	d097      	beq.n	24056986 <HAL_RCCEx_GetPeriphCLKFreq+0x22>
24056a56:	d804      	bhi.n	24056a62 <HAL_RCCEx_GetPeriphCLKFreq+0xfe>
24056a58:	2a00      	cmp	r2, #0
24056a5a:	d045      	beq.n	24056ae8 <HAL_RCCEx_GetPeriphCLKFreq+0x184>
24056a5c:	f5b2 5f80 	cmp.w	r2, #4096	; 0x1000
24056a60:	e7c4      	b.n	240569ec <HAL_RCCEx_GetPeriphCLKFreq+0x88>
24056a62:	f5b2 5f40 	cmp.w	r2, #12288	; 0x3000
24056a66:	f000 80ae 	beq.w	24056bc6 <HAL_RCCEx_GetPeriphCLKFreq+0x262>
24056a6a:	f5b2 4f80 	cmp.w	r2, #16384	; 0x4000
24056a6e:	d1cf      	bne.n	24056a10 <HAL_RCCEx_GetPeriphCLKFreq+0xac>
24056a70:	6cda      	ldr	r2, [r3, #76]	; 0x4c
24056a72:	6819      	ldr	r1, [r3, #0]
24056a74:	f002 5240 	and.w	r2, r2, #805306368	; 0x30000000
24056a78:	0749      	lsls	r1, r1, #29
24056a7a:	d524      	bpl.n	24056ac6 <HAL_RCCEx_GetPeriphCLKFreq+0x162>
24056a7c:	bb1a      	cbnz	r2, 24056ac6 <HAL_RCCEx_GetPeriphCLKFreq+0x162>
24056a7e:	681b      	ldr	r3, [r3, #0]
24056a80:	e791      	b.n	240569a6 <HAL_RCCEx_GetPeriphCLKFreq+0x42>
24056a82:	f5b0 2f00 	cmp.w	r0, #524288	; 0x80000
24056a86:	d128      	bne.n	24056ada <HAL_RCCEx_GetPeriphCLKFreq+0x176>
24056a88:	4b50      	ldr	r3, [pc, #320]	; (24056bcc <HAL_RCCEx_GetPeriphCLKFreq+0x268>)
24056a8a:	6d9a      	ldr	r2, [r3, #88]	; 0x58
24056a8c:	f402 3240 	and.w	r2, r2, #196608	; 0x30000
24056a90:	f5b2 3f80 	cmp.w	r2, #65536	; 0x10000
24056a94:	d005      	beq.n	24056aa2 <HAL_RCCEx_GetPeriphCLKFreq+0x13e>
24056a96:	f5b2 3f00 	cmp.w	r2, #131072	; 0x20000
24056a9a:	d00b      	beq.n	24056ab4 <HAL_RCCEx_GetPeriphCLKFreq+0x150>
24056a9c:	2a00      	cmp	r2, #0
24056a9e:	d1b7      	bne.n	24056a10 <HAL_RCCEx_GetPeriphCLKFreq+0xac>
24056aa0:	e7a5      	b.n	240569ee <HAL_RCCEx_GetPeriphCLKFreq+0x8a>
24056aa2:	6818      	ldr	r0, [r3, #0]
24056aa4:	f010 5000 	ands.w	r0, r0, #536870912	; 0x20000000
24056aa8:	d0a9      	beq.n	240569fe <HAL_RCCEx_GetPeriphCLKFreq+0x9a>
24056aaa:	a801      	add	r0, sp, #4
24056aac:	f7ff fe0a 	bl	240566c4 <HAL_RCCEx_GetPLL3ClockFreq>
24056ab0:	9803      	ldr	r0, [sp, #12]
24056ab2:	e7a4      	b.n	240569fe <HAL_RCCEx_GetPeriphCLKFreq+0x9a>
24056ab4:	6cda      	ldr	r2, [r3, #76]	; 0x4c
24056ab6:	6819      	ldr	r1, [r3, #0]
24056ab8:	f002 5240 	and.w	r2, r2, #805306368	; 0x30000000
24056abc:	0748      	lsls	r0, r1, #29
24056abe:	d501      	bpl.n	24056ac4 <HAL_RCCEx_GetPeriphCLKFreq+0x160>
24056ac0:	2a00      	cmp	r2, #0
24056ac2:	d0dc      	beq.n	24056a7e <HAL_RCCEx_GetPeriphCLKFreq+0x11a>
24056ac4:	4b41      	ldr	r3, [pc, #260]	; (24056bcc <HAL_RCCEx_GetPeriphCLKFreq+0x268>)
24056ac6:	6819      	ldr	r1, [r3, #0]
24056ac8:	05c9      	lsls	r1, r1, #23
24056aca:	f57f af78 	bpl.w	240569be <HAL_RCCEx_GetPeriphCLKFreq+0x5a>
24056ace:	f1b2 5f80 	cmp.w	r2, #268435456	; 0x10000000
24056ad2:	f47f af74 	bne.w	240569be <HAL_RCCEx_GetPeriphCLKFreq+0x5a>
24056ad6:	4840      	ldr	r0, [pc, #256]	; (24056bd8 <HAL_RCCEx_GetPeriphCLKFreq+0x274>)
24056ad8:	e791      	b.n	240569fe <HAL_RCCEx_GetPeriphCLKFreq+0x9a>
24056ada:	f5b0 3f80 	cmp.w	r0, #65536	; 0x10000
24056ade:	d115      	bne.n	24056b0c <HAL_RCCEx_GetPeriphCLKFreq+0x1a8>
24056ae0:	4b3a      	ldr	r3, [pc, #232]	; (24056bcc <HAL_RCCEx_GetPeriphCLKFreq+0x268>)
24056ae2:	6cda      	ldr	r2, [r3, #76]	; 0x4c
24056ae4:	03d2      	lsls	r2, r2, #15
24056ae6:	d408      	bmi.n	24056afa <HAL_RCCEx_GetPeriphCLKFreq+0x196>
24056ae8:	6818      	ldr	r0, [r3, #0]
24056aea:	f010 7000 	ands.w	r0, r0, #33554432	; 0x2000000
24056aee:	d086      	beq.n	240569fe <HAL_RCCEx_GetPeriphCLKFreq+0x9a>
24056af0:	a801      	add	r0, sp, #4
24056af2:	f7ff fe8f 	bl	24056814 <HAL_RCCEx_GetPLL1ClockFreq>
24056af6:	9802      	ldr	r0, [sp, #8]
24056af8:	e781      	b.n	240569fe <HAL_RCCEx_GetPeriphCLKFreq+0x9a>
24056afa:	6818      	ldr	r0, [r3, #0]
24056afc:	f010 6000 	ands.w	r0, r0, #134217728	; 0x8000000
24056b00:	f43f af7d 	beq.w	240569fe <HAL_RCCEx_GetPeriphCLKFreq+0x9a>
24056b04:	a801      	add	r0, sp, #4
24056b06:	f7ff fd35 	bl	24056574 <HAL_RCCEx_GetPLL2ClockFreq>
24056b0a:	e7d1      	b.n	24056ab0 <HAL_RCCEx_GetPeriphCLKFreq+0x14c>
24056b0c:	f5b0 4f80 	cmp.w	r0, #16384	; 0x4000
24056b10:	d142      	bne.n	24056b98 <HAL_RCCEx_GetPeriphCLKFreq+0x234>
24056b12:	492e      	ldr	r1, [pc, #184]	; (24056bcc <HAL_RCCEx_GetPeriphCLKFreq+0x268>)
24056b14:	6d8b      	ldr	r3, [r1, #88]	; 0x58
24056b16:	f003 43e0 	and.w	r3, r3, #1879048192	; 0x70000000
24056b1a:	f1b3 5f40 	cmp.w	r3, #805306368	; 0x30000000
24056b1e:	d02f      	beq.n	24056b80 <HAL_RCCEx_GetPeriphCLKFreq+0x21c>
24056b20:	d80b      	bhi.n	24056b3a <HAL_RCCEx_GetPeriphCLKFreq+0x1d6>
24056b22:	f1b3 5f80 	cmp.w	r3, #268435456	; 0x10000000
24056b26:	d019      	beq.n	24056b5c <HAL_RCCEx_GetPeriphCLKFreq+0x1f8>
24056b28:	f1b3 5f00 	cmp.w	r3, #536870912	; 0x20000000
24056b2c:	d01f      	beq.n	24056b6e <HAL_RCCEx_GetPeriphCLKFreq+0x20a>
24056b2e:	2b00      	cmp	r3, #0
24056b30:	f47f af6e 	bne.w	24056a10 <HAL_RCCEx_GetPeriphCLKFreq+0xac>
24056b34:	f7ff fd0c 	bl	24056550 <HAL_RCCEx_GetD3PCLK1Freq>
24056b38:	e761      	b.n	240569fe <HAL_RCCEx_GetPeriphCLKFreq+0x9a>
24056b3a:	f1b3 4fa0 	cmp.w	r3, #1342177280	; 0x50000000
24056b3e:	d026      	beq.n	24056b8e <HAL_RCCEx_GetPeriphCLKFreq+0x22a>
24056b40:	f1b3 4fc0 	cmp.w	r3, #1610612736	; 0x60000000
24056b44:	d03f      	beq.n	24056bc6 <HAL_RCCEx_GetPeriphCLKFreq+0x262>
24056b46:	f1b3 4f80 	cmp.w	r3, #1073741824	; 0x40000000
24056b4a:	f47f af61 	bne.w	24056a10 <HAL_RCCEx_GetPeriphCLKFreq+0xac>
24056b4e:	6808      	ldr	r0, [r1, #0]
24056b50:	4b21      	ldr	r3, [pc, #132]	; (24056bd8 <HAL_RCCEx_GetPeriphCLKFreq+0x274>)
24056b52:	f410 7080 	ands.w	r0, r0, #256	; 0x100
24056b56:	bf18      	it	ne
24056b58:	4618      	movne	r0, r3
24056b5a:	e750      	b.n	240569fe <HAL_RCCEx_GetPeriphCLKFreq+0x9a>
24056b5c:	6808      	ldr	r0, [r1, #0]
24056b5e:	f010 6000 	ands.w	r0, r0, #134217728	; 0x8000000
24056b62:	f43f af4c 	beq.w	240569fe <HAL_RCCEx_GetPeriphCLKFreq+0x9a>
24056b66:	a801      	add	r0, sp, #4
24056b68:	f7ff fd04 	bl	24056574 <HAL_RCCEx_GetPLL2ClockFreq>
24056b6c:	e7c3      	b.n	24056af6 <HAL_RCCEx_GetPeriphCLKFreq+0x192>
24056b6e:	6808      	ldr	r0, [r1, #0]
24056b70:	f010 5000 	ands.w	r0, r0, #536870912	; 0x20000000
24056b74:	f43f af43 	beq.w	240569fe <HAL_RCCEx_GetPeriphCLKFreq+0x9a>
24056b78:	a801      	add	r0, sp, #4
24056b7a:	f7ff fda3 	bl	240566c4 <HAL_RCCEx_GetPLL3ClockFreq>
24056b7e:	e7ba      	b.n	24056af6 <HAL_RCCEx_GetPeriphCLKFreq+0x192>
24056b80:	6808      	ldr	r0, [r1, #0]
24056b82:	f010 0004 	ands.w	r0, r0, #4
24056b86:	f43f af3a 	beq.w	240569fe <HAL_RCCEx_GetPeriphCLKFreq+0x9a>
24056b8a:	680b      	ldr	r3, [r1, #0]
24056b8c:	e70b      	b.n	240569a6 <HAL_RCCEx_GetPeriphCLKFreq+0x42>
24056b8e:	6808      	ldr	r0, [r1, #0]
24056b90:	f410 3000 	ands.w	r0, r0, #131072	; 0x20000
24056b94:	4b0f      	ldr	r3, [pc, #60]	; (24056bd4 <HAL_RCCEx_GetPeriphCLKFreq+0x270>)
24056b96:	e7de      	b.n	24056b56 <HAL_RCCEx_GetPeriphCLKFreq+0x1f2>
24056b98:	f5b0 4f00 	cmp.w	r0, #32768	; 0x8000
24056b9c:	f47f af38 	bne.w	24056a10 <HAL_RCCEx_GetPeriphCLKFreq+0xac>
24056ba0:	4a0a      	ldr	r2, [pc, #40]	; (24056bcc <HAL_RCCEx_GetPeriphCLKFreq+0x268>)
24056ba2:	6d13      	ldr	r3, [r2, #80]	; 0x50
24056ba4:	f003 5340 	and.w	r3, r3, #805306368	; 0x30000000
24056ba8:	f1b3 5f80 	cmp.w	r3, #268435456	; 0x10000000
24056bac:	d007      	beq.n	24056bbe <HAL_RCCEx_GetPeriphCLKFreq+0x25a>
24056bae:	f1b3 5f00 	cmp.w	r3, #536870912	; 0x20000000
24056bb2:	d006      	beq.n	24056bc2 <HAL_RCCEx_GetPeriphCLKFreq+0x25e>
24056bb4:	2b00      	cmp	r3, #0
24056bb6:	f47f af2b 	bne.w	24056a10 <HAL_RCCEx_GetPeriphCLKFreq+0xac>
24056bba:	6810      	ldr	r0, [r2, #0]
24056bbc:	e7e8      	b.n	24056b90 <HAL_RCCEx_GetPeriphCLKFreq+0x22c>
24056bbe:	6810      	ldr	r0, [r2, #0]
24056bc0:	e793      	b.n	24056aea <HAL_RCCEx_GetPeriphCLKFreq+0x186>
24056bc2:	6810      	ldr	r0, [r2, #0]
24056bc4:	e7cb      	b.n	24056b5e <HAL_RCCEx_GetPeriphCLKFreq+0x1fa>
24056bc6:	4805      	ldr	r0, [pc, #20]	; (24056bdc <HAL_RCCEx_GetPeriphCLKFreq+0x278>)
24056bc8:	e719      	b.n	240569fe <HAL_RCCEx_GetPeriphCLKFreq+0x9a>
24056bca:	bf00      	nop
24056bcc:	58024400 	.word	0x58024400
24056bd0:	03d09000 	.word	0x03d09000
24056bd4:	016e3600 	.word	0x016e3600
24056bd8:	003d0900 	.word	0x003d0900
24056bdc:	00bb8000 	.word	0x00bb8000

24056be0 <HAL_RTC_WaitForSynchro>:
24056be0:	6802      	ldr	r2, [r0, #0]
24056be2:	b538      	push	{r3, r4, r5, lr}
24056be4:	68d3      	ldr	r3, [r2, #12]
24056be6:	4604      	mov	r4, r0
24056be8:	f023 03a0 	bic.w	r3, r3, #160	; 0xa0
24056bec:	60d3      	str	r3, [r2, #12]
24056bee:	f7fb f927 	bl	24051e40 <HAL_GetTick>
24056bf2:	4605      	mov	r5, r0
24056bf4:	6823      	ldr	r3, [r4, #0]
24056bf6:	68db      	ldr	r3, [r3, #12]
24056bf8:	069b      	lsls	r3, r3, #26
24056bfa:	d501      	bpl.n	24056c00 <HAL_RTC_WaitForSynchro+0x20>
24056bfc:	2000      	movs	r0, #0
24056bfe:	bd38      	pop	{r3, r4, r5, pc}
24056c00:	f7fb f91e 	bl	24051e40 <HAL_GetTick>
24056c04:	1b40      	subs	r0, r0, r5
24056c06:	f5b0 7f7a 	cmp.w	r0, #1000	; 0x3e8
24056c0a:	d9f3      	bls.n	24056bf4 <HAL_RTC_WaitForSynchro+0x14>
24056c0c:	2003      	movs	r0, #3
24056c0e:	e7f6      	b.n	24056bfe <HAL_RTC_WaitForSynchro+0x1e>

24056c10 <RTC_EnterInitMode>:
24056c10:	b5f8      	push	{r3, r4, r5, r6, r7, lr}
24056c12:	6803      	ldr	r3, [r0, #0]
24056c14:	4605      	mov	r5, r0
24056c16:	68dc      	ldr	r4, [r3, #12]
24056c18:	f014 0440 	ands.w	r4, r4, #64	; 0x40
24056c1c:	d119      	bne.n	24056c52 <RTC_EnterInitMode+0x42>
24056c1e:	68da      	ldr	r2, [r3, #12]
24056c20:	2703      	movs	r7, #3
24056c22:	f042 0280 	orr.w	r2, r2, #128	; 0x80
24056c26:	60da      	str	r2, [r3, #12]
24056c28:	f7fb f90a 	bl	24051e40 <HAL_GetTick>
24056c2c:	4606      	mov	r6, r0
24056c2e:	682b      	ldr	r3, [r5, #0]
24056c30:	68db      	ldr	r3, [r3, #12]
24056c32:	065b      	lsls	r3, r3, #25
24056c34:	d401      	bmi.n	24056c3a <RTC_EnterInitMode+0x2a>
24056c36:	2c03      	cmp	r4, #3
24056c38:	d101      	bne.n	24056c3e <RTC_EnterInitMode+0x2e>
24056c3a:	4620      	mov	r0, r4
24056c3c:	bdf8      	pop	{r3, r4, r5, r6, r7, pc}
24056c3e:	f7fb f8ff 	bl	24051e40 <HAL_GetTick>
24056c42:	1b80      	subs	r0, r0, r6
24056c44:	f5b0 7f7a 	cmp.w	r0, #1000	; 0x3e8
24056c48:	d9f1      	bls.n	24056c2e <RTC_EnterInitMode+0x1e>
24056c4a:	2403      	movs	r4, #3
24056c4c:	f885 7025 	strb.w	r7, [r5, #37]	; 0x25
24056c50:	e7ed      	b.n	24056c2e <RTC_EnterInitMode+0x1e>
24056c52:	2400      	movs	r4, #0
24056c54:	e7f1      	b.n	24056c3a <RTC_EnterInitMode+0x2a>
	...

24056c58 <RTC_ExitInitMode>:
24056c58:	4b10      	ldr	r3, [pc, #64]	; (24056c9c <RTC_ExitInitMode+0x44>)
24056c5a:	68da      	ldr	r2, [r3, #12]
24056c5c:	f022 0280 	bic.w	r2, r2, #128	; 0x80
24056c60:	b510      	push	{r4, lr}
24056c62:	60da      	str	r2, [r3, #12]
24056c64:	4604      	mov	r4, r0
24056c66:	699a      	ldr	r2, [r3, #24]
24056c68:	0692      	lsls	r2, r2, #26
24056c6a:	d406      	bmi.n	24056c7a <RTC_ExitInitMode+0x22>
24056c6c:	f7ff ffb8 	bl	24056be0 <HAL_RTC_WaitForSynchro>
24056c70:	b110      	cbz	r0, 24056c78 <RTC_ExitInitMode+0x20>
24056c72:	2003      	movs	r0, #3
24056c74:	f884 0025 	strb.w	r0, [r4, #37]	; 0x25
24056c78:	bd10      	pop	{r4, pc}
24056c7a:	699a      	ldr	r2, [r3, #24]
24056c7c:	f022 0220 	bic.w	r2, r2, #32
24056c80:	619a      	str	r2, [r3, #24]
24056c82:	f7ff ffad 	bl	24056be0 <HAL_RTC_WaitForSynchro>
24056c86:	b110      	cbz	r0, 24056c8e <RTC_ExitInitMode+0x36>
24056c88:	2003      	movs	r0, #3
24056c8a:	f884 0025 	strb.w	r0, [r4, #37]	; 0x25
24056c8e:	4a03      	ldr	r2, [pc, #12]	; (24056c9c <RTC_ExitInitMode+0x44>)
24056c90:	6993      	ldr	r3, [r2, #24]
24056c92:	f043 0320 	orr.w	r3, r3, #32
24056c96:	6193      	str	r3, [r2, #24]
24056c98:	e7ee      	b.n	24056c78 <RTC_ExitInitMode+0x20>
24056c9a:	bf00      	nop
24056c9c:	58004000 	.word	0x58004000

24056ca0 <HAL_RTC_Init>:
24056ca0:	b538      	push	{r3, r4, r5, lr}
24056ca2:	4604      	mov	r4, r0
24056ca4:	2800      	cmp	r0, #0
24056ca6:	d041      	beq.n	24056d2c <HAL_RTC_Init+0x8c>
24056ca8:	f890 3025 	ldrb.w	r3, [r0, #37]	; 0x25
24056cac:	f003 02ff 	and.w	r2, r3, #255	; 0xff
24056cb0:	b91b      	cbnz	r3, 24056cba <HAL_RTC_Init+0x1a>
24056cb2:	f880 2024 	strb.w	r2, [r0, #36]	; 0x24
24056cb6:	f7fa fe97 	bl	240519e8 <HAL_RTC_MspInit>
24056cba:	2302      	movs	r3, #2
24056cbc:	22ca      	movs	r2, #202	; 0xca
24056cbe:	4620      	mov	r0, r4
24056cc0:	f884 3025 	strb.w	r3, [r4, #37]	; 0x25
24056cc4:	6823      	ldr	r3, [r4, #0]
24056cc6:	625a      	str	r2, [r3, #36]	; 0x24
24056cc8:	2253      	movs	r2, #83	; 0x53
24056cca:	625a      	str	r2, [r3, #36]	; 0x24
24056ccc:	f7ff ffa0 	bl	24056c10 <RTC_EnterInitMode>
24056cd0:	bb20      	cbnz	r0, 24056d1c <HAL_RTC_Init+0x7c>
24056cd2:	6822      	ldr	r2, [r4, #0]
24056cd4:	6920      	ldr	r0, [r4, #16]
24056cd6:	6993      	ldr	r3, [r2, #24]
24056cd8:	f023 638e 	bic.w	r3, r3, #74448896	; 0x4700000
24056cdc:	f023 0340 	bic.w	r3, r3, #64	; 0x40
24056ce0:	6193      	str	r3, [r2, #24]
24056ce2:	6863      	ldr	r3, [r4, #4]
24056ce4:	6991      	ldr	r1, [r2, #24]
24056ce6:	4303      	orrs	r3, r0
24056ce8:	69a0      	ldr	r0, [r4, #24]
24056cea:	4303      	orrs	r3, r0
24056cec:	4620      	mov	r0, r4
24056cee:	430b      	orrs	r3, r1
24056cf0:	6193      	str	r3, [r2, #24]
24056cf2:	e9d4 1302 	ldrd	r1, r3, [r4, #8]
24056cf6:	ea43 4301 	orr.w	r3, r3, r1, lsl #16
24056cfa:	6113      	str	r3, [r2, #16]
24056cfc:	f7ff ffac 	bl	24056c58 <RTC_ExitInitMode>
24056d00:	b960      	cbnz	r0, 24056d1c <HAL_RTC_Init+0x7c>
24056d02:	6822      	ldr	r2, [r4, #0]
24056d04:	6993      	ldr	r3, [r2, #24]
24056d06:	f023 4360 	bic.w	r3, r3, #3758096384	; 0xe0000000
24056d0a:	6193      	str	r3, [r2, #24]
24056d0c:	6991      	ldr	r1, [r2, #24]
24056d0e:	e9d4 5307 	ldrd	r5, r3, [r4, #28]
24056d12:	432b      	orrs	r3, r5
24056d14:	6965      	ldr	r5, [r4, #20]
24056d16:	432b      	orrs	r3, r5
24056d18:	430b      	orrs	r3, r1
24056d1a:	6193      	str	r3, [r2, #24]
24056d1c:	6823      	ldr	r3, [r4, #0]
24056d1e:	22ff      	movs	r2, #255	; 0xff
24056d20:	625a      	str	r2, [r3, #36]	; 0x24
24056d22:	b910      	cbnz	r0, 24056d2a <HAL_RTC_Init+0x8a>
24056d24:	2301      	movs	r3, #1
24056d26:	f884 3025 	strb.w	r3, [r4, #37]	; 0x25
24056d2a:	bd38      	pop	{r3, r4, r5, pc}
24056d2c:	2001      	movs	r0, #1
24056d2e:	e7fc      	b.n	24056d2a <HAL_RTC_Init+0x8a>

24056d30 <RTC_ByteToBcd2>:
24056d30:	2300      	movs	r3, #0
24056d32:	2809      	cmp	r0, #9
24056d34:	d803      	bhi.n	24056d3e <RTC_ByteToBcd2+0xe>
24056d36:	ea40 1003 	orr.w	r0, r0, r3, lsl #4
24056d3a:	b2c0      	uxtb	r0, r0
24056d3c:	4770      	bx	lr
24056d3e:	380a      	subs	r0, #10
24056d40:	3301      	adds	r3, #1
24056d42:	b2c0      	uxtb	r0, r0
24056d44:	e7f5      	b.n	24056d32 <RTC_ByteToBcd2+0x2>

24056d46 <HAL_RTC_SetTime>:
24056d46:	e92d 41f0 	stmdb	sp!, {r4, r5, r6, r7, r8, lr}
24056d4a:	f890 3024 	ldrb.w	r3, [r0, #36]	; 0x24
24056d4e:	4606      	mov	r6, r0
24056d50:	460f      	mov	r7, r1
24056d52:	4690      	mov	r8, r2
24056d54:	2b01      	cmp	r3, #1
24056d56:	f04f 0302 	mov.w	r3, #2
24056d5a:	d054      	beq.n	24056e06 <HAL_RTC_SetTime+0xc0>
24056d5c:	2201      	movs	r2, #1
24056d5e:	f880 3025 	strb.w	r3, [r0, #37]	; 0x25
24056d62:	6803      	ldr	r3, [r0, #0]
24056d64:	f880 2024 	strb.w	r2, [r0, #36]	; 0x24
24056d68:	22ca      	movs	r2, #202	; 0xca
24056d6a:	625a      	str	r2, [r3, #36]	; 0x24
24056d6c:	2253      	movs	r2, #83	; 0x53
24056d6e:	625a      	str	r2, [r3, #36]	; 0x24
24056d70:	f7ff ff4e 	bl	24056c10 <RTC_EnterInitMode>
24056d74:	bb70      	cbnz	r0, 24056dd4 <HAL_RTC_SetTime+0x8e>
24056d76:	6831      	ldr	r1, [r6, #0]
24056d78:	7838      	ldrb	r0, [r7, #0]
24056d7a:	787c      	ldrb	r4, [r7, #1]
24056d7c:	78bd      	ldrb	r5, [r7, #2]
24056d7e:	698a      	ldr	r2, [r1, #24]
24056d80:	f1b8 0f00 	cmp.w	r8, #0
24056d84:	d132      	bne.n	24056dec <HAL_RTC_SetTime+0xa6>
24056d86:	f012 0240 	ands.w	r2, r2, #64	; 0x40
24056d8a:	bf08      	it	eq
24056d8c:	70fa      	strbeq	r2, [r7, #3]
24056d8e:	f7ff ffcf 	bl	24056d30 <RTC_ByteToBcd2>
24056d92:	4602      	mov	r2, r0
24056d94:	4620      	mov	r0, r4
24056d96:	f7ff ffcb 	bl	24056d30 <RTC_ByteToBcd2>
24056d9a:	4604      	mov	r4, r0
24056d9c:	4628      	mov	r0, r5
24056d9e:	f7ff ffc7 	bl	24056d30 <RTC_ByteToBcd2>
24056da2:	78fd      	ldrb	r5, [r7, #3]
24056da4:	ea40 5585 	orr.w	r5, r0, r5, lsl #22
24056da8:	ea45 4202 	orr.w	r2, r5, r2, lsl #16
24056dac:	ea42 2304 	orr.w	r3, r2, r4, lsl #8
24056db0:	f003 337f 	and.w	r3, r3, #2139062143	; 0x7f7f7f7f
24056db4:	f023 43fe 	bic.w	r3, r3, #2130706432	; 0x7f000000
24056db8:	600b      	str	r3, [r1, #0]
24056dba:	698b      	ldr	r3, [r1, #24]
24056dbc:	f423 2380 	bic.w	r3, r3, #262144	; 0x40000
24056dc0:	618b      	str	r3, [r1, #24]
24056dc2:	698a      	ldr	r2, [r1, #24]
24056dc4:	e9d7 3003 	ldrd	r3, r0, [r7, #12]
24056dc8:	4303      	orrs	r3, r0
24056dca:	4630      	mov	r0, r6
24056dcc:	4313      	orrs	r3, r2
24056dce:	618b      	str	r3, [r1, #24]
24056dd0:	f7ff ff42 	bl	24056c58 <RTC_ExitInitMode>
24056dd4:	6833      	ldr	r3, [r6, #0]
24056dd6:	22ff      	movs	r2, #255	; 0xff
24056dd8:	625a      	str	r2, [r3, #36]	; 0x24
24056dda:	b910      	cbnz	r0, 24056de2 <HAL_RTC_SetTime+0x9c>
24056ddc:	2301      	movs	r3, #1
24056dde:	f886 3025 	strb.w	r3, [r6, #37]	; 0x25
24056de2:	2300      	movs	r3, #0
24056de4:	f886 3024 	strb.w	r3, [r6, #36]	; 0x24
24056de8:	e8bd 81f0 	ldmia.w	sp!, {r4, r5, r6, r7, r8, pc}
24056dec:	0224      	lsls	r4, r4, #8
24056dee:	f012 0240 	ands.w	r2, r2, #64	; 0x40
24056df2:	ea44 4400 	orr.w	r4, r4, r0, lsl #16
24056df6:	bf08      	it	eq
24056df8:	70fa      	strbeq	r2, [r7, #3]
24056dfa:	78f8      	ldrb	r0, [r7, #3]
24056dfc:	ea44 0305 	orr.w	r3, r4, r5
24056e00:	ea43 5380 	orr.w	r3, r3, r0, lsl #22
24056e04:	e7d4      	b.n	24056db0 <HAL_RTC_SetTime+0x6a>
24056e06:	4618      	mov	r0, r3
24056e08:	e7ee      	b.n	24056de8 <HAL_RTC_SetTime+0xa2>

24056e0a <HAL_RTC_SetDate>:
24056e0a:	e92d 41f0 	stmdb	sp!, {r4, r5, r6, r7, r8, lr}
24056e0e:	f890 3024 	ldrb.w	r3, [r0, #36]	; 0x24
24056e12:	4606      	mov	r6, r0
24056e14:	2b01      	cmp	r3, #1
24056e16:	f04f 0302 	mov.w	r3, #2
24056e1a:	d03f      	beq.n	24056e9c <HAL_RTC_SetDate+0x92>
24056e1c:	2001      	movs	r0, #1
24056e1e:	f886 3025 	strb.w	r3, [r6, #37]	; 0x25
24056e22:	f886 0024 	strb.w	r0, [r6, #36]	; 0x24
24056e26:	780d      	ldrb	r5, [r1, #0]
24056e28:	78c8      	ldrb	r0, [r1, #3]
24056e2a:	784c      	ldrb	r4, [r1, #1]
24056e2c:	036d      	lsls	r5, r5, #13
24056e2e:	f891 8002 	ldrb.w	r8, [r1, #2]
24056e32:	bbaa      	cbnz	r2, 24056ea0 <HAL_RTC_SetDate+0x96>
24056e34:	06e3      	lsls	r3, r4, #27
24056e36:	d503      	bpl.n	24056e40 <HAL_RTC_SetDate+0x36>
24056e38:	f024 0410 	bic.w	r4, r4, #16
24056e3c:	340a      	adds	r4, #10
24056e3e:	704c      	strb	r4, [r1, #1]
24056e40:	f7ff ff76 	bl	24056d30 <RTC_ByteToBcd2>
24056e44:	4607      	mov	r7, r0
24056e46:	7848      	ldrb	r0, [r1, #1]
24056e48:	f7ff ff72 	bl	24056d30 <RTC_ByteToBcd2>
24056e4c:	4604      	mov	r4, r0
24056e4e:	4640      	mov	r0, r8
24056e50:	f7ff ff6e 	bl	24056d30 <RTC_ByteToBcd2>
24056e54:	ea40 0205 	orr.w	r2, r0, r5
24056e58:	ea42 4507 	orr.w	r5, r2, r7, lsl #16
24056e5c:	ea45 2404 	orr.w	r4, r5, r4, lsl #8
24056e60:	6833      	ldr	r3, [r6, #0]
24056e62:	22ca      	movs	r2, #202	; 0xca
24056e64:	4630      	mov	r0, r6
24056e66:	625a      	str	r2, [r3, #36]	; 0x24
24056e68:	2253      	movs	r2, #83	; 0x53
24056e6a:	625a      	str	r2, [r3, #36]	; 0x24
24056e6c:	f7ff fed0 	bl	24056c10 <RTC_EnterInitMode>
24056e70:	b940      	cbnz	r0, 24056e84 <HAL_RTC_SetDate+0x7a>
24056e72:	f024 447f 	bic.w	r4, r4, #4278190080	; 0xff000000
24056e76:	6832      	ldr	r2, [r6, #0]
24056e78:	4630      	mov	r0, r6
24056e7a:	f024 04c0 	bic.w	r4, r4, #192	; 0xc0
24056e7e:	6054      	str	r4, [r2, #4]
24056e80:	f7ff feea 	bl	24056c58 <RTC_ExitInitMode>
24056e84:	6833      	ldr	r3, [r6, #0]
24056e86:	22ff      	movs	r2, #255	; 0xff
24056e88:	625a      	str	r2, [r3, #36]	; 0x24
24056e8a:	b910      	cbnz	r0, 24056e92 <HAL_RTC_SetDate+0x88>
24056e8c:	2301      	movs	r3, #1
24056e8e:	f886 3025 	strb.w	r3, [r6, #37]	; 0x25
24056e92:	2300      	movs	r3, #0
24056e94:	f886 3024 	strb.w	r3, [r6, #36]	; 0x24
24056e98:	e8bd 81f0 	ldmia.w	sp!, {r4, r5, r6, r7, r8, pc}
24056e9c:	4618      	mov	r0, r3
24056e9e:	e7fb      	b.n	24056e98 <HAL_RTC_SetDate+0x8e>
24056ea0:	ea45 4500 	orr.w	r5, r5, r0, lsl #16
24056ea4:	ea45 0308 	orr.w	r3, r5, r8
24056ea8:	ea43 2404 	orr.w	r4, r3, r4, lsl #8
24056eac:	e7d8      	b.n	24056e60 <HAL_RTC_SetDate+0x56>

24056eae <RTC_Bcd2ToByte>:
24056eae:	0903      	lsrs	r3, r0, #4
24056eb0:	f000 000f 	and.w	r0, r0, #15
24056eb4:	eb03 0383 	add.w	r3, r3, r3, lsl #2
24056eb8:	eb00 0043 	add.w	r0, r0, r3, lsl #1
24056ebc:	b2c0      	uxtb	r0, r0
24056ebe:	4770      	bx	lr

24056ec0 <HAL_RTC_GetTime>:
24056ec0:	b538      	push	{r3, r4, r5, lr}
24056ec2:	6803      	ldr	r3, [r0, #0]
24056ec4:	6898      	ldr	r0, [r3, #8]
24056ec6:	6048      	str	r0, [r1, #4]
24056ec8:	6918      	ldr	r0, [r3, #16]
24056eca:	681b      	ldr	r3, [r3, #0]
24056ecc:	f3c0 000e 	ubfx	r0, r0, #0, #15
24056ed0:	f3c3 2506 	ubfx	r5, r3, #8, #7
24056ed4:	f003 047f 	and.w	r4, r3, #127	; 0x7f
24056ed8:	6088      	str	r0, [r1, #8]
24056eda:	f3c3 4005 	ubfx	r0, r3, #16, #6
24056ede:	f3c3 5380 	ubfx	r3, r3, #22, #1
24056ee2:	704d      	strb	r5, [r1, #1]
24056ee4:	7008      	strb	r0, [r1, #0]
24056ee6:	708c      	strb	r4, [r1, #2]
24056ee8:	70cb      	strb	r3, [r1, #3]
24056eea:	b952      	cbnz	r2, 24056f02 <HAL_RTC_GetTime+0x42>
24056eec:	f7ff ffdf 	bl	24056eae <RTC_Bcd2ToByte>
24056ef0:	7008      	strb	r0, [r1, #0]
24056ef2:	4628      	mov	r0, r5
24056ef4:	f7ff ffdb 	bl	24056eae <RTC_Bcd2ToByte>
24056ef8:	7048      	strb	r0, [r1, #1]
24056efa:	4620      	mov	r0, r4
24056efc:	f7ff ffd7 	bl	24056eae <RTC_Bcd2ToByte>
24056f00:	7088      	strb	r0, [r1, #2]
24056f02:	2000      	movs	r0, #0
24056f04:	bd38      	pop	{r3, r4, r5, pc}

24056f06 <HAL_RTC_GetDate>:
24056f06:	b538      	push	{r3, r4, r5, lr}
24056f08:	6803      	ldr	r3, [r0, #0]
24056f0a:	685b      	ldr	r3, [r3, #4]
24056f0c:	f3c3 4007 	ubfx	r0, r3, #16, #8
24056f10:	f3c3 2504 	ubfx	r5, r3, #8, #5
24056f14:	f003 043f 	and.w	r4, r3, #63	; 0x3f
24056f18:	f3c3 3342 	ubfx	r3, r3, #13, #3
24056f1c:	70c8      	strb	r0, [r1, #3]
24056f1e:	704d      	strb	r5, [r1, #1]
24056f20:	708c      	strb	r4, [r1, #2]
24056f22:	700b      	strb	r3, [r1, #0]
24056f24:	b952      	cbnz	r2, 24056f3c <HAL_RTC_GetDate+0x36>
24056f26:	f7ff ffc2 	bl	24056eae <RTC_Bcd2ToByte>
24056f2a:	70c8      	strb	r0, [r1, #3]
24056f2c:	4628      	mov	r0, r5
24056f2e:	f7ff ffbe 	bl	24056eae <RTC_Bcd2ToByte>
24056f32:	7048      	strb	r0, [r1, #1]
24056f34:	4620      	mov	r0, r4
24056f36:	f7ff ffba 	bl	24056eae <RTC_Bcd2ToByte>
24056f3a:	7088      	strb	r0, [r1, #2]
24056f3c:	2000      	movs	r0, #0
24056f3e:	bd38      	pop	{r3, r4, r5, pc}

24056f40 <SAI_InterruptFlag>:
24056f40:	2901      	cmp	r1, #1
24056f42:	6c41      	ldr	r1, [r0, #68]	; 0x44
24056f44:	6842      	ldr	r2, [r0, #4]
24056f46:	bf14      	ite	ne
24056f48:	2301      	movne	r3, #1
24056f4a:	2309      	moveq	r3, #9
24056f4c:	2908      	cmp	r1, #8
24056f4e:	d105      	bne.n	24056f5c <SAI_InterruptFlag+0x1c>
24056f50:	f022 0102 	bic.w	r1, r2, #2
24056f54:	2901      	cmp	r1, #1
24056f56:	bf08      	it	eq
24056f58:	f043 0310 	orreq.w	r3, r3, #16
24056f5c:	3a02      	subs	r2, #2
24056f5e:	2a01      	cmp	r2, #1
24056f60:	bf94      	ite	ls
24056f62:	f043 0060 	orrls.w	r0, r3, #96	; 0x60
24056f66:	f043 0004 	orrhi.w	r0, r3, #4
24056f6a:	4770      	bx	lr

24056f6c <SAI_Disable>:
24056f6c:	4b0d      	ldr	r3, [pc, #52]	; (24056fa4 <SAI_Disable+0x38>)
24056f6e:	6801      	ldr	r1, [r0, #0]
24056f70:	681a      	ldr	r2, [r3, #0]
24056f72:	f641 3358 	movw	r3, #7000	; 0x1b58
24056f76:	fbb2 f2f3 	udiv	r2, r2, r3
24056f7a:	680b      	ldr	r3, [r1, #0]
24056f7c:	0092      	lsls	r2, r2, #2
24056f7e:	f423 3380 	bic.w	r3, r3, #65536	; 0x10000
24056f82:	600b      	str	r3, [r1, #0]
24056f84:	b93a      	cbnz	r2, 24056f96 <SAI_Disable+0x2a>
24056f86:	f8d0 3094 	ldr.w	r3, [r0, #148]	; 0x94
24056f8a:	f043 0340 	orr.w	r3, r3, #64	; 0x40
24056f8e:	f8c0 3094 	str.w	r3, [r0, #148]	; 0x94
24056f92:	2003      	movs	r0, #3
24056f94:	4770      	bx	lr
24056f96:	680b      	ldr	r3, [r1, #0]
24056f98:	3a01      	subs	r2, #1
24056f9a:	f413 3380 	ands.w	r3, r3, #65536	; 0x10000
24056f9e:	d1f1      	bne.n	24056f84 <SAI_Disable+0x18>
24056fa0:	4618      	mov	r0, r3
24056fa2:	4770      	bx	lr
24056fa4:	20000030 	.word	0x20000030

24056fa8 <HAL_SAI_Init>:
24056fa8:	e92d 41f0 	stmdb	sp!, {r4, r5, r6, r7, r8, lr}
24056fac:	4604      	mov	r4, r0
24056fae:	b918      	cbnz	r0, 24056fb8 <HAL_SAI_Init+0x10>
24056fb0:	2601      	movs	r6, #1
24056fb2:	4630      	mov	r0, r6
24056fb4:	e8bd 81f0 	ldmia.w	sp!, {r4, r5, r6, r7, r8, pc}
24056fb8:	f890 2038 	ldrb.w	r2, [r0, #56]	; 0x38
24056fbc:	6803      	ldr	r3, [r0, #0]
24056fbe:	2a01      	cmp	r2, #1
24056fc0:	4f9f      	ldr	r7, [pc, #636]	; (24057240 <HAL_SAI_Init+0x298>)
24056fc2:	f040 810a 	bne.w	240571da <HAL_SAI_Init+0x232>
24056fc6:	42bb      	cmp	r3, r7
24056fc8:	d1f2      	bne.n	24056fb0 <HAL_SAI_Init+0x8>
24056fca:	6843      	ldr	r3, [r0, #4]
24056fcc:	2b01      	cmp	r3, #1
24056fce:	d1ef      	bne.n	24056fb0 <HAL_SAI_Init+0x8>
24056fd0:	6c43      	ldr	r3, [r0, #68]	; 0x44
24056fd2:	2b00      	cmp	r3, #0
24056fd4:	d1ec      	bne.n	24056fb0 <HAL_SAI_Init+0x8>
24056fd6:	4d9b      	ldr	r5, [pc, #620]	; (24057244 <HAL_SAI_Init+0x29c>)
24056fd8:	f894 3091 	ldrb.w	r3, [r4, #145]	; 0x91
24056fdc:	f003 02ff 	and.w	r2, r3, #255	; 0xff
24056fe0:	b923      	cbnz	r3, 24056fec <HAL_SAI_Init+0x44>
24056fe2:	4620      	mov	r0, r4
24056fe4:	f884 2090 	strb.w	r2, [r4, #144]	; 0x90
24056fe8:	f7fa fd6e 	bl	24051ac8 <HAL_SAI_MspInit>
24056fec:	4620      	mov	r0, r4
24056fee:	f7ff ffbd 	bl	24056f6c <SAI_Disable>
24056ff2:	4606      	mov	r6, r0
24056ff4:	2800      	cmp	r0, #0
24056ff6:	d1db      	bne.n	24056fb0 <HAL_SAI_Init+0x8>
24056ff8:	2302      	movs	r3, #2
24056ffa:	f884 3091 	strb.w	r3, [r4, #145]	; 0x91
24056ffe:	68e3      	ldr	r3, [r4, #12]
24057000:	2b01      	cmp	r3, #1
24057002:	f000 80fb 	beq.w	240571fc <HAL_SAI_Init+0x254>
24057006:	2b02      	cmp	r3, #2
24057008:	bf14      	ite	ne
2405700a:	2300      	movne	r3, #0
2405700c:	2320      	moveq	r3, #32
2405700e:	68a2      	ldr	r2, [r4, #8]
24057010:	2a02      	cmp	r2, #2
24057012:	f000 80f7 	beq.w	24057204 <HAL_SAI_Init+0x25c>
24057016:	2a03      	cmp	r2, #3
24057018:	f000 80f2 	beq.w	24057200 <HAL_SAI_Init+0x258>
2405701c:	2a01      	cmp	r2, #1
2405701e:	bf14      	ite	ne
24057020:	f04f 0800 	movne.w	r8, #0
24057024:	f44f 6880 	moveq.w	r8, #1024	; 0x400
24057028:	602b      	str	r3, [r5, #0]
2405702a:	6a23      	ldr	r3, [r4, #32]
2405702c:	2b00      	cmp	r3, #0
2405702e:	d03e      	beq.n	240570ae <HAL_SAI_Init+0x106>
24057030:	6823      	ldr	r3, [r4, #0]
24057032:	42bb      	cmp	r3, r7
24057034:	d003      	beq.n	2405703e <HAL_SAI_Init+0x96>
24057036:	4a84      	ldr	r2, [pc, #528]	; (24057248 <HAL_SAI_Init+0x2a0>)
24057038:	4293      	cmp	r3, r2
2405703a:	f040 80e6 	bne.w	2405720a <HAL_SAI_Init+0x262>
2405703e:	f44f 7080 	mov.w	r0, #256	; 0x100
24057042:	f7ff fc8f 	bl	24056964 <HAL_RCCEx_GetPeriphCLKFreq>
24057046:	6822      	ldr	r2, [r4, #0]
24057048:	4b80      	ldr	r3, [pc, #512]	; (2405724c <HAL_SAI_Init+0x2a4>)
2405704a:	429a      	cmp	r2, r3
2405704c:	d103      	bne.n	24057056 <HAL_SAI_Init+0xae>
2405704e:	f44f 7000 	mov.w	r0, #512	; 0x200
24057052:	f7ff fc87 	bl	24056964 <HAL_RCCEx_GetPeriphCLKFreq>
24057056:	6822      	ldr	r2, [r4, #0]
24057058:	4b7d      	ldr	r3, [pc, #500]	; (24057250 <HAL_SAI_Init+0x2a8>)
2405705a:	429a      	cmp	r2, r3
2405705c:	d103      	bne.n	24057066 <HAL_SAI_Init+0xbe>
2405705e:	f44f 6080 	mov.w	r0, #1024	; 0x400
24057062:	f7ff fc7f 	bl	24056964 <HAL_RCCEx_GetPeriphCLKFreq>
24057066:	69a3      	ldr	r3, [r4, #24]
24057068:	6c61      	ldr	r1, [r4, #68]	; 0x44
2405706a:	f5b3 2f00 	cmp.w	r3, #524288	; 0x80000
2405706e:	6a22      	ldr	r2, [r4, #32]
24057070:	f040 80d0 	bne.w	24057214 <HAL_SAI_Init+0x26c>
24057074:	2904      	cmp	r1, #4
24057076:	f8d4 c054 	ldr.w	ip, [r4, #84]	; 0x54
2405707a:	f000 80c8 	beq.w	2405720e <HAL_SAI_Init+0x266>
2405707e:	2908      	cmp	r1, #8
24057080:	bf08      	it	eq
24057082:	f44f 7c80 	moveq.w	ip, #256	; 0x100
24057086:	230a      	movs	r3, #10
24057088:	fb02 f20c 	mul.w	r2, r2, ip
2405708c:	4358      	muls	r0, r3
2405708e:	fbb0 f0f2 	udiv	r0, r0, r2
24057092:	220a      	movs	r2, #10
24057094:	fbb0 f3f2 	udiv	r3, r0, r2
24057098:	fb02 0013 	mls	r0, r2, r3, r0
2405709c:	2809      	cmp	r0, #9
2405709e:	bf08      	it	eq
240570a0:	3301      	addeq	r3, #1
240570a2:	2904      	cmp	r1, #4
240570a4:	6263      	str	r3, [r4, #36]	; 0x24
240570a6:	bf02      	ittt	eq
240570a8:	6a63      	ldreq	r3, [r4, #36]	; 0x24
240570aa:	085b      	lsreq	r3, r3, #1
240570ac:	6263      	streq	r3, [r4, #36]	; 0x24
240570ae:	f8d4 c004 	ldr.w	ip, [r4, #4]
240570b2:	6d23      	ldr	r3, [r4, #80]	; 0x50
240570b4:	f03c 0202 	bics.w	r2, ip, #2
240570b8:	f040 80bb 	bne.w	24057232 <HAL_SAI_Init+0x28a>
240570bc:	2b01      	cmp	r3, #1
240570be:	bf18      	it	ne
240570c0:	f44f 7200 	movne.w	r2, #512	; 0x200
240570c4:	6823      	ldr	r3, [r4, #0]
240570c6:	4963      	ldr	r1, [pc, #396]	; (24057254 <HAL_SAI_Init+0x2ac>)
240570c8:	6818      	ldr	r0, [r3, #0]
240570ca:	42bb      	cmp	r3, r7
240570cc:	ea01 0100 	and.w	r1, r1, r0
240570d0:	6019      	str	r1, [r3, #0]
240570d2:	6c61      	ldr	r1, [r4, #68]	; 0x44
240570d4:	6818      	ldr	r0, [r3, #0]
240570d6:	ea4c 0c01 	orr.w	ip, ip, r1
240570da:	6ca1      	ldr	r1, [r4, #72]	; 0x48
240570dc:	ea4c 0c01 	orr.w	ip, ip, r1
240570e0:	6ce1      	ldr	r1, [r4, #76]	; 0x4c
240570e2:	ea4c 0c01 	orr.w	ip, ip, r1
240570e6:	6ae1      	ldr	r1, [r4, #44]	; 0x2c
240570e8:	ea4c 0c01 	orr.w	ip, ip, r1
240570ec:	6961      	ldr	r1, [r4, #20]
240570ee:	ea4c 0c01 	orr.w	ip, ip, r1
240570f2:	69a1      	ldr	r1, [r4, #24]
240570f4:	ea4c 0c01 	orr.w	ip, ip, r1
240570f8:	6aa1      	ldr	r1, [r4, #40]	; 0x28
240570fa:	ea4c 0c01 	orr.w	ip, ip, r1
240570fe:	6921      	ldr	r1, [r4, #16]
24057100:	ea4c 0101 	orr.w	r1, ip, r1
24057104:	ea40 0001 	orr.w	r0, r0, r1
24057108:	6a61      	ldr	r1, [r4, #36]	; 0x24
2405710a:	ea40 5001 	orr.w	r0, r0, r1, lsl #20
2405710e:	ea40 0808 	orr.w	r8, r0, r8
24057112:	6b20      	ldr	r0, [r4, #48]	; 0x30
24057114:	ea48 0202 	orr.w	r2, r8, r2
24057118:	601a      	str	r2, [r3, #0]
2405711a:	685a      	ldr	r2, [r3, #4]
2405711c:	f422 4260 	bic.w	r2, r2, #57344	; 0xe000
24057120:	f022 020f 	bic.w	r2, r2, #15
24057124:	605a      	str	r2, [r3, #4]
24057126:	69e2      	ldr	r2, [r4, #28]
24057128:	6859      	ldr	r1, [r3, #4]
2405712a:	ea42 0200 	orr.w	r2, r2, r0
2405712e:	6b60      	ldr	r0, [r4, #52]	; 0x34
24057130:	ea42 0200 	orr.w	r2, r2, r0
24057134:	6de0      	ldr	r0, [r4, #92]	; 0x5c
24057136:	ea42 0201 	orr.w	r2, r2, r1
2405713a:	605a      	str	r2, [r3, #4]
2405713c:	4a46      	ldr	r2, [pc, #280]	; (24057258 <HAL_SAI_Init+0x2b0>)
2405713e:	6899      	ldr	r1, [r3, #8]
24057140:	ea02 0201 	and.w	r2, r2, r1
24057144:	609a      	str	r2, [r3, #8]
24057146:	6e62      	ldr	r2, [r4, #100]	; 0x64
24057148:	6899      	ldr	r1, [r3, #8]
2405714a:	ea42 0200 	orr.w	r2, r2, r0
2405714e:	6e20      	ldr	r0, [r4, #96]	; 0x60
24057150:	ea42 0200 	orr.w	r2, r2, r0
24057154:	ea42 0201 	orr.w	r2, r2, r1
24057158:	6d61      	ldr	r1, [r4, #84]	; 0x54
2405715a:	f101 31ff 	add.w	r1, r1, #4294967295
2405715e:	ea42 0201 	orr.w	r2, r2, r1
24057162:	6da1      	ldr	r1, [r4, #88]	; 0x58
24057164:	f101 31ff 	add.w	r1, r1, #4294967295
24057168:	ea42 2201 	orr.w	r2, r2, r1, lsl #8
2405716c:	609a      	str	r2, [r3, #8]
2405716e:	68da      	ldr	r2, [r3, #12]
24057170:	f422 627d 	bic.w	r2, r2, #4048	; 0xfd0
24057174:	f022 020f 	bic.w	r2, r2, #15
24057178:	ea4f 4202 	mov.w	r2, r2, lsl #16
2405717c:	ea4f 4212 	mov.w	r2, r2, lsr #16
24057180:	60da      	str	r2, [r3, #12]
24057182:	68d9      	ldr	r1, [r3, #12]
24057184:	e9d4 201a 	ldrd	r2, r0, [r4, #104]	; 0x68
24057188:	ea42 0200 	orr.w	r2, r2, r0
2405718c:	ea42 0201 	orr.w	r2, r2, r1
24057190:	6f61      	ldr	r1, [r4, #116]	; 0x74
24057192:	ea42 4201 	orr.w	r2, r2, r1, lsl #16
24057196:	6f21      	ldr	r1, [r4, #112]	; 0x70
24057198:	f101 31ff 	add.w	r1, r1, #4294967295
2405719c:	ea42 2201 	orr.w	r2, r2, r1, lsl #8
240571a0:	60da      	str	r2, [r3, #12]
240571a2:	d111      	bne.n	240571c8 <HAL_SAI_Init+0x220>
240571a4:	6c6b      	ldr	r3, [r5, #68]	; 0x44
240571a6:	f023 0301 	bic.w	r3, r3, #1
240571aa:	646b      	str	r3, [r5, #68]	; 0x44
240571ac:	f894 3038 	ldrb.w	r3, [r4, #56]	; 0x38
240571b0:	2b01      	cmp	r3, #1
240571b2:	d109      	bne.n	240571c8 <HAL_SAI_Init+0x220>
240571b4:	6be3      	ldr	r3, [r4, #60]	; 0x3c
240571b6:	1e5a      	subs	r2, r3, #1
240571b8:	6c23      	ldr	r3, [r4, #64]	; 0x40
240571ba:	ea43 1302 	orr.w	r3, r3, r2, lsl #4
240571be:	646b      	str	r3, [r5, #68]	; 0x44
240571c0:	6c6b      	ldr	r3, [r5, #68]	; 0x44
240571c2:	f043 0301 	orr.w	r3, r3, #1
240571c6:	646b      	str	r3, [r5, #68]	; 0x44
240571c8:	2300      	movs	r3, #0
240571ca:	2201      	movs	r2, #1
240571cc:	f8c4 3094 	str.w	r3, [r4, #148]	; 0x94
240571d0:	f884 3090 	strb.w	r3, [r4, #144]	; 0x90
240571d4:	f884 2091 	strb.w	r2, [r4, #145]	; 0x91
240571d8:	e6eb      	b.n	24056fb2 <HAL_SAI_Init+0xa>
240571da:	42bb      	cmp	r3, r7
240571dc:	f43f aefb 	beq.w	24056fd6 <HAL_SAI_Init+0x2e>
240571e0:	4a19      	ldr	r2, [pc, #100]	; (24057248 <HAL_SAI_Init+0x2a0>)
240571e2:	4293      	cmp	r3, r2
240571e4:	f43f aef7 	beq.w	24056fd6 <HAL_SAI_Init+0x2e>
240571e8:	f502 7278 	add.w	r2, r2, #992	; 0x3e0
240571ec:	4293      	cmp	r3, r2
240571ee:	d003      	beq.n	240571f8 <HAL_SAI_Init+0x250>
240571f0:	3220      	adds	r2, #32
240571f2:	4293      	cmp	r3, r2
240571f4:	f47f aedc 	bne.w	24056fb0 <HAL_SAI_Init+0x8>
240571f8:	4d18      	ldr	r5, [pc, #96]	; (2405725c <HAL_SAI_Init+0x2b4>)
240571fa:	e6ed      	b.n	24056fd8 <HAL_SAI_Init+0x30>
240571fc:	2310      	movs	r3, #16
240571fe:	e706      	b.n	2405700e <HAL_SAI_Init+0x66>
24057200:	f043 0301 	orr.w	r3, r3, #1
24057204:	f44f 6800 	mov.w	r8, #2048	; 0x800
24057208:	e70e      	b.n	24057028 <HAL_SAI_Init+0x80>
2405720a:	2000      	movs	r0, #0
2405720c:	e71b      	b.n	24057046 <HAL_SAI_Init+0x9e>
2405720e:	f04f 0c40 	mov.w	ip, #64	; 0x40
24057212:	e738      	b.n	24057086 <HAL_SAI_Init+0xde>
24057214:	6aa3      	ldr	r3, [r4, #40]	; 0x28
24057216:	f1b3 6f80 	cmp.w	r3, #67108864	; 0x4000000
2405721a:	f04f 030a 	mov.w	r3, #10
2405721e:	bf0c      	ite	eq
24057220:	f04f 0c02 	moveq.w	ip, #2
24057224:	f04f 0c01 	movne.w	ip, #1
24057228:	4358      	muls	r0, r3
2405722a:	fb02 f20c 	mul.w	r2, r2, ip
2405722e:	0212      	lsls	r2, r2, #8
24057230:	e72d      	b.n	2405708e <HAL_SAI_Init+0xe6>
24057232:	2b01      	cmp	r3, #1
24057234:	bf14      	ite	ne
24057236:	2200      	movne	r2, #0
24057238:	f44f 7200 	moveq.w	r2, #512	; 0x200
2405723c:	e742      	b.n	240570c4 <HAL_SAI_Init+0x11c>
2405723e:	bf00      	nop
24057240:	40015804 	.word	0x40015804
24057244:	40015800 	.word	0x40015800
24057248:	40015824 	.word	0x40015824
2405724c:	40015c04 	.word	0x40015c04
24057250:	40015c24 	.word	0x40015c24
24057254:	f005c010 	.word	0xf005c010
24057258:	fff88000 	.word	0xfff88000
2405725c:	40015c00 	.word	0x40015c00

24057260 <HAL_SAI_InitProtocol>:
24057260:	2902      	cmp	r1, #2
24057262:	b430      	push	{r4, r5}
24057264:	d905      	bls.n	24057272 <HAL_SAI_InitProtocol+0x12>
24057266:	1ecc      	subs	r4, r1, #3
24057268:	2c01      	cmp	r4, #1
2405726a:	d95b      	bls.n	24057324 <HAL_SAI_InitProtocol+0xc4>
2405726c:	2001      	movs	r0, #1
2405726e:	bc30      	pop	{r4, r5}
24057270:	4770      	bx	lr
24057272:	6845      	ldr	r5, [r0, #4]
24057274:	2400      	movs	r4, #0
24057276:	6703      	str	r3, [r0, #112]	; 0x70
24057278:	f035 0502 	bics.w	r5, r5, #2
2405727c:	6444      	str	r4, [r0, #68]	; 0x44
2405727e:	64c4      	str	r4, [r0, #76]	; 0x4c
24057280:	bf14      	ite	ne
24057282:	2501      	movne	r5, #1
24057284:	4625      	moveq	r5, r4
24057286:	6684      	str	r4, [r0, #104]	; 0x68
24057288:	f013 0401 	ands.w	r4, r3, #1
2405728c:	6505      	str	r5, [r0, #80]	; 0x50
2405728e:	f44f 3580 	mov.w	r5, #65536	; 0x10000
24057292:	65c5      	str	r5, [r0, #92]	; 0x5c
24057294:	f64f 75ff 	movw	r5, #65535	; 0xffff
24057298:	6745      	str	r5, [r0, #116]	; 0x74
2405729a:	d1e7      	bne.n	2405726c <HAL_SAI_InitProtocol+0xc>
2405729c:	b999      	cbnz	r1, 240572c6 <HAL_SAI_InitProtocol+0x66>
2405729e:	f44f 2480 	mov.w	r4, #262144	; 0x40000
240572a2:	6601      	str	r1, [r0, #96]	; 0x60
240572a4:	6644      	str	r4, [r0, #100]	; 0x64
240572a6:	2a03      	cmp	r2, #3
240572a8:	d8e0      	bhi.n	2405726c <HAL_SAI_InitProtocol+0xc>
240572aa:	e8df f002 	tbb	[pc, r2]
240572ae:	1002      	.short	0x1002
240572b0:	301f      	.short	0x301f
240572b2:	2280      	movs	r2, #128	; 0x80
240572b4:	085b      	lsrs	r3, r3, #1
240572b6:	6482      	str	r2, [r0, #72]	; 0x48
240572b8:	015a      	lsls	r2, r3, #5
240572ba:	011b      	lsls	r3, r3, #4
240572bc:	6542      	str	r2, [r0, #84]	; 0x54
240572be:	6583      	str	r3, [r0, #88]	; 0x58
240572c0:	2340      	movs	r3, #64	; 0x40
240572c2:	66c3      	str	r3, [r0, #108]	; 0x6c
240572c4:	e020      	b.n	24057308 <HAL_SAI_InitProtocol+0xa8>
240572c6:	f44f 3500 	mov.w	r5, #131072	; 0x20000
240572ca:	6605      	str	r5, [r0, #96]	; 0x60
240572cc:	e7ea      	b.n	240572a4 <HAL_SAI_InitProtocol+0x44>
240572ce:	085b      	lsrs	r3, r3, #1
240572d0:	2280      	movs	r2, #128	; 0x80
240572d2:	2902      	cmp	r1, #2
240572d4:	ea4f 1483 	mov.w	r4, r3, lsl #6
240572d8:	6482      	str	r2, [r0, #72]	; 0x48
240572da:	ea4f 1343 	mov.w	r3, r3, lsl #5
240572de:	66c2      	str	r2, [r0, #108]	; 0x6c
240572e0:	6544      	str	r4, [r0, #84]	; 0x54
240572e2:	6583      	str	r3, [r0, #88]	; 0x58
240572e4:	d110      	bne.n	24057308 <HAL_SAI_InitProtocol+0xa8>
240572e6:	2310      	movs	r3, #16
240572e8:	6683      	str	r3, [r0, #104]	; 0x68
240572ea:	e00d      	b.n	24057308 <HAL_SAI_InitProtocol+0xa8>
240572ec:	22c0      	movs	r2, #192	; 0xc0
240572ee:	085b      	lsrs	r3, r3, #1
240572f0:	2902      	cmp	r1, #2
240572f2:	6482      	str	r2, [r0, #72]	; 0x48
240572f4:	ea4f 1283 	mov.w	r2, r3, lsl #6
240572f8:	ea4f 1343 	mov.w	r3, r3, lsl #5
240572fc:	6542      	str	r2, [r0, #84]	; 0x54
240572fe:	6583      	str	r3, [r0, #88]	; 0x58
24057300:	f04f 0380 	mov.w	r3, #128	; 0x80
24057304:	66c3      	str	r3, [r0, #108]	; 0x6c
24057306:	d00b      	beq.n	24057320 <HAL_SAI_InitProtocol+0xc0>
24057308:	bc30      	pop	{r4, r5}
2405730a:	f7ff be4d 	b.w	24056fa8 <HAL_SAI_Init>
2405730e:	22e0      	movs	r2, #224	; 0xe0
24057310:	085b      	lsrs	r3, r3, #1
24057312:	6482      	str	r2, [r0, #72]	; 0x48
24057314:	019a      	lsls	r2, r3, #6
24057316:	015b      	lsls	r3, r3, #5
24057318:	6542      	str	r2, [r0, #84]	; 0x54
2405731a:	6583      	str	r3, [r0, #88]	; 0x58
2405731c:	2380      	movs	r3, #128	; 0x80
2405731e:	e7d0      	b.n	240572c2 <HAL_SAI_InitProtocol+0x62>
24057320:	2308      	movs	r3, #8
24057322:	e7e1      	b.n	240572e8 <HAL_SAI_InitProtocol+0x88>
24057324:	6845      	ldr	r5, [r0, #4]
24057326:	2400      	movs	r4, #0
24057328:	f44f 3c00 	mov.w	ip, #131072	; 0x20000
2405732c:	6703      	str	r3, [r0, #112]	; 0x70
2405732e:	f035 0502 	bics.w	r5, r5, #2
24057332:	6444      	str	r4, [r0, #68]	; 0x44
24057334:	64c4      	str	r4, [r0, #76]	; 0x4c
24057336:	bf14      	ite	ne
24057338:	4625      	movne	r5, r4
2405733a:	2501      	moveq	r5, #1
2405733c:	2904      	cmp	r1, #4
2405733e:	65c4      	str	r4, [r0, #92]	; 0x5c
24057340:	6505      	str	r5, [r0, #80]	; 0x50
24057342:	f44f 2580 	mov.w	r5, #262144	; 0x40000
24057346:	bf0c      	ite	eq
24057348:	2101      	moveq	r1, #1
2405734a:	210d      	movne	r1, #13
2405734c:	6684      	str	r4, [r0, #104]	; 0x68
2405734e:	f64f 74ff 	movw	r4, #65535	; 0xffff
24057352:	6581      	str	r1, [r0, #88]	; 0x58
24057354:	6744      	str	r4, [r0, #116]	; 0x74
24057356:	e9c0 c518 	strd	ip, r5, [r0, #96]	; 0x60
2405735a:	2a03      	cmp	r2, #3
2405735c:	d886      	bhi.n	2405726c <HAL_SAI_InitProtocol+0xc>
2405735e:	e8df f002 	tbb	[pc, r2]
24057362:	0702      	.short	0x0702
24057364:	120d      	.short	0x120d
24057366:	2280      	movs	r2, #128	; 0x80
24057368:	011b      	lsls	r3, r3, #4
2405736a:	6482      	str	r2, [r0, #72]	; 0x48
2405736c:	6543      	str	r3, [r0, #84]	; 0x54
2405736e:	e7a7      	b.n	240572c0 <HAL_SAI_InitProtocol+0x60>
24057370:	2280      	movs	r2, #128	; 0x80
24057372:	015b      	lsls	r3, r3, #5
24057374:	6482      	str	r2, [r0, #72]	; 0x48
24057376:	6543      	str	r3, [r0, #84]	; 0x54
24057378:	66c2      	str	r2, [r0, #108]	; 0x6c
2405737a:	e7c5      	b.n	24057308 <HAL_SAI_InitProtocol+0xa8>
2405737c:	22c0      	movs	r2, #192	; 0xc0
2405737e:	015b      	lsls	r3, r3, #5
24057380:	6482      	str	r2, [r0, #72]	; 0x48
24057382:	6543      	str	r3, [r0, #84]	; 0x54
24057384:	e7ca      	b.n	2405731c <HAL_SAI_InitProtocol+0xbc>
24057386:	22e0      	movs	r2, #224	; 0xe0
24057388:	e7f9      	b.n	2405737e <HAL_SAI_InitProtocol+0x11e>

2405738a <HAL_SAI_Abort>:
2405738a:	b570      	push	{r4, r5, r6, lr}
2405738c:	f890 3090 	ldrb.w	r3, [r0, #144]	; 0x90
24057390:	4604      	mov	r4, r0
24057392:	2b01      	cmp	r3, #1
24057394:	d053      	beq.n	2405743e <HAL_SAI_Abort+0xb4>
24057396:	2601      	movs	r6, #1
24057398:	6802      	ldr	r2, [r0, #0]
2405739a:	f880 6090 	strb.w	r6, [r0, #144]	; 0x90
2405739e:	6815      	ldr	r5, [r2, #0]
240573a0:	f415 3500 	ands.w	r5, r5, #131072	; 0x20000
240573a4:	d01e      	beq.n	240573e4 <HAL_SAI_Abort+0x5a>
240573a6:	6813      	ldr	r3, [r2, #0]
240573a8:	f423 3300 	bic.w	r3, r3, #131072	; 0x20000
240573ac:	6013      	str	r3, [r2, #0]
240573ae:	f890 3091 	ldrb.w	r3, [r0, #145]	; 0x91
240573b2:	2b12      	cmp	r3, #18
240573b4:	d02e      	beq.n	24057414 <HAL_SAI_Abort+0x8a>
240573b6:	2500      	movs	r5, #0
240573b8:	f894 3091 	ldrb.w	r3, [r4, #145]	; 0x91
240573bc:	2b22      	cmp	r3, #34	; 0x22
240573be:	d111      	bne.n	240573e4 <HAL_SAI_Abort+0x5a>
240573c0:	f8d4 0084 	ldr.w	r0, [r4, #132]	; 0x84
240573c4:	b170      	cbz	r0, 240573e4 <HAL_SAI_Abort+0x5a>
240573c6:	f7fc f929 	bl	2405361c <HAL_DMA_Abort>
240573ca:	b158      	cbz	r0, 240573e4 <HAL_SAI_Abort+0x5a>
240573cc:	f8d4 3084 	ldr.w	r3, [r4, #132]	; 0x84
240573d0:	6d5b      	ldr	r3, [r3, #84]	; 0x54
240573d2:	2b80      	cmp	r3, #128	; 0x80
240573d4:	d006      	beq.n	240573e4 <HAL_SAI_Abort+0x5a>
240573d6:	f8d4 3094 	ldr.w	r3, [r4, #148]	; 0x94
240573da:	2501      	movs	r5, #1
240573dc:	f043 0380 	orr.w	r3, r3, #128	; 0x80
240573e0:	f8c4 3094 	str.w	r3, [r4, #148]	; 0x94
240573e4:	6823      	ldr	r3, [r4, #0]
240573e6:	2600      	movs	r6, #0
240573e8:	f04f 32ff 	mov.w	r2, #4294967295
240573ec:	4620      	mov	r0, r4
240573ee:	611e      	str	r6, [r3, #16]
240573f0:	619a      	str	r2, [r3, #24]
240573f2:	f7ff fdbb 	bl	24056f6c <SAI_Disable>
240573f6:	6822      	ldr	r2, [r4, #0]
240573f8:	42b0      	cmp	r0, r6
240573fa:	6853      	ldr	r3, [r2, #4]
240573fc:	bf18      	it	ne
240573fe:	2501      	movne	r5, #1
24057400:	f043 0308 	orr.w	r3, r3, #8
24057404:	6053      	str	r3, [r2, #4]
24057406:	2301      	movs	r3, #1
24057408:	f884 6090 	strb.w	r6, [r4, #144]	; 0x90
2405740c:	f884 3091 	strb.w	r3, [r4, #145]	; 0x91
24057410:	4628      	mov	r0, r5
24057412:	bd70      	pop	{r4, r5, r6, pc}
24057414:	f8d0 0080 	ldr.w	r0, [r0, #128]	; 0x80
24057418:	2800      	cmp	r0, #0
2405741a:	d0cc      	beq.n	240573b6 <HAL_SAI_Abort+0x2c>
2405741c:	f7fc f8fe 	bl	2405361c <HAL_DMA_Abort>
24057420:	2800      	cmp	r0, #0
24057422:	d0c8      	beq.n	240573b6 <HAL_SAI_Abort+0x2c>
24057424:	f8d4 3080 	ldr.w	r3, [r4, #128]	; 0x80
24057428:	6d5b      	ldr	r3, [r3, #84]	; 0x54
2405742a:	2b80      	cmp	r3, #128	; 0x80
2405742c:	d0c3      	beq.n	240573b6 <HAL_SAI_Abort+0x2c>
2405742e:	f8d4 3094 	ldr.w	r3, [r4, #148]	; 0x94
24057432:	4635      	mov	r5, r6
24057434:	f043 0380 	orr.w	r3, r3, #128	; 0x80
24057438:	f8c4 3094 	str.w	r3, [r4, #148]	; 0x94
2405743c:	e7bc      	b.n	240573b8 <HAL_SAI_Abort+0x2e>
2405743e:	2502      	movs	r5, #2
24057440:	e7e6      	b.n	24057410 <HAL_SAI_Abort+0x86>
	...

24057444 <HAL_SAI_Transmit_DMA>:
24057444:	e92d 43f8 	stmdb	sp!, {r3, r4, r5, r6, r7, r8, r9, lr}
24057448:	460f      	mov	r7, r1
2405744a:	4604      	mov	r4, r0
2405744c:	4616      	mov	r6, r2
2405744e:	f7fa fcf7 	bl	24051e40 <HAL_GetTick>
24057452:	4680      	mov	r8, r0
24057454:	2f00      	cmp	r7, #0
24057456:	d05a      	beq.n	2405750e <HAL_SAI_Transmit_DMA+0xca>
24057458:	2e00      	cmp	r6, #0
2405745a:	d058      	beq.n	2405750e <HAL_SAI_Transmit_DMA+0xca>
2405745c:	f894 3091 	ldrb.w	r3, [r4, #145]	; 0x91
24057460:	2b01      	cmp	r3, #1
24057462:	b2dd      	uxtb	r5, r3
24057464:	d155      	bne.n	24057512 <HAL_SAI_Transmit_DMA+0xce>
24057466:	f894 3090 	ldrb.w	r3, [r4, #144]	; 0x90
2405746a:	2b01      	cmp	r3, #1
2405746c:	d051      	beq.n	24057512 <HAL_SAI_Transmit_DMA+0xce>
2405746e:	f04f 0900 	mov.w	r9, #0
24057472:	2312      	movs	r3, #18
24057474:	f8d4 0080 	ldr.w	r0, [r4, #128]	; 0x80
24057478:	4639      	mov	r1, r7
2405747a:	f8c4 9094 	str.w	r9, [r4, #148]	; 0x94
2405747e:	f884 3091 	strb.w	r3, [r4, #145]	; 0x91
24057482:	4b25      	ldr	r3, [pc, #148]	; (24057518 <HAL_SAI_Transmit_DMA+0xd4>)
24057484:	f884 5090 	strb.w	r5, [r4, #144]	; 0x90
24057488:	67a7      	str	r7, [r4, #120]	; 0x78
2405748a:	f8a4 607c 	strh.w	r6, [r4, #124]	; 0x7c
2405748e:	f8a4 607e 	strh.w	r6, [r4, #126]	; 0x7e
24057492:	6403      	str	r3, [r0, #64]	; 0x40
24057494:	4b21      	ldr	r3, [pc, #132]	; (2405751c <HAL_SAI_Transmit_DMA+0xd8>)
24057496:	6822      	ldr	r2, [r4, #0]
24057498:	63c3      	str	r3, [r0, #60]	; 0x3c
2405749a:	4b21      	ldr	r3, [pc, #132]	; (24057520 <HAL_SAI_Transmit_DMA+0xdc>)
2405749c:	321c      	adds	r2, #28
2405749e:	e9c0 3913 	strd	r3, r9, [r0, #76]	; 0x4c
240574a2:	4633      	mov	r3, r6
240574a4:	f7fb ff9e 	bl	240533e4 <HAL_DMA_Start_IT>
240574a8:	4601      	mov	r1, r0
240574aa:	b120      	cbz	r0, 240574b6 <HAL_SAI_Transmit_DMA+0x72>
240574ac:	f884 9090 	strb.w	r9, [r4, #144]	; 0x90
240574b0:	4628      	mov	r0, r5
240574b2:	e8bd 83f8 	ldmia.w	sp!, {r3, r4, r5, r6, r7, r8, r9, pc}
240574b6:	4620      	mov	r0, r4
240574b8:	f7ff fd42 	bl	24056f40 <SAI_InterruptFlag>
240574bc:	6823      	ldr	r3, [r4, #0]
240574be:	691a      	ldr	r2, [r3, #16]
240574c0:	4310      	orrs	r0, r2
240574c2:	6118      	str	r0, [r3, #16]
240574c4:	681a      	ldr	r2, [r3, #0]
240574c6:	f442 3200 	orr.w	r2, r2, #131072	; 0x20000
240574ca:	601a      	str	r2, [r3, #0]
240574cc:	6823      	ldr	r3, [r4, #0]
240574ce:	695d      	ldr	r5, [r3, #20]
240574d0:	f415 25e0 	ands.w	r5, r5, #458752	; 0x70000
240574d4:	d00a      	beq.n	240574ec <HAL_SAI_Transmit_DMA+0xa8>
240574d6:	681a      	ldr	r2, [r3, #0]
240574d8:	03d2      	lsls	r2, r2, #15
240574da:	d403      	bmi.n	240574e4 <HAL_SAI_Transmit_DMA+0xa0>
240574dc:	681a      	ldr	r2, [r3, #0]
240574de:	f442 3280 	orr.w	r2, r2, #65536	; 0x10000
240574e2:	601a      	str	r2, [r3, #0]
240574e4:	2500      	movs	r5, #0
240574e6:	f884 5090 	strb.w	r5, [r4, #144]	; 0x90
240574ea:	e7e1      	b.n	240574b0 <HAL_SAI_Transmit_DMA+0x6c>
240574ec:	f7fa fca8 	bl	24051e40 <HAL_GetTick>
240574f0:	eba0 0008 	sub.w	r0, r0, r8
240574f4:	f5b0 7f7a 	cmp.w	r0, #1000	; 0x3e8
240574f8:	d9e8      	bls.n	240574cc <HAL_SAI_Transmit_DMA+0x88>
240574fa:	f8d4 3094 	ldr.w	r3, [r4, #148]	; 0x94
240574fe:	f884 5090 	strb.w	r5, [r4, #144]	; 0x90
24057502:	2503      	movs	r5, #3
24057504:	f043 0340 	orr.w	r3, r3, #64	; 0x40
24057508:	f8c4 3094 	str.w	r3, [r4, #148]	; 0x94
2405750c:	e7d0      	b.n	240574b0 <HAL_SAI_Transmit_DMA+0x6c>
2405750e:	2501      	movs	r5, #1
24057510:	e7ce      	b.n	240574b0 <HAL_SAI_Transmit_DMA+0x6c>
24057512:	2502      	movs	r5, #2
24057514:	e7cc      	b.n	240574b0 <HAL_SAI_Transmit_DMA+0x6c>
24057516:	bf00      	nop
24057518:	24057561 	.word	0x24057561
2405751c:	24057527 	.word	0x24057527
24057520:	2405756d 	.word	0x2405756d

24057524 <HAL_SAI_TxCpltCallback>:
24057524:	4770      	bx	lr

24057526 <SAI_DMATxCplt>:
24057526:	b538      	push	{r3, r4, r5, lr}
24057528:	69c3      	ldr	r3, [r0, #28]
2405752a:	6b84      	ldr	r4, [r0, #56]	; 0x38
2405752c:	f5b3 7f80 	cmp.w	r3, #256	; 0x100
24057530:	d011      	beq.n	24057556 <SAI_DMATxCplt+0x30>
24057532:	6825      	ldr	r5, [r4, #0]
24057534:	2100      	movs	r1, #0
24057536:	4620      	mov	r0, r4
24057538:	682b      	ldr	r3, [r5, #0]
2405753a:	f8a4 107e 	strh.w	r1, [r4, #126]	; 0x7e
2405753e:	f423 3300 	bic.w	r3, r3, #131072	; 0x20000
24057542:	602b      	str	r3, [r5, #0]
24057544:	f7ff fcfc 	bl	24056f40 <SAI_InterruptFlag>
24057548:	692b      	ldr	r3, [r5, #16]
2405754a:	ea23 0000 	bic.w	r0, r3, r0
2405754e:	2301      	movs	r3, #1
24057550:	6128      	str	r0, [r5, #16]
24057552:	f884 3091 	strb.w	r3, [r4, #145]	; 0x91
24057556:	4620      	mov	r0, r4
24057558:	f7ff ffe4 	bl	24057524 <HAL_SAI_TxCpltCallback>
2405755c:	bd38      	pop	{r3, r4, r5, pc}

2405755e <HAL_SAI_TxHalfCpltCallback>:
2405755e:	4770      	bx	lr

24057560 <SAI_DMATxHalfCplt>:
24057560:	6b80      	ldr	r0, [r0, #56]	; 0x38
24057562:	b508      	push	{r3, lr}
24057564:	f7ff fffb 	bl	2405755e <HAL_SAI_TxHalfCpltCallback>
24057568:	bd08      	pop	{r3, pc}

2405756a <HAL_SAI_ErrorCallback>:
2405756a:	4770      	bx	lr

2405756c <SAI_DMAError>:
2405756c:	b510      	push	{r4, lr}
2405756e:	6b84      	ldr	r4, [r0, #56]	; 0x38
24057570:	f7fc fd72 	bl	24054058 <HAL_DMA_GetError>
24057574:	2802      	cmp	r0, #2
24057576:	d016      	beq.n	240575a6 <SAI_DMAError+0x3a>
24057578:	f8d4 3094 	ldr.w	r3, [r4, #148]	; 0x94
2405757c:	4620      	mov	r0, r4
2405757e:	6822      	ldr	r2, [r4, #0]
24057580:	f043 0380 	orr.w	r3, r3, #128	; 0x80
24057584:	f8c4 3094 	str.w	r3, [r4, #148]	; 0x94
24057588:	6813      	ldr	r3, [r2, #0]
2405758a:	f423 3300 	bic.w	r3, r3, #131072	; 0x20000
2405758e:	6013      	str	r3, [r2, #0]
24057590:	f7ff fcec 	bl	24056f6c <SAI_Disable>
24057594:	2301      	movs	r3, #1
24057596:	4620      	mov	r0, r4
24057598:	f884 3091 	strb.w	r3, [r4, #145]	; 0x91
2405759c:	2300      	movs	r3, #0
2405759e:	f8a4 307e 	strh.w	r3, [r4, #126]	; 0x7e
240575a2:	f7ff ffe2 	bl	2405756a <HAL_SAI_ErrorCallback>
240575a6:	bd10      	pop	{r4, pc}

240575a8 <HAL_SAI_IRQHandler>:
240575a8:	b570      	push	{r4, r5, r6, lr}
240575aa:	f890 3091 	ldrb.w	r3, [r0, #145]	; 0x91
240575ae:	4604      	mov	r4, r0
240575b0:	2b00      	cmp	r3, #0
240575b2:	d05c      	beq.n	2405766e <HAL_SAI_IRQHandler+0xc6>
240575b4:	6803      	ldr	r3, [r0, #0]
240575b6:	6959      	ldr	r1, [r3, #20]
240575b8:	691a      	ldr	r2, [r3, #16]
240575ba:	070e      	lsls	r6, r1, #28
240575bc:	681d      	ldr	r5, [r3, #0]
240575be:	d506      	bpl.n	240575ce <HAL_SAI_IRQHandler+0x26>
240575c0:	0716      	lsls	r6, r2, #28
240575c2:	d504      	bpl.n	240575ce <HAL_SAI_IRQHandler+0x26>
240575c4:	f8d0 308c 	ldr.w	r3, [r0, #140]	; 0x8c
240575c8:	e8bd 4070 	ldmia.w	sp!, {r4, r5, r6, lr}
240575cc:	4718      	bx	r3
240575ce:	07c8      	lsls	r0, r1, #31
240575d0:	d50f      	bpl.n	240575f2 <HAL_SAI_IRQHandler+0x4a>
240575d2:	f012 0001 	ands.w	r0, r2, #1
240575d6:	d00c      	beq.n	240575f2 <HAL_SAI_IRQHandler+0x4a>
240575d8:	2201      	movs	r2, #1
240575da:	619a      	str	r2, [r3, #24]
240575dc:	f894 3091 	ldrb.w	r3, [r4, #145]	; 0x91
240575e0:	2b22      	cmp	r3, #34	; 0x22
240575e2:	f8d4 3094 	ldr.w	r3, [r4, #148]	; 0x94
240575e6:	bf18      	it	ne
240575e8:	2002      	movne	r0, #2
240575ea:	4303      	orrs	r3, r0
240575ec:	f8c4 3094 	str.w	r3, [r4, #148]	; 0x94
240575f0:	e03a      	b.n	24057668 <HAL_SAI_IRQHandler+0xc0>
240575f2:	078e      	lsls	r6, r1, #30
240575f4:	d509      	bpl.n	2405760a <HAL_SAI_IRQHandler+0x62>
240575f6:	0790      	lsls	r0, r2, #30
240575f8:	d507      	bpl.n	2405760a <HAL_SAI_IRQHandler+0x62>
240575fa:	2202      	movs	r2, #2
240575fc:	619a      	str	r2, [r3, #24]
240575fe:	f8d4 3088 	ldr.w	r3, [r4, #136]	; 0x88
24057602:	b3a3      	cbz	r3, 2405766e <HAL_SAI_IRQHandler+0xc6>
24057604:	e8bd 4070 	ldmia.w	sp!, {r4, r5, r6, lr}
24057608:	4718      	bx	r3
2405760a:	068e      	lsls	r6, r1, #26
2405760c:	d530      	bpl.n	24057670 <HAL_SAI_IRQHandler+0xc8>
2405760e:	0690      	lsls	r0, r2, #26
24057610:	d52e      	bpl.n	24057670 <HAL_SAI_IRQHandler+0xc8>
24057612:	2220      	movs	r2, #32
24057614:	619a      	str	r2, [r3, #24]
24057616:	f8d4 3094 	ldr.w	r3, [r4, #148]	; 0x94
2405761a:	f043 0304 	orr.w	r3, r3, #4
2405761e:	f8c4 3094 	str.w	r3, [r4, #148]	; 0x94
24057622:	03ab      	lsls	r3, r5, #14
24057624:	d51d      	bpl.n	24057662 <HAL_SAI_IRQHandler+0xba>
24057626:	f8d4 0080 	ldr.w	r0, [r4, #128]	; 0x80
2405762a:	b168      	cbz	r0, 24057648 <HAL_SAI_IRQHandler+0xa0>
2405762c:	4b27      	ldr	r3, [pc, #156]	; (240576cc <HAL_SAI_IRQHandler+0x124>)
2405762e:	6503      	str	r3, [r0, #80]	; 0x50
24057630:	f7fc f996 	bl	24053960 <HAL_DMA_Abort_IT>
24057634:	b140      	cbz	r0, 24057648 <HAL_SAI_IRQHandler+0xa0>
24057636:	f8d4 3094 	ldr.w	r3, [r4, #148]	; 0x94
2405763a:	4620      	mov	r0, r4
2405763c:	f043 0380 	orr.w	r3, r3, #128	; 0x80
24057640:	f8c4 3094 	str.w	r3, [r4, #148]	; 0x94
24057644:	f7ff ff91 	bl	2405756a <HAL_SAI_ErrorCallback>
24057648:	f8d4 0084 	ldr.w	r0, [r4, #132]	; 0x84
2405764c:	b178      	cbz	r0, 2405766e <HAL_SAI_IRQHandler+0xc6>
2405764e:	4b1f      	ldr	r3, [pc, #124]	; (240576cc <HAL_SAI_IRQHandler+0x124>)
24057650:	6503      	str	r3, [r0, #80]	; 0x50
24057652:	f7fc f985 	bl	24053960 <HAL_DMA_Abort_IT>
24057656:	b150      	cbz	r0, 2405766e <HAL_SAI_IRQHandler+0xc6>
24057658:	f8d4 3094 	ldr.w	r3, [r4, #148]	; 0x94
2405765c:	f043 0380 	orr.w	r3, r3, #128	; 0x80
24057660:	e7c4      	b.n	240575ec <HAL_SAI_IRQHandler+0x44>
24057662:	4620      	mov	r0, r4
24057664:	f7ff fe91 	bl	2405738a <HAL_SAI_Abort>
24057668:	4620      	mov	r0, r4
2405766a:	f7ff ff7e 	bl	2405756a <HAL_SAI_ErrorCallback>
2405766e:	bd70      	pop	{r4, r5, r6, pc}
24057670:	064e      	lsls	r6, r1, #25
24057672:	d508      	bpl.n	24057686 <HAL_SAI_IRQHandler+0xde>
24057674:	0650      	lsls	r0, r2, #25
24057676:	d506      	bpl.n	24057686 <HAL_SAI_IRQHandler+0xde>
24057678:	2240      	movs	r2, #64	; 0x40
2405767a:	619a      	str	r2, [r3, #24]
2405767c:	f8d4 3094 	ldr.w	r3, [r4, #148]	; 0x94
24057680:	f043 0308 	orr.w	r3, r3, #8
24057684:	e7cb      	b.n	2405761e <HAL_SAI_IRQHandler+0x76>
24057686:	074e      	lsls	r6, r1, #29
24057688:	d516      	bpl.n	240576b8 <HAL_SAI_IRQHandler+0x110>
2405768a:	0750      	lsls	r0, r2, #29
2405768c:	d514      	bpl.n	240576b8 <HAL_SAI_IRQHandler+0x110>
2405768e:	2204      	movs	r2, #4
24057690:	f415 3500 	ands.w	r5, r5, #131072	; 0x20000
24057694:	619a      	str	r2, [r3, #24]
24057696:	f8d4 2094 	ldr.w	r2, [r4, #148]	; 0x94
2405769a:	f042 0220 	orr.w	r2, r2, #32
2405769e:	f8c4 2094 	str.w	r2, [r4, #148]	; 0x94
240576a2:	d1c0      	bne.n	24057626 <HAL_SAI_IRQHandler+0x7e>
240576a4:	f04f 32ff 	mov.w	r2, #4294967295
240576a8:	611d      	str	r5, [r3, #16]
240576aa:	619a      	str	r2, [r3, #24]
240576ac:	2301      	movs	r3, #1
240576ae:	f8a4 507e 	strh.w	r5, [r4, #126]	; 0x7e
240576b2:	f884 3091 	strb.w	r3, [r4, #145]	; 0x91
240576b6:	e7d7      	b.n	24057668 <HAL_SAI_IRQHandler+0xc0>
240576b8:	06c9      	lsls	r1, r1, #27
240576ba:	d5d8      	bpl.n	2405766e <HAL_SAI_IRQHandler+0xc6>
240576bc:	06d2      	lsls	r2, r2, #27
240576be:	d5d6      	bpl.n	2405766e <HAL_SAI_IRQHandler+0xc6>
240576c0:	2210      	movs	r2, #16
240576c2:	619a      	str	r2, [r3, #24]
240576c4:	f8d4 3094 	ldr.w	r3, [r4, #148]	; 0x94
240576c8:	4313      	orrs	r3, r2
240576ca:	e78f      	b.n	240575ec <HAL_SAI_IRQHandler+0x44>
240576cc:	240576d1 	.word	0x240576d1

240576d0 <SAI_DMAAbort>:
240576d0:	b510      	push	{r4, lr}
240576d2:	6b84      	ldr	r4, [r0, #56]	; 0x38
240576d4:	6823      	ldr	r3, [r4, #0]
240576d6:	681a      	ldr	r2, [r3, #0]
240576d8:	f422 3200 	bic.w	r2, r2, #131072	; 0x20000
240576dc:	601a      	str	r2, [r3, #0]
240576de:	2200      	movs	r2, #0
240576e0:	611a      	str	r2, [r3, #16]
240576e2:	f04f 32ff 	mov.w	r2, #4294967295
240576e6:	619a      	str	r2, [r3, #24]
240576e8:	f8d4 3094 	ldr.w	r3, [r4, #148]	; 0x94
240576ec:	2b20      	cmp	r3, #32
240576ee:	d007      	beq.n	24057700 <SAI_DMAAbort+0x30>
240576f0:	4620      	mov	r0, r4
240576f2:	f7ff fc3b 	bl	24056f6c <SAI_Disable>
240576f6:	6822      	ldr	r2, [r4, #0]
240576f8:	6853      	ldr	r3, [r2, #4]
240576fa:	f043 0308 	orr.w	r3, r3, #8
240576fe:	6053      	str	r3, [r2, #4]
24057700:	2301      	movs	r3, #1
24057702:	4620      	mov	r0, r4
24057704:	f884 3091 	strb.w	r3, [r4, #145]	; 0x91
24057708:	2300      	movs	r3, #0
2405770a:	f8a4 307e 	strh.w	r3, [r4, #126]	; 0x7e
2405770e:	f7ff ff2c 	bl	2405756a <HAL_SAI_ErrorCallback>
24057712:	bd10      	pop	{r4, pc}

24057714 <SPI_CloseTransfer>:
24057714:	6803      	ldr	r3, [r0, #0]
24057716:	6959      	ldr	r1, [r3, #20]
24057718:	699a      	ldr	r2, [r3, #24]
2405771a:	f042 0208 	orr.w	r2, r2, #8
2405771e:	619a      	str	r2, [r3, #24]
24057720:	699a      	ldr	r2, [r3, #24]
24057722:	f042 0210 	orr.w	r2, r2, #16
24057726:	619a      	str	r2, [r3, #24]
24057728:	681a      	ldr	r2, [r3, #0]
2405772a:	f022 0201 	bic.w	r2, r2, #1
2405772e:	601a      	str	r2, [r3, #0]
24057730:	691a      	ldr	r2, [r3, #16]
24057732:	f422 725b 	bic.w	r2, r2, #876	; 0x36c
24057736:	f022 0203 	bic.w	r2, r2, #3
2405773a:	611a      	str	r2, [r3, #16]
2405773c:	689a      	ldr	r2, [r3, #8]
2405773e:	f422 4240 	bic.w	r2, r2, #49152	; 0xc000
24057742:	609a      	str	r2, [r3, #8]
24057744:	f890 2081 	ldrb.w	r2, [r0, #129]	; 0x81
24057748:	2a04      	cmp	r2, #4
2405774a:	d00b      	beq.n	24057764 <SPI_CloseTransfer+0x50>
2405774c:	068a      	lsls	r2, r1, #26
2405774e:	d509      	bpl.n	24057764 <SPI_CloseTransfer+0x50>
24057750:	f8d0 2084 	ldr.w	r2, [r0, #132]	; 0x84
24057754:	f042 0280 	orr.w	r2, r2, #128	; 0x80
24057758:	f8c0 2084 	str.w	r2, [r0, #132]	; 0x84
2405775c:	699a      	ldr	r2, [r3, #24]
2405775e:	f042 0220 	orr.w	r2, r2, #32
24057762:	619a      	str	r2, [r3, #24]
24057764:	f890 2081 	ldrb.w	r2, [r0, #129]	; 0x81
24057768:	2a03      	cmp	r2, #3
2405776a:	d00b      	beq.n	24057784 <SPI_CloseTransfer+0x70>
2405776c:	064a      	lsls	r2, r1, #25
2405776e:	d509      	bpl.n	24057784 <SPI_CloseTransfer+0x70>
24057770:	f8d0 2084 	ldr.w	r2, [r0, #132]	; 0x84
24057774:	f042 0204 	orr.w	r2, r2, #4
24057778:	f8c0 2084 	str.w	r2, [r0, #132]	; 0x84
2405777c:	699a      	ldr	r2, [r3, #24]
2405777e:	f042 0240 	orr.w	r2, r2, #64	; 0x40
24057782:	619a      	str	r2, [r3, #24]
24057784:	058a      	lsls	r2, r1, #22
24057786:	d509      	bpl.n	2405779c <SPI_CloseTransfer+0x88>
24057788:	f8d0 2084 	ldr.w	r2, [r0, #132]	; 0x84
2405778c:	f042 0201 	orr.w	r2, r2, #1
24057790:	f8c0 2084 	str.w	r2, [r0, #132]	; 0x84
24057794:	699a      	ldr	r2, [r3, #24]
24057796:	f442 7200 	orr.w	r2, r2, #512	; 0x200
2405779a:	619a      	str	r2, [r3, #24]
2405779c:	05ca      	lsls	r2, r1, #23
2405779e:	d509      	bpl.n	240577b4 <SPI_CloseTransfer+0xa0>
240577a0:	f8d0 2084 	ldr.w	r2, [r0, #132]	; 0x84
240577a4:	f042 0208 	orr.w	r2, r2, #8
240577a8:	f8c0 2084 	str.w	r2, [r0, #132]	; 0x84
240577ac:	699a      	ldr	r2, [r3, #24]
240577ae:	f442 7280 	orr.w	r2, r2, #256	; 0x100
240577b2:	619a      	str	r2, [r3, #24]
240577b4:	2300      	movs	r3, #0
240577b6:	f8a0 3062 	strh.w	r3, [r0, #98]	; 0x62
240577ba:	f8a0 306a 	strh.w	r3, [r0, #106]	; 0x6a
240577be:	4770      	bx	lr

240577c0 <HAL_SPI_Init>:
240577c0:	b5f8      	push	{r3, r4, r5, r6, r7, lr}
240577c2:	4604      	mov	r4, r0
240577c4:	b908      	cbnz	r0, 240577ca <HAL_SPI_Init+0xa>
240577c6:	2001      	movs	r0, #1
240577c8:	bdf8      	pop	{r3, r4, r5, r6, r7, pc}
240577ca:	6802      	ldr	r2, [r0, #0]
240577cc:	2300      	movs	r3, #0
240577ce:	4946      	ldr	r1, [pc, #280]	; (240578e8 <HAL_SPI_Init+0x128>)
240577d0:	6283      	str	r3, [r0, #40]	; 0x28
240577d2:	428a      	cmp	r2, r1
240577d4:	68c3      	ldr	r3, [r0, #12]
240577d6:	d009      	beq.n	240577ec <HAL_SPI_Init+0x2c>
240577d8:	f5a1 4178 	sub.w	r1, r1, #63488	; 0xf800
240577dc:	428a      	cmp	r2, r1
240577de:	d005      	beq.n	240577ec <HAL_SPI_Init+0x2c>
240577e0:	f501 6180 	add.w	r1, r1, #1024	; 0x400
240577e4:	428a      	cmp	r2, r1
240577e6:	d001      	beq.n	240577ec <HAL_SPI_Init+0x2c>
240577e8:	2b0f      	cmp	r3, #15
240577ea:	d8ec      	bhi.n	240577c6 <HAL_SPI_Init+0x6>
240577ec:	6be1      	ldr	r1, [r4, #60]	; 0x3c
240577ee:	3308      	adds	r3, #8
240577f0:	0949      	lsrs	r1, r1, #5
240577f2:	08db      	lsrs	r3, r3, #3
240577f4:	fb01 3303 	mla	r3, r1, r3, r3
240577f8:	493b      	ldr	r1, [pc, #236]	; (240578e8 <HAL_SPI_Init+0x128>)
240577fa:	428a      	cmp	r2, r1
240577fc:	d067      	beq.n	240578ce <HAL_SPI_Init+0x10e>
240577fe:	f5a1 4178 	sub.w	r1, r1, #63488	; 0xf800
24057802:	428a      	cmp	r2, r1
24057804:	d063      	beq.n	240578ce <HAL_SPI_Init+0x10e>
24057806:	f501 6180 	add.w	r1, r1, #1024	; 0x400
2405780a:	428a      	cmp	r2, r1
2405780c:	d05f      	beq.n	240578ce <HAL_SPI_Init+0x10e>
2405780e:	2b08      	cmp	r3, #8
24057810:	d8d9      	bhi.n	240577c6 <HAL_SPI_Init+0x6>
24057812:	f894 3081 	ldrb.w	r3, [r4, #129]	; 0x81
24057816:	f003 02ff 	and.w	r2, r3, #255	; 0xff
2405781a:	b923      	cbnz	r3, 24057826 <HAL_SPI_Init+0x66>
2405781c:	4620      	mov	r0, r4
2405781e:	f884 2080 	strb.w	r2, [r4, #128]	; 0x80
24057822:	f7fa f905 	bl	24051a30 <HAL_SPI_MspInit>
24057826:	6822      	ldr	r2, [r4, #0]
24057828:	2302      	movs	r3, #2
2405782a:	6861      	ldr	r1, [r4, #4]
2405782c:	f884 3081 	strb.w	r3, [r4, #129]	; 0x81
24057830:	6813      	ldr	r3, [r2, #0]
24057832:	6ba5      	ldr	r5, [r4, #56]	; 0x38
24057834:	f023 0301 	bic.w	r3, r3, #1
24057838:	6013      	str	r3, [r2, #0]
2405783a:	69a3      	ldr	r3, [r4, #24]
2405783c:	6896      	ldr	r6, [r2, #8]
2405783e:	f1b3 6f80 	cmp.w	r3, #67108864	; 0x4000000
24057842:	f406 16f8 	and.w	r6, r6, #2031616	; 0x1f0000
24057846:	d104      	bne.n	24057852 <HAL_SPI_Init+0x92>
24057848:	f5b1 0f80 	cmp.w	r1, #4194304	; 0x400000
2405784c:	d141      	bne.n	240578d2 <HAL_SPI_Init+0x112>
2405784e:	2d00      	cmp	r5, #0
24057850:	d044      	beq.n	240578dc <HAL_SPI_Init+0x11c>
24057852:	6aa7      	ldr	r7, [r4, #40]	; 0x28
24057854:	430b      	orrs	r3, r1
24057856:	69e0      	ldr	r0, [r4, #28]
24057858:	432b      	orrs	r3, r5
2405785a:	4338      	orrs	r0, r7
2405785c:	6be7      	ldr	r7, [r4, #60]	; 0x3c
2405785e:	4338      	orrs	r0, r7
24057860:	68e7      	ldr	r7, [r4, #12]
24057862:	4338      	orrs	r0, r7
24057864:	4330      	orrs	r0, r6
24057866:	6090      	str	r0, [r2, #8]
24057868:	6b60      	ldr	r0, [r4, #52]	; 0x34
2405786a:	4303      	orrs	r3, r0
2405786c:	6a60      	ldr	r0, [r4, #36]	; 0x24
2405786e:	4303      	orrs	r3, r0
24057870:	6920      	ldr	r0, [r4, #16]
24057872:	4303      	orrs	r3, r0
24057874:	6960      	ldr	r0, [r4, #20]
24057876:	4303      	orrs	r3, r0
24057878:	6a20      	ldr	r0, [r4, #32]
2405787a:	4303      	orrs	r3, r0
2405787c:	6ce0      	ldr	r0, [r4, #76]	; 0x4c
2405787e:	4303      	orrs	r3, r0
24057880:	68a0      	ldr	r0, [r4, #8]
24057882:	4303      	orrs	r3, r0
24057884:	6ca0      	ldr	r0, [r4, #72]	; 0x48
24057886:	4303      	orrs	r3, r0
24057888:	6da0      	ldr	r0, [r4, #88]	; 0x58
2405788a:	4303      	orrs	r3, r0
2405788c:	60d3      	str	r3, [r2, #12]
2405788e:	b959      	cbnz	r1, 240578a8 <HAL_SPI_Init+0xe8>
24057890:	6893      	ldr	r3, [r2, #8]
24057892:	f423 53c0 	bic.w	r3, r3, #6144	; 0x1800
24057896:	f443 6300 	orr.w	r3, r3, #2048	; 0x800
2405789a:	6093      	str	r3, [r2, #8]
2405789c:	6893      	ldr	r3, [r2, #8]
2405789e:	f423 63c0 	bic.w	r3, r3, #1536	; 0x600
240578a2:	f443 6380 	orr.w	r3, r3, #1024	; 0x400
240578a6:	6093      	str	r3, [r2, #8]
240578a8:	6d13      	ldr	r3, [r2, #80]	; 0x50
240578aa:	f023 0301 	bic.w	r3, r3, #1
240578ae:	6513      	str	r3, [r2, #80]	; 0x50
240578b0:	024b      	lsls	r3, r1, #9
240578b2:	d505      	bpl.n	240578c0 <HAL_SPI_Init+0x100>
240578b4:	68d3      	ldr	r3, [r2, #12]
240578b6:	6d61      	ldr	r1, [r4, #84]	; 0x54
240578b8:	f023 4300 	bic.w	r3, r3, #2147483648	; 0x80000000
240578bc:	430b      	orrs	r3, r1
240578be:	60d3      	str	r3, [r2, #12]
240578c0:	2000      	movs	r0, #0
240578c2:	2301      	movs	r3, #1
240578c4:	f8c4 0084 	str.w	r0, [r4, #132]	; 0x84
240578c8:	f884 3081 	strb.w	r3, [r4, #129]	; 0x81
240578cc:	e77c      	b.n	240577c8 <HAL_SPI_Init+0x8>
240578ce:	2b10      	cmp	r3, #16
240578d0:	e79e      	b.n	24057810 <HAL_SPI_Init+0x50>
240578d2:	2900      	cmp	r1, #0
240578d4:	d1bd      	bne.n	24057852 <HAL_SPI_Init+0x92>
240578d6:	f1b5 5f80 	cmp.w	r5, #268435456	; 0x10000000
240578da:	d1ba      	bne.n	24057852 <HAL_SPI_Init+0x92>
240578dc:	6810      	ldr	r0, [r2, #0]
240578de:	f440 5080 	orr.w	r0, r0, #4096	; 0x1000
240578e2:	6010      	str	r0, [r2, #0]
240578e4:	e7b5      	b.n	24057852 <HAL_SPI_Init+0x92>
240578e6:	bf00      	nop
240578e8:	40013000 	.word	0x40013000

240578ec <HAL_SPI_Transmit>:
240578ec:	e92d 43f8 	stmdb	sp!, {r3, r4, r5, r6, r7, r8, r9, lr}
240578f0:	461d      	mov	r5, r3
240578f2:	f890 3080 	ldrb.w	r3, [r0, #128]	; 0x80
240578f6:	4604      	mov	r4, r0
240578f8:	4689      	mov	r9, r1
240578fa:	2b01      	cmp	r3, #1
240578fc:	4690      	mov	r8, r2
240578fe:	d00f      	beq.n	24057920 <HAL_SPI_Transmit+0x34>
24057900:	2301      	movs	r3, #1
24057902:	6807      	ldr	r7, [r0, #0]
24057904:	f880 3080 	strb.w	r3, [r0, #128]	; 0x80
24057908:	f7fa fa9a 	bl	24051e40 <HAL_GetTick>
2405790c:	f894 3081 	ldrb.w	r3, [r4, #129]	; 0x81
24057910:	4606      	mov	r6, r0
24057912:	2b01      	cmp	r3, #1
24057914:	b2d8      	uxtb	r0, r3
24057916:	f04f 0300 	mov.w	r3, #0
2405791a:	d003      	beq.n	24057924 <HAL_SPI_Transmit+0x38>
2405791c:	f884 3080 	strb.w	r3, [r4, #128]	; 0x80
24057920:	2002      	movs	r0, #2
24057922:	e007      	b.n	24057934 <HAL_SPI_Transmit+0x48>
24057924:	f1b9 0f00 	cmp.w	r9, #0
24057928:	d002      	beq.n	24057930 <HAL_SPI_Transmit+0x44>
2405792a:	f1b8 0f00 	cmp.w	r8, #0
2405792e:	d103      	bne.n	24057938 <HAL_SPI_Transmit+0x4c>
24057930:	f884 3080 	strb.w	r3, [r4, #128]	; 0x80
24057934:	e8bd 83f8 	ldmia.w	sp!, {r3, r4, r5, r6, r7, r8, r9, pc}
24057938:	2203      	movs	r2, #3
2405793a:	6663      	str	r3, [r4, #100]	; 0x64
2405793c:	f8a4 3068 	strh.w	r3, [r4, #104]	; 0x68
24057940:	f884 2081 	strb.w	r2, [r4, #129]	; 0x81
24057944:	68a2      	ldr	r2, [r4, #8]
24057946:	f8c4 3084 	str.w	r3, [r4, #132]	; 0x84
2405794a:	f5b2 2fc0 	cmp.w	r2, #393216	; 0x60000
2405794e:	f8a4 8062 	strh.w	r8, [r4, #98]	; 0x62
24057952:	f8c4 905c 	str.w	r9, [r4, #92]	; 0x5c
24057956:	f8a4 306a 	strh.w	r3, [r4, #106]	; 0x6a
2405795a:	f8a4 8060 	strh.w	r8, [r4, #96]	; 0x60
2405795e:	e9c4 331c 	strd	r3, r3, [r4, #112]	; 0x70
24057962:	6823      	ldr	r3, [r4, #0]
24057964:	d103      	bne.n	2405796e <HAL_SPI_Transmit+0x82>
24057966:	681a      	ldr	r2, [r3, #0]
24057968:	f442 6200 	orr.w	r2, r2, #2048	; 0x800
2405796c:	601a      	str	r2, [r3, #0]
2405796e:	6859      	ldr	r1, [r3, #4]
24057970:	0c09      	lsrs	r1, r1, #16
24057972:	0409      	lsls	r1, r1, #16
24057974:	ea41 0108 	orr.w	r1, r1, r8
24057978:	6059      	str	r1, [r3, #4]
2405797a:	681a      	ldr	r2, [r3, #0]
2405797c:	f042 0201 	orr.w	r2, r2, #1
24057980:	601a      	str	r2, [r3, #0]
24057982:	6862      	ldr	r2, [r4, #4]
24057984:	f5b2 0f80 	cmp.w	r2, #4194304	; 0x400000
24057988:	d103      	bne.n	24057992 <HAL_SPI_Transmit+0xa6>
2405798a:	681a      	ldr	r2, [r3, #0]
2405798c:	f442 7200 	orr.w	r2, r2, #512	; 0x200
24057990:	601a      	str	r2, [r3, #0]
24057992:	68e3      	ldr	r3, [r4, #12]
24057994:	2b0f      	cmp	r3, #15
24057996:	d82e      	bhi.n	240579f6 <HAL_SPI_Transmit+0x10a>
24057998:	2b07      	cmp	r3, #7
2405799a:	d872      	bhi.n	24057a82 <HAL_SPI_Transmit+0x196>
2405799c:	f8b4 3062 	ldrh.w	r3, [r4, #98]	; 0x62
240579a0:	6821      	ldr	r1, [r4, #0]
240579a2:	b29b      	uxth	r3, r3
240579a4:	b36b      	cbz	r3, 24057a02 <HAL_SPI_Transmit+0x116>
240579a6:	694b      	ldr	r3, [r1, #20]
240579a8:	f013 0802 	ands.w	r8, r3, #2
240579ac:	f000 809e 	beq.w	24057aec <HAL_SPI_Transmit+0x200>
240579b0:	f8b4 3062 	ldrh.w	r3, [r4, #98]	; 0x62
240579b4:	6de2      	ldr	r2, [r4, #92]	; 0x5c
240579b6:	b29b      	uxth	r3, r3
240579b8:	2b03      	cmp	r3, #3
240579ba:	d97e      	bls.n	24057aba <HAL_SPI_Transmit+0x1ce>
240579bc:	6be3      	ldr	r3, [r4, #60]	; 0x3c
240579be:	2b40      	cmp	r3, #64	; 0x40
240579c0:	d97b      	bls.n	24057aba <HAL_SPI_Transmit+0x1ce>
240579c2:	f852 3b04 	ldr.w	r3, [r2], #4
240579c6:	620b      	str	r3, [r1, #32]
240579c8:	f8b4 3062 	ldrh.w	r3, [r4, #98]	; 0x62
240579cc:	65e2      	str	r2, [r4, #92]	; 0x5c
240579ce:	3b04      	subs	r3, #4
240579d0:	b29b      	uxth	r3, r3
240579d2:	f8a4 3062 	strh.w	r3, [r4, #98]	; 0x62
240579d6:	e7e1      	b.n	2405799c <HAL_SPI_Transmit+0xb0>
240579d8:	6957      	ldr	r7, [r2, #20]
240579da:	f017 0702 	ands.w	r7, r7, #2
240579de:	d023      	beq.n	24057a28 <HAL_SPI_Transmit+0x13c>
240579e0:	6de3      	ldr	r3, [r4, #92]	; 0x5c
240579e2:	f853 1b04 	ldr.w	r1, [r3], #4
240579e6:	6211      	str	r1, [r2, #32]
240579e8:	65e3      	str	r3, [r4, #92]	; 0x5c
240579ea:	f8b4 3062 	ldrh.w	r3, [r4, #98]	; 0x62
240579ee:	3b01      	subs	r3, #1
240579f0:	b29b      	uxth	r3, r3
240579f2:	f8a4 3062 	strh.w	r3, [r4, #98]	; 0x62
240579f6:	f8b4 3062 	ldrh.w	r3, [r4, #98]	; 0x62
240579fa:	6822      	ldr	r2, [r4, #0]
240579fc:	b29b      	uxth	r3, r3
240579fe:	2b00      	cmp	r3, #0
24057a00:	d1ea      	bne.n	240579d8 <HAL_SPI_Transmit+0xec>
24057a02:	6823      	ldr	r3, [r4, #0]
24057a04:	695b      	ldr	r3, [r3, #20]
24057a06:	071b      	lsls	r3, r3, #28
24057a08:	d57a      	bpl.n	24057b00 <HAL_SPI_Transmit+0x214>
24057a0a:	4620      	mov	r0, r4
24057a0c:	f7ff fe82 	bl	24057714 <SPI_CloseTransfer>
24057a10:	2300      	movs	r3, #0
24057a12:	f884 3080 	strb.w	r3, [r4, #128]	; 0x80
24057a16:	2301      	movs	r3, #1
24057a18:	f884 3081 	strb.w	r3, [r4, #129]	; 0x81
24057a1c:	f8d4 0084 	ldr.w	r0, [r4, #132]	; 0x84
24057a20:	3800      	subs	r0, #0
24057a22:	bf18      	it	ne
24057a24:	2001      	movne	r0, #1
24057a26:	e785      	b.n	24057934 <HAL_SPI_Transmit+0x48>
24057a28:	f7fa fa0a 	bl	24051e40 <HAL_GetTick>
24057a2c:	1b80      	subs	r0, r0, r6
24057a2e:	42a8      	cmp	r0, r5
24057a30:	d3e1      	bcc.n	240579f6 <HAL_SPI_Transmit+0x10a>
24057a32:	1c6b      	adds	r3, r5, #1
24057a34:	d0df      	beq.n	240579f6 <HAL_SPI_Transmit+0x10a>
24057a36:	4620      	mov	r0, r4
24057a38:	f7ff fe6c 	bl	24057714 <SPI_CloseTransfer>
24057a3c:	f884 7080 	strb.w	r7, [r4, #128]	; 0x80
24057a40:	f8d4 3084 	ldr.w	r3, [r4, #132]	; 0x84
24057a44:	2003      	movs	r0, #3
24057a46:	f443 7380 	orr.w	r3, r3, #256	; 0x100
24057a4a:	f8c4 3084 	str.w	r3, [r4, #132]	; 0x84
24057a4e:	2301      	movs	r3, #1
24057a50:	f884 3081 	strb.w	r3, [r4, #129]	; 0x81
24057a54:	e76e      	b.n	24057934 <HAL_SPI_Transmit+0x48>
24057a56:	694b      	ldr	r3, [r1, #20]
24057a58:	f013 0802 	ands.w	r8, r3, #2
24057a5c:	d020      	beq.n	24057aa0 <HAL_SPI_Transmit+0x1b4>
24057a5e:	f8b4 2062 	ldrh.w	r2, [r4, #98]	; 0x62
24057a62:	6de3      	ldr	r3, [r4, #92]	; 0x5c
24057a64:	b292      	uxth	r2, r2
24057a66:	2a01      	cmp	r2, #1
24057a68:	d912      	bls.n	24057a90 <HAL_SPI_Transmit+0x1a4>
24057a6a:	6be2      	ldr	r2, [r4, #60]	; 0x3c
24057a6c:	b182      	cbz	r2, 24057a90 <HAL_SPI_Transmit+0x1a4>
24057a6e:	f853 2b04 	ldr.w	r2, [r3], #4
24057a72:	620a      	str	r2, [r1, #32]
24057a74:	65e3      	str	r3, [r4, #92]	; 0x5c
24057a76:	f8b4 3062 	ldrh.w	r3, [r4, #98]	; 0x62
24057a7a:	3b02      	subs	r3, #2
24057a7c:	b29b      	uxth	r3, r3
24057a7e:	f8a4 3062 	strh.w	r3, [r4, #98]	; 0x62
24057a82:	f8b4 3062 	ldrh.w	r3, [r4, #98]	; 0x62
24057a86:	6821      	ldr	r1, [r4, #0]
24057a88:	b29b      	uxth	r3, r3
24057a8a:	2b00      	cmp	r3, #0
24057a8c:	d1e3      	bne.n	24057a56 <HAL_SPI_Transmit+0x16a>
24057a8e:	e7b8      	b.n	24057a02 <HAL_SPI_Transmit+0x116>
24057a90:	f833 2b02 	ldrh.w	r2, [r3], #2
24057a94:	843a      	strh	r2, [r7, #32]
24057a96:	65e3      	str	r3, [r4, #92]	; 0x5c
24057a98:	f8b4 3062 	ldrh.w	r3, [r4, #98]	; 0x62
24057a9c:	3b01      	subs	r3, #1
24057a9e:	e7ed      	b.n	24057a7c <HAL_SPI_Transmit+0x190>
24057aa0:	f7fa f9ce 	bl	24051e40 <HAL_GetTick>
24057aa4:	1b80      	subs	r0, r0, r6
24057aa6:	42a8      	cmp	r0, r5
24057aa8:	d3eb      	bcc.n	24057a82 <HAL_SPI_Transmit+0x196>
24057aaa:	1c68      	adds	r0, r5, #1
24057aac:	d0e9      	beq.n	24057a82 <HAL_SPI_Transmit+0x196>
24057aae:	4620      	mov	r0, r4
24057ab0:	f7ff fe30 	bl	24057714 <SPI_CloseTransfer>
24057ab4:	f884 8080 	strb.w	r8, [r4, #128]	; 0x80
24057ab8:	e7c2      	b.n	24057a40 <HAL_SPI_Transmit+0x154>
24057aba:	f8b4 3062 	ldrh.w	r3, [r4, #98]	; 0x62
24057abe:	b29b      	uxth	r3, r3
24057ac0:	2b01      	cmp	r3, #1
24057ac2:	d909      	bls.n	24057ad8 <HAL_SPI_Transmit+0x1ec>
24057ac4:	6be3      	ldr	r3, [r4, #60]	; 0x3c
24057ac6:	b13b      	cbz	r3, 24057ad8 <HAL_SPI_Transmit+0x1ec>
24057ac8:	f832 3b02 	ldrh.w	r3, [r2], #2
24057acc:	843b      	strh	r3, [r7, #32]
24057ace:	f8b4 3062 	ldrh.w	r3, [r4, #98]	; 0x62
24057ad2:	65e2      	str	r2, [r4, #92]	; 0x5c
24057ad4:	3b02      	subs	r3, #2
24057ad6:	e77b      	b.n	240579d0 <HAL_SPI_Transmit+0xe4>
24057ad8:	7813      	ldrb	r3, [r2, #0]
24057ada:	f881 3020 	strb.w	r3, [r1, #32]
24057ade:	6de3      	ldr	r3, [r4, #92]	; 0x5c
24057ae0:	3301      	adds	r3, #1
24057ae2:	65e3      	str	r3, [r4, #92]	; 0x5c
24057ae4:	f8b4 3062 	ldrh.w	r3, [r4, #98]	; 0x62
24057ae8:	3b01      	subs	r3, #1
24057aea:	e771      	b.n	240579d0 <HAL_SPI_Transmit+0xe4>
24057aec:	f7fa f9a8 	bl	24051e40 <HAL_GetTick>
24057af0:	1b80      	subs	r0, r0, r6
24057af2:	42a8      	cmp	r0, r5
24057af4:	f4ff af52 	bcc.w	2405799c <HAL_SPI_Transmit+0xb0>
24057af8:	1c69      	adds	r1, r5, #1
24057afa:	f43f af4f 	beq.w	2405799c <HAL_SPI_Transmit+0xb0>
24057afe:	e7d6      	b.n	24057aae <HAL_SPI_Transmit+0x1c2>
24057b00:	f7fa f99e 	bl	24051e40 <HAL_GetTick>
24057b04:	1b80      	subs	r0, r0, r6
24057b06:	4285      	cmp	r5, r0
24057b08:	f63f af7b 	bhi.w	24057a02 <HAL_SPI_Transmit+0x116>
24057b0c:	1c6a      	adds	r2, r5, #1
24057b0e:	f43f af78 	beq.w	24057a02 <HAL_SPI_Transmit+0x116>
24057b12:	f8d4 3084 	ldr.w	r3, [r4, #132]	; 0x84
24057b16:	f043 0320 	orr.w	r3, r3, #32
24057b1a:	f8c4 3084 	str.w	r3, [r4, #132]	; 0x84
24057b1e:	e774      	b.n	24057a0a <HAL_SPI_Transmit+0x11e>

24057b20 <__errno>:
24057b20:	4b01      	ldr	r3, [pc, #4]	; (24057b28 <__errno+0x8>)
24057b22:	6818      	ldr	r0, [r3, #0]
24057b24:	4770      	bx	lr
24057b26:	bf00      	nop
24057b28:	20000040 	.word	0x20000040

24057b2c <__libc_init_array>:
24057b2c:	b570      	push	{r4, r5, r6, lr}
24057b2e:	4d0d      	ldr	r5, [pc, #52]	; (24057b64 <__libc_init_array+0x38>)
24057b30:	4c0d      	ldr	r4, [pc, #52]	; (24057b68 <__libc_init_array+0x3c>)
24057b32:	1b64      	subs	r4, r4, r5
24057b34:	10a4      	asrs	r4, r4, #2
24057b36:	2600      	movs	r6, #0
24057b38:	42a6      	cmp	r6, r4
24057b3a:	d109      	bne.n	24057b50 <__libc_init_array+0x24>
24057b3c:	4d0b      	ldr	r5, [pc, #44]	; (24057b6c <__libc_init_array+0x40>)
24057b3e:	4c0c      	ldr	r4, [pc, #48]	; (24057b70 <__libc_init_array+0x44>)
24057b40:	f001 fa2a 	bl	24058f98 <_init>
24057b44:	1b64      	subs	r4, r4, r5
24057b46:	10a4      	asrs	r4, r4, #2
24057b48:	2600      	movs	r6, #0
24057b4a:	42a6      	cmp	r6, r4
24057b4c:	d105      	bne.n	24057b5a <__libc_init_array+0x2e>
24057b4e:	bd70      	pop	{r4, r5, r6, pc}
24057b50:	f855 3b04 	ldr.w	r3, [r5], #4
24057b54:	4798      	blx	r3
24057b56:	3601      	adds	r6, #1
24057b58:	e7ee      	b.n	24057b38 <__libc_init_array+0xc>
24057b5a:	f855 3b04 	ldr.w	r3, [r5], #4
24057b5e:	4798      	blx	r3
24057b60:	3601      	adds	r6, #1
24057b62:	e7f2      	b.n	24057b4a <__libc_init_array+0x1e>
24057b64:	2405a190 	.word	0x2405a190
24057b68:	2405a190 	.word	0x2405a190
24057b6c:	2405a190 	.word	0x2405a190
24057b70:	2405a194 	.word	0x2405a194

24057b74 <memcpy>:
24057b74:	440a      	add	r2, r1
24057b76:	4291      	cmp	r1, r2
24057b78:	f100 33ff 	add.w	r3, r0, #4294967295
24057b7c:	d100      	bne.n	24057b80 <memcpy+0xc>
24057b7e:	4770      	bx	lr
24057b80:	b510      	push	{r4, lr}
24057b82:	f811 4b01 	ldrb.w	r4, [r1], #1
24057b86:	f803 4f01 	strb.w	r4, [r3, #1]!
24057b8a:	4291      	cmp	r1, r2
24057b8c:	d1f9      	bne.n	24057b82 <memcpy+0xe>
24057b8e:	bd10      	pop	{r4, pc}

24057b90 <memset>:
24057b90:	4402      	add	r2, r0
24057b92:	4603      	mov	r3, r0
24057b94:	4293      	cmp	r3, r2
24057b96:	d100      	bne.n	24057b9a <memset+0xa>
24057b98:	4770      	bx	lr
24057b9a:	f803 1b01 	strb.w	r1, [r3], #1
24057b9e:	e7f9      	b.n	24057b94 <memset+0x4>

24057ba0 <srand>:
24057ba0:	b538      	push	{r3, r4, r5, lr}
24057ba2:	4b10      	ldr	r3, [pc, #64]	; (24057be4 <srand+0x44>)
24057ba4:	681d      	ldr	r5, [r3, #0]
24057ba6:	6bab      	ldr	r3, [r5, #56]	; 0x38
24057ba8:	4604      	mov	r4, r0
24057baa:	b9b3      	cbnz	r3, 24057bda <srand+0x3a>
24057bac:	2018      	movs	r0, #24
24057bae:	f000 f8bd 	bl	24057d2c <malloc>
24057bb2:	4602      	mov	r2, r0
24057bb4:	63a8      	str	r0, [r5, #56]	; 0x38
24057bb6:	b920      	cbnz	r0, 24057bc2 <srand+0x22>
24057bb8:	4b0b      	ldr	r3, [pc, #44]	; (24057be8 <srand+0x48>)
24057bba:	480c      	ldr	r0, [pc, #48]	; (24057bec <srand+0x4c>)
24057bbc:	2142      	movs	r1, #66	; 0x42
24057bbe:	f000 f885 	bl	24057ccc <__assert_func>
24057bc2:	490b      	ldr	r1, [pc, #44]	; (24057bf0 <srand+0x50>)
24057bc4:	4b0b      	ldr	r3, [pc, #44]	; (24057bf4 <srand+0x54>)
24057bc6:	e9c0 1300 	strd	r1, r3, [r0]
24057bca:	4b0b      	ldr	r3, [pc, #44]	; (24057bf8 <srand+0x58>)
24057bcc:	6083      	str	r3, [r0, #8]
24057bce:	230b      	movs	r3, #11
24057bd0:	8183      	strh	r3, [r0, #12]
24057bd2:	2100      	movs	r1, #0
24057bd4:	2001      	movs	r0, #1
24057bd6:	e9c2 0104 	strd	r0, r1, [r2, #16]
24057bda:	6bab      	ldr	r3, [r5, #56]	; 0x38
24057bdc:	2200      	movs	r2, #0
24057bde:	611c      	str	r4, [r3, #16]
24057be0:	615a      	str	r2, [r3, #20]
24057be2:	bd38      	pop	{r3, r4, r5, pc}
24057be4:	20000040 	.word	0x20000040
24057be8:	2405a048 	.word	0x2405a048
24057bec:	2405a05f 	.word	0x2405a05f
24057bf0:	abcd330e 	.word	0xabcd330e
24057bf4:	e66d1234 	.word	0xe66d1234
24057bf8:	0005deec 	.word	0x0005deec

24057bfc <rand>:
24057bfc:	4b17      	ldr	r3, [pc, #92]	; (24057c5c <rand+0x60>)
24057bfe:	b510      	push	{r4, lr}
24057c00:	681c      	ldr	r4, [r3, #0]
24057c02:	6ba3      	ldr	r3, [r4, #56]	; 0x38
24057c04:	b9b3      	cbnz	r3, 24057c34 <rand+0x38>
24057c06:	2018      	movs	r0, #24
24057c08:	f000 f890 	bl	24057d2c <malloc>
24057c0c:	63a0      	str	r0, [r4, #56]	; 0x38
24057c0e:	b928      	cbnz	r0, 24057c1c <rand+0x20>
24057c10:	4602      	mov	r2, r0
24057c12:	4b13      	ldr	r3, [pc, #76]	; (24057c60 <rand+0x64>)
24057c14:	4813      	ldr	r0, [pc, #76]	; (24057c64 <rand+0x68>)
24057c16:	214e      	movs	r1, #78	; 0x4e
24057c18:	f000 f858 	bl	24057ccc <__assert_func>
24057c1c:	4a12      	ldr	r2, [pc, #72]	; (24057c68 <rand+0x6c>)
24057c1e:	4b13      	ldr	r3, [pc, #76]	; (24057c6c <rand+0x70>)
24057c20:	e9c0 2300 	strd	r2, r3, [r0]
24057c24:	4b12      	ldr	r3, [pc, #72]	; (24057c70 <rand+0x74>)
24057c26:	6083      	str	r3, [r0, #8]
24057c28:	230b      	movs	r3, #11
24057c2a:	8183      	strh	r3, [r0, #12]
24057c2c:	2201      	movs	r2, #1
24057c2e:	2300      	movs	r3, #0
24057c30:	e9c0 2304 	strd	r2, r3, [r0, #16]
24057c34:	6ba1      	ldr	r1, [r4, #56]	; 0x38
24057c36:	480f      	ldr	r0, [pc, #60]	; (24057c74 <rand+0x78>)
24057c38:	690a      	ldr	r2, [r1, #16]
24057c3a:	694b      	ldr	r3, [r1, #20]
24057c3c:	4c0e      	ldr	r4, [pc, #56]	; (24057c78 <rand+0x7c>)
24057c3e:	4350      	muls	r0, r2
24057c40:	fb04 0003 	mla	r0, r4, r3, r0
24057c44:	fba2 3404 	umull	r3, r4, r2, r4
24057c48:	1c5a      	adds	r2, r3, #1
24057c4a:	4404      	add	r4, r0
24057c4c:	f144 0000 	adc.w	r0, r4, #0
24057c50:	e9c1 2004 	strd	r2, r0, [r1, #16]
24057c54:	f020 4000 	bic.w	r0, r0, #2147483648	; 0x80000000
24057c58:	bd10      	pop	{r4, pc}
24057c5a:	bf00      	nop
24057c5c:	20000040 	.word	0x20000040
24057c60:	2405a048 	.word	0x2405a048
24057c64:	2405a05f 	.word	0x2405a05f
24057c68:	abcd330e 	.word	0xabcd330e
24057c6c:	e66d1234 	.word	0xe66d1234
24057c70:	0005deec 	.word	0x0005deec
24057c74:	5851f42d 	.word	0x5851f42d
24057c78:	4c957f2d 	.word	0x4c957f2d

24057c7c <siprintf>:
24057c7c:	b40e      	push	{r1, r2, r3}
24057c7e:	b500      	push	{lr}
24057c80:	b09c      	sub	sp, #112	; 0x70
24057c82:	ab1d      	add	r3, sp, #116	; 0x74
24057c84:	9002      	str	r0, [sp, #8]
24057c86:	9006      	str	r0, [sp, #24]
24057c88:	f06f 4100 	mvn.w	r1, #2147483648	; 0x80000000
24057c8c:	4809      	ldr	r0, [pc, #36]	; (24057cb4 <siprintf+0x38>)
24057c8e:	9107      	str	r1, [sp, #28]
24057c90:	9104      	str	r1, [sp, #16]
24057c92:	4909      	ldr	r1, [pc, #36]	; (24057cb8 <siprintf+0x3c>)
24057c94:	f853 2b04 	ldr.w	r2, [r3], #4
24057c98:	9105      	str	r1, [sp, #20]
24057c9a:	6800      	ldr	r0, [r0, #0]
24057c9c:	9301      	str	r3, [sp, #4]
24057c9e:	a902      	add	r1, sp, #8
24057ca0:	f000 f952 	bl	24057f48 <_svfiprintf_r>
24057ca4:	9b02      	ldr	r3, [sp, #8]
24057ca6:	2200      	movs	r2, #0
24057ca8:	701a      	strb	r2, [r3, #0]
24057caa:	b01c      	add	sp, #112	; 0x70
24057cac:	f85d eb04 	ldr.w	lr, [sp], #4
24057cb0:	b003      	add	sp, #12
24057cb2:	4770      	bx	lr
24057cb4:	20000040 	.word	0x20000040
24057cb8:	ffff0208 	.word	0xffff0208

24057cbc <strcpy>:
24057cbc:	4603      	mov	r3, r0
24057cbe:	f811 2b01 	ldrb.w	r2, [r1], #1
24057cc2:	f803 2b01 	strb.w	r2, [r3], #1
24057cc6:	2a00      	cmp	r2, #0
24057cc8:	d1f9      	bne.n	24057cbe <strcpy+0x2>
24057cca:	4770      	bx	lr

24057ccc <__assert_func>:
24057ccc:	b51f      	push	{r0, r1, r2, r3, r4, lr}
24057cce:	4614      	mov	r4, r2
24057cd0:	461a      	mov	r2, r3
24057cd2:	4b09      	ldr	r3, [pc, #36]	; (24057cf8 <__assert_func+0x2c>)
24057cd4:	681b      	ldr	r3, [r3, #0]
24057cd6:	4605      	mov	r5, r0
24057cd8:	68d8      	ldr	r0, [r3, #12]
24057cda:	b14c      	cbz	r4, 24057cf0 <__assert_func+0x24>
24057cdc:	4b07      	ldr	r3, [pc, #28]	; (24057cfc <__assert_func+0x30>)
24057cde:	9100      	str	r1, [sp, #0]
24057ce0:	e9cd 3401 	strd	r3, r4, [sp, #4]
24057ce4:	4906      	ldr	r1, [pc, #24]	; (24057d00 <__assert_func+0x34>)
24057ce6:	462b      	mov	r3, r5
24057ce8:	f000 f80e 	bl	24057d08 <fiprintf>
24057cec:	f000 fdea 	bl	240588c4 <abort>
24057cf0:	4b04      	ldr	r3, [pc, #16]	; (24057d04 <__assert_func+0x38>)
24057cf2:	461c      	mov	r4, r3
24057cf4:	e7f3      	b.n	24057cde <__assert_func+0x12>
24057cf6:	bf00      	nop
24057cf8:	20000040 	.word	0x20000040
24057cfc:	2405a0be 	.word	0x2405a0be
24057d00:	2405a0cb 	.word	0x2405a0cb
24057d04:	2405a0f9 	.word	0x2405a0f9

24057d08 <fiprintf>:
24057d08:	b40e      	push	{r1, r2, r3}
24057d0a:	b503      	push	{r0, r1, lr}
24057d0c:	4601      	mov	r1, r0
24057d0e:	ab03      	add	r3, sp, #12
24057d10:	4805      	ldr	r0, [pc, #20]	; (24057d28 <fiprintf+0x20>)
24057d12:	f853 2b04 	ldr.w	r2, [r3], #4
24057d16:	6800      	ldr	r0, [r0, #0]
24057d18:	9301      	str	r3, [sp, #4]
24057d1a:	f000 fa3f 	bl	2405819c <_vfiprintf_r>
24057d1e:	b002      	add	sp, #8
24057d20:	f85d eb04 	ldr.w	lr, [sp], #4
24057d24:	b003      	add	sp, #12
24057d26:	4770      	bx	lr
24057d28:	20000040 	.word	0x20000040

24057d2c <malloc>:
24057d2c:	4b02      	ldr	r3, [pc, #8]	; (24057d38 <malloc+0xc>)
24057d2e:	4601      	mov	r1, r0
24057d30:	6818      	ldr	r0, [r3, #0]
24057d32:	f000 b853 	b.w	24057ddc <_malloc_r>
24057d36:	bf00      	nop
24057d38:	20000040 	.word	0x20000040

24057d3c <_free_r>:
24057d3c:	b537      	push	{r0, r1, r2, r4, r5, lr}
24057d3e:	2900      	cmp	r1, #0
24057d40:	d048      	beq.n	24057dd4 <_free_r+0x98>
24057d42:	f851 3c04 	ldr.w	r3, [r1, #-4]
24057d46:	9001      	str	r0, [sp, #4]
24057d48:	2b00      	cmp	r3, #0
24057d4a:	f1a1 0404 	sub.w	r4, r1, #4
24057d4e:	bfb8      	it	lt
24057d50:	18e4      	addlt	r4, r4, r3
24057d52:	f000 fff7 	bl	24058d44 <__malloc_lock>
24057d56:	4a20      	ldr	r2, [pc, #128]	; (24057dd8 <_free_r+0x9c>)
24057d58:	9801      	ldr	r0, [sp, #4]
24057d5a:	6813      	ldr	r3, [r2, #0]
24057d5c:	4615      	mov	r5, r2
24057d5e:	b933      	cbnz	r3, 24057d6e <_free_r+0x32>
24057d60:	6063      	str	r3, [r4, #4]
24057d62:	6014      	str	r4, [r2, #0]
24057d64:	b003      	add	sp, #12
24057d66:	e8bd 4030 	ldmia.w	sp!, {r4, r5, lr}
24057d6a:	f000 bff1 	b.w	24058d50 <__malloc_unlock>
24057d6e:	42a3      	cmp	r3, r4
24057d70:	d90b      	bls.n	24057d8a <_free_r+0x4e>
24057d72:	6821      	ldr	r1, [r4, #0]
24057d74:	1862      	adds	r2, r4, r1
24057d76:	4293      	cmp	r3, r2
24057d78:	bf04      	itt	eq
24057d7a:	681a      	ldreq	r2, [r3, #0]
24057d7c:	685b      	ldreq	r3, [r3, #4]
24057d7e:	6063      	str	r3, [r4, #4]
24057d80:	bf04      	itt	eq
24057d82:	1852      	addeq	r2, r2, r1
24057d84:	6022      	streq	r2, [r4, #0]
24057d86:	602c      	str	r4, [r5, #0]
24057d88:	e7ec      	b.n	24057d64 <_free_r+0x28>
24057d8a:	461a      	mov	r2, r3
24057d8c:	685b      	ldr	r3, [r3, #4]
24057d8e:	b10b      	cbz	r3, 24057d94 <_free_r+0x58>
24057d90:	42a3      	cmp	r3, r4
24057d92:	d9fa      	bls.n	24057d8a <_free_r+0x4e>
24057d94:	6811      	ldr	r1, [r2, #0]
24057d96:	1855      	adds	r5, r2, r1
24057d98:	42a5      	cmp	r5, r4
24057d9a:	d10b      	bne.n	24057db4 <_free_r+0x78>
24057d9c:	6824      	ldr	r4, [r4, #0]
24057d9e:	4421      	add	r1, r4
24057da0:	1854      	adds	r4, r2, r1
24057da2:	42a3      	cmp	r3, r4
24057da4:	6011      	str	r1, [r2, #0]
24057da6:	d1dd      	bne.n	24057d64 <_free_r+0x28>
24057da8:	681c      	ldr	r4, [r3, #0]
24057daa:	685b      	ldr	r3, [r3, #4]
24057dac:	6053      	str	r3, [r2, #4]
24057dae:	4421      	add	r1, r4
24057db0:	6011      	str	r1, [r2, #0]
24057db2:	e7d7      	b.n	24057d64 <_free_r+0x28>
24057db4:	d902      	bls.n	24057dbc <_free_r+0x80>
24057db6:	230c      	movs	r3, #12
24057db8:	6003      	str	r3, [r0, #0]
24057dba:	e7d3      	b.n	24057d64 <_free_r+0x28>
24057dbc:	6825      	ldr	r5, [r4, #0]
24057dbe:	1961      	adds	r1, r4, r5
24057dc0:	428b      	cmp	r3, r1
24057dc2:	bf04      	itt	eq
24057dc4:	6819      	ldreq	r1, [r3, #0]
24057dc6:	685b      	ldreq	r3, [r3, #4]
24057dc8:	6063      	str	r3, [r4, #4]
24057dca:	bf04      	itt	eq
24057dcc:	1949      	addeq	r1, r1, r5
24057dce:	6021      	streq	r1, [r4, #0]
24057dd0:	6054      	str	r4, [r2, #4]
24057dd2:	e7c7      	b.n	24057d64 <_free_r+0x28>
24057dd4:	b003      	add	sp, #12
24057dd6:	bd30      	pop	{r4, r5, pc}
24057dd8:	200000ec 	.word	0x200000ec

24057ddc <_malloc_r>:
24057ddc:	b5f8      	push	{r3, r4, r5, r6, r7, lr}
24057dde:	1ccd      	adds	r5, r1, #3
24057de0:	f025 0503 	bic.w	r5, r5, #3
24057de4:	3508      	adds	r5, #8
24057de6:	2d0c      	cmp	r5, #12
24057de8:	bf38      	it	cc
24057dea:	250c      	movcc	r5, #12
24057dec:	2d00      	cmp	r5, #0
24057dee:	4606      	mov	r6, r0
24057df0:	db01      	blt.n	24057df6 <_malloc_r+0x1a>
24057df2:	42a9      	cmp	r1, r5
24057df4:	d903      	bls.n	24057dfe <_malloc_r+0x22>
24057df6:	230c      	movs	r3, #12
24057df8:	6033      	str	r3, [r6, #0]
24057dfa:	2000      	movs	r0, #0
24057dfc:	bdf8      	pop	{r3, r4, r5, r6, r7, pc}
24057dfe:	f000 ffa1 	bl	24058d44 <__malloc_lock>
24057e02:	4921      	ldr	r1, [pc, #132]	; (24057e88 <_malloc_r+0xac>)
24057e04:	680a      	ldr	r2, [r1, #0]
24057e06:	4614      	mov	r4, r2
24057e08:	b99c      	cbnz	r4, 24057e32 <_malloc_r+0x56>
24057e0a:	4f20      	ldr	r7, [pc, #128]	; (24057e8c <_malloc_r+0xb0>)
24057e0c:	683b      	ldr	r3, [r7, #0]
24057e0e:	b923      	cbnz	r3, 24057e1a <_malloc_r+0x3e>
24057e10:	4621      	mov	r1, r4
24057e12:	4630      	mov	r0, r6
24057e14:	f000 fc86 	bl	24058724 <_sbrk_r>
24057e18:	6038      	str	r0, [r7, #0]
24057e1a:	4629      	mov	r1, r5
24057e1c:	4630      	mov	r0, r6
24057e1e:	f000 fc81 	bl	24058724 <_sbrk_r>
24057e22:	1c43      	adds	r3, r0, #1
24057e24:	d123      	bne.n	24057e6e <_malloc_r+0x92>
24057e26:	230c      	movs	r3, #12
24057e28:	6033      	str	r3, [r6, #0]
24057e2a:	4630      	mov	r0, r6
24057e2c:	f000 ff90 	bl	24058d50 <__malloc_unlock>
24057e30:	e7e3      	b.n	24057dfa <_malloc_r+0x1e>
24057e32:	6823      	ldr	r3, [r4, #0]
24057e34:	1b5b      	subs	r3, r3, r5
24057e36:	d417      	bmi.n	24057e68 <_malloc_r+0x8c>
24057e38:	2b0b      	cmp	r3, #11
24057e3a:	d903      	bls.n	24057e44 <_malloc_r+0x68>
24057e3c:	6023      	str	r3, [r4, #0]
24057e3e:	441c      	add	r4, r3
24057e40:	6025      	str	r5, [r4, #0]
24057e42:	e004      	b.n	24057e4e <_malloc_r+0x72>
24057e44:	6863      	ldr	r3, [r4, #4]
24057e46:	42a2      	cmp	r2, r4
24057e48:	bf0c      	ite	eq
24057e4a:	600b      	streq	r3, [r1, #0]
24057e4c:	6053      	strne	r3, [r2, #4]
24057e4e:	4630      	mov	r0, r6
24057e50:	f000 ff7e 	bl	24058d50 <__malloc_unlock>
24057e54:	f104 000b 	add.w	r0, r4, #11
24057e58:	1d23      	adds	r3, r4, #4
24057e5a:	f020 0007 	bic.w	r0, r0, #7
24057e5e:	1ac2      	subs	r2, r0, r3
24057e60:	d0cc      	beq.n	24057dfc <_malloc_r+0x20>
24057e62:	1a1b      	subs	r3, r3, r0
24057e64:	50a3      	str	r3, [r4, r2]
24057e66:	e7c9      	b.n	24057dfc <_malloc_r+0x20>
24057e68:	4622      	mov	r2, r4
24057e6a:	6864      	ldr	r4, [r4, #4]
24057e6c:	e7cc      	b.n	24057e08 <_malloc_r+0x2c>
24057e6e:	1cc4      	adds	r4, r0, #3
24057e70:	f024 0403 	bic.w	r4, r4, #3
24057e74:	42a0      	cmp	r0, r4
24057e76:	d0e3      	beq.n	24057e40 <_malloc_r+0x64>
24057e78:	1a21      	subs	r1, r4, r0
24057e7a:	4630      	mov	r0, r6
24057e7c:	f000 fc52 	bl	24058724 <_sbrk_r>
24057e80:	3001      	adds	r0, #1
24057e82:	d1dd      	bne.n	24057e40 <_malloc_r+0x64>
24057e84:	e7cf      	b.n	24057e26 <_malloc_r+0x4a>
24057e86:	bf00      	nop
24057e88:	200000ec 	.word	0x200000ec
24057e8c:	200000f0 	.word	0x200000f0

24057e90 <__ssputs_r>:
24057e90:	e92d 47f0 	stmdb	sp!, {r4, r5, r6, r7, r8, r9, sl, lr}
24057e94:	688e      	ldr	r6, [r1, #8]
24057e96:	429e      	cmp	r6, r3
24057e98:	4682      	mov	sl, r0
24057e9a:	460c      	mov	r4, r1
24057e9c:	4690      	mov	r8, r2
24057e9e:	461f      	mov	r7, r3
24057ea0:	d838      	bhi.n	24057f14 <__ssputs_r+0x84>
24057ea2:	898a      	ldrh	r2, [r1, #12]
24057ea4:	f412 6f90 	tst.w	r2, #1152	; 0x480
24057ea8:	d032      	beq.n	24057f10 <__ssputs_r+0x80>
24057eaa:	6825      	ldr	r5, [r4, #0]
24057eac:	6909      	ldr	r1, [r1, #16]
24057eae:	eba5 0901 	sub.w	r9, r5, r1
24057eb2:	6965      	ldr	r5, [r4, #20]
24057eb4:	eb05 0545 	add.w	r5, r5, r5, lsl #1
24057eb8:	eb05 75d5 	add.w	r5, r5, r5, lsr #31
24057ebc:	3301      	adds	r3, #1
24057ebe:	444b      	add	r3, r9
24057ec0:	106d      	asrs	r5, r5, #1
24057ec2:	429d      	cmp	r5, r3
24057ec4:	bf38      	it	cc
24057ec6:	461d      	movcc	r5, r3
24057ec8:	0553      	lsls	r3, r2, #21
24057eca:	d531      	bpl.n	24057f30 <__ssputs_r+0xa0>
24057ecc:	4629      	mov	r1, r5
24057ece:	f7ff ff85 	bl	24057ddc <_malloc_r>
24057ed2:	4606      	mov	r6, r0
24057ed4:	b950      	cbnz	r0, 24057eec <__ssputs_r+0x5c>
24057ed6:	230c      	movs	r3, #12
24057ed8:	f8ca 3000 	str.w	r3, [sl]
24057edc:	89a3      	ldrh	r3, [r4, #12]
24057ede:	f043 0340 	orr.w	r3, r3, #64	; 0x40
24057ee2:	81a3      	strh	r3, [r4, #12]
24057ee4:	f04f 30ff 	mov.w	r0, #4294967295
24057ee8:	e8bd 87f0 	ldmia.w	sp!, {r4, r5, r6, r7, r8, r9, sl, pc}
24057eec:	6921      	ldr	r1, [r4, #16]
24057eee:	464a      	mov	r2, r9
24057ef0:	f7ff fe40 	bl	24057b74 <memcpy>
24057ef4:	89a3      	ldrh	r3, [r4, #12]
24057ef6:	f423 6390 	bic.w	r3, r3, #1152	; 0x480
24057efa:	f043 0380 	orr.w	r3, r3, #128	; 0x80
24057efe:	81a3      	strh	r3, [r4, #12]
24057f00:	6126      	str	r6, [r4, #16]
24057f02:	6165      	str	r5, [r4, #20]
24057f04:	444e      	add	r6, r9
24057f06:	eba5 0509 	sub.w	r5, r5, r9
24057f0a:	6026      	str	r6, [r4, #0]
24057f0c:	60a5      	str	r5, [r4, #8]
24057f0e:	463e      	mov	r6, r7
24057f10:	42be      	cmp	r6, r7
24057f12:	d900      	bls.n	24057f16 <__ssputs_r+0x86>
24057f14:	463e      	mov	r6, r7
24057f16:	4632      	mov	r2, r6
24057f18:	6820      	ldr	r0, [r4, #0]
24057f1a:	4641      	mov	r1, r8
24057f1c:	f000 fef8 	bl	24058d10 <memmove>
24057f20:	68a3      	ldr	r3, [r4, #8]
24057f22:	6822      	ldr	r2, [r4, #0]
24057f24:	1b9b      	subs	r3, r3, r6
24057f26:	4432      	add	r2, r6
24057f28:	60a3      	str	r3, [r4, #8]
24057f2a:	6022      	str	r2, [r4, #0]
24057f2c:	2000      	movs	r0, #0
24057f2e:	e7db      	b.n	24057ee8 <__ssputs_r+0x58>
24057f30:	462a      	mov	r2, r5
24057f32:	f000 ff13 	bl	24058d5c <_realloc_r>
24057f36:	4606      	mov	r6, r0
24057f38:	2800      	cmp	r0, #0
24057f3a:	d1e1      	bne.n	24057f00 <__ssputs_r+0x70>
24057f3c:	6921      	ldr	r1, [r4, #16]
24057f3e:	4650      	mov	r0, sl
24057f40:	f7ff fefc 	bl	24057d3c <_free_r>
24057f44:	e7c7      	b.n	24057ed6 <__ssputs_r+0x46>
	...

24057f48 <_svfiprintf_r>:
24057f48:	e92d 4ff0 	stmdb	sp!, {r4, r5, r6, r7, r8, r9, sl, fp, lr}
24057f4c:	4698      	mov	r8, r3
24057f4e:	898b      	ldrh	r3, [r1, #12]
24057f50:	061b      	lsls	r3, r3, #24
24057f52:	b09d      	sub	sp, #116	; 0x74
24057f54:	4607      	mov	r7, r0
24057f56:	460d      	mov	r5, r1
24057f58:	4614      	mov	r4, r2
24057f5a:	d50e      	bpl.n	24057f7a <_svfiprintf_r+0x32>
24057f5c:	690b      	ldr	r3, [r1, #16]
24057f5e:	b963      	cbnz	r3, 24057f7a <_svfiprintf_r+0x32>
24057f60:	2140      	movs	r1, #64	; 0x40
24057f62:	f7ff ff3b 	bl	24057ddc <_malloc_r>
24057f66:	6028      	str	r0, [r5, #0]
24057f68:	6128      	str	r0, [r5, #16]
24057f6a:	b920      	cbnz	r0, 24057f76 <_svfiprintf_r+0x2e>
24057f6c:	230c      	movs	r3, #12
24057f6e:	603b      	str	r3, [r7, #0]
24057f70:	f04f 30ff 	mov.w	r0, #4294967295
24057f74:	e0d1      	b.n	2405811a <_svfiprintf_r+0x1d2>
24057f76:	2340      	movs	r3, #64	; 0x40
24057f78:	616b      	str	r3, [r5, #20]
24057f7a:	2300      	movs	r3, #0
24057f7c:	9309      	str	r3, [sp, #36]	; 0x24
24057f7e:	2320      	movs	r3, #32
24057f80:	f88d 3029 	strb.w	r3, [sp, #41]	; 0x29
24057f84:	f8cd 800c 	str.w	r8, [sp, #12]
24057f88:	2330      	movs	r3, #48	; 0x30
24057f8a:	f8df 81a8 	ldr.w	r8, [pc, #424]	; 24058134 <_svfiprintf_r+0x1ec>
24057f8e:	f88d 302a 	strb.w	r3, [sp, #42]	; 0x2a
24057f92:	f04f 0901 	mov.w	r9, #1
24057f96:	4623      	mov	r3, r4
24057f98:	469a      	mov	sl, r3
24057f9a:	f813 2b01 	ldrb.w	r2, [r3], #1
24057f9e:	b10a      	cbz	r2, 24057fa4 <_svfiprintf_r+0x5c>
24057fa0:	2a25      	cmp	r2, #37	; 0x25
24057fa2:	d1f9      	bne.n	24057f98 <_svfiprintf_r+0x50>
24057fa4:	ebba 0b04 	subs.w	fp, sl, r4
24057fa8:	d00b      	beq.n	24057fc2 <_svfiprintf_r+0x7a>
24057faa:	465b      	mov	r3, fp
24057fac:	4622      	mov	r2, r4
24057fae:	4629      	mov	r1, r5
24057fb0:	4638      	mov	r0, r7
24057fb2:	f7ff ff6d 	bl	24057e90 <__ssputs_r>
24057fb6:	3001      	adds	r0, #1
24057fb8:	f000 80aa 	beq.w	24058110 <_svfiprintf_r+0x1c8>
24057fbc:	9a09      	ldr	r2, [sp, #36]	; 0x24
24057fbe:	445a      	add	r2, fp
24057fc0:	9209      	str	r2, [sp, #36]	; 0x24
24057fc2:	f89a 3000 	ldrb.w	r3, [sl]
24057fc6:	2b00      	cmp	r3, #0
24057fc8:	f000 80a2 	beq.w	24058110 <_svfiprintf_r+0x1c8>
24057fcc:	2300      	movs	r3, #0
24057fce:	f04f 32ff 	mov.w	r2, #4294967295
24057fd2:	e9cd 2305 	strd	r2, r3, [sp, #20]
24057fd6:	f10a 0a01 	add.w	sl, sl, #1
24057fda:	9304      	str	r3, [sp, #16]
24057fdc:	9307      	str	r3, [sp, #28]
24057fde:	f88d 3053 	strb.w	r3, [sp, #83]	; 0x53
24057fe2:	931a      	str	r3, [sp, #104]	; 0x68
24057fe4:	4654      	mov	r4, sl
24057fe6:	2205      	movs	r2, #5
24057fe8:	f814 1b01 	ldrb.w	r1, [r4], #1
24057fec:	4851      	ldr	r0, [pc, #324]	; (24058134 <_svfiprintf_r+0x1ec>)
24057fee:	f7f8 f827 	bl	24050040 <memchr>
24057ff2:	9a04      	ldr	r2, [sp, #16]
24057ff4:	b9d8      	cbnz	r0, 2405802e <_svfiprintf_r+0xe6>
24057ff6:	06d0      	lsls	r0, r2, #27
24057ff8:	bf44      	itt	mi
24057ffa:	2320      	movmi	r3, #32
24057ffc:	f88d 3053 	strbmi.w	r3, [sp, #83]	; 0x53
24058000:	0711      	lsls	r1, r2, #28
24058002:	bf44      	itt	mi
24058004:	232b      	movmi	r3, #43	; 0x2b
24058006:	f88d 3053 	strbmi.w	r3, [sp, #83]	; 0x53
2405800a:	f89a 3000 	ldrb.w	r3, [sl]
2405800e:	2b2a      	cmp	r3, #42	; 0x2a
24058010:	d015      	beq.n	2405803e <_svfiprintf_r+0xf6>
24058012:	9a07      	ldr	r2, [sp, #28]
24058014:	4654      	mov	r4, sl
24058016:	2000      	movs	r0, #0
24058018:	f04f 0c0a 	mov.w	ip, #10
2405801c:	4621      	mov	r1, r4
2405801e:	f811 3b01 	ldrb.w	r3, [r1], #1
24058022:	3b30      	subs	r3, #48	; 0x30
24058024:	2b09      	cmp	r3, #9
24058026:	d94e      	bls.n	240580c6 <_svfiprintf_r+0x17e>
24058028:	b1b0      	cbz	r0, 24058058 <_svfiprintf_r+0x110>
2405802a:	9207      	str	r2, [sp, #28]
2405802c:	e014      	b.n	24058058 <_svfiprintf_r+0x110>
2405802e:	eba0 0308 	sub.w	r3, r0, r8
24058032:	fa09 f303 	lsl.w	r3, r9, r3
24058036:	4313      	orrs	r3, r2
24058038:	9304      	str	r3, [sp, #16]
2405803a:	46a2      	mov	sl, r4
2405803c:	e7d2      	b.n	24057fe4 <_svfiprintf_r+0x9c>
2405803e:	9b03      	ldr	r3, [sp, #12]
24058040:	1d19      	adds	r1, r3, #4
24058042:	681b      	ldr	r3, [r3, #0]
24058044:	9103      	str	r1, [sp, #12]
24058046:	2b00      	cmp	r3, #0
24058048:	bfbb      	ittet	lt
2405804a:	425b      	neglt	r3, r3
2405804c:	f042 0202 	orrlt.w	r2, r2, #2
24058050:	9307      	strge	r3, [sp, #28]
24058052:	9307      	strlt	r3, [sp, #28]
24058054:	bfb8      	it	lt
24058056:	9204      	strlt	r2, [sp, #16]
24058058:	7823      	ldrb	r3, [r4, #0]
2405805a:	2b2e      	cmp	r3, #46	; 0x2e
2405805c:	d10c      	bne.n	24058078 <_svfiprintf_r+0x130>
2405805e:	7863      	ldrb	r3, [r4, #1]
24058060:	2b2a      	cmp	r3, #42	; 0x2a
24058062:	d135      	bne.n	240580d0 <_svfiprintf_r+0x188>
24058064:	9b03      	ldr	r3, [sp, #12]
24058066:	1d1a      	adds	r2, r3, #4
24058068:	681b      	ldr	r3, [r3, #0]
2405806a:	9203      	str	r2, [sp, #12]
2405806c:	2b00      	cmp	r3, #0
2405806e:	bfb8      	it	lt
24058070:	f04f 33ff 	movlt.w	r3, #4294967295
24058074:	3402      	adds	r4, #2
24058076:	9305      	str	r3, [sp, #20]
24058078:	f8df a0c8 	ldr.w	sl, [pc, #200]	; 24058144 <_svfiprintf_r+0x1fc>
2405807c:	7821      	ldrb	r1, [r4, #0]
2405807e:	2203      	movs	r2, #3
24058080:	4650      	mov	r0, sl
24058082:	f7f7 ffdd 	bl	24050040 <memchr>
24058086:	b140      	cbz	r0, 2405809a <_svfiprintf_r+0x152>
24058088:	2340      	movs	r3, #64	; 0x40
2405808a:	eba0 000a 	sub.w	r0, r0, sl
2405808e:	fa03 f000 	lsl.w	r0, r3, r0
24058092:	9b04      	ldr	r3, [sp, #16]
24058094:	4303      	orrs	r3, r0
24058096:	3401      	adds	r4, #1
24058098:	9304      	str	r3, [sp, #16]
2405809a:	f814 1b01 	ldrb.w	r1, [r4], #1
2405809e:	4826      	ldr	r0, [pc, #152]	; (24058138 <_svfiprintf_r+0x1f0>)
240580a0:	f88d 1028 	strb.w	r1, [sp, #40]	; 0x28
240580a4:	2206      	movs	r2, #6
240580a6:	f7f7 ffcb 	bl	24050040 <memchr>
240580aa:	2800      	cmp	r0, #0
240580ac:	d038      	beq.n	24058120 <_svfiprintf_r+0x1d8>
240580ae:	4b23      	ldr	r3, [pc, #140]	; (2405813c <_svfiprintf_r+0x1f4>)
240580b0:	bb1b      	cbnz	r3, 240580fa <_svfiprintf_r+0x1b2>
240580b2:	9b03      	ldr	r3, [sp, #12]
240580b4:	3307      	adds	r3, #7
240580b6:	f023 0307 	bic.w	r3, r3, #7
240580ba:	3308      	adds	r3, #8
240580bc:	9303      	str	r3, [sp, #12]
240580be:	9b09      	ldr	r3, [sp, #36]	; 0x24
240580c0:	4433      	add	r3, r6
240580c2:	9309      	str	r3, [sp, #36]	; 0x24
240580c4:	e767      	b.n	24057f96 <_svfiprintf_r+0x4e>
240580c6:	fb0c 3202 	mla	r2, ip, r2, r3
240580ca:	460c      	mov	r4, r1
240580cc:	2001      	movs	r0, #1
240580ce:	e7a5      	b.n	2405801c <_svfiprintf_r+0xd4>
240580d0:	2300      	movs	r3, #0
240580d2:	3401      	adds	r4, #1
240580d4:	9305      	str	r3, [sp, #20]
240580d6:	4619      	mov	r1, r3
240580d8:	f04f 0c0a 	mov.w	ip, #10
240580dc:	4620      	mov	r0, r4
240580de:	f810 2b01 	ldrb.w	r2, [r0], #1
240580e2:	3a30      	subs	r2, #48	; 0x30
240580e4:	2a09      	cmp	r2, #9
240580e6:	d903      	bls.n	240580f0 <_svfiprintf_r+0x1a8>
240580e8:	2b00      	cmp	r3, #0
240580ea:	d0c5      	beq.n	24058078 <_svfiprintf_r+0x130>
240580ec:	9105      	str	r1, [sp, #20]
240580ee:	e7c3      	b.n	24058078 <_svfiprintf_r+0x130>
240580f0:	fb0c 2101 	mla	r1, ip, r1, r2
240580f4:	4604      	mov	r4, r0
240580f6:	2301      	movs	r3, #1
240580f8:	e7f0      	b.n	240580dc <_svfiprintf_r+0x194>
240580fa:	ab03      	add	r3, sp, #12
240580fc:	9300      	str	r3, [sp, #0]
240580fe:	462a      	mov	r2, r5
24058100:	4b0f      	ldr	r3, [pc, #60]	; (24058140 <_svfiprintf_r+0x1f8>)
24058102:	a904      	add	r1, sp, #16
24058104:	4638      	mov	r0, r7
24058106:	f3af 8000 	nop.w
2405810a:	1c42      	adds	r2, r0, #1
2405810c:	4606      	mov	r6, r0
2405810e:	d1d6      	bne.n	240580be <_svfiprintf_r+0x176>
24058110:	89ab      	ldrh	r3, [r5, #12]
24058112:	065b      	lsls	r3, r3, #25
24058114:	f53f af2c 	bmi.w	24057f70 <_svfiprintf_r+0x28>
24058118:	9809      	ldr	r0, [sp, #36]	; 0x24
2405811a:	b01d      	add	sp, #116	; 0x74
2405811c:	e8bd 8ff0 	ldmia.w	sp!, {r4, r5, r6, r7, r8, r9, sl, fp, pc}
24058120:	ab03      	add	r3, sp, #12
24058122:	9300      	str	r3, [sp, #0]
24058124:	462a      	mov	r2, r5
24058126:	4b06      	ldr	r3, [pc, #24]	; (24058140 <_svfiprintf_r+0x1f8>)
24058128:	a904      	add	r1, sp, #16
2405812a:	4638      	mov	r0, r7
2405812c:	f000 f9d4 	bl	240584d8 <_printf_i>
24058130:	e7eb      	b.n	2405810a <_svfiprintf_r+0x1c2>
24058132:	bf00      	nop
24058134:	2405a0fa 	.word	0x2405a0fa
24058138:	2405a104 	.word	0x2405a104
2405813c:	00000000 	.word	0x00000000
24058140:	24057e91 	.word	0x24057e91
24058144:	2405a100 	.word	0x2405a100

24058148 <__sfputc_r>:
24058148:	6893      	ldr	r3, [r2, #8]
2405814a:	3b01      	subs	r3, #1
2405814c:	2b00      	cmp	r3, #0
2405814e:	b410      	push	{r4}
24058150:	6093      	str	r3, [r2, #8]
24058152:	da08      	bge.n	24058166 <__sfputc_r+0x1e>
24058154:	6994      	ldr	r4, [r2, #24]
24058156:	42a3      	cmp	r3, r4
24058158:	db01      	blt.n	2405815e <__sfputc_r+0x16>
2405815a:	290a      	cmp	r1, #10
2405815c:	d103      	bne.n	24058166 <__sfputc_r+0x1e>
2405815e:	f85d 4b04 	ldr.w	r4, [sp], #4
24058162:	f000 baef 	b.w	24058744 <__swbuf_r>
24058166:	6813      	ldr	r3, [r2, #0]
24058168:	1c58      	adds	r0, r3, #1
2405816a:	6010      	str	r0, [r2, #0]
2405816c:	7019      	strb	r1, [r3, #0]
2405816e:	4608      	mov	r0, r1
24058170:	f85d 4b04 	ldr.w	r4, [sp], #4
24058174:	4770      	bx	lr

24058176 <__sfputs_r>:
24058176:	b5f8      	push	{r3, r4, r5, r6, r7, lr}
24058178:	4606      	mov	r6, r0
2405817a:	460f      	mov	r7, r1
2405817c:	4614      	mov	r4, r2
2405817e:	18d5      	adds	r5, r2, r3
24058180:	42ac      	cmp	r4, r5
24058182:	d101      	bne.n	24058188 <__sfputs_r+0x12>
24058184:	2000      	movs	r0, #0
24058186:	e007      	b.n	24058198 <__sfputs_r+0x22>
24058188:	f814 1b01 	ldrb.w	r1, [r4], #1
2405818c:	463a      	mov	r2, r7
2405818e:	4630      	mov	r0, r6
24058190:	f7ff ffda 	bl	24058148 <__sfputc_r>
24058194:	1c43      	adds	r3, r0, #1
24058196:	d1f3      	bne.n	24058180 <__sfputs_r+0xa>
24058198:	bdf8      	pop	{r3, r4, r5, r6, r7, pc}
	...

2405819c <_vfiprintf_r>:
2405819c:	e92d 4ff0 	stmdb	sp!, {r4, r5, r6, r7, r8, r9, sl, fp, lr}
240581a0:	460d      	mov	r5, r1
240581a2:	b09d      	sub	sp, #116	; 0x74
240581a4:	4614      	mov	r4, r2
240581a6:	4698      	mov	r8, r3
240581a8:	4606      	mov	r6, r0
240581aa:	b118      	cbz	r0, 240581b4 <_vfiprintf_r+0x18>
240581ac:	6983      	ldr	r3, [r0, #24]
240581ae:	b90b      	cbnz	r3, 240581b4 <_vfiprintf_r+0x18>
240581b0:	f000 fcaa 	bl	24058b08 <__sinit>
240581b4:	4b89      	ldr	r3, [pc, #548]	; (240583dc <_vfiprintf_r+0x240>)
240581b6:	429d      	cmp	r5, r3
240581b8:	d11b      	bne.n	240581f2 <_vfiprintf_r+0x56>
240581ba:	6875      	ldr	r5, [r6, #4]
240581bc:	6e6b      	ldr	r3, [r5, #100]	; 0x64
240581be:	07d9      	lsls	r1, r3, #31
240581c0:	d405      	bmi.n	240581ce <_vfiprintf_r+0x32>
240581c2:	89ab      	ldrh	r3, [r5, #12]
240581c4:	059a      	lsls	r2, r3, #22
240581c6:	d402      	bmi.n	240581ce <_vfiprintf_r+0x32>
240581c8:	6da8      	ldr	r0, [r5, #88]	; 0x58
240581ca:	f000 fd3b 	bl	24058c44 <__retarget_lock_acquire_recursive>
240581ce:	89ab      	ldrh	r3, [r5, #12]
240581d0:	071b      	lsls	r3, r3, #28
240581d2:	d501      	bpl.n	240581d8 <_vfiprintf_r+0x3c>
240581d4:	692b      	ldr	r3, [r5, #16]
240581d6:	b9eb      	cbnz	r3, 24058214 <_vfiprintf_r+0x78>
240581d8:	4629      	mov	r1, r5
240581da:	4630      	mov	r0, r6
240581dc:	f000 fb04 	bl	240587e8 <__swsetup_r>
240581e0:	b1c0      	cbz	r0, 24058214 <_vfiprintf_r+0x78>
240581e2:	6e6b      	ldr	r3, [r5, #100]	; 0x64
240581e4:	07dc      	lsls	r4, r3, #31
240581e6:	d50e      	bpl.n	24058206 <_vfiprintf_r+0x6a>
240581e8:	f04f 30ff 	mov.w	r0, #4294967295
240581ec:	b01d      	add	sp, #116	; 0x74
240581ee:	e8bd 8ff0 	ldmia.w	sp!, {r4, r5, r6, r7, r8, r9, sl, fp, pc}
240581f2:	4b7b      	ldr	r3, [pc, #492]	; (240583e0 <_vfiprintf_r+0x244>)
240581f4:	429d      	cmp	r5, r3
240581f6:	d101      	bne.n	240581fc <_vfiprintf_r+0x60>
240581f8:	68b5      	ldr	r5, [r6, #8]
240581fa:	e7df      	b.n	240581bc <_vfiprintf_r+0x20>
240581fc:	4b79      	ldr	r3, [pc, #484]	; (240583e4 <_vfiprintf_r+0x248>)
240581fe:	429d      	cmp	r5, r3
24058200:	bf08      	it	eq
24058202:	68f5      	ldreq	r5, [r6, #12]
24058204:	e7da      	b.n	240581bc <_vfiprintf_r+0x20>
24058206:	89ab      	ldrh	r3, [r5, #12]
24058208:	0598      	lsls	r0, r3, #22
2405820a:	d4ed      	bmi.n	240581e8 <_vfiprintf_r+0x4c>
2405820c:	6da8      	ldr	r0, [r5, #88]	; 0x58
2405820e:	f000 fd1a 	bl	24058c46 <__retarget_lock_release_recursive>
24058212:	e7e9      	b.n	240581e8 <_vfiprintf_r+0x4c>
24058214:	2300      	movs	r3, #0
24058216:	9309      	str	r3, [sp, #36]	; 0x24
24058218:	2320      	movs	r3, #32
2405821a:	f88d 3029 	strb.w	r3, [sp, #41]	; 0x29
2405821e:	f8cd 800c 	str.w	r8, [sp, #12]
24058222:	2330      	movs	r3, #48	; 0x30
24058224:	f8df 81c0 	ldr.w	r8, [pc, #448]	; 240583e8 <_vfiprintf_r+0x24c>
24058228:	f88d 302a 	strb.w	r3, [sp, #42]	; 0x2a
2405822c:	f04f 0901 	mov.w	r9, #1
24058230:	4623      	mov	r3, r4
24058232:	469a      	mov	sl, r3
24058234:	f813 2b01 	ldrb.w	r2, [r3], #1
24058238:	b10a      	cbz	r2, 2405823e <_vfiprintf_r+0xa2>
2405823a:	2a25      	cmp	r2, #37	; 0x25
2405823c:	d1f9      	bne.n	24058232 <_vfiprintf_r+0x96>
2405823e:	ebba 0b04 	subs.w	fp, sl, r4
24058242:	d00b      	beq.n	2405825c <_vfiprintf_r+0xc0>
24058244:	465b      	mov	r3, fp
24058246:	4622      	mov	r2, r4
24058248:	4629      	mov	r1, r5
2405824a:	4630      	mov	r0, r6
2405824c:	f7ff ff93 	bl	24058176 <__sfputs_r>
24058250:	3001      	adds	r0, #1
24058252:	f000 80aa 	beq.w	240583aa <_vfiprintf_r+0x20e>
24058256:	9a09      	ldr	r2, [sp, #36]	; 0x24
24058258:	445a      	add	r2, fp
2405825a:	9209      	str	r2, [sp, #36]	; 0x24
2405825c:	f89a 3000 	ldrb.w	r3, [sl]
24058260:	2b00      	cmp	r3, #0
24058262:	f000 80a2 	beq.w	240583aa <_vfiprintf_r+0x20e>
24058266:	2300      	movs	r3, #0
24058268:	f04f 32ff 	mov.w	r2, #4294967295
2405826c:	e9cd 2305 	strd	r2, r3, [sp, #20]
24058270:	f10a 0a01 	add.w	sl, sl, #1
24058274:	9304      	str	r3, [sp, #16]
24058276:	9307      	str	r3, [sp, #28]
24058278:	f88d 3053 	strb.w	r3, [sp, #83]	; 0x53
2405827c:	931a      	str	r3, [sp, #104]	; 0x68
2405827e:	4654      	mov	r4, sl
24058280:	2205      	movs	r2, #5
24058282:	f814 1b01 	ldrb.w	r1, [r4], #1
24058286:	4858      	ldr	r0, [pc, #352]	; (240583e8 <_vfiprintf_r+0x24c>)
24058288:	f7f7 feda 	bl	24050040 <memchr>
2405828c:	9a04      	ldr	r2, [sp, #16]
2405828e:	b9d8      	cbnz	r0, 240582c8 <_vfiprintf_r+0x12c>
24058290:	06d1      	lsls	r1, r2, #27
24058292:	bf44      	itt	mi
24058294:	2320      	movmi	r3, #32
24058296:	f88d 3053 	strbmi.w	r3, [sp, #83]	; 0x53
2405829a:	0713      	lsls	r3, r2, #28
2405829c:	bf44      	itt	mi
2405829e:	232b      	movmi	r3, #43	; 0x2b
240582a0:	f88d 3053 	strbmi.w	r3, [sp, #83]	; 0x53
240582a4:	f89a 3000 	ldrb.w	r3, [sl]
240582a8:	2b2a      	cmp	r3, #42	; 0x2a
240582aa:	d015      	beq.n	240582d8 <_vfiprintf_r+0x13c>
240582ac:	9a07      	ldr	r2, [sp, #28]
240582ae:	4654      	mov	r4, sl
240582b0:	2000      	movs	r0, #0
240582b2:	f04f 0c0a 	mov.w	ip, #10
240582b6:	4621      	mov	r1, r4
240582b8:	f811 3b01 	ldrb.w	r3, [r1], #1
240582bc:	3b30      	subs	r3, #48	; 0x30
240582be:	2b09      	cmp	r3, #9
240582c0:	d94e      	bls.n	24058360 <_vfiprintf_r+0x1c4>
240582c2:	b1b0      	cbz	r0, 240582f2 <_vfiprintf_r+0x156>
240582c4:	9207      	str	r2, [sp, #28]
240582c6:	e014      	b.n	240582f2 <_vfiprintf_r+0x156>
240582c8:	eba0 0308 	sub.w	r3, r0, r8
240582cc:	fa09 f303 	lsl.w	r3, r9, r3
240582d0:	4313      	orrs	r3, r2
240582d2:	9304      	str	r3, [sp, #16]
240582d4:	46a2      	mov	sl, r4
240582d6:	e7d2      	b.n	2405827e <_vfiprintf_r+0xe2>
240582d8:	9b03      	ldr	r3, [sp, #12]
240582da:	1d19      	adds	r1, r3, #4
240582dc:	681b      	ldr	r3, [r3, #0]
240582de:	9103      	str	r1, [sp, #12]
240582e0:	2b00      	cmp	r3, #0
240582e2:	bfbb      	ittet	lt
240582e4:	425b      	neglt	r3, r3
240582e6:	f042 0202 	orrlt.w	r2, r2, #2
240582ea:	9307      	strge	r3, [sp, #28]
240582ec:	9307      	strlt	r3, [sp, #28]
240582ee:	bfb8      	it	lt
240582f0:	9204      	strlt	r2, [sp, #16]
240582f2:	7823      	ldrb	r3, [r4, #0]
240582f4:	2b2e      	cmp	r3, #46	; 0x2e
240582f6:	d10c      	bne.n	24058312 <_vfiprintf_r+0x176>
240582f8:	7863      	ldrb	r3, [r4, #1]
240582fa:	2b2a      	cmp	r3, #42	; 0x2a
240582fc:	d135      	bne.n	2405836a <_vfiprintf_r+0x1ce>
240582fe:	9b03      	ldr	r3, [sp, #12]
24058300:	1d1a      	adds	r2, r3, #4
24058302:	681b      	ldr	r3, [r3, #0]
24058304:	9203      	str	r2, [sp, #12]
24058306:	2b00      	cmp	r3, #0
24058308:	bfb8      	it	lt
2405830a:	f04f 33ff 	movlt.w	r3, #4294967295
2405830e:	3402      	adds	r4, #2
24058310:	9305      	str	r3, [sp, #20]
24058312:	f8df a0e4 	ldr.w	sl, [pc, #228]	; 240583f8 <_vfiprintf_r+0x25c>
24058316:	7821      	ldrb	r1, [r4, #0]
24058318:	2203      	movs	r2, #3
2405831a:	4650      	mov	r0, sl
2405831c:	f7f7 fe90 	bl	24050040 <memchr>
24058320:	b140      	cbz	r0, 24058334 <_vfiprintf_r+0x198>
24058322:	2340      	movs	r3, #64	; 0x40
24058324:	eba0 000a 	sub.w	r0, r0, sl
24058328:	fa03 f000 	lsl.w	r0, r3, r0
2405832c:	9b04      	ldr	r3, [sp, #16]
2405832e:	4303      	orrs	r3, r0
24058330:	3401      	adds	r4, #1
24058332:	9304      	str	r3, [sp, #16]
24058334:	f814 1b01 	ldrb.w	r1, [r4], #1
24058338:	482c      	ldr	r0, [pc, #176]	; (240583ec <_vfiprintf_r+0x250>)
2405833a:	f88d 1028 	strb.w	r1, [sp, #40]	; 0x28
2405833e:	2206      	movs	r2, #6
24058340:	f7f7 fe7e 	bl	24050040 <memchr>
24058344:	2800      	cmp	r0, #0
24058346:	d03f      	beq.n	240583c8 <_vfiprintf_r+0x22c>
24058348:	4b29      	ldr	r3, [pc, #164]	; (240583f0 <_vfiprintf_r+0x254>)
2405834a:	bb1b      	cbnz	r3, 24058394 <_vfiprintf_r+0x1f8>
2405834c:	9b03      	ldr	r3, [sp, #12]
2405834e:	3307      	adds	r3, #7
24058350:	f023 0307 	bic.w	r3, r3, #7
24058354:	3308      	adds	r3, #8
24058356:	9303      	str	r3, [sp, #12]
24058358:	9b09      	ldr	r3, [sp, #36]	; 0x24
2405835a:	443b      	add	r3, r7
2405835c:	9309      	str	r3, [sp, #36]	; 0x24
2405835e:	e767      	b.n	24058230 <_vfiprintf_r+0x94>
24058360:	fb0c 3202 	mla	r2, ip, r2, r3
24058364:	460c      	mov	r4, r1
24058366:	2001      	movs	r0, #1
24058368:	e7a5      	b.n	240582b6 <_vfiprintf_r+0x11a>
2405836a:	2300      	movs	r3, #0
2405836c:	3401      	adds	r4, #1
2405836e:	9305      	str	r3, [sp, #20]
24058370:	4619      	mov	r1, r3
24058372:	f04f 0c0a 	mov.w	ip, #10
24058376:	4620      	mov	r0, r4
24058378:	f810 2b01 	ldrb.w	r2, [r0], #1
2405837c:	3a30      	subs	r2, #48	; 0x30
2405837e:	2a09      	cmp	r2, #9
24058380:	d903      	bls.n	2405838a <_vfiprintf_r+0x1ee>
24058382:	2b00      	cmp	r3, #0
24058384:	d0c5      	beq.n	24058312 <_vfiprintf_r+0x176>
24058386:	9105      	str	r1, [sp, #20]
24058388:	e7c3      	b.n	24058312 <_vfiprintf_r+0x176>
2405838a:	fb0c 2101 	mla	r1, ip, r1, r2
2405838e:	4604      	mov	r4, r0
24058390:	2301      	movs	r3, #1
24058392:	e7f0      	b.n	24058376 <_vfiprintf_r+0x1da>
24058394:	ab03      	add	r3, sp, #12
24058396:	9300      	str	r3, [sp, #0]
24058398:	462a      	mov	r2, r5
2405839a:	4b16      	ldr	r3, [pc, #88]	; (240583f4 <_vfiprintf_r+0x258>)
2405839c:	a904      	add	r1, sp, #16
2405839e:	4630      	mov	r0, r6
240583a0:	f3af 8000 	nop.w
240583a4:	4607      	mov	r7, r0
240583a6:	1c78      	adds	r0, r7, #1
240583a8:	d1d6      	bne.n	24058358 <_vfiprintf_r+0x1bc>
240583aa:	6e6b      	ldr	r3, [r5, #100]	; 0x64
240583ac:	07d9      	lsls	r1, r3, #31
240583ae:	d405      	bmi.n	240583bc <_vfiprintf_r+0x220>
240583b0:	89ab      	ldrh	r3, [r5, #12]
240583b2:	059a      	lsls	r2, r3, #22
240583b4:	d402      	bmi.n	240583bc <_vfiprintf_r+0x220>
240583b6:	6da8      	ldr	r0, [r5, #88]	; 0x58
240583b8:	f000 fc45 	bl	24058c46 <__retarget_lock_release_recursive>
240583bc:	89ab      	ldrh	r3, [r5, #12]
240583be:	065b      	lsls	r3, r3, #25
240583c0:	f53f af12 	bmi.w	240581e8 <_vfiprintf_r+0x4c>
240583c4:	9809      	ldr	r0, [sp, #36]	; 0x24
240583c6:	e711      	b.n	240581ec <_vfiprintf_r+0x50>
240583c8:	ab03      	add	r3, sp, #12
240583ca:	9300      	str	r3, [sp, #0]
240583cc:	462a      	mov	r2, r5
240583ce:	4b09      	ldr	r3, [pc, #36]	; (240583f4 <_vfiprintf_r+0x258>)
240583d0:	a904      	add	r1, sp, #16
240583d2:	4630      	mov	r0, r6
240583d4:	f000 f880 	bl	240584d8 <_printf_i>
240583d8:	e7e4      	b.n	240583a4 <_vfiprintf_r+0x208>
240583da:	bf00      	nop
240583dc:	2405a150 	.word	0x2405a150
240583e0:	2405a170 	.word	0x2405a170
240583e4:	2405a130 	.word	0x2405a130
240583e8:	2405a0fa 	.word	0x2405a0fa
240583ec:	2405a104 	.word	0x2405a104
240583f0:	00000000 	.word	0x00000000
240583f4:	24058177 	.word	0x24058177
240583f8:	2405a100 	.word	0x2405a100

240583fc <_printf_common>:
240583fc:	e92d 47f0 	stmdb	sp!, {r4, r5, r6, r7, r8, r9, sl, lr}
24058400:	4616      	mov	r6, r2
24058402:	4699      	mov	r9, r3
24058404:	688a      	ldr	r2, [r1, #8]
24058406:	690b      	ldr	r3, [r1, #16]
24058408:	f8dd 8020 	ldr.w	r8, [sp, #32]
2405840c:	4293      	cmp	r3, r2
2405840e:	bfb8      	it	lt
24058410:	4613      	movlt	r3, r2
24058412:	6033      	str	r3, [r6, #0]
24058414:	f891 2043 	ldrb.w	r2, [r1, #67]	; 0x43
24058418:	4607      	mov	r7, r0
2405841a:	460c      	mov	r4, r1
2405841c:	b10a      	cbz	r2, 24058422 <_printf_common+0x26>
2405841e:	3301      	adds	r3, #1
24058420:	6033      	str	r3, [r6, #0]
24058422:	6823      	ldr	r3, [r4, #0]
24058424:	0699      	lsls	r1, r3, #26
24058426:	bf42      	ittt	mi
24058428:	6833      	ldrmi	r3, [r6, #0]
2405842a:	3302      	addmi	r3, #2
2405842c:	6033      	strmi	r3, [r6, #0]
2405842e:	6825      	ldr	r5, [r4, #0]
24058430:	f015 0506 	ands.w	r5, r5, #6
24058434:	d106      	bne.n	24058444 <_printf_common+0x48>
24058436:	f104 0a19 	add.w	sl, r4, #25
2405843a:	68e3      	ldr	r3, [r4, #12]
2405843c:	6832      	ldr	r2, [r6, #0]
2405843e:	1a9b      	subs	r3, r3, r2
24058440:	42ab      	cmp	r3, r5
24058442:	dc26      	bgt.n	24058492 <_printf_common+0x96>
24058444:	f894 2043 	ldrb.w	r2, [r4, #67]	; 0x43
24058448:	1e13      	subs	r3, r2, #0
2405844a:	6822      	ldr	r2, [r4, #0]
2405844c:	bf18      	it	ne
2405844e:	2301      	movne	r3, #1
24058450:	0692      	lsls	r2, r2, #26
24058452:	d42b      	bmi.n	240584ac <_printf_common+0xb0>
24058454:	f104 0243 	add.w	r2, r4, #67	; 0x43
24058458:	4649      	mov	r1, r9
2405845a:	4638      	mov	r0, r7
2405845c:	47c0      	blx	r8
2405845e:	3001      	adds	r0, #1
24058460:	d01e      	beq.n	240584a0 <_printf_common+0xa4>
24058462:	6823      	ldr	r3, [r4, #0]
24058464:	68e5      	ldr	r5, [r4, #12]
24058466:	6832      	ldr	r2, [r6, #0]
24058468:	f003 0306 	and.w	r3, r3, #6
2405846c:	2b04      	cmp	r3, #4
2405846e:	bf08      	it	eq
24058470:	1aad      	subeq	r5, r5, r2
24058472:	68a3      	ldr	r3, [r4, #8]
24058474:	6922      	ldr	r2, [r4, #16]
24058476:	bf0c      	ite	eq
24058478:	ea25 75e5 	biceq.w	r5, r5, r5, asr #31
2405847c:	2500      	movne	r5, #0
2405847e:	4293      	cmp	r3, r2
24058480:	bfc4      	itt	gt
24058482:	1a9b      	subgt	r3, r3, r2
24058484:	18ed      	addgt	r5, r5, r3
24058486:	2600      	movs	r6, #0
24058488:	341a      	adds	r4, #26
2405848a:	42b5      	cmp	r5, r6
2405848c:	d11a      	bne.n	240584c4 <_printf_common+0xc8>
2405848e:	2000      	movs	r0, #0
24058490:	e008      	b.n	240584a4 <_printf_common+0xa8>
24058492:	2301      	movs	r3, #1
24058494:	4652      	mov	r2, sl
24058496:	4649      	mov	r1, r9
24058498:	4638      	mov	r0, r7
2405849a:	47c0      	blx	r8
2405849c:	3001      	adds	r0, #1
2405849e:	d103      	bne.n	240584a8 <_printf_common+0xac>
240584a0:	f04f 30ff 	mov.w	r0, #4294967295
240584a4:	e8bd 87f0 	ldmia.w	sp!, {r4, r5, r6, r7, r8, r9, sl, pc}
240584a8:	3501      	adds	r5, #1
240584aa:	e7c6      	b.n	2405843a <_printf_common+0x3e>
240584ac:	18e1      	adds	r1, r4, r3
240584ae:	1c5a      	adds	r2, r3, #1
240584b0:	2030      	movs	r0, #48	; 0x30
240584b2:	f881 0043 	strb.w	r0, [r1, #67]	; 0x43
240584b6:	4422      	add	r2, r4
240584b8:	f894 1045 	ldrb.w	r1, [r4, #69]	; 0x45
240584bc:	f882 1043 	strb.w	r1, [r2, #67]	; 0x43
240584c0:	3302      	adds	r3, #2
240584c2:	e7c7      	b.n	24058454 <_printf_common+0x58>
240584c4:	2301      	movs	r3, #1
240584c6:	4622      	mov	r2, r4
240584c8:	4649      	mov	r1, r9
240584ca:	4638      	mov	r0, r7
240584cc:	47c0      	blx	r8
240584ce:	3001      	adds	r0, #1
240584d0:	d0e6      	beq.n	240584a0 <_printf_common+0xa4>
240584d2:	3601      	adds	r6, #1
240584d4:	e7d9      	b.n	2405848a <_printf_common+0x8e>
	...

240584d8 <_printf_i>:
240584d8:	e92d 47ff 	stmdb	sp!, {r0, r1, r2, r3, r4, r5, r6, r7, r8, r9, sl, lr}
240584dc:	460c      	mov	r4, r1
240584de:	4691      	mov	r9, r2
240584e0:	7e27      	ldrb	r7, [r4, #24]
240584e2:	990c      	ldr	r1, [sp, #48]	; 0x30
240584e4:	2f78      	cmp	r7, #120	; 0x78
240584e6:	4680      	mov	r8, r0
240584e8:	469a      	mov	sl, r3
240584ea:	f104 0243 	add.w	r2, r4, #67	; 0x43
240584ee:	d807      	bhi.n	24058500 <_printf_i+0x28>
240584f0:	2f62      	cmp	r7, #98	; 0x62
240584f2:	d80a      	bhi.n	2405850a <_printf_i+0x32>
240584f4:	2f00      	cmp	r7, #0
240584f6:	f000 80d8 	beq.w	240586aa <_printf_i+0x1d2>
240584fa:	2f58      	cmp	r7, #88	; 0x58
240584fc:	f000 80a3 	beq.w	24058646 <_printf_i+0x16e>
24058500:	f104 0642 	add.w	r6, r4, #66	; 0x42
24058504:	f884 7042 	strb.w	r7, [r4, #66]	; 0x42
24058508:	e03a      	b.n	24058580 <_printf_i+0xa8>
2405850a:	f1a7 0363 	sub.w	r3, r7, #99	; 0x63
2405850e:	2b15      	cmp	r3, #21
24058510:	d8f6      	bhi.n	24058500 <_printf_i+0x28>
24058512:	a001      	add	r0, pc, #4	; (adr r0, 24058518 <_printf_i+0x40>)
24058514:	f850 f023 	ldr.w	pc, [r0, r3, lsl #2]
24058518:	24058571 	.word	0x24058571
2405851c:	24058585 	.word	0x24058585
24058520:	24058501 	.word	0x24058501
24058524:	24058501 	.word	0x24058501
24058528:	24058501 	.word	0x24058501
2405852c:	24058501 	.word	0x24058501
24058530:	24058585 	.word	0x24058585
24058534:	24058501 	.word	0x24058501
24058538:	24058501 	.word	0x24058501
2405853c:	24058501 	.word	0x24058501
24058540:	24058501 	.word	0x24058501
24058544:	24058691 	.word	0x24058691
24058548:	240585b5 	.word	0x240585b5
2405854c:	24058673 	.word	0x24058673
24058550:	24058501 	.word	0x24058501
24058554:	24058501 	.word	0x24058501
24058558:	240586b3 	.word	0x240586b3
2405855c:	24058501 	.word	0x24058501
24058560:	240585b5 	.word	0x240585b5
24058564:	24058501 	.word	0x24058501
24058568:	24058501 	.word	0x24058501
2405856c:	2405867b 	.word	0x2405867b
24058570:	680b      	ldr	r3, [r1, #0]
24058572:	1d1a      	adds	r2, r3, #4
24058574:	681b      	ldr	r3, [r3, #0]
24058576:	600a      	str	r2, [r1, #0]
24058578:	f104 0642 	add.w	r6, r4, #66	; 0x42
2405857c:	f884 3042 	strb.w	r3, [r4, #66]	; 0x42
24058580:	2301      	movs	r3, #1
24058582:	e0a3      	b.n	240586cc <_printf_i+0x1f4>
24058584:	6825      	ldr	r5, [r4, #0]
24058586:	6808      	ldr	r0, [r1, #0]
24058588:	062e      	lsls	r6, r5, #24
2405858a:	f100 0304 	add.w	r3, r0, #4
2405858e:	d50a      	bpl.n	240585a6 <_printf_i+0xce>
24058590:	6805      	ldr	r5, [r0, #0]
24058592:	600b      	str	r3, [r1, #0]
24058594:	2d00      	cmp	r5, #0
24058596:	da03      	bge.n	240585a0 <_printf_i+0xc8>
24058598:	232d      	movs	r3, #45	; 0x2d
2405859a:	426d      	negs	r5, r5
2405859c:	f884 3043 	strb.w	r3, [r4, #67]	; 0x43
240585a0:	485e      	ldr	r0, [pc, #376]	; (2405871c <_printf_i+0x244>)
240585a2:	230a      	movs	r3, #10
240585a4:	e019      	b.n	240585da <_printf_i+0x102>
240585a6:	f015 0f40 	tst.w	r5, #64	; 0x40
240585aa:	6805      	ldr	r5, [r0, #0]
240585ac:	600b      	str	r3, [r1, #0]
240585ae:	bf18      	it	ne
240585b0:	b22d      	sxthne	r5, r5
240585b2:	e7ef      	b.n	24058594 <_printf_i+0xbc>
240585b4:	680b      	ldr	r3, [r1, #0]
240585b6:	6825      	ldr	r5, [r4, #0]
240585b8:	1d18      	adds	r0, r3, #4
240585ba:	6008      	str	r0, [r1, #0]
240585bc:	0628      	lsls	r0, r5, #24
240585be:	d501      	bpl.n	240585c4 <_printf_i+0xec>
240585c0:	681d      	ldr	r5, [r3, #0]
240585c2:	e002      	b.n	240585ca <_printf_i+0xf2>
240585c4:	0669      	lsls	r1, r5, #25
240585c6:	d5fb      	bpl.n	240585c0 <_printf_i+0xe8>
240585c8:	881d      	ldrh	r5, [r3, #0]
240585ca:	4854      	ldr	r0, [pc, #336]	; (2405871c <_printf_i+0x244>)
240585cc:	2f6f      	cmp	r7, #111	; 0x6f
240585ce:	bf0c      	ite	eq
240585d0:	2308      	moveq	r3, #8
240585d2:	230a      	movne	r3, #10
240585d4:	2100      	movs	r1, #0
240585d6:	f884 1043 	strb.w	r1, [r4, #67]	; 0x43
240585da:	6866      	ldr	r6, [r4, #4]
240585dc:	60a6      	str	r6, [r4, #8]
240585de:	2e00      	cmp	r6, #0
240585e0:	bfa2      	ittt	ge
240585e2:	6821      	ldrge	r1, [r4, #0]
240585e4:	f021 0104 	bicge.w	r1, r1, #4
240585e8:	6021      	strge	r1, [r4, #0]
240585ea:	b90d      	cbnz	r5, 240585f0 <_printf_i+0x118>
240585ec:	2e00      	cmp	r6, #0
240585ee:	d04d      	beq.n	2405868c <_printf_i+0x1b4>
240585f0:	4616      	mov	r6, r2
240585f2:	fbb5 f1f3 	udiv	r1, r5, r3
240585f6:	fb03 5711 	mls	r7, r3, r1, r5
240585fa:	5dc7      	ldrb	r7, [r0, r7]
240585fc:	f806 7d01 	strb.w	r7, [r6, #-1]!
24058600:	462f      	mov	r7, r5
24058602:	42bb      	cmp	r3, r7
24058604:	460d      	mov	r5, r1
24058606:	d9f4      	bls.n	240585f2 <_printf_i+0x11a>
24058608:	2b08      	cmp	r3, #8
2405860a:	d10b      	bne.n	24058624 <_printf_i+0x14c>
2405860c:	6823      	ldr	r3, [r4, #0]
2405860e:	07df      	lsls	r7, r3, #31
24058610:	d508      	bpl.n	24058624 <_printf_i+0x14c>
24058612:	6923      	ldr	r3, [r4, #16]
24058614:	6861      	ldr	r1, [r4, #4]
24058616:	4299      	cmp	r1, r3
24058618:	bfde      	ittt	le
2405861a:	2330      	movle	r3, #48	; 0x30
2405861c:	f806 3c01 	strble.w	r3, [r6, #-1]
24058620:	f106 36ff 	addle.w	r6, r6, #4294967295
24058624:	1b92      	subs	r2, r2, r6
24058626:	6122      	str	r2, [r4, #16]
24058628:	f8cd a000 	str.w	sl, [sp]
2405862c:	464b      	mov	r3, r9
2405862e:	aa03      	add	r2, sp, #12
24058630:	4621      	mov	r1, r4
24058632:	4640      	mov	r0, r8
24058634:	f7ff fee2 	bl	240583fc <_printf_common>
24058638:	3001      	adds	r0, #1
2405863a:	d14c      	bne.n	240586d6 <_printf_i+0x1fe>
2405863c:	f04f 30ff 	mov.w	r0, #4294967295
24058640:	b004      	add	sp, #16
24058642:	e8bd 87f0 	ldmia.w	sp!, {r4, r5, r6, r7, r8, r9, sl, pc}
24058646:	4835      	ldr	r0, [pc, #212]	; (2405871c <_printf_i+0x244>)
24058648:	f884 7045 	strb.w	r7, [r4, #69]	; 0x45
2405864c:	6823      	ldr	r3, [r4, #0]
2405864e:	680e      	ldr	r6, [r1, #0]
24058650:	061f      	lsls	r7, r3, #24
24058652:	f856 5b04 	ldr.w	r5, [r6], #4
24058656:	600e      	str	r6, [r1, #0]
24058658:	d514      	bpl.n	24058684 <_printf_i+0x1ac>
2405865a:	07d9      	lsls	r1, r3, #31
2405865c:	bf44      	itt	mi
2405865e:	f043 0320 	orrmi.w	r3, r3, #32
24058662:	6023      	strmi	r3, [r4, #0]
24058664:	b91d      	cbnz	r5, 2405866e <_printf_i+0x196>
24058666:	6823      	ldr	r3, [r4, #0]
24058668:	f023 0320 	bic.w	r3, r3, #32
2405866c:	6023      	str	r3, [r4, #0]
2405866e:	2310      	movs	r3, #16
24058670:	e7b0      	b.n	240585d4 <_printf_i+0xfc>
24058672:	6823      	ldr	r3, [r4, #0]
24058674:	f043 0320 	orr.w	r3, r3, #32
24058678:	6023      	str	r3, [r4, #0]
2405867a:	2378      	movs	r3, #120	; 0x78
2405867c:	4828      	ldr	r0, [pc, #160]	; (24058720 <_printf_i+0x248>)
2405867e:	f884 3045 	strb.w	r3, [r4, #69]	; 0x45
24058682:	e7e3      	b.n	2405864c <_printf_i+0x174>
24058684:	065e      	lsls	r6, r3, #25
24058686:	bf48      	it	mi
24058688:	b2ad      	uxthmi	r5, r5
2405868a:	e7e6      	b.n	2405865a <_printf_i+0x182>
2405868c:	4616      	mov	r6, r2
2405868e:	e7bb      	b.n	24058608 <_printf_i+0x130>
24058690:	680b      	ldr	r3, [r1, #0]
24058692:	6826      	ldr	r6, [r4, #0]
24058694:	6960      	ldr	r0, [r4, #20]
24058696:	1d1d      	adds	r5, r3, #4
24058698:	600d      	str	r5, [r1, #0]
2405869a:	0635      	lsls	r5, r6, #24
2405869c:	681b      	ldr	r3, [r3, #0]
2405869e:	d501      	bpl.n	240586a4 <_printf_i+0x1cc>
240586a0:	6018      	str	r0, [r3, #0]
240586a2:	e002      	b.n	240586aa <_printf_i+0x1d2>
240586a4:	0671      	lsls	r1, r6, #25
240586a6:	d5fb      	bpl.n	240586a0 <_printf_i+0x1c8>
240586a8:	8018      	strh	r0, [r3, #0]
240586aa:	2300      	movs	r3, #0
240586ac:	6123      	str	r3, [r4, #16]
240586ae:	4616      	mov	r6, r2
240586b0:	e7ba      	b.n	24058628 <_printf_i+0x150>
240586b2:	680b      	ldr	r3, [r1, #0]
240586b4:	1d1a      	adds	r2, r3, #4
240586b6:	600a      	str	r2, [r1, #0]
240586b8:	681e      	ldr	r6, [r3, #0]
240586ba:	6862      	ldr	r2, [r4, #4]
240586bc:	2100      	movs	r1, #0
240586be:	4630      	mov	r0, r6
240586c0:	f7f7 fcbe 	bl	24050040 <memchr>
240586c4:	b108      	cbz	r0, 240586ca <_printf_i+0x1f2>
240586c6:	1b80      	subs	r0, r0, r6
240586c8:	6060      	str	r0, [r4, #4]
240586ca:	6863      	ldr	r3, [r4, #4]
240586cc:	6123      	str	r3, [r4, #16]
240586ce:	2300      	movs	r3, #0
240586d0:	f884 3043 	strb.w	r3, [r4, #67]	; 0x43
240586d4:	e7a8      	b.n	24058628 <_printf_i+0x150>
240586d6:	6923      	ldr	r3, [r4, #16]
240586d8:	4632      	mov	r2, r6
240586da:	4649      	mov	r1, r9
240586dc:	4640      	mov	r0, r8
240586de:	47d0      	blx	sl
240586e0:	3001      	adds	r0, #1
240586e2:	d0ab      	beq.n	2405863c <_printf_i+0x164>
240586e4:	6823      	ldr	r3, [r4, #0]
240586e6:	079b      	lsls	r3, r3, #30
240586e8:	d413      	bmi.n	24058712 <_printf_i+0x23a>
240586ea:	68e0      	ldr	r0, [r4, #12]
240586ec:	9b03      	ldr	r3, [sp, #12]
240586ee:	4298      	cmp	r0, r3
240586f0:	bfb8      	it	lt
240586f2:	4618      	movlt	r0, r3
240586f4:	e7a4      	b.n	24058640 <_printf_i+0x168>
240586f6:	2301      	movs	r3, #1
240586f8:	4632      	mov	r2, r6
240586fa:	4649      	mov	r1, r9
240586fc:	4640      	mov	r0, r8
240586fe:	47d0      	blx	sl
24058700:	3001      	adds	r0, #1
24058702:	d09b      	beq.n	2405863c <_printf_i+0x164>
24058704:	3501      	adds	r5, #1
24058706:	68e3      	ldr	r3, [r4, #12]
24058708:	9903      	ldr	r1, [sp, #12]
2405870a:	1a5b      	subs	r3, r3, r1
2405870c:	42ab      	cmp	r3, r5
2405870e:	dcf2      	bgt.n	240586f6 <_printf_i+0x21e>
24058710:	e7eb      	b.n	240586ea <_printf_i+0x212>
24058712:	2500      	movs	r5, #0
24058714:	f104 0619 	add.w	r6, r4, #25
24058718:	e7f5      	b.n	24058706 <_printf_i+0x22e>
2405871a:	bf00      	nop
2405871c:	2405a10b 	.word	0x2405a10b
24058720:	2405a11c 	.word	0x2405a11c

24058724 <_sbrk_r>:
24058724:	b538      	push	{r3, r4, r5, lr}
24058726:	4d06      	ldr	r5, [pc, #24]	; (24058740 <_sbrk_r+0x1c>)
24058728:	2300      	movs	r3, #0
2405872a:	4604      	mov	r4, r0
2405872c:	4608      	mov	r0, r1
2405872e:	602b      	str	r3, [r5, #0]
24058730:	f7f9 fa86 	bl	24051c40 <_sbrk>
24058734:	1c43      	adds	r3, r0, #1
24058736:	d102      	bne.n	2405873e <_sbrk_r+0x1a>
24058738:	682b      	ldr	r3, [r5, #0]
2405873a:	b103      	cbz	r3, 2405873e <_sbrk_r+0x1a>
2405873c:	6023      	str	r3, [r4, #0]
2405873e:	bd38      	pop	{r3, r4, r5, pc}
24058740:	200005e8 	.word	0x200005e8

24058744 <__swbuf_r>:
24058744:	b5f8      	push	{r3, r4, r5, r6, r7, lr}
24058746:	460e      	mov	r6, r1
24058748:	4614      	mov	r4, r2
2405874a:	4605      	mov	r5, r0
2405874c:	b118      	cbz	r0, 24058756 <__swbuf_r+0x12>
2405874e:	6983      	ldr	r3, [r0, #24]
24058750:	b90b      	cbnz	r3, 24058756 <__swbuf_r+0x12>
24058752:	f000 f9d9 	bl	24058b08 <__sinit>
24058756:	4b21      	ldr	r3, [pc, #132]	; (240587dc <__swbuf_r+0x98>)
24058758:	429c      	cmp	r4, r3
2405875a:	d12b      	bne.n	240587b4 <__swbuf_r+0x70>
2405875c:	686c      	ldr	r4, [r5, #4]
2405875e:	69a3      	ldr	r3, [r4, #24]
24058760:	60a3      	str	r3, [r4, #8]
24058762:	89a3      	ldrh	r3, [r4, #12]
24058764:	071a      	lsls	r2, r3, #28
24058766:	d52f      	bpl.n	240587c8 <__swbuf_r+0x84>
24058768:	6923      	ldr	r3, [r4, #16]
2405876a:	b36b      	cbz	r3, 240587c8 <__swbuf_r+0x84>
2405876c:	6923      	ldr	r3, [r4, #16]
2405876e:	6820      	ldr	r0, [r4, #0]
24058770:	1ac0      	subs	r0, r0, r3
24058772:	6963      	ldr	r3, [r4, #20]
24058774:	b2f6      	uxtb	r6, r6
24058776:	4283      	cmp	r3, r0
24058778:	4637      	mov	r7, r6
2405877a:	dc04      	bgt.n	24058786 <__swbuf_r+0x42>
2405877c:	4621      	mov	r1, r4
2405877e:	4628      	mov	r0, r5
24058780:	f000 f92e 	bl	240589e0 <_fflush_r>
24058784:	bb30      	cbnz	r0, 240587d4 <__swbuf_r+0x90>
24058786:	68a3      	ldr	r3, [r4, #8]
24058788:	3b01      	subs	r3, #1
2405878a:	60a3      	str	r3, [r4, #8]
2405878c:	6823      	ldr	r3, [r4, #0]
2405878e:	1c5a      	adds	r2, r3, #1
24058790:	6022      	str	r2, [r4, #0]
24058792:	701e      	strb	r6, [r3, #0]
24058794:	6963      	ldr	r3, [r4, #20]
24058796:	3001      	adds	r0, #1
24058798:	4283      	cmp	r3, r0
2405879a:	d004      	beq.n	240587a6 <__swbuf_r+0x62>
2405879c:	89a3      	ldrh	r3, [r4, #12]
2405879e:	07db      	lsls	r3, r3, #31
240587a0:	d506      	bpl.n	240587b0 <__swbuf_r+0x6c>
240587a2:	2e0a      	cmp	r6, #10
240587a4:	d104      	bne.n	240587b0 <__swbuf_r+0x6c>
240587a6:	4621      	mov	r1, r4
240587a8:	4628      	mov	r0, r5
240587aa:	f000 f919 	bl	240589e0 <_fflush_r>
240587ae:	b988      	cbnz	r0, 240587d4 <__swbuf_r+0x90>
240587b0:	4638      	mov	r0, r7
240587b2:	bdf8      	pop	{r3, r4, r5, r6, r7, pc}
240587b4:	4b0a      	ldr	r3, [pc, #40]	; (240587e0 <__swbuf_r+0x9c>)
240587b6:	429c      	cmp	r4, r3
240587b8:	d101      	bne.n	240587be <__swbuf_r+0x7a>
240587ba:	68ac      	ldr	r4, [r5, #8]
240587bc:	e7cf      	b.n	2405875e <__swbuf_r+0x1a>
240587be:	4b09      	ldr	r3, [pc, #36]	; (240587e4 <__swbuf_r+0xa0>)
240587c0:	429c      	cmp	r4, r3
240587c2:	bf08      	it	eq
240587c4:	68ec      	ldreq	r4, [r5, #12]
240587c6:	e7ca      	b.n	2405875e <__swbuf_r+0x1a>
240587c8:	4621      	mov	r1, r4
240587ca:	4628      	mov	r0, r5
240587cc:	f000 f80c 	bl	240587e8 <__swsetup_r>
240587d0:	2800      	cmp	r0, #0
240587d2:	d0cb      	beq.n	2405876c <__swbuf_r+0x28>
240587d4:	f04f 37ff 	mov.w	r7, #4294967295
240587d8:	e7ea      	b.n	240587b0 <__swbuf_r+0x6c>
240587da:	bf00      	nop
240587dc:	2405a150 	.word	0x2405a150
240587e0:	2405a170 	.word	0x2405a170
240587e4:	2405a130 	.word	0x2405a130

240587e8 <__swsetup_r>:
240587e8:	4b32      	ldr	r3, [pc, #200]	; (240588b4 <__swsetup_r+0xcc>)
240587ea:	b570      	push	{r4, r5, r6, lr}
240587ec:	681d      	ldr	r5, [r3, #0]
240587ee:	4606      	mov	r6, r0
240587f0:	460c      	mov	r4, r1
240587f2:	b125      	cbz	r5, 240587fe <__swsetup_r+0x16>
240587f4:	69ab      	ldr	r3, [r5, #24]
240587f6:	b913      	cbnz	r3, 240587fe <__swsetup_r+0x16>
240587f8:	4628      	mov	r0, r5
240587fa:	f000 f985 	bl	24058b08 <__sinit>
240587fe:	4b2e      	ldr	r3, [pc, #184]	; (240588b8 <__swsetup_r+0xd0>)
24058800:	429c      	cmp	r4, r3
24058802:	d10f      	bne.n	24058824 <__swsetup_r+0x3c>
24058804:	686c      	ldr	r4, [r5, #4]
24058806:	89a3      	ldrh	r3, [r4, #12]
24058808:	f9b4 200c 	ldrsh.w	r2, [r4, #12]
2405880c:	0719      	lsls	r1, r3, #28
2405880e:	d42c      	bmi.n	2405886a <__swsetup_r+0x82>
24058810:	06dd      	lsls	r5, r3, #27
24058812:	d411      	bmi.n	24058838 <__swsetup_r+0x50>
24058814:	2309      	movs	r3, #9
24058816:	6033      	str	r3, [r6, #0]
24058818:	f042 0340 	orr.w	r3, r2, #64	; 0x40
2405881c:	81a3      	strh	r3, [r4, #12]
2405881e:	f04f 30ff 	mov.w	r0, #4294967295
24058822:	e03e      	b.n	240588a2 <__swsetup_r+0xba>
24058824:	4b25      	ldr	r3, [pc, #148]	; (240588bc <__swsetup_r+0xd4>)
24058826:	429c      	cmp	r4, r3
24058828:	d101      	bne.n	2405882e <__swsetup_r+0x46>
2405882a:	68ac      	ldr	r4, [r5, #8]
2405882c:	e7eb      	b.n	24058806 <__swsetup_r+0x1e>
2405882e:	4b24      	ldr	r3, [pc, #144]	; (240588c0 <__swsetup_r+0xd8>)
24058830:	429c      	cmp	r4, r3
24058832:	bf08      	it	eq
24058834:	68ec      	ldreq	r4, [r5, #12]
24058836:	e7e6      	b.n	24058806 <__swsetup_r+0x1e>
24058838:	0758      	lsls	r0, r3, #29
2405883a:	d512      	bpl.n	24058862 <__swsetup_r+0x7a>
2405883c:	6b61      	ldr	r1, [r4, #52]	; 0x34
2405883e:	b141      	cbz	r1, 24058852 <__swsetup_r+0x6a>
24058840:	f104 0344 	add.w	r3, r4, #68	; 0x44
24058844:	4299      	cmp	r1, r3
24058846:	d002      	beq.n	2405884e <__swsetup_r+0x66>
24058848:	4630      	mov	r0, r6
2405884a:	f7ff fa77 	bl	24057d3c <_free_r>
2405884e:	2300      	movs	r3, #0
24058850:	6363      	str	r3, [r4, #52]	; 0x34
24058852:	89a3      	ldrh	r3, [r4, #12]
24058854:	f023 0324 	bic.w	r3, r3, #36	; 0x24
24058858:	81a3      	strh	r3, [r4, #12]
2405885a:	2300      	movs	r3, #0
2405885c:	6063      	str	r3, [r4, #4]
2405885e:	6923      	ldr	r3, [r4, #16]
24058860:	6023      	str	r3, [r4, #0]
24058862:	89a3      	ldrh	r3, [r4, #12]
24058864:	f043 0308 	orr.w	r3, r3, #8
24058868:	81a3      	strh	r3, [r4, #12]
2405886a:	6923      	ldr	r3, [r4, #16]
2405886c:	b94b      	cbnz	r3, 24058882 <__swsetup_r+0x9a>
2405886e:	89a3      	ldrh	r3, [r4, #12]
24058870:	f403 7320 	and.w	r3, r3, #640	; 0x280
24058874:	f5b3 7f00 	cmp.w	r3, #512	; 0x200
24058878:	d003      	beq.n	24058882 <__swsetup_r+0x9a>
2405887a:	4621      	mov	r1, r4
2405887c:	4630      	mov	r0, r6
2405887e:	f000 fa07 	bl	24058c90 <__smakebuf_r>
24058882:	89a0      	ldrh	r0, [r4, #12]
24058884:	f9b4 200c 	ldrsh.w	r2, [r4, #12]
24058888:	f010 0301 	ands.w	r3, r0, #1
2405888c:	d00a      	beq.n	240588a4 <__swsetup_r+0xbc>
2405888e:	2300      	movs	r3, #0
24058890:	60a3      	str	r3, [r4, #8]
24058892:	6963      	ldr	r3, [r4, #20]
24058894:	425b      	negs	r3, r3
24058896:	61a3      	str	r3, [r4, #24]
24058898:	6923      	ldr	r3, [r4, #16]
2405889a:	b943      	cbnz	r3, 240588ae <__swsetup_r+0xc6>
2405889c:	f010 0080 	ands.w	r0, r0, #128	; 0x80
240588a0:	d1ba      	bne.n	24058818 <__swsetup_r+0x30>
240588a2:	bd70      	pop	{r4, r5, r6, pc}
240588a4:	0781      	lsls	r1, r0, #30
240588a6:	bf58      	it	pl
240588a8:	6963      	ldrpl	r3, [r4, #20]
240588aa:	60a3      	str	r3, [r4, #8]
240588ac:	e7f4      	b.n	24058898 <__swsetup_r+0xb0>
240588ae:	2000      	movs	r0, #0
240588b0:	e7f7      	b.n	240588a2 <__swsetup_r+0xba>
240588b2:	bf00      	nop
240588b4:	20000040 	.word	0x20000040
240588b8:	2405a150 	.word	0x2405a150
240588bc:	2405a170 	.word	0x2405a170
240588c0:	2405a130 	.word	0x2405a130

240588c4 <abort>:
240588c4:	b508      	push	{r3, lr}
240588c6:	2006      	movs	r0, #6
240588c8:	f000 fa96 	bl	24058df8 <raise>
240588cc:	2001      	movs	r0, #1
240588ce:	f7f9 f98b 	bl	24051be8 <_exit>
	...

240588d4 <__sflush_r>:
240588d4:	898a      	ldrh	r2, [r1, #12]
240588d6:	e92d 41f0 	stmdb	sp!, {r4, r5, r6, r7, r8, lr}
240588da:	4605      	mov	r5, r0
240588dc:	0710      	lsls	r0, r2, #28
240588de:	460c      	mov	r4, r1
240588e0:	d458      	bmi.n	24058994 <__sflush_r+0xc0>
240588e2:	684b      	ldr	r3, [r1, #4]
240588e4:	2b00      	cmp	r3, #0
240588e6:	dc05      	bgt.n	240588f4 <__sflush_r+0x20>
240588e8:	6c0b      	ldr	r3, [r1, #64]	; 0x40
240588ea:	2b00      	cmp	r3, #0
240588ec:	dc02      	bgt.n	240588f4 <__sflush_r+0x20>
240588ee:	2000      	movs	r0, #0
240588f0:	e8bd 81f0 	ldmia.w	sp!, {r4, r5, r6, r7, r8, pc}
240588f4:	6ae6      	ldr	r6, [r4, #44]	; 0x2c
240588f6:	2e00      	cmp	r6, #0
240588f8:	d0f9      	beq.n	240588ee <__sflush_r+0x1a>
240588fa:	2300      	movs	r3, #0
240588fc:	f412 5280 	ands.w	r2, r2, #4096	; 0x1000
24058900:	682f      	ldr	r7, [r5, #0]
24058902:	602b      	str	r3, [r5, #0]
24058904:	d032      	beq.n	2405896c <__sflush_r+0x98>
24058906:	6d60      	ldr	r0, [r4, #84]	; 0x54
24058908:	89a3      	ldrh	r3, [r4, #12]
2405890a:	075a      	lsls	r2, r3, #29
2405890c:	d505      	bpl.n	2405891a <__sflush_r+0x46>
2405890e:	6863      	ldr	r3, [r4, #4]
24058910:	1ac0      	subs	r0, r0, r3
24058912:	6b63      	ldr	r3, [r4, #52]	; 0x34
24058914:	b10b      	cbz	r3, 2405891a <__sflush_r+0x46>
24058916:	6c23      	ldr	r3, [r4, #64]	; 0x40
24058918:	1ac0      	subs	r0, r0, r3
2405891a:	2300      	movs	r3, #0
2405891c:	4602      	mov	r2, r0
2405891e:	6ae6      	ldr	r6, [r4, #44]	; 0x2c
24058920:	6a21      	ldr	r1, [r4, #32]
24058922:	4628      	mov	r0, r5
24058924:	47b0      	blx	r6
24058926:	1c43      	adds	r3, r0, #1
24058928:	89a3      	ldrh	r3, [r4, #12]
2405892a:	d106      	bne.n	2405893a <__sflush_r+0x66>
2405892c:	6829      	ldr	r1, [r5, #0]
2405892e:	291d      	cmp	r1, #29
24058930:	d82c      	bhi.n	2405898c <__sflush_r+0xb8>
24058932:	4a2a      	ldr	r2, [pc, #168]	; (240589dc <__sflush_r+0x108>)
24058934:	40ca      	lsrs	r2, r1
24058936:	07d6      	lsls	r6, r2, #31
24058938:	d528      	bpl.n	2405898c <__sflush_r+0xb8>
2405893a:	2200      	movs	r2, #0
2405893c:	6062      	str	r2, [r4, #4]
2405893e:	04d9      	lsls	r1, r3, #19
24058940:	6922      	ldr	r2, [r4, #16]
24058942:	6022      	str	r2, [r4, #0]
24058944:	d504      	bpl.n	24058950 <__sflush_r+0x7c>
24058946:	1c42      	adds	r2, r0, #1
24058948:	d101      	bne.n	2405894e <__sflush_r+0x7a>
2405894a:	682b      	ldr	r3, [r5, #0]
2405894c:	b903      	cbnz	r3, 24058950 <__sflush_r+0x7c>
2405894e:	6560      	str	r0, [r4, #84]	; 0x54
24058950:	6b61      	ldr	r1, [r4, #52]	; 0x34
24058952:	602f      	str	r7, [r5, #0]
24058954:	2900      	cmp	r1, #0
24058956:	d0ca      	beq.n	240588ee <__sflush_r+0x1a>
24058958:	f104 0344 	add.w	r3, r4, #68	; 0x44
2405895c:	4299      	cmp	r1, r3
2405895e:	d002      	beq.n	24058966 <__sflush_r+0x92>
24058960:	4628      	mov	r0, r5
24058962:	f7ff f9eb 	bl	24057d3c <_free_r>
24058966:	2000      	movs	r0, #0
24058968:	6360      	str	r0, [r4, #52]	; 0x34
2405896a:	e7c1      	b.n	240588f0 <__sflush_r+0x1c>
2405896c:	6a21      	ldr	r1, [r4, #32]
2405896e:	2301      	movs	r3, #1
24058970:	4628      	mov	r0, r5
24058972:	47b0      	blx	r6
24058974:	1c41      	adds	r1, r0, #1
24058976:	d1c7      	bne.n	24058908 <__sflush_r+0x34>
24058978:	682b      	ldr	r3, [r5, #0]
2405897a:	2b00      	cmp	r3, #0
2405897c:	d0c4      	beq.n	24058908 <__sflush_r+0x34>
2405897e:	2b1d      	cmp	r3, #29
24058980:	d001      	beq.n	24058986 <__sflush_r+0xb2>
24058982:	2b16      	cmp	r3, #22
24058984:	d101      	bne.n	2405898a <__sflush_r+0xb6>
24058986:	602f      	str	r7, [r5, #0]
24058988:	e7b1      	b.n	240588ee <__sflush_r+0x1a>
2405898a:	89a3      	ldrh	r3, [r4, #12]
2405898c:	f043 0340 	orr.w	r3, r3, #64	; 0x40
24058990:	81a3      	strh	r3, [r4, #12]
24058992:	e7ad      	b.n	240588f0 <__sflush_r+0x1c>
24058994:	690f      	ldr	r7, [r1, #16]
24058996:	2f00      	cmp	r7, #0
24058998:	d0a9      	beq.n	240588ee <__sflush_r+0x1a>
2405899a:	0793      	lsls	r3, r2, #30
2405899c:	680e      	ldr	r6, [r1, #0]
2405899e:	bf08      	it	eq
240589a0:	694b      	ldreq	r3, [r1, #20]
240589a2:	600f      	str	r7, [r1, #0]
240589a4:	bf18      	it	ne
240589a6:	2300      	movne	r3, #0
240589a8:	eba6 0807 	sub.w	r8, r6, r7
240589ac:	608b      	str	r3, [r1, #8]
240589ae:	f1b8 0f00 	cmp.w	r8, #0
240589b2:	dd9c      	ble.n	240588ee <__sflush_r+0x1a>
240589b4:	6a21      	ldr	r1, [r4, #32]
240589b6:	6aa6      	ldr	r6, [r4, #40]	; 0x28
240589b8:	4643      	mov	r3, r8
240589ba:	463a      	mov	r2, r7
240589bc:	4628      	mov	r0, r5
240589be:	47b0      	blx	r6
240589c0:	2800      	cmp	r0, #0
240589c2:	dc06      	bgt.n	240589d2 <__sflush_r+0xfe>
240589c4:	89a3      	ldrh	r3, [r4, #12]
240589c6:	f043 0340 	orr.w	r3, r3, #64	; 0x40
240589ca:	81a3      	strh	r3, [r4, #12]
240589cc:	f04f 30ff 	mov.w	r0, #4294967295
240589d0:	e78e      	b.n	240588f0 <__sflush_r+0x1c>
240589d2:	4407      	add	r7, r0
240589d4:	eba8 0800 	sub.w	r8, r8, r0
240589d8:	e7e9      	b.n	240589ae <__sflush_r+0xda>
240589da:	bf00      	nop
240589dc:	20400001 	.word	0x20400001

240589e0 <_fflush_r>:
240589e0:	b538      	push	{r3, r4, r5, lr}
240589e2:	690b      	ldr	r3, [r1, #16]
240589e4:	4605      	mov	r5, r0
240589e6:	460c      	mov	r4, r1
240589e8:	b913      	cbnz	r3, 240589f0 <_fflush_r+0x10>
240589ea:	2500      	movs	r5, #0
240589ec:	4628      	mov	r0, r5
240589ee:	bd38      	pop	{r3, r4, r5, pc}
240589f0:	b118      	cbz	r0, 240589fa <_fflush_r+0x1a>
240589f2:	6983      	ldr	r3, [r0, #24]
240589f4:	b90b      	cbnz	r3, 240589fa <_fflush_r+0x1a>
240589f6:	f000 f887 	bl	24058b08 <__sinit>
240589fa:	4b14      	ldr	r3, [pc, #80]	; (24058a4c <_fflush_r+0x6c>)
240589fc:	429c      	cmp	r4, r3
240589fe:	d11b      	bne.n	24058a38 <_fflush_r+0x58>
24058a00:	686c      	ldr	r4, [r5, #4]
24058a02:	f9b4 300c 	ldrsh.w	r3, [r4, #12]
24058a06:	2b00      	cmp	r3, #0
24058a08:	d0ef      	beq.n	240589ea <_fflush_r+0xa>
24058a0a:	6e62      	ldr	r2, [r4, #100]	; 0x64
24058a0c:	07d0      	lsls	r0, r2, #31
24058a0e:	d404      	bmi.n	24058a1a <_fflush_r+0x3a>
24058a10:	0599      	lsls	r1, r3, #22
24058a12:	d402      	bmi.n	24058a1a <_fflush_r+0x3a>
24058a14:	6da0      	ldr	r0, [r4, #88]	; 0x58
24058a16:	f000 f915 	bl	24058c44 <__retarget_lock_acquire_recursive>
24058a1a:	4628      	mov	r0, r5
24058a1c:	4621      	mov	r1, r4
24058a1e:	f7ff ff59 	bl	240588d4 <__sflush_r>
24058a22:	6e63      	ldr	r3, [r4, #100]	; 0x64
24058a24:	07da      	lsls	r2, r3, #31
24058a26:	4605      	mov	r5, r0
24058a28:	d4e0      	bmi.n	240589ec <_fflush_r+0xc>
24058a2a:	89a3      	ldrh	r3, [r4, #12]
24058a2c:	059b      	lsls	r3, r3, #22
24058a2e:	d4dd      	bmi.n	240589ec <_fflush_r+0xc>
24058a30:	6da0      	ldr	r0, [r4, #88]	; 0x58
24058a32:	f000 f908 	bl	24058c46 <__retarget_lock_release_recursive>
24058a36:	e7d9      	b.n	240589ec <_fflush_r+0xc>
24058a38:	4b05      	ldr	r3, [pc, #20]	; (24058a50 <_fflush_r+0x70>)
24058a3a:	429c      	cmp	r4, r3
24058a3c:	d101      	bne.n	24058a42 <_fflush_r+0x62>
24058a3e:	68ac      	ldr	r4, [r5, #8]
24058a40:	e7df      	b.n	24058a02 <_fflush_r+0x22>
24058a42:	4b04      	ldr	r3, [pc, #16]	; (24058a54 <_fflush_r+0x74>)
24058a44:	429c      	cmp	r4, r3
24058a46:	bf08      	it	eq
24058a48:	68ec      	ldreq	r4, [r5, #12]
24058a4a:	e7da      	b.n	24058a02 <_fflush_r+0x22>
24058a4c:	2405a150 	.word	0x2405a150
24058a50:	2405a170 	.word	0x2405a170
24058a54:	2405a130 	.word	0x2405a130

24058a58 <std>:
24058a58:	2300      	movs	r3, #0
24058a5a:	b510      	push	{r4, lr}
24058a5c:	4604      	mov	r4, r0
24058a5e:	e9c0 3300 	strd	r3, r3, [r0]
24058a62:	e9c0 3304 	strd	r3, r3, [r0, #16]
24058a66:	6083      	str	r3, [r0, #8]
24058a68:	8181      	strh	r1, [r0, #12]
24058a6a:	6643      	str	r3, [r0, #100]	; 0x64
24058a6c:	81c2      	strh	r2, [r0, #14]
24058a6e:	6183      	str	r3, [r0, #24]
24058a70:	4619      	mov	r1, r3
24058a72:	2208      	movs	r2, #8
24058a74:	305c      	adds	r0, #92	; 0x5c
24058a76:	f7ff f88b 	bl	24057b90 <memset>
24058a7a:	4b05      	ldr	r3, [pc, #20]	; (24058a90 <std+0x38>)
24058a7c:	6263      	str	r3, [r4, #36]	; 0x24
24058a7e:	4b05      	ldr	r3, [pc, #20]	; (24058a94 <std+0x3c>)
24058a80:	62a3      	str	r3, [r4, #40]	; 0x28
24058a82:	4b05      	ldr	r3, [pc, #20]	; (24058a98 <std+0x40>)
24058a84:	62e3      	str	r3, [r4, #44]	; 0x2c
24058a86:	4b05      	ldr	r3, [pc, #20]	; (24058a9c <std+0x44>)
24058a88:	6224      	str	r4, [r4, #32]
24058a8a:	6323      	str	r3, [r4, #48]	; 0x30
24058a8c:	bd10      	pop	{r4, pc}
24058a8e:	bf00      	nop
24058a90:	24058e31 	.word	0x24058e31
24058a94:	24058e53 	.word	0x24058e53
24058a98:	24058e8b 	.word	0x24058e8b
24058a9c:	24058eaf 	.word	0x24058eaf

24058aa0 <_cleanup_r>:
24058aa0:	4901      	ldr	r1, [pc, #4]	; (24058aa8 <_cleanup_r+0x8>)
24058aa2:	f000 b8af 	b.w	24058c04 <_fwalk_reent>
24058aa6:	bf00      	nop
24058aa8:	240589e1 	.word	0x240589e1

24058aac <__sfmoreglue>:
24058aac:	b570      	push	{r4, r5, r6, lr}
24058aae:	1e4a      	subs	r2, r1, #1
24058ab0:	2568      	movs	r5, #104	; 0x68
24058ab2:	4355      	muls	r5, r2
24058ab4:	460e      	mov	r6, r1
24058ab6:	f105 0174 	add.w	r1, r5, #116	; 0x74
24058aba:	f7ff f98f 	bl	24057ddc <_malloc_r>
24058abe:	4604      	mov	r4, r0
24058ac0:	b140      	cbz	r0, 24058ad4 <__sfmoreglue+0x28>
24058ac2:	2100      	movs	r1, #0
24058ac4:	e9c0 1600 	strd	r1, r6, [r0]
24058ac8:	300c      	adds	r0, #12
24058aca:	60a0      	str	r0, [r4, #8]
24058acc:	f105 0268 	add.w	r2, r5, #104	; 0x68
24058ad0:	f7ff f85e 	bl	24057b90 <memset>
24058ad4:	4620      	mov	r0, r4
24058ad6:	bd70      	pop	{r4, r5, r6, pc}

24058ad8 <__sfp_lock_acquire>:
24058ad8:	4801      	ldr	r0, [pc, #4]	; (24058ae0 <__sfp_lock_acquire+0x8>)
24058ada:	f000 b8b3 	b.w	24058c44 <__retarget_lock_acquire_recursive>
24058ade:	bf00      	nop
24058ae0:	200005e4 	.word	0x200005e4

24058ae4 <__sfp_lock_release>:
24058ae4:	4801      	ldr	r0, [pc, #4]	; (24058aec <__sfp_lock_release+0x8>)
24058ae6:	f000 b8ae 	b.w	24058c46 <__retarget_lock_release_recursive>
24058aea:	bf00      	nop
24058aec:	200005e4 	.word	0x200005e4

24058af0 <__sinit_lock_acquire>:
24058af0:	4801      	ldr	r0, [pc, #4]	; (24058af8 <__sinit_lock_acquire+0x8>)
24058af2:	f000 b8a7 	b.w	24058c44 <__retarget_lock_acquire_recursive>
24058af6:	bf00      	nop
24058af8:	200005df 	.word	0x200005df

24058afc <__sinit_lock_release>:
24058afc:	4801      	ldr	r0, [pc, #4]	; (24058b04 <__sinit_lock_release+0x8>)
24058afe:	f000 b8a2 	b.w	24058c46 <__retarget_lock_release_recursive>
24058b02:	bf00      	nop
24058b04:	200005df 	.word	0x200005df

24058b08 <__sinit>:
24058b08:	b510      	push	{r4, lr}
24058b0a:	4604      	mov	r4, r0
24058b0c:	f7ff fff0 	bl	24058af0 <__sinit_lock_acquire>
24058b10:	69a3      	ldr	r3, [r4, #24]
24058b12:	b11b      	cbz	r3, 24058b1c <__sinit+0x14>
24058b14:	e8bd 4010 	ldmia.w	sp!, {r4, lr}
24058b18:	f7ff bff0 	b.w	24058afc <__sinit_lock_release>
24058b1c:	e9c4 3312 	strd	r3, r3, [r4, #72]	; 0x48
24058b20:	6523      	str	r3, [r4, #80]	; 0x50
24058b22:	4b13      	ldr	r3, [pc, #76]	; (24058b70 <__sinit+0x68>)
24058b24:	4a13      	ldr	r2, [pc, #76]	; (24058b74 <__sinit+0x6c>)
24058b26:	681b      	ldr	r3, [r3, #0]
24058b28:	62a2      	str	r2, [r4, #40]	; 0x28
24058b2a:	42a3      	cmp	r3, r4
24058b2c:	bf04      	itt	eq
24058b2e:	2301      	moveq	r3, #1
24058b30:	61a3      	streq	r3, [r4, #24]
24058b32:	4620      	mov	r0, r4
24058b34:	f000 f820 	bl	24058b78 <__sfp>
24058b38:	6060      	str	r0, [r4, #4]
24058b3a:	4620      	mov	r0, r4
24058b3c:	f000 f81c 	bl	24058b78 <__sfp>
24058b40:	60a0      	str	r0, [r4, #8]
24058b42:	4620      	mov	r0, r4
24058b44:	f000 f818 	bl	24058b78 <__sfp>
24058b48:	2200      	movs	r2, #0
24058b4a:	60e0      	str	r0, [r4, #12]
24058b4c:	2104      	movs	r1, #4
24058b4e:	6860      	ldr	r0, [r4, #4]
24058b50:	f7ff ff82 	bl	24058a58 <std>
24058b54:	68a0      	ldr	r0, [r4, #8]
24058b56:	2201      	movs	r2, #1
24058b58:	2109      	movs	r1, #9
24058b5a:	f7ff ff7d 	bl	24058a58 <std>
24058b5e:	68e0      	ldr	r0, [r4, #12]
24058b60:	2202      	movs	r2, #2
24058b62:	2112      	movs	r1, #18
24058b64:	f7ff ff78 	bl	24058a58 <std>
24058b68:	2301      	movs	r3, #1
24058b6a:	61a3      	str	r3, [r4, #24]
24058b6c:	e7d2      	b.n	24058b14 <__sinit+0xc>
24058b6e:	bf00      	nop
24058b70:	2405a044 	.word	0x2405a044
24058b74:	24058aa1 	.word	0x24058aa1

24058b78 <__sfp>:
24058b78:	b5f8      	push	{r3, r4, r5, r6, r7, lr}
24058b7a:	4607      	mov	r7, r0
24058b7c:	f7ff ffac 	bl	24058ad8 <__sfp_lock_acquire>
24058b80:	4b1e      	ldr	r3, [pc, #120]	; (24058bfc <__sfp+0x84>)
24058b82:	681e      	ldr	r6, [r3, #0]
24058b84:	69b3      	ldr	r3, [r6, #24]
24058b86:	b913      	cbnz	r3, 24058b8e <__sfp+0x16>
24058b88:	4630      	mov	r0, r6
24058b8a:	f7ff ffbd 	bl	24058b08 <__sinit>
24058b8e:	3648      	adds	r6, #72	; 0x48
24058b90:	e9d6 3401 	ldrd	r3, r4, [r6, #4]
24058b94:	3b01      	subs	r3, #1
24058b96:	d503      	bpl.n	24058ba0 <__sfp+0x28>
24058b98:	6833      	ldr	r3, [r6, #0]
24058b9a:	b30b      	cbz	r3, 24058be0 <__sfp+0x68>
24058b9c:	6836      	ldr	r6, [r6, #0]
24058b9e:	e7f7      	b.n	24058b90 <__sfp+0x18>
24058ba0:	f9b4 500c 	ldrsh.w	r5, [r4, #12]
24058ba4:	b9d5      	cbnz	r5, 24058bdc <__sfp+0x64>
24058ba6:	4b16      	ldr	r3, [pc, #88]	; (24058c00 <__sfp+0x88>)
24058ba8:	60e3      	str	r3, [r4, #12]
24058baa:	f104 0058 	add.w	r0, r4, #88	; 0x58
24058bae:	6665      	str	r5, [r4, #100]	; 0x64
24058bb0:	f000 f847 	bl	24058c42 <__retarget_lock_init_recursive>
24058bb4:	f7ff ff96 	bl	24058ae4 <__sfp_lock_release>
24058bb8:	e9c4 5501 	strd	r5, r5, [r4, #4]
24058bbc:	e9c4 5504 	strd	r5, r5, [r4, #16]
24058bc0:	6025      	str	r5, [r4, #0]
24058bc2:	61a5      	str	r5, [r4, #24]
24058bc4:	2208      	movs	r2, #8
24058bc6:	4629      	mov	r1, r5
24058bc8:	f104 005c 	add.w	r0, r4, #92	; 0x5c
24058bcc:	f7fe ffe0 	bl	24057b90 <memset>
24058bd0:	e9c4 550d 	strd	r5, r5, [r4, #52]	; 0x34
24058bd4:	e9c4 5512 	strd	r5, r5, [r4, #72]	; 0x48
24058bd8:	4620      	mov	r0, r4
24058bda:	bdf8      	pop	{r3, r4, r5, r6, r7, pc}
24058bdc:	3468      	adds	r4, #104	; 0x68
24058bde:	e7d9      	b.n	24058b94 <__sfp+0x1c>
24058be0:	2104      	movs	r1, #4
24058be2:	4638      	mov	r0, r7
24058be4:	f7ff ff62 	bl	24058aac <__sfmoreglue>
24058be8:	4604      	mov	r4, r0
24058bea:	6030      	str	r0, [r6, #0]
24058bec:	2800      	cmp	r0, #0
24058bee:	d1d5      	bne.n	24058b9c <__sfp+0x24>
24058bf0:	f7ff ff78 	bl	24058ae4 <__sfp_lock_release>
24058bf4:	230c      	movs	r3, #12
24058bf6:	603b      	str	r3, [r7, #0]
24058bf8:	e7ee      	b.n	24058bd8 <__sfp+0x60>
24058bfa:	bf00      	nop
24058bfc:	2405a044 	.word	0x2405a044
24058c00:	ffff0001 	.word	0xffff0001

24058c04 <_fwalk_reent>:
24058c04:	e92d 43f8 	stmdb	sp!, {r3, r4, r5, r6, r7, r8, r9, lr}
24058c08:	4606      	mov	r6, r0
24058c0a:	4688      	mov	r8, r1
24058c0c:	f100 0448 	add.w	r4, r0, #72	; 0x48
24058c10:	2700      	movs	r7, #0
24058c12:	e9d4 9501 	ldrd	r9, r5, [r4, #4]
24058c16:	f1b9 0901 	subs.w	r9, r9, #1
24058c1a:	d505      	bpl.n	24058c28 <_fwalk_reent+0x24>
24058c1c:	6824      	ldr	r4, [r4, #0]
24058c1e:	2c00      	cmp	r4, #0
24058c20:	d1f7      	bne.n	24058c12 <_fwalk_reent+0xe>
24058c22:	4638      	mov	r0, r7
24058c24:	e8bd 83f8 	ldmia.w	sp!, {r3, r4, r5, r6, r7, r8, r9, pc}
24058c28:	89ab      	ldrh	r3, [r5, #12]
24058c2a:	2b01      	cmp	r3, #1
24058c2c:	d907      	bls.n	24058c3e <_fwalk_reent+0x3a>
24058c2e:	f9b5 300e 	ldrsh.w	r3, [r5, #14]
24058c32:	3301      	adds	r3, #1
24058c34:	d003      	beq.n	24058c3e <_fwalk_reent+0x3a>
24058c36:	4629      	mov	r1, r5
24058c38:	4630      	mov	r0, r6
24058c3a:	47c0      	blx	r8
24058c3c:	4307      	orrs	r7, r0
24058c3e:	3568      	adds	r5, #104	; 0x68
24058c40:	e7e9      	b.n	24058c16 <_fwalk_reent+0x12>

24058c42 <__retarget_lock_init_recursive>:
24058c42:	4770      	bx	lr

24058c44 <__retarget_lock_acquire_recursive>:
24058c44:	4770      	bx	lr

24058c46 <__retarget_lock_release_recursive>:
24058c46:	4770      	bx	lr

24058c48 <__swhatbuf_r>:
24058c48:	b570      	push	{r4, r5, r6, lr}
24058c4a:	460e      	mov	r6, r1
24058c4c:	f9b1 100e 	ldrsh.w	r1, [r1, #14]
24058c50:	2900      	cmp	r1, #0
24058c52:	b096      	sub	sp, #88	; 0x58
24058c54:	4614      	mov	r4, r2
24058c56:	461d      	mov	r5, r3
24058c58:	da07      	bge.n	24058c6a <__swhatbuf_r+0x22>
24058c5a:	2300      	movs	r3, #0
24058c5c:	602b      	str	r3, [r5, #0]
24058c5e:	89b3      	ldrh	r3, [r6, #12]
24058c60:	061a      	lsls	r2, r3, #24
24058c62:	d410      	bmi.n	24058c86 <__swhatbuf_r+0x3e>
24058c64:	f44f 6380 	mov.w	r3, #1024	; 0x400
24058c68:	e00e      	b.n	24058c88 <__swhatbuf_r+0x40>
24058c6a:	466a      	mov	r2, sp
24058c6c:	f000 f946 	bl	24058efc <_fstat_r>
24058c70:	2800      	cmp	r0, #0
24058c72:	dbf2      	blt.n	24058c5a <__swhatbuf_r+0x12>
24058c74:	9a01      	ldr	r2, [sp, #4]
24058c76:	f402 4270 	and.w	r2, r2, #61440	; 0xf000
24058c7a:	f5a2 5300 	sub.w	r3, r2, #8192	; 0x2000
24058c7e:	425a      	negs	r2, r3
24058c80:	415a      	adcs	r2, r3
24058c82:	602a      	str	r2, [r5, #0]
24058c84:	e7ee      	b.n	24058c64 <__swhatbuf_r+0x1c>
24058c86:	2340      	movs	r3, #64	; 0x40
24058c88:	2000      	movs	r0, #0
24058c8a:	6023      	str	r3, [r4, #0]
24058c8c:	b016      	add	sp, #88	; 0x58
24058c8e:	bd70      	pop	{r4, r5, r6, pc}

24058c90 <__smakebuf_r>:
24058c90:	898b      	ldrh	r3, [r1, #12]
24058c92:	b573      	push	{r0, r1, r4, r5, r6, lr}
24058c94:	079d      	lsls	r5, r3, #30
24058c96:	4606      	mov	r6, r0
24058c98:	460c      	mov	r4, r1
24058c9a:	d507      	bpl.n	24058cac <__smakebuf_r+0x1c>
24058c9c:	f104 0347 	add.w	r3, r4, #71	; 0x47
24058ca0:	6023      	str	r3, [r4, #0]
24058ca2:	6123      	str	r3, [r4, #16]
24058ca4:	2301      	movs	r3, #1
24058ca6:	6163      	str	r3, [r4, #20]
24058ca8:	b002      	add	sp, #8
24058caa:	bd70      	pop	{r4, r5, r6, pc}
24058cac:	ab01      	add	r3, sp, #4
24058cae:	466a      	mov	r2, sp
24058cb0:	f7ff ffca 	bl	24058c48 <__swhatbuf_r>
24058cb4:	9900      	ldr	r1, [sp, #0]
24058cb6:	4605      	mov	r5, r0
24058cb8:	4630      	mov	r0, r6
24058cba:	f7ff f88f 	bl	24057ddc <_malloc_r>
24058cbe:	b948      	cbnz	r0, 24058cd4 <__smakebuf_r+0x44>
24058cc0:	f9b4 300c 	ldrsh.w	r3, [r4, #12]
24058cc4:	059a      	lsls	r2, r3, #22
24058cc6:	d4ef      	bmi.n	24058ca8 <__smakebuf_r+0x18>
24058cc8:	f023 0303 	bic.w	r3, r3, #3
24058ccc:	f043 0302 	orr.w	r3, r3, #2
24058cd0:	81a3      	strh	r3, [r4, #12]
24058cd2:	e7e3      	b.n	24058c9c <__smakebuf_r+0xc>
24058cd4:	4b0d      	ldr	r3, [pc, #52]	; (24058d0c <__smakebuf_r+0x7c>)
24058cd6:	62b3      	str	r3, [r6, #40]	; 0x28
24058cd8:	89a3      	ldrh	r3, [r4, #12]
24058cda:	6020      	str	r0, [r4, #0]
24058cdc:	f043 0380 	orr.w	r3, r3, #128	; 0x80
24058ce0:	81a3      	strh	r3, [r4, #12]
24058ce2:	9b00      	ldr	r3, [sp, #0]
24058ce4:	6163      	str	r3, [r4, #20]
24058ce6:	9b01      	ldr	r3, [sp, #4]
24058ce8:	6120      	str	r0, [r4, #16]
24058cea:	b15b      	cbz	r3, 24058d04 <__smakebuf_r+0x74>
24058cec:	f9b4 100e 	ldrsh.w	r1, [r4, #14]
24058cf0:	4630      	mov	r0, r6
24058cf2:	f000 f915 	bl	24058f20 <_isatty_r>
24058cf6:	b128      	cbz	r0, 24058d04 <__smakebuf_r+0x74>
24058cf8:	89a3      	ldrh	r3, [r4, #12]
24058cfa:	f023 0303 	bic.w	r3, r3, #3
24058cfe:	f043 0301 	orr.w	r3, r3, #1
24058d02:	81a3      	strh	r3, [r4, #12]
24058d04:	89a0      	ldrh	r0, [r4, #12]
24058d06:	4305      	orrs	r5, r0
24058d08:	81a5      	strh	r5, [r4, #12]
24058d0a:	e7cd      	b.n	24058ca8 <__smakebuf_r+0x18>
24058d0c:	24058aa1 	.word	0x24058aa1

24058d10 <memmove>:
24058d10:	4288      	cmp	r0, r1
24058d12:	b510      	push	{r4, lr}
24058d14:	eb01 0402 	add.w	r4, r1, r2
24058d18:	d902      	bls.n	24058d20 <memmove+0x10>
24058d1a:	4284      	cmp	r4, r0
24058d1c:	4623      	mov	r3, r4
24058d1e:	d807      	bhi.n	24058d30 <memmove+0x20>
24058d20:	1e43      	subs	r3, r0, #1
24058d22:	42a1      	cmp	r1, r4
24058d24:	d008      	beq.n	24058d38 <memmove+0x28>
24058d26:	f811 2b01 	ldrb.w	r2, [r1], #1
24058d2a:	f803 2f01 	strb.w	r2, [r3, #1]!
24058d2e:	e7f8      	b.n	24058d22 <memmove+0x12>
24058d30:	4402      	add	r2, r0
24058d32:	4601      	mov	r1, r0
24058d34:	428a      	cmp	r2, r1
24058d36:	d100      	bne.n	24058d3a <memmove+0x2a>
24058d38:	bd10      	pop	{r4, pc}
24058d3a:	f813 4d01 	ldrb.w	r4, [r3, #-1]!
24058d3e:	f802 4d01 	strb.w	r4, [r2, #-1]!
24058d42:	e7f7      	b.n	24058d34 <memmove+0x24>

24058d44 <__malloc_lock>:
24058d44:	4801      	ldr	r0, [pc, #4]	; (24058d4c <__malloc_lock+0x8>)
24058d46:	f7ff bf7d 	b.w	24058c44 <__retarget_lock_acquire_recursive>
24058d4a:	bf00      	nop
24058d4c:	200005e0 	.word	0x200005e0

24058d50 <__malloc_unlock>:
24058d50:	4801      	ldr	r0, [pc, #4]	; (24058d58 <__malloc_unlock+0x8>)
24058d52:	f7ff bf78 	b.w	24058c46 <__retarget_lock_release_recursive>
24058d56:	bf00      	nop
24058d58:	200005e0 	.word	0x200005e0

24058d5c <_realloc_r>:
24058d5c:	b5f8      	push	{r3, r4, r5, r6, r7, lr}
24058d5e:	4607      	mov	r7, r0
24058d60:	4614      	mov	r4, r2
24058d62:	460e      	mov	r6, r1
24058d64:	b921      	cbnz	r1, 24058d70 <_realloc_r+0x14>
24058d66:	e8bd 40f8 	ldmia.w	sp!, {r3, r4, r5, r6, r7, lr}
24058d6a:	4611      	mov	r1, r2
24058d6c:	f7ff b836 	b.w	24057ddc <_malloc_r>
24058d70:	b922      	cbnz	r2, 24058d7c <_realloc_r+0x20>
24058d72:	f7fe ffe3 	bl	24057d3c <_free_r>
24058d76:	4625      	mov	r5, r4
24058d78:	4628      	mov	r0, r5
24058d7a:	bdf8      	pop	{r3, r4, r5, r6, r7, pc}
24058d7c:	f000 f8f2 	bl	24058f64 <_malloc_usable_size_r>
24058d80:	42a0      	cmp	r0, r4
24058d82:	d20f      	bcs.n	24058da4 <_realloc_r+0x48>
24058d84:	4621      	mov	r1, r4
24058d86:	4638      	mov	r0, r7
24058d88:	f7ff f828 	bl	24057ddc <_malloc_r>
24058d8c:	4605      	mov	r5, r0
24058d8e:	2800      	cmp	r0, #0
24058d90:	d0f2      	beq.n	24058d78 <_realloc_r+0x1c>
24058d92:	4631      	mov	r1, r6
24058d94:	4622      	mov	r2, r4
24058d96:	f7fe feed 	bl	24057b74 <memcpy>
24058d9a:	4631      	mov	r1, r6
24058d9c:	4638      	mov	r0, r7
24058d9e:	f7fe ffcd 	bl	24057d3c <_free_r>
24058da2:	e7e9      	b.n	24058d78 <_realloc_r+0x1c>
24058da4:	4635      	mov	r5, r6
24058da6:	e7e7      	b.n	24058d78 <_realloc_r+0x1c>

24058da8 <_raise_r>:
24058da8:	291f      	cmp	r1, #31
24058daa:	b538      	push	{r3, r4, r5, lr}
24058dac:	4604      	mov	r4, r0
24058dae:	460d      	mov	r5, r1
24058db0:	d904      	bls.n	24058dbc <_raise_r+0x14>
24058db2:	2316      	movs	r3, #22
24058db4:	6003      	str	r3, [r0, #0]
24058db6:	f04f 30ff 	mov.w	r0, #4294967295
24058dba:	bd38      	pop	{r3, r4, r5, pc}
24058dbc:	6c42      	ldr	r2, [r0, #68]	; 0x44
24058dbe:	b112      	cbz	r2, 24058dc6 <_raise_r+0x1e>
24058dc0:	f852 3021 	ldr.w	r3, [r2, r1, lsl #2]
24058dc4:	b94b      	cbnz	r3, 24058dda <_raise_r+0x32>
24058dc6:	4620      	mov	r0, r4
24058dc8:	f000 f830 	bl	24058e2c <_getpid_r>
24058dcc:	462a      	mov	r2, r5
24058dce:	4601      	mov	r1, r0
24058dd0:	4620      	mov	r0, r4
24058dd2:	e8bd 4038 	ldmia.w	sp!, {r3, r4, r5, lr}
24058dd6:	f000 b817 	b.w	24058e08 <_kill_r>
24058dda:	2b01      	cmp	r3, #1
24058ddc:	d00a      	beq.n	24058df4 <_raise_r+0x4c>
24058dde:	1c59      	adds	r1, r3, #1
24058de0:	d103      	bne.n	24058dea <_raise_r+0x42>
24058de2:	2316      	movs	r3, #22
24058de4:	6003      	str	r3, [r0, #0]
24058de6:	2001      	movs	r0, #1
24058de8:	e7e7      	b.n	24058dba <_raise_r+0x12>
24058dea:	2400      	movs	r4, #0
24058dec:	f842 4025 	str.w	r4, [r2, r5, lsl #2]
24058df0:	4628      	mov	r0, r5
24058df2:	4798      	blx	r3
24058df4:	2000      	movs	r0, #0
24058df6:	e7e0      	b.n	24058dba <_raise_r+0x12>

24058df8 <raise>:
24058df8:	4b02      	ldr	r3, [pc, #8]	; (24058e04 <raise+0xc>)
24058dfa:	4601      	mov	r1, r0
24058dfc:	6818      	ldr	r0, [r3, #0]
24058dfe:	f7ff bfd3 	b.w	24058da8 <_raise_r>
24058e02:	bf00      	nop
24058e04:	20000040 	.word	0x20000040

24058e08 <_kill_r>:
24058e08:	b538      	push	{r3, r4, r5, lr}
24058e0a:	4d07      	ldr	r5, [pc, #28]	; (24058e28 <_kill_r+0x20>)
24058e0c:	2300      	movs	r3, #0
24058e0e:	4604      	mov	r4, r0
24058e10:	4608      	mov	r0, r1
24058e12:	4611      	mov	r1, r2
24058e14:	602b      	str	r3, [r5, #0]
24058e16:	f7f8 fedf 	bl	24051bd8 <_kill>
24058e1a:	1c43      	adds	r3, r0, #1
24058e1c:	d102      	bne.n	24058e24 <_kill_r+0x1c>
24058e1e:	682b      	ldr	r3, [r5, #0]
24058e20:	b103      	cbz	r3, 24058e24 <_kill_r+0x1c>
24058e22:	6023      	str	r3, [r4, #0]
24058e24:	bd38      	pop	{r3, r4, r5, pc}
24058e26:	bf00      	nop
24058e28:	200005e8 	.word	0x200005e8

24058e2c <_getpid_r>:
24058e2c:	f7f8 bed2 	b.w	24051bd4 <_getpid>

24058e30 <__sread>:
24058e30:	b510      	push	{r4, lr}
24058e32:	460c      	mov	r4, r1
24058e34:	f9b1 100e 	ldrsh.w	r1, [r1, #14]
24058e38:	f000 f89c 	bl	24058f74 <_read_r>
24058e3c:	2800      	cmp	r0, #0
24058e3e:	bfab      	itete	ge
24058e40:	6d63      	ldrge	r3, [r4, #84]	; 0x54
24058e42:	89a3      	ldrhlt	r3, [r4, #12]
24058e44:	181b      	addge	r3, r3, r0
24058e46:	f423 5380 	biclt.w	r3, r3, #4096	; 0x1000
24058e4a:	bfac      	ite	ge
24058e4c:	6563      	strge	r3, [r4, #84]	; 0x54
24058e4e:	81a3      	strhlt	r3, [r4, #12]
24058e50:	bd10      	pop	{r4, pc}

24058e52 <__swrite>:
24058e52:	e92d 41f0 	stmdb	sp!, {r4, r5, r6, r7, r8, lr}
24058e56:	461f      	mov	r7, r3
24058e58:	898b      	ldrh	r3, [r1, #12]
24058e5a:	05db      	lsls	r3, r3, #23
24058e5c:	4605      	mov	r5, r0
24058e5e:	460c      	mov	r4, r1
24058e60:	4616      	mov	r6, r2
24058e62:	d505      	bpl.n	24058e70 <__swrite+0x1e>
24058e64:	f9b1 100e 	ldrsh.w	r1, [r1, #14]
24058e68:	2302      	movs	r3, #2
24058e6a:	2200      	movs	r2, #0
24058e6c:	f000 f868 	bl	24058f40 <_lseek_r>
24058e70:	89a3      	ldrh	r3, [r4, #12]
24058e72:	f9b4 100e 	ldrsh.w	r1, [r4, #14]
24058e76:	f423 5380 	bic.w	r3, r3, #4096	; 0x1000
24058e7a:	81a3      	strh	r3, [r4, #12]
24058e7c:	4632      	mov	r2, r6
24058e7e:	463b      	mov	r3, r7
24058e80:	4628      	mov	r0, r5
24058e82:	e8bd 41f0 	ldmia.w	sp!, {r4, r5, r6, r7, r8, lr}
24058e86:	f000 b817 	b.w	24058eb8 <_write_r>

24058e8a <__sseek>:
24058e8a:	b510      	push	{r4, lr}
24058e8c:	460c      	mov	r4, r1
24058e8e:	f9b1 100e 	ldrsh.w	r1, [r1, #14]
24058e92:	f000 f855 	bl	24058f40 <_lseek_r>
24058e96:	1c43      	adds	r3, r0, #1
24058e98:	89a3      	ldrh	r3, [r4, #12]
24058e9a:	bf15      	itete	ne
24058e9c:	6560      	strne	r0, [r4, #84]	; 0x54
24058e9e:	f423 5380 	biceq.w	r3, r3, #4096	; 0x1000
24058ea2:	f443 5380 	orrne.w	r3, r3, #4096	; 0x1000
24058ea6:	81a3      	strheq	r3, [r4, #12]
24058ea8:	bf18      	it	ne
24058eaa:	81a3      	strhne	r3, [r4, #12]
24058eac:	bd10      	pop	{r4, pc}

24058eae <__sclose>:
24058eae:	f9b1 100e 	ldrsh.w	r1, [r1, #14]
24058eb2:	f000 b813 	b.w	24058edc <_close_r>
	...

24058eb8 <_write_r>:
24058eb8:	b538      	push	{r3, r4, r5, lr}
24058eba:	4d07      	ldr	r5, [pc, #28]	; (24058ed8 <_write_r+0x20>)
24058ebc:	4604      	mov	r4, r0
24058ebe:	4608      	mov	r0, r1
24058ec0:	4611      	mov	r1, r2
24058ec2:	2200      	movs	r2, #0
24058ec4:	602a      	str	r2, [r5, #0]
24058ec6:	461a      	mov	r2, r3
24058ec8:	f7f8 fea1 	bl	24051c0e <_write>
24058ecc:	1c43      	adds	r3, r0, #1
24058ece:	d102      	bne.n	24058ed6 <_write_r+0x1e>
24058ed0:	682b      	ldr	r3, [r5, #0]
24058ed2:	b103      	cbz	r3, 24058ed6 <_write_r+0x1e>
24058ed4:	6023      	str	r3, [r4, #0]
24058ed6:	bd38      	pop	{r3, r4, r5, pc}
24058ed8:	200005e8 	.word	0x200005e8

24058edc <_close_r>:
24058edc:	b538      	push	{r3, r4, r5, lr}
24058ede:	4d06      	ldr	r5, [pc, #24]	; (24058ef8 <_close_r+0x1c>)
24058ee0:	2300      	movs	r3, #0
24058ee2:	4604      	mov	r4, r0
24058ee4:	4608      	mov	r0, r1
24058ee6:	602b      	str	r3, [r5, #0]
24058ee8:	f7f8 fe9e 	bl	24051c28 <_close>
24058eec:	1c43      	adds	r3, r0, #1
24058eee:	d102      	bne.n	24058ef6 <_close_r+0x1a>
24058ef0:	682b      	ldr	r3, [r5, #0]
24058ef2:	b103      	cbz	r3, 24058ef6 <_close_r+0x1a>
24058ef4:	6023      	str	r3, [r4, #0]
24058ef6:	bd38      	pop	{r3, r4, r5, pc}
24058ef8:	200005e8 	.word	0x200005e8

24058efc <_fstat_r>:
24058efc:	b538      	push	{r3, r4, r5, lr}
24058efe:	4d07      	ldr	r5, [pc, #28]	; (24058f1c <_fstat_r+0x20>)
24058f00:	2300      	movs	r3, #0
24058f02:	4604      	mov	r4, r0
24058f04:	4608      	mov	r0, r1
24058f06:	4611      	mov	r1, r2
24058f08:	602b      	str	r3, [r5, #0]
24058f0a:	f7f8 fe90 	bl	24051c2e <_fstat>
24058f0e:	1c43      	adds	r3, r0, #1
24058f10:	d102      	bne.n	24058f18 <_fstat_r+0x1c>
24058f12:	682b      	ldr	r3, [r5, #0]
24058f14:	b103      	cbz	r3, 24058f18 <_fstat_r+0x1c>
24058f16:	6023      	str	r3, [r4, #0]
24058f18:	bd38      	pop	{r3, r4, r5, pc}
24058f1a:	bf00      	nop
24058f1c:	200005e8 	.word	0x200005e8

24058f20 <_isatty_r>:
24058f20:	b538      	push	{r3, r4, r5, lr}
24058f22:	4d06      	ldr	r5, [pc, #24]	; (24058f3c <_isatty_r+0x1c>)
24058f24:	2300      	movs	r3, #0
24058f26:	4604      	mov	r4, r0
24058f28:	4608      	mov	r0, r1
24058f2a:	602b      	str	r3, [r5, #0]
24058f2c:	f7f8 fe84 	bl	24051c38 <_isatty>
24058f30:	1c43      	adds	r3, r0, #1
24058f32:	d102      	bne.n	24058f3a <_isatty_r+0x1a>
24058f34:	682b      	ldr	r3, [r5, #0]
24058f36:	b103      	cbz	r3, 24058f3a <_isatty_r+0x1a>
24058f38:	6023      	str	r3, [r4, #0]
24058f3a:	bd38      	pop	{r3, r4, r5, pc}
24058f3c:	200005e8 	.word	0x200005e8

24058f40 <_lseek_r>:
24058f40:	b538      	push	{r3, r4, r5, lr}
24058f42:	4d07      	ldr	r5, [pc, #28]	; (24058f60 <_lseek_r+0x20>)
24058f44:	4604      	mov	r4, r0
24058f46:	4608      	mov	r0, r1
24058f48:	4611      	mov	r1, r2
24058f4a:	2200      	movs	r2, #0
24058f4c:	602a      	str	r2, [r5, #0]
24058f4e:	461a      	mov	r2, r3
24058f50:	f7f8 fe74 	bl	24051c3c <_lseek>
24058f54:	1c43      	adds	r3, r0, #1
24058f56:	d102      	bne.n	24058f5e <_lseek_r+0x1e>
24058f58:	682b      	ldr	r3, [r5, #0]
24058f5a:	b103      	cbz	r3, 24058f5e <_lseek_r+0x1e>
24058f5c:	6023      	str	r3, [r4, #0]
24058f5e:	bd38      	pop	{r3, r4, r5, pc}
24058f60:	200005e8 	.word	0x200005e8

24058f64 <_malloc_usable_size_r>:
24058f64:	f851 3c04 	ldr.w	r3, [r1, #-4]
24058f68:	1f18      	subs	r0, r3, #4
24058f6a:	2b00      	cmp	r3, #0
24058f6c:	bfbc      	itt	lt
24058f6e:	580b      	ldrlt	r3, [r1, r0]
24058f70:	18c0      	addlt	r0, r0, r3
24058f72:	4770      	bx	lr

24058f74 <_read_r>:
24058f74:	b538      	push	{r3, r4, r5, lr}
24058f76:	4d07      	ldr	r5, [pc, #28]	; (24058f94 <_read_r+0x20>)
24058f78:	4604      	mov	r4, r0
24058f7a:	4608      	mov	r0, r1
24058f7c:	4611      	mov	r1, r2
24058f7e:	2200      	movs	r2, #0
24058f80:	602a      	str	r2, [r5, #0]
24058f82:	461a      	mov	r2, r3
24058f84:	f7f8 fe36 	bl	24051bf4 <_read>
24058f88:	1c43      	adds	r3, r0, #1
24058f8a:	d102      	bne.n	24058f92 <_read_r+0x1e>
24058f8c:	682b      	ldr	r3, [r5, #0]
24058f8e:	b103      	cbz	r3, 24058f92 <_read_r+0x1e>
24058f90:	6023      	str	r3, [r4, #0]
24058f92:	bd38      	pop	{r3, r4, r5, pc}
24058f94:	200005e8 	.word	0x200005e8

24058f98 <_init>:
24058f98:	b5f8      	push	{r3, r4, r5, r6, r7, lr}
24058f9a:	bf00      	nop
24058f9c:	bcf8      	pop	{r3, r4, r5, r6, r7}
24058f9e:	bc08      	pop	{r3}
24058fa0:	469e      	mov	lr, r3
24058fa2:	4770      	bx	lr

24058fa4 <_fini>:
24058fa4:	b5f8      	push	{r3, r4, r5, r6, r7, lr}
24058fa6:	bf00      	nop
24058fa8:	bcf8      	pop	{r3, r4, r5, r6, r7}
24058faa:	bc08      	pop	{r3}
24058fac:	469e      	mov	lr, r3
24058fae:	4770      	bx	lr
