
GamePong.elf:     file format elf32-littlearm

Sections:
Idx Name          Size      VMA       LMA       File off  Algn
  0 .isr_vector   000002ac  24000000  24000000  00010000  2**0
                  CONTENTS, ALLOC, LOAD, READONLY, DATA
  1 ._itcram      00000000  00000100  00000100  00040118  2**0
                  CONTENTS
  2 ._itcram_hot  00000000  00000100  00000100  00040118  2**0
                  CONTENTS
  3 ._ram_uc      0004b000  240002b0  240002b0  000102ac  2**4
                  ALLOC
  4 ._ram_exec    00000000  24050000  24050000  00040118  2**0
                  CONTENTS
  5 ._extflash    00000000  90000000  90000000  00040118  2**0
                  CONTENTS
  6 ._configflash 00000000  900ff000  900ff000  00040118  2**0
                  CONTENTS
  7 ._ram         00000000  24050000  24050000  00040118  2**0
                  CONTENTS
  8 ._ahbram      00005fa0  30000000  30000000  00050000  2**4
                  ALLOC
  9 .text         0000bde0  24050000  24050000  00020000  2**4
                  CONTENTS, ALLOC, LOAD, READONLY, CODE
 10 .rodata       00004440  2405bde0  2405bde0  0002bde0  2**2
                  CONTENTS, ALLOC, LOAD, READONLY, DATA
 11 .init_array   00000004  24060220  24060220  00030220  2**2
                  CONTENTS, ALLOC, LOAD, DATA
 12 .fini_array   00000004  24060224  24060224  00030224  2**2
                  CONTENTS, ALLOC, LOAD, DATA
 13 .data         00000118  20000000  24060228  00040000  2**2
                  CONTENTS, ALLOC, LOAD, DATA
 14 ._flash_end   00000000  24060228  24060228  00040118  2**0
                  CONTENTS
 15 .bss          00000684  20000118  20000118  00000118  2**2
                  ALLOC
 16 ._persistent  00000004  2000079c  2000079c  00000118  2**0
                  ALLOC
 17 ._user_heap   00008000  200007a0  200007a0  00000118  2**0
                  ALLOC
 18 ._user_stack  00017860  200087a0  200087a0  00000118  2**0
                  ALLOC
 19 .ARM.attributes 0000002e  00000000  00000000  00040118  2**0
                  CONTENTS, READONLY
 20 .comment      00000043  00000000  00000000  00040146  2**0
                  CONTENTS, READONLY
 21 .debug_frame  00000c00  00000000  00000000  0004018c  2**2
                  CONTENTS, READONLY, DEBUGGING, OCTETS

Disassembly of section .text:

24050000 <__do_global_dtors_aux>:
24050000:	b510      	push	{r4, lr}
24050002:	4c05      	ldr	r4, [pc, #20]	; (24050018 <__do_global_dtors_aux+0x18>)
24050004:	7823      	ldrb	r3, [r4, #0]
24050006:	b933      	cbnz	r3, 24050016 <__do_global_dtors_aux+0x16>
24050008:	4b04      	ldr	r3, [pc, #16]	; (2405001c <__do_global_dtors_aux+0x1c>)
2405000a:	b113      	cbz	r3, 24050012 <__do_global_dtors_aux+0x12>
2405000c:	4804      	ldr	r0, [pc, #16]	; (24050020 <__do_global_dtors_aux+0x20>)
2405000e:	f3af 8000 	nop.w
24050012:	2301      	movs	r3, #1
24050014:	7023      	strb	r3, [r4, #0]
24050016:	bd10      	pop	{r4, pc}
24050018:	20000118 	.word	0x20000118
2405001c:	00000000 	.word	0x00000000
24050020:	2405bdc8 	.word	0x2405bdc8

24050024 <frame_dummy>:
24050024:	b508      	push	{r3, lr}
24050026:	4b03      	ldr	r3, [pc, #12]	; (24050034 <frame_dummy+0x10>)
24050028:	b11b      	cbz	r3, 24050032 <frame_dummy+0xe>
2405002a:	4903      	ldr	r1, [pc, #12]	; (24050038 <frame_dummy+0x14>)
2405002c:	4803      	ldr	r0, [pc, #12]	; (2405003c <frame_dummy+0x18>)
2405002e:	f3af 8000 	nop.w
24050032:	bd08      	pop	{r3, pc}
24050034:	00000000 	.word	0x00000000
24050038:	2000011c 	.word	0x2000011c
2405003c:	2405bdc8 	.word	0x2405bdc8

24050040 <memchr>:
24050040:	f001 01ff 	and.w	r1, r1, #255	; 0xff
24050044:	2a10      	cmp	r2, #16
24050046:	db2b      	blt.n	240500a0 <memchr+0x60>
24050048:	f010 0f07 	tst.w	r0, #7
2405004c:	d008      	beq.n	24050060 <memchr+0x20>
2405004e:	f810 3b01 	ldrb.w	r3, [r0], #1
24050052:	3a01      	subs	r2, #1
24050054:	428b      	cmp	r3, r1
24050056:	d02d      	beq.n	240500b4 <memchr+0x74>
24050058:	f010 0f07 	tst.w	r0, #7
2405005c:	b342      	cbz	r2, 240500b0 <memchr+0x70>
2405005e:	d1f6      	bne.n	2405004e <memchr+0xe>
24050060:	b4f0      	push	{r4, r5, r6, r7}
24050062:	ea41 2101 	orr.w	r1, r1, r1, lsl #8
24050066:	ea41 4101 	orr.w	r1, r1, r1, lsl #16
2405006a:	f022 0407 	bic.w	r4, r2, #7
2405006e:	f07f 0700 	mvns.w	r7, #0
24050072:	2300      	movs	r3, #0
24050074:	e8f0 5602 	ldrd	r5, r6, [r0], #8
24050078:	3c08      	subs	r4, #8
2405007a:	ea85 0501 	eor.w	r5, r5, r1
2405007e:	ea86 0601 	eor.w	r6, r6, r1
24050082:	fa85 f547 	uadd8	r5, r5, r7
24050086:	faa3 f587 	sel	r5, r3, r7
2405008a:	fa86 f647 	uadd8	r6, r6, r7
2405008e:	faa5 f687 	sel	r6, r5, r7
24050092:	b98e      	cbnz	r6, 240500b8 <memchr+0x78>
24050094:	d1ee      	bne.n	24050074 <memchr+0x34>
24050096:	bcf0      	pop	{r4, r5, r6, r7}
24050098:	f001 01ff 	and.w	r1, r1, #255	; 0xff
2405009c:	f002 0207 	and.w	r2, r2, #7
240500a0:	b132      	cbz	r2, 240500b0 <memchr+0x70>
240500a2:	f810 3b01 	ldrb.w	r3, [r0], #1
240500a6:	3a01      	subs	r2, #1
240500a8:	ea83 0301 	eor.w	r3, r3, r1
240500ac:	b113      	cbz	r3, 240500b4 <memchr+0x74>
240500ae:	d1f8      	bne.n	240500a2 <memchr+0x62>
240500b0:	2000      	movs	r0, #0
240500b2:	4770      	bx	lr
240500b4:	3801      	subs	r0, #1
240500b6:	4770      	bx	lr
240500b8:	2d00      	cmp	r5, #0
240500ba:	bf06      	itte	eq
240500bc:	4635      	moveq	r5, r6
240500be:	3803      	subeq	r0, #3
240500c0:	3807      	subne	r0, #7
240500c2:	f015 0f01 	tst.w	r5, #1
240500c6:	d107      	bne.n	240500d8 <memchr+0x98>
240500c8:	3001      	adds	r0, #1
240500ca:	f415 7f80 	tst.w	r5, #256	; 0x100
240500ce:	bf02      	ittt	eq
240500d0:	3001      	addeq	r0, #1
240500d2:	f415 3fc0 	tsteq.w	r5, #98304	; 0x18000
240500d6:	3001      	addeq	r0, #1
240500d8:	bcf0      	pop	{r4, r5, r6, r7}
240500da:	3801      	subs	r0, #1
240500dc:	4770      	bx	lr
240500de:	bf00      	nop

240500e0 <draw_background>:
240500e0:	b537      	push	{r0, r1, r2, r4, r5, lr}
240500e2:	2100      	movs	r1, #0
240500e4:	4604      	mov	r4, r0
240500e6:	f000 fd98 	bl	24050c1a <LCD_Clear>
240500ea:	f000 fd6d 	bl	24050bc8 <LCD_GetXSize>
240500ee:	4605      	mov	r5, r0
240500f0:	f000 fd6d 	bl	24050bce <LCD_GetYSize>
240500f4:	3815      	subs	r0, #21
240500f6:	1e6b      	subs	r3, r5, #1
240500f8:	f64f 75ff 	movw	r5, #65535	; 0xffff
240500fc:	b280      	uxth	r0, r0
240500fe:	2214      	movs	r2, #20
24050100:	b29b      	uxth	r3, r3
24050102:	2100      	movs	r1, #0
24050104:	9501      	str	r5, [sp, #4]
24050106:	9000      	str	r0, [sp, #0]
24050108:	4620      	mov	r0, r4
2405010a:	f000 fe17 	bl	24050d3c <LCD_DrawRect>
2405010e:	4628      	mov	r0, r5
24050110:	f000 fd60 	bl	24050bd4 <LCD_SetTextColor>
24050114:	4815      	ldr	r0, [pc, #84]	; (2405016c <draw_background+0x8c>)
24050116:	f000 fd69 	bl	24050bec <LCD_SetFont>
2405011a:	4d15      	ldr	r5, [pc, #84]	; (24050170 <draw_background+0x90>)
2405011c:	4b15      	ldr	r3, [pc, #84]	; (24050174 <draw_background+0x94>)
2405011e:	4a16      	ldr	r2, [pc, #88]	; (24050178 <draw_background+0x98>)
24050120:	4629      	mov	r1, r5
24050122:	4618      	mov	r0, r3
24050124:	6812      	ldr	r2, [r2, #0]
24050126:	f00a fea7 	bl	2405ae78 <siprintf>
2405012a:	2203      	movs	r2, #3
2405012c:	4620      	mov	r0, r4
2405012e:	4b11      	ldr	r3, [pc, #68]	; (24050174 <draw_background+0x94>)
24050130:	9200      	str	r2, [sp, #0]
24050132:	2100      	movs	r1, #0
24050134:	2204      	movs	r2, #4
24050136:	f000 ff01 	bl	24050f3c <LCD_DisplayStringAt>
2405013a:	4b10      	ldr	r3, [pc, #64]	; (2405017c <draw_background+0x9c>)
2405013c:	4a10      	ldr	r2, [pc, #64]	; (24050180 <draw_background+0xa0>)
2405013e:	4629      	mov	r1, r5
24050140:	4618      	mov	r0, r3
24050142:	6812      	ldr	r2, [r2, #0]
24050144:	f00a fe98 	bl	2405ae78 <siprintf>
24050148:	2202      	movs	r2, #2
2405014a:	4620      	mov	r0, r4
2405014c:	4b0b      	ldr	r3, [pc, #44]	; (2405017c <draw_background+0x9c>)
2405014e:	9200      	str	r2, [sp, #0]
24050150:	2100      	movs	r1, #0
24050152:	2204      	movs	r2, #4
24050154:	f000 fef2 	bl	24050f3c <LCD_DisplayStringAt>
24050158:	2101      	movs	r1, #1
2405015a:	4b0a      	ldr	r3, [pc, #40]	; (24050184 <draw_background+0xa4>)
2405015c:	2204      	movs	r2, #4
2405015e:	4620      	mov	r0, r4
24050160:	9100      	str	r1, [sp, #0]
24050162:	f000 feeb 	bl	24050f3c <LCD_DisplayStringAt>
24050166:	b003      	add	sp, #12
24050168:	bd30      	pop	{r4, r5, pc}
2405016a:	bf00      	nop
2405016c:	20000008 	.word	0x20000008
24050170:	2405f9a5 	.word	0x2405f9a5
24050174:	200001b8 	.word	0x200001b8
24050178:	200001b4 	.word	0x200001b4
2405017c:	200001c4 	.word	0x200001c4
24050180:	200001c0 	.word	0x200001c0
24050184:	2405bde0 	.word	0x2405bde0

24050188 <update_score>:
24050188:	b510      	push	{r4, lr}
2405018a:	4604      	mov	r4, r0
2405018c:	f002 fa66 	bl	2405265c <lcd_sync>
24050190:	2c01      	cmp	r4, #1
24050192:	d12f      	bne.n	240501f4 <update_score+0x6c>
24050194:	4a19      	ldr	r2, [pc, #100]	; (240501fc <update_score+0x74>)
24050196:	6813      	ldr	r3, [r2, #0]
24050198:	3301      	adds	r3, #1
2405019a:	6013      	str	r3, [r2, #0]
2405019c:	f44f 70fa 	mov.w	r0, #500	; 0x1f4
240501a0:	f004 f8e6 	bl	24054370 <HAL_Delay>
240501a4:	4b16      	ldr	r3, [pc, #88]	; (24050200 <update_score+0x78>)
240501a6:	2200      	movs	r2, #0
240501a8:	701a      	strb	r2, [r3, #0]
240501aa:	2201      	movs	r2, #1
240501ac:	4b15      	ldr	r3, [pc, #84]	; (24050204 <update_score+0x7c>)
240501ae:	601a      	str	r2, [r3, #0]
240501b0:	f00a fcb2 	bl	2405ab18 <rand>
240501b4:	f1b0 4f80 	cmp.w	r0, #1073741824	; 0x40000000
240501b8:	4b13      	ldr	r3, [pc, #76]	; (24050208 <update_score+0x80>)
240501ba:	bfac      	ite	ge
240501bc:	f04f 32ff 	movge.w	r2, #4294967295
240501c0:	2201      	movlt	r2, #1
240501c2:	601a      	str	r2, [r3, #0]
240501c4:	f00a fca8 	bl	2405ab18 <rand>
240501c8:	2315      	movs	r3, #21
240501ca:	fb90 f2f3 	sdiv	r2, r0, r3
240501ce:	fb02 0013 	mls	r0, r2, r3, r0
240501d2:	4b0e      	ldr	r3, [pc, #56]	; (2405020c <update_score+0x84>)
240501d4:	301e      	adds	r0, #30
240501d6:	6018      	str	r0, [r3, #0]
240501d8:	f00a fc9e 	bl	2405ab18 <rand>
240501dc:	2329      	movs	r3, #41	; 0x29
240501de:	fb90 f2f3 	sdiv	r2, r0, r3
240501e2:	fb02 0013 	mls	r0, r2, r3, r0
240501e6:	4b0a      	ldr	r3, [pc, #40]	; (24050210 <update_score+0x88>)
240501e8:	2273      	movs	r2, #115	; 0x73
240501ea:	3064      	adds	r0, #100	; 0x64
240501ec:	6018      	str	r0, [r3, #0]
240501ee:	4b09      	ldr	r3, [pc, #36]	; (24050214 <update_score+0x8c>)
240501f0:	805a      	strh	r2, [r3, #2]
240501f2:	bd10      	pop	{r4, pc}
240501f4:	3401      	adds	r4, #1
240501f6:	d1d1      	bne.n	2405019c <update_score+0x14>
240501f8:	4a07      	ldr	r2, [pc, #28]	; (24050218 <update_score+0x90>)
240501fa:	e7cc      	b.n	24050196 <update_score+0xe>
240501fc:	200001b4 	.word	0x200001b4
24050200:	2000017c 	.word	0x2000017c
24050204:	20000174 	.word	0x20000174
24050208:	20000178 	.word	0x20000178
2405020c:	20000040 	.word	0x20000040
24050210:	20000044 	.word	0x20000044
24050214:	200001a4 	.word	0x200001a4
24050218:	200001c0 	.word	0x200001c0

2405021c <update_ball>:
2405021c:	b5f8      	push	{r3, r4, r5, r6, r7, lr}
2405021e:	2703      	movs	r7, #3
24050220:	4d2c      	ldr	r5, [pc, #176]	; (240502d4 <update_ball+0xb8>)
24050222:	4e2d      	ldr	r6, [pc, #180]	; (240502d8 <update_ball+0xbc>)
24050224:	6833      	ldr	r3, [r6, #0]
24050226:	682a      	ldr	r2, [r5, #0]
24050228:	2b07      	cmp	r3, #7
2405022a:	4c2c      	ldr	r4, [pc, #176]	; (240502dc <update_ball+0xc0>)
2405022c:	d133      	bne.n	24050296 <update_ball+0x7a>
2405022e:	4b2c      	ldr	r3, [pc, #176]	; (240502e0 <update_ball+0xc4>)
24050230:	885b      	ldrh	r3, [r3, #2]
24050232:	f1a3 010b 	sub.w	r1, r3, #11
24050236:	4291      	cmp	r1, r2
24050238:	dc27      	bgt.n	2405028a <update_ball+0x6e>
2405023a:	3323      	adds	r3, #35	; 0x23
2405023c:	4293      	cmp	r3, r2
2405023e:	db24      	blt.n	2405028a <update_ball+0x6e>
24050240:	2301      	movs	r3, #1
24050242:	6023      	str	r3, [r4, #0]
24050244:	682b      	ldr	r3, [r5, #0]
24050246:	4927      	ldr	r1, [pc, #156]	; (240502e4 <update_ball+0xc8>)
24050248:	2b15      	cmp	r3, #21
2405024a:	d13d      	bne.n	240502c8 <update_ball+0xac>
2405024c:	2201      	movs	r2, #1
2405024e:	600a      	str	r2, [r1, #0]
24050250:	6832      	ldr	r2, [r6, #0]
24050252:	3f01      	subs	r7, #1
24050254:	6820      	ldr	r0, [r4, #0]
24050256:	6809      	ldr	r1, [r1, #0]
24050258:	4402      	add	r2, r0
2405025a:	440b      	add	r3, r1
2405025c:	6032      	str	r2, [r6, #0]
2405025e:	602b      	str	r3, [r5, #0]
24050260:	d1e0      	bne.n	24050224 <update_ball+0x8>
24050262:	b292      	uxth	r2, r2
24050264:	4920      	ldr	r1, [pc, #128]	; (240502e8 <update_ball+0xcc>)
24050266:	b29b      	uxth	r3, r3
24050268:	4820      	ldr	r0, [pc, #128]	; (240502ec <update_ball+0xd0>)
2405026a:	800a      	strh	r2, [r1, #0]
2405026c:	804b      	strh	r3, [r1, #2]
2405026e:	f102 0108 	add.w	r1, r2, #8
24050272:	8043      	strh	r3, [r0, #2]
24050274:	3308      	adds	r3, #8
24050276:	b289      	uxth	r1, r1
24050278:	b29b      	uxth	r3, r3
2405027a:	8001      	strh	r1, [r0, #0]
2405027c:	481c      	ldr	r0, [pc, #112]	; (240502f0 <update_ball+0xd4>)
2405027e:	8002      	strh	r2, [r0, #0]
24050280:	4a1c      	ldr	r2, [pc, #112]	; (240502f4 <update_ball+0xd8>)
24050282:	8043      	strh	r3, [r0, #2]
24050284:	8011      	strh	r1, [r2, #0]
24050286:	8053      	strh	r3, [r2, #2]
24050288:	bdf8      	pop	{r3, r4, r5, r6, r7, pc}
2405028a:	2301      	movs	r3, #1
2405028c:	f04f 30ff 	mov.w	r0, #4294967295
24050290:	6023      	str	r3, [r4, #0]
24050292:	f7ff ff79 	bl	24050188 <update_score>
24050296:	6832      	ldr	r2, [r6, #0]
24050298:	f240 1329 	movw	r3, #297	; 0x129
2405029c:	429a      	cmp	r2, r3
2405029e:	d1d1      	bne.n	24050244 <update_ball+0x28>
240502a0:	4b15      	ldr	r3, [pc, #84]	; (240502f8 <update_ball+0xdc>)
240502a2:	682a      	ldr	r2, [r5, #0]
240502a4:	885b      	ldrh	r3, [r3, #2]
240502a6:	f1a3 010b 	sub.w	r1, r3, #11
240502aa:	4291      	cmp	r1, r2
240502ac:	dc05      	bgt.n	240502ba <update_ball+0x9e>
240502ae:	3323      	adds	r3, #35	; 0x23
240502b0:	4293      	cmp	r3, r2
240502b2:	db02      	blt.n	240502ba <update_ball+0x9e>
240502b4:	f04f 33ff 	mov.w	r3, #4294967295
240502b8:	e7c3      	b.n	24050242 <update_ball+0x26>
240502ba:	f04f 33ff 	mov.w	r3, #4294967295
240502be:	2001      	movs	r0, #1
240502c0:	6023      	str	r3, [r4, #0]
240502c2:	f7ff ff61 	bl	24050188 <update_score>
240502c6:	e7bd      	b.n	24050244 <update_ball+0x28>
240502c8:	2bdf      	cmp	r3, #223	; 0xdf
240502ca:	d1c1      	bne.n	24050250 <update_ball+0x34>
240502cc:	f04f 32ff 	mov.w	r2, #4294967295
240502d0:	e7bd      	b.n	2405024e <update_ball+0x32>
240502d2:	bf00      	nop
240502d4:	20000044 	.word	0x20000044
240502d8:	20000040 	.word	0x20000040
240502dc:	20000174 	.word	0x20000174
240502e0:	20000194 	.word	0x20000194
240502e4:	20000178 	.word	0x20000178
240502e8:	20000134 	.word	0x20000134
240502ec:	20000144 	.word	0x20000144
240502f0:	20000154 	.word	0x20000154
240502f4:	20000164 	.word	0x20000164
240502f8:	200001a4 	.word	0x200001a4

240502fc <game_init>:
240502fc:	e92d 4ff0 	stmdb	sp!, {r4, r5, r6, r7, r8, r9, sl, fp, lr}
24050300:	f8df a31c 	ldr.w	sl, [pc, #796]	; 24050620 <game_init+0x324>
24050304:	b085      	sub	sp, #20
24050306:	f8da 3000 	ldr.w	r3, [sl]
2405030a:	b99b      	cbnz	r3, 24050334 <game_init+0x38>
2405030c:	4aad      	ldr	r2, [pc, #692]	; (240505c4 <game_init+0x2c8>)
2405030e:	6013      	str	r3, [r2, #0]
24050310:	2301      	movs	r3, #1
24050312:	4aad      	ldr	r2, [pc, #692]	; (240505c8 <game_init+0x2cc>)
24050314:	6013      	str	r3, [r2, #0]
24050316:	4bad      	ldr	r3, [pc, #692]	; (240505cc <game_init+0x2d0>)
24050318:	781b      	ldrb	r3, [r3, #0]
2405031a:	2b01      	cmp	r3, #1
2405031c:	f000 80b5 	beq.w	2405048a <game_init+0x18e>
24050320:	2b02      	cmp	r3, #2
24050322:	f000 80b8 	beq.w	24050496 <game_init+0x19a>
24050326:	b92b      	cbnz	r3, 24050334 <game_init+0x38>
24050328:	4ba9      	ldr	r3, [pc, #676]	; (240505d0 <game_init+0x2d4>)
2405032a:	22f0      	movs	r2, #240	; 0xf0
2405032c:	601a      	str	r2, [r3, #0]
2405032e:	2214      	movs	r2, #20
24050330:	4ba8      	ldr	r3, [pc, #672]	; (240505d4 <game_init+0x2d8>)
24050332:	601a      	str	r2, [r3, #0]
24050334:	2300      	movs	r3, #0
24050336:	4aa8      	ldr	r2, [pc, #672]	; (240505d8 <game_init+0x2dc>)
24050338:	f8df 82e8 	ldr.w	r8, [pc, #744]	; 24050624 <game_init+0x328>
2405033c:	f04f 0915 	mov.w	r9, #21
24050340:	6013      	str	r3, [r2, #0]
24050342:	2408      	movs	r4, #8
24050344:	4aa5      	ldr	r2, [pc, #660]	; (240505dc <game_init+0x2e0>)
24050346:	f888 3000 	strb.w	r3, [r8]
2405034a:	6013      	str	r3, [r2, #0]
2405034c:	2301      	movs	r3, #1
2405034e:	4aa4      	ldr	r2, [pc, #656]	; (240505e0 <game_init+0x2e4>)
24050350:	4da4      	ldr	r5, [pc, #656]	; (240505e4 <game_init+0x2e8>)
24050352:	6013      	str	r3, [r2, #0]
24050354:	f00a fbe0 	bl	2405ab18 <rand>
24050358:	f1b0 4f80 	cmp.w	r0, #1073741824	; 0x40000000
2405035c:	4ba2      	ldr	r3, [pc, #648]	; (240505e8 <game_init+0x2ec>)
2405035e:	4fa3      	ldr	r7, [pc, #652]	; (240505ec <game_init+0x2f0>)
24050360:	bfac      	ite	ge
24050362:	f04f 32ff 	movge.w	r2, #4294967295
24050366:	2201      	movlt	r2, #1
24050368:	4ea1      	ldr	r6, [pc, #644]	; (240505f0 <game_init+0x2f4>)
2405036a:	601a      	str	r2, [r3, #0]
2405036c:	f00a fbd4 	bl	2405ab18 <rand>
24050370:	f8df b2b4 	ldr.w	fp, [pc, #692]	; 24050628 <game_init+0x32c>
24050374:	fb90 f2f9 	sdiv	r2, r0, r9
24050378:	fb02 0019 	mls	r0, r2, r9, r0
2405037c:	301e      	adds	r0, #30
2405037e:	6028      	str	r0, [r5, #0]
24050380:	f00a fbca 	bl	2405ab18 <rand>
24050384:	2229      	movs	r2, #41	; 0x29
24050386:	2301      	movs	r3, #1
24050388:	fb90 f1f2 	sdiv	r1, r0, r2
2405038c:	fb01 0012 	mls	r0, r1, r2, r0
24050390:	4a98      	ldr	r2, [pc, #608]	; (240505f4 <game_init+0x2f8>)
24050392:	2102      	movs	r1, #2
24050394:	8812      	ldrh	r2, [r2, #0]
24050396:	3064      	adds	r0, #100	; 0x64
24050398:	807a      	strh	r2, [r7, #2]
2405039a:	4a97      	ldr	r2, [pc, #604]	; (240505f8 <game_init+0x2fc>)
2405039c:	6030      	str	r0, [r6, #0]
2405039e:	8812      	ldrh	r2, [r2, #0]
240503a0:	4896      	ldr	r0, [pc, #600]	; (240505fc <game_init+0x300>)
240503a2:	80ba      	strh	r2, [r7, #4]
240503a4:	226e      	movs	r2, #110	; 0x6e
240503a6:	f8cd 9004 	str.w	r9, [sp, #4]
240503aa:	9400      	str	r4, [sp, #0]
240503ac:	e9cd 7b02 	strd	r7, fp, [sp, #8]
240503b0:	f000 fe76 	bl	240510a0 <init_sprite>
240503b4:	2301      	movs	r3, #1
240503b6:	226e      	movs	r2, #110	; 0x6e
240503b8:	f240 1139 	movw	r1, #313	; 0x139
240503bc:	4890      	ldr	r0, [pc, #576]	; (24050600 <game_init+0x304>)
240503be:	e9cd 4900 	strd	r4, r9, [sp]
240503c2:	e9cd 7b02 	strd	r7, fp, [sp, #8]
240503c6:	f000 fe6b 	bl	240510a0 <init_sprite>
240503ca:	f8df 9260 	ldr.w	r9, [pc, #608]	; 2405062c <game_init+0x330>
240503ce:	2311      	movs	r3, #17
240503d0:	8832      	ldrh	r2, [r6, #0]
240503d2:	8829      	ldrh	r1, [r5, #0]
240503d4:	488b      	ldr	r0, [pc, #556]	; (24050604 <game_init+0x308>)
240503d6:	e9cd 7902 	strd	r7, r9, [sp, #8]
240503da:	e9cd 4300 	strd	r4, r3, [sp]
240503de:	4623      	mov	r3, r4
240503e0:	f000 fe5e 	bl	240510a0 <init_sprite>
240503e4:	6829      	ldr	r1, [r5, #0]
240503e6:	2331      	movs	r3, #49	; 0x31
240503e8:	8832      	ldrh	r2, [r6, #0]
240503ea:	4421      	add	r1, r4
240503ec:	4886      	ldr	r0, [pc, #536]	; (24050608 <game_init+0x30c>)
240503ee:	e9cd 7902 	strd	r7, r9, [sp, #8]
240503f2:	e9cd 4300 	strd	r4, r3, [sp]
240503f6:	b289      	uxth	r1, r1
240503f8:	4623      	mov	r3, r4
240503fa:	f000 fe51 	bl	240510a0 <init_sprite>
240503fe:	6832      	ldr	r2, [r6, #0]
24050400:	2351      	movs	r3, #81	; 0x51
24050402:	8829      	ldrh	r1, [r5, #0]
24050404:	4422      	add	r2, r4
24050406:	4881      	ldr	r0, [pc, #516]	; (2405060c <game_init+0x310>)
24050408:	e9cd 7902 	strd	r7, r9, [sp, #8]
2405040c:	e9cd 4300 	strd	r4, r3, [sp]
24050410:	b292      	uxth	r2, r2
24050412:	4623      	mov	r3, r4
24050414:	f000 fe44 	bl	240510a0 <init_sprite>
24050418:	6832      	ldr	r2, [r6, #0]
2405041a:	6829      	ldr	r1, [r5, #0]
2405041c:	2371      	movs	r3, #113	; 0x71
2405041e:	4422      	add	r2, r4
24050420:	487b      	ldr	r0, [pc, #492]	; (24050610 <game_init+0x314>)
24050422:	4421      	add	r1, r4
24050424:	b292      	uxth	r2, r2
24050426:	b289      	uxth	r1, r1
24050428:	e9cd 7902 	strd	r7, r9, [sp, #8]
2405042c:	e9cd 4300 	strd	r4, r3, [sp]
24050430:	4623      	mov	r3, r4
24050432:	4c78      	ldr	r4, [pc, #480]	; (24050614 <game_init+0x318>)
24050434:	f000 fe34 	bl	240510a0 <init_sprite>
24050438:	4870      	ldr	r0, [pc, #448]	; (240505fc <game_init+0x300>)
2405043a:	f001 f921 	bl	24051680 <sprites_init_list>
2405043e:	4970      	ldr	r1, [pc, #448]	; (24050600 <game_init+0x304>)
24050440:	6020      	str	r0, [r4, #0]
24050442:	f001 f945 	bl	240516d0 <sprites_add_to_list>
24050446:	496f      	ldr	r1, [pc, #444]	; (24050604 <game_init+0x308>)
24050448:	6020      	str	r0, [r4, #0]
2405044a:	f001 f941 	bl	240516d0 <sprites_add_to_list>
2405044e:	496e      	ldr	r1, [pc, #440]	; (24050608 <game_init+0x30c>)
24050450:	6020      	str	r0, [r4, #0]
24050452:	f001 f93d 	bl	240516d0 <sprites_add_to_list>
24050456:	4f70      	ldr	r7, [pc, #448]	; (24050618 <game_init+0x31c>)
24050458:	496c      	ldr	r1, [pc, #432]	; (2405060c <game_init+0x310>)
2405045a:	f8df 91a0 	ldr.w	r9, [pc, #416]	; 240505fc <game_init+0x300>
2405045e:	6020      	str	r0, [r4, #0]
24050460:	f001 f936 	bl	240516d0 <sprites_add_to_list>
24050464:	496a      	ldr	r1, [pc, #424]	; (24050610 <game_init+0x314>)
24050466:	6020      	str	r0, [r4, #0]
24050468:	f001 f932 	bl	240516d0 <sprites_add_to_list>
2405046c:	6020      	str	r0, [r4, #0]
2405046e:	4b56      	ldr	r3, [pc, #344]	; (240505c8 <game_init+0x2cc>)
24050470:	681b      	ldr	r3, [r3, #0]
24050472:	b9b3      	cbnz	r3, 240504a2 <game_init+0x1a6>
24050474:	f8df 81b8 	ldr.w	r8, [pc, #440]	; 24050630 <game_init+0x334>
24050478:	4f60      	ldr	r7, [pc, #384]	; (240505fc <game_init+0x300>)
2405047a:	f8da 3000 	ldr.w	r3, [sl]
2405047e:	2b00      	cmp	r3, #0
24050480:	f040 80d8 	bne.w	24050634 <game_init+0x338>
24050484:	b005      	add	sp, #20
24050486:	e8bd 8ff0 	ldmia.w	sp!, {r4, r5, r6, r7, r8, r9, sl, fp, pc}
2405048a:	4b51      	ldr	r3, [pc, #324]	; (240505d0 <game_init+0x2d4>)
2405048c:	22dc      	movs	r2, #220	; 0xdc
2405048e:	601a      	str	r2, [r3, #0]
24050490:	2219      	movs	r2, #25
24050492:	4b50      	ldr	r3, [pc, #320]	; (240505d4 <game_init+0x2d8>)
24050494:	e74d      	b.n	24050332 <game_init+0x36>
24050496:	4b4e      	ldr	r3, [pc, #312]	; (240505d0 <game_init+0x2d4>)
24050498:	22c8      	movs	r2, #200	; 0xc8
2405049a:	601a      	str	r2, [r3, #0]
2405049c:	2223      	movs	r2, #35	; 0x23
2405049e:	4b4d      	ldr	r3, [pc, #308]	; (240505d4 <game_init+0x2d8>)
240504a0:	e747      	b.n	24050332 <game_init+0x36>
240504a2:	f002 f8bf 	bl	24052624 <lcd_get_active_buffer>
240504a6:	4683      	mov	fp, r0
240504a8:	f7ff fe1a 	bl	240500e0 <draw_background>
240504ac:	6821      	ldr	r1, [r4, #0]
240504ae:	4658      	mov	r0, fp
240504b0:	f001 f8f7 	bl	240516a2 <render_sprites>
240504b4:	f001 fb4a 	bl	24051b4c <buttons_get>
240504b8:	f410 7f00 	tst.w	r0, #512	; 0x200
240504bc:	4683      	mov	fp, r0
240504be:	d001      	beq.n	240504c4 <game_init+0x1c8>
240504c0:	f004 fefe 	bl	240552c0 <HAL_NVIC_SystemReset>
240504c4:	f01b 0f80 	tst.w	fp, #128	; 0x80
240504c8:	d003      	beq.n	240504d2 <game_init+0x1d6>
240504ca:	f002 f8c7 	bl	2405265c <lcd_sync>
240504ce:	f000 fa43 	bl	24050958 <in_game_menu_init>
240504d2:	f01b 0f02 	tst.w	fp, #2
240504d6:	bf1c      	itt	ne
240504d8:	23ff      	movne	r3, #255	; 0xff
240504da:	f888 3000 	strbne.w	r3, [r8]
240504de:	f01b 0f08 	tst.w	fp, #8
240504e2:	bf1c      	itt	ne
240504e4:	2301      	movne	r3, #1
240504e6:	f888 3000 	strbne.w	r3, [r8]
240504ea:	683b      	ldr	r3, [r7, #0]
240504ec:	3301      	adds	r3, #1
240504ee:	603b      	str	r3, [r7, #0]
240504f0:	4b39      	ldr	r3, [pc, #228]	; (240505d8 <game_init+0x2dc>)
240504f2:	681b      	ldr	r3, [r3, #0]
240504f4:	2b09      	cmp	r3, #9
240504f6:	dd04      	ble.n	24050502 <game_init+0x206>
240504f8:	f002 f8b0 	bl	2405265c <lcd_sync>
240504fc:	2001      	movs	r0, #1
240504fe:	f000 f929 	bl	24050754 <game_over_init>
24050502:	4b36      	ldr	r3, [pc, #216]	; (240505dc <game_init+0x2e0>)
24050504:	681b      	ldr	r3, [r3, #0]
24050506:	2b09      	cmp	r3, #9
24050508:	dd04      	ble.n	24050514 <game_init+0x218>
2405050a:	f002 f8a7 	bl	2405265c <lcd_sync>
2405050e:	2002      	movs	r0, #2
24050510:	f000 f920 	bl	24050754 <game_over_init>
24050514:	f998 2000 	ldrsb.w	r2, [r8]
24050518:	f8b9 3002 	ldrh.w	r3, [r9, #2]
2405051c:	eb03 0342 	add.w	r3, r3, r2, lsl #1
24050520:	b29b      	uxth	r3, r3
24050522:	2b16      	cmp	r3, #22
24050524:	bf38      	it	cc
24050526:	2316      	movcc	r3, #22
24050528:	2bc6      	cmp	r3, #198	; 0xc6
2405052a:	bf28      	it	cs
2405052c:	23c6      	movcs	r3, #198	; 0xc6
2405052e:	f8a9 3002 	strh.w	r3, [r9, #2]
24050532:	2300      	movs	r3, #0
24050534:	f888 3000 	strb.w	r3, [r8]
24050538:	4b29      	ldr	r3, [pc, #164]	; (240505e0 <game_init+0x2e4>)
2405053a:	681b      	ldr	r3, [r3, #0]
2405053c:	2b00      	cmp	r3, #0
2405053e:	4b30      	ldr	r3, [pc, #192]	; (24050600 <game_init+0x304>)
24050540:	db04      	blt.n	2405054c <game_init+0x250>
24050542:	4a23      	ldr	r2, [pc, #140]	; (240505d0 <game_init+0x2d4>)
24050544:	6829      	ldr	r1, [r5, #0]
24050546:	6812      	ldr	r2, [r2, #0]
24050548:	4291      	cmp	r1, r2
2405054a:	da13      	bge.n	24050574 <game_init+0x278>
2405054c:	885a      	ldrh	r2, [r3, #2]
2405054e:	2a6b      	cmp	r2, #107	; 0x6b
24050550:	d80a      	bhi.n	24050568 <game_init+0x26c>
24050552:	4932      	ldr	r1, [pc, #200]	; (2405061c <game_init+0x320>)
24050554:	6809      	ldr	r1, [r1, #0]
24050556:	440a      	add	r2, r1
24050558:	805a      	strh	r2, [r3, #2]
2405055a:	f7ff fe5f 	bl	2405021c <update_ball>
2405055e:	f002 f851 	bl	24052604 <lcd_swap>
24050562:	f002 f88b 	bl	2405267c <lcd_wait_for_vblank>
24050566:	e782      	b.n	2405046e <game_init+0x172>
24050568:	2a70      	cmp	r2, #112	; 0x70
2405056a:	d9f6      	bls.n	2405055a <game_init+0x25e>
2405056c:	492b      	ldr	r1, [pc, #172]	; (2405061c <game_init+0x320>)
2405056e:	6809      	ldr	r1, [r1, #0]
24050570:	1a52      	subs	r2, r2, r1
24050572:	e7f1      	b.n	24050558 <game_init+0x25c>
24050574:	4a17      	ldr	r2, [pc, #92]	; (240505d4 <game_init+0x2d8>)
24050576:	6830      	ldr	r0, [r6, #0]
24050578:	6811      	ldr	r1, [r2, #0]
2405057a:	4a1b      	ldr	r2, [pc, #108]	; (240505e8 <game_init+0x2ec>)
2405057c:	f100 0e08 	add.w	lr, r0, #8
24050580:	6812      	ldr	r2, [r2, #0]
24050582:	2a00      	cmp	r2, #0
24050584:	885a      	ldrh	r2, [r3, #2]
24050586:	bfc8      	it	gt
24050588:	f1c1 0128 	rsbgt	r1, r1, #40	; 0x28
2405058c:	eb02 0c01 	add.w	ip, r2, r1
24050590:	45e6      	cmp	lr, ip
24050592:	da0a      	bge.n	240505aa <game_init+0x2ae>
24050594:	f8df c084 	ldr.w	ip, [pc, #132]	; 2405061c <game_init+0x320>
24050598:	f8dc c000 	ldr.w	ip, [ip]
2405059c:	eba2 020c 	sub.w	r2, r2, ip
240505a0:	b292      	uxth	r2, r2
240505a2:	2a15      	cmp	r2, #21
240505a4:	bf98      	it	ls
240505a6:	2216      	movls	r2, #22
240505a8:	805a      	strh	r2, [r3, #2]
240505aa:	885a      	ldrh	r2, [r3, #2]
240505ac:	3007      	adds	r0, #7
240505ae:	4411      	add	r1, r2
240505b0:	4288      	cmp	r0, r1
240505b2:	dbd2      	blt.n	2405055a <game_init+0x25e>
240505b4:	4919      	ldr	r1, [pc, #100]	; (2405061c <game_init+0x320>)
240505b6:	6809      	ldr	r1, [r1, #0]
240505b8:	440a      	add	r2, r1
240505ba:	b292      	uxth	r2, r2
240505bc:	2ac6      	cmp	r2, #198	; 0xc6
240505be:	bf88      	it	hi
240505c0:	22c6      	movhi	r2, #198	; 0xc6
240505c2:	e7c9      	b.n	24050558 <game_init+0x25c>
240505c4:	20000220 	.word	0x20000220
240505c8:	20000184 	.word	0x20000184
240505cc:	20000235 	.word	0x20000235
240505d0:	2000018c 	.word	0x2000018c
240505d4:	20000190 	.word	0x20000190
240505d8:	200001b4 	.word	0x200001b4
240505dc:	200001c0 	.word	0x200001c0
240505e0:	20000174 	.word	0x20000174
240505e4:	20000040 	.word	0x20000040
240505e8:	20000178 	.word	0x20000178
240505ec:	20000050 	.word	0x20000050
240505f0:	20000044 	.word	0x20000044
240505f4:	200000a8 	.word	0x200000a8
240505f8:	200000a0 	.word	0x200000a0
240505fc:	20000194 	.word	0x20000194
24050600:	200001a4 	.word	0x200001a4
24050604:	20000134 	.word	0x20000134
24050608:	20000144 	.word	0x20000144
2405060c:	20000154 	.word	0x20000154
24050610:	20000164 	.word	0x20000164
24050614:	20000188 	.word	0x20000188
24050618:	200001cc 	.word	0x200001cc
2405061c:	20000048 	.word	0x20000048
24050620:	20000180 	.word	0x20000180
24050624:	2000017c 	.word	0x2000017c
24050628:	2000004c 	.word	0x2000004c
2405062c:	20000020 	.word	0x20000020
24050630:	20000018 	.word	0x20000018
24050634:	f001 fff6 	bl	24052624 <lcd_get_active_buffer>
24050638:	4681      	mov	r9, r0
2405063a:	f7ff fd51 	bl	240500e0 <draw_background>
2405063e:	4640      	mov	r0, r8
24050640:	f000 fad4 	bl	24050bec <LCD_SetFont>
24050644:	f04f 0b01 	mov.w	fp, #1
24050648:	2003      	movs	r0, #3
2405064a:	f000 fad5 	bl	24050bf8 <LCD_SetFontScale>
2405064e:	f44f 4004 	mov.w	r0, #33792	; 0x8400
24050652:	f000 fabf 	bl	24050bd4 <LCD_SetTextColor>
24050656:	4b3b      	ldr	r3, [pc, #236]	; (24050744 <game_init+0x448>)
24050658:	2264      	movs	r2, #100	; 0x64
2405065a:	2106      	movs	r1, #6
2405065c:	4648      	mov	r0, r9
2405065e:	f8cd b000 	str.w	fp, [sp]
24050662:	f000 fc6b 	bl	24050f3c <LCD_DisplayStringAt>
24050666:	4658      	mov	r0, fp
24050668:	f000 fac6 	bl	24050bf8 <LCD_SetFontScale>
2405066c:	4648      	mov	r0, r9
2405066e:	6821      	ldr	r1, [r4, #0]
24050670:	f001 f817 	bl	240516a2 <render_sprites>
24050674:	f001 fa6a 	bl	24051b4c <buttons_get>
24050678:	f410 7f00 	tst.w	r0, #512	; 0x200
2405067c:	4681      	mov	r9, r0
2405067e:	d001      	beq.n	24050684 <game_init+0x388>
24050680:	f004 fe1e 	bl	240552c0 <HAL_NVIC_SystemReset>
24050684:	f439 7300 	bics.w	r3, r9, #512	; 0x200
24050688:	d004      	beq.n	24050694 <game_init+0x398>
2405068a:	f001 ffe7 	bl	2405265c <lcd_sync>
2405068e:	2300      	movs	r3, #0
24050690:	f8ca 3000 	str.w	r3, [sl]
24050694:	4a2c      	ldr	r2, [pc, #176]	; (24050748 <game_init+0x44c>)
24050696:	6813      	ldr	r3, [r2, #0]
24050698:	3301      	adds	r3, #1
2405069a:	6013      	str	r3, [r2, #0]
2405069c:	4b2b      	ldr	r3, [pc, #172]	; (2405074c <game_init+0x450>)
2405069e:	4a2c      	ldr	r2, [pc, #176]	; (24050750 <game_init+0x454>)
240506a0:	6819      	ldr	r1, [r3, #0]
240506a2:	887b      	ldrh	r3, [r7, #2]
240506a4:	2900      	cmp	r1, #0
240506a6:	dc02      	bgt.n	240506ae <game_init+0x3b2>
240506a8:	6828      	ldr	r0, [r5, #0]
240506aa:	2864      	cmp	r0, #100	; 0x64
240506ac:	dd23      	ble.n	240506f6 <game_init+0x3fa>
240506ae:	2b6b      	cmp	r3, #107	; 0x6b
240506b0:	d81d      	bhi.n	240506ee <game_init+0x3f2>
240506b2:	3303      	adds	r3, #3
240506b4:	807b      	strh	r3, [r7, #2]
240506b6:	2900      	cmp	r1, #0
240506b8:	8853      	ldrh	r3, [r2, #2]
240506ba:	db32      	blt.n	24050722 <game_init+0x426>
240506bc:	6829      	ldr	r1, [r5, #0]
240506be:	29db      	cmp	r1, #219	; 0xdb
240506c0:	dd2f      	ble.n	24050722 <game_init+0x426>
240506c2:	6831      	ldr	r1, [r6, #0]
240506c4:	f103 000b 	add.w	r0, r3, #11
240506c8:	4288      	cmp	r0, r1
240506ca:	db05      	blt.n	240506d8 <game_init+0x3dc>
240506cc:	3b03      	subs	r3, #3
240506ce:	b29b      	uxth	r3, r3
240506d0:	2b15      	cmp	r3, #21
240506d2:	bf98      	it	ls
240506d4:	2316      	movls	r3, #22
240506d6:	8053      	strh	r3, [r2, #2]
240506d8:	8853      	ldrh	r3, [r2, #2]
240506da:	f103 000c 	add.w	r0, r3, #12
240506de:	4281      	cmp	r1, r0
240506e0:	dd28      	ble.n	24050734 <game_init+0x438>
240506e2:	3303      	adds	r3, #3
240506e4:	b29b      	uxth	r3, r3
240506e6:	2bc6      	cmp	r3, #198	; 0xc6
240506e8:	bf88      	it	hi
240506ea:	23c6      	movhi	r3, #198	; 0xc6
240506ec:	e021      	b.n	24050732 <game_init+0x436>
240506ee:	2b70      	cmp	r3, #112	; 0x70
240506f0:	d9e1      	bls.n	240506b6 <game_init+0x3ba>
240506f2:	3b03      	subs	r3, #3
240506f4:	e7de      	b.n	240506b4 <game_init+0x3b8>
240506f6:	6831      	ldr	r1, [r6, #0]
240506f8:	f103 000b 	add.w	r0, r3, #11
240506fc:	4288      	cmp	r0, r1
240506fe:	db05      	blt.n	2405070c <game_init+0x410>
24050700:	3b03      	subs	r3, #3
24050702:	b29b      	uxth	r3, r3
24050704:	2b15      	cmp	r3, #21
24050706:	bf98      	it	ls
24050708:	2316      	movls	r3, #22
2405070a:	807b      	strh	r3, [r7, #2]
2405070c:	887b      	ldrh	r3, [r7, #2]
2405070e:	f103 000c 	add.w	r0, r3, #12
24050712:	4281      	cmp	r1, r0
24050714:	dd05      	ble.n	24050722 <game_init+0x426>
24050716:	3303      	adds	r3, #3
24050718:	b29b      	uxth	r3, r3
2405071a:	2bc6      	cmp	r3, #198	; 0xc6
2405071c:	bf88      	it	hi
2405071e:	23c6      	movhi	r3, #198	; 0xc6
24050720:	807b      	strh	r3, [r7, #2]
24050722:	8853      	ldrh	r3, [r2, #2]
24050724:	2b6b      	cmp	r3, #107	; 0x6b
24050726:	d903      	bls.n	24050730 <game_init+0x434>
24050728:	2b70      	cmp	r3, #112	; 0x70
2405072a:	d903      	bls.n	24050734 <game_init+0x438>
2405072c:	3b03      	subs	r3, #3
2405072e:	e000      	b.n	24050732 <game_init+0x436>
24050730:	3303      	adds	r3, #3
24050732:	8053      	strh	r3, [r2, #2]
24050734:	f7ff fd72 	bl	2405021c <update_ball>
24050738:	f001 ff64 	bl	24052604 <lcd_swap>
2405073c:	f001 ff9e 	bl	2405267c <lcd_wait_for_vblank>
24050740:	e69b      	b.n	2405047a <game_init+0x17e>
24050742:	bf00      	nop
24050744:	2405bde7 	.word	0x2405bde7
24050748:	200001cc 	.word	0x200001cc
2405074c:	20000174 	.word	0x20000174
24050750:	200001a4 	.word	0x200001a4

24050754 <game_over_init>:
24050754:	e92d 4ff0 	stmdb	sp!, {r4, r5, r6, r7, r8, r9, sl, fp, lr}
24050758:	2300      	movs	r3, #0
2405075a:	4d74      	ldr	r5, [pc, #464]	; (2405092c <game_over_init+0x1d8>)
2405075c:	f8df b1ec 	ldr.w	fp, [pc, #492]	; 2405094c <game_over_init+0x1f8>
24050760:	2401      	movs	r4, #1
24050762:	702b      	strb	r3, [r5, #0]
24050764:	230f      	movs	r3, #15
24050766:	f8df 81e8 	ldr.w	r8, [pc, #488]	; 24050950 <game_over_init+0x1fc>
2405076a:	4f71      	ldr	r7, [pc, #452]	; (24050930 <game_over_init+0x1dc>)
2405076c:	f8cb 0000 	str.w	r0, [fp]
24050770:	f64f 70ff 	movw	r0, #65535	; 0xffff
24050774:	603b      	str	r3, [r7, #0]
24050776:	f8df 91dc 	ldr.w	r9, [pc, #476]	; 24050954 <game_over_init+0x200>
2405077a:	f8c8 4000 	str.w	r4, [r8]
2405077e:	ed2d 8b02 	vpush	{d8}
24050782:	b083      	sub	sp, #12
24050784:	f000 fa26 	bl	24050bd4 <LCD_SetTextColor>
24050788:	486a      	ldr	r0, [pc, #424]	; (24050934 <game_over_init+0x1e0>)
2405078a:	f000 fa2f 	bl	24050bec <LCD_SetFont>
2405078e:	4620      	mov	r0, r4
24050790:	f000 fa32 	bl	24050bf8 <LCD_SetFontScale>
24050794:	f1a9 030a 	sub.w	r3, r9, #10
24050798:	ee08 3a10 	vmov	s16, r3
2405079c:	f8d8 1000 	ldr.w	r1, [r8]
240507a0:	b979      	cbnz	r1, 240507c2 <game_over_init+0x6e>
240507a2:	782b      	ldrb	r3, [r5, #0]
240507a4:	4a64      	ldr	r2, [pc, #400]	; (24050938 <game_over_init+0x1e4>)
240507a6:	f013 0301 	ands.w	r3, r3, #1
240507aa:	bf03      	ittte	eq
240507ac:	6013      	streq	r3, [r2, #0]
240507ae:	2201      	moveq	r2, #1
240507b0:	4b62      	ldreq	r3, [pc, #392]	; (2405093c <game_over_init+0x1e8>)
240507b2:	6011      	strne	r1, [r2, #0]
240507b4:	bf08      	it	eq
240507b6:	601a      	streq	r2, [r3, #0]
240507b8:	b003      	add	sp, #12
240507ba:	ecbd 8b02 	vpop	{d8}
240507be:	e8bd 8ff0 	ldmia.w	sp!, {r4, r5, r6, r7, r8, r9, sl, fp, pc}
240507c2:	f64f 76ff 	movw	r6, #65535	; 0xffff
240507c6:	f001 ff2d 	bl	24052624 <lcd_get_active_buffer>
240507ca:	4604      	mov	r4, r0
240507cc:	f248 4010 	movw	r0, #33808	; 0x8410
240507d0:	f000 fa06 	bl	24050be0 <LCD_SetBackColor>
240507d4:	2303      	movs	r3, #3
240507d6:	4620      	mov	r0, r4
240507d8:	2246      	movs	r2, #70	; 0x46
240507da:	2150      	movs	r1, #80	; 0x50
240507dc:	9600      	str	r6, [sp, #0]
240507de:	f000 fbfb 	bl	24050fd8 <LCD_FillCircle>
240507e2:	4620      	mov	r0, r4
240507e4:	2303      	movs	r3, #3
240507e6:	2246      	movs	r2, #70	; 0x46
240507e8:	21ef      	movs	r1, #239	; 0xef
240507ea:	9600      	str	r6, [sp, #0]
240507ec:	f000 fbf4 	bl	24050fd8 <LCD_FillCircle>
240507f0:	f04f 0a64 	mov.w	sl, #100	; 0x64
240507f4:	4620      	mov	r0, r4
240507f6:	2303      	movs	r3, #3
240507f8:	22a9      	movs	r2, #169	; 0xa9
240507fa:	2150      	movs	r1, #80	; 0x50
240507fc:	9600      	str	r6, [sp, #0]
240507fe:	f000 fbeb 	bl	24050fd8 <LCD_FillCircle>
24050802:	4620      	mov	r0, r4
24050804:	2303      	movs	r3, #3
24050806:	22a9      	movs	r2, #169	; 0xa9
24050808:	21ef      	movs	r1, #239	; 0xef
2405080a:	9600      	str	r6, [sp, #0]
2405080c:	f000 fbe4 	bl	24050fd8 <LCD_FillCircle>
24050810:	4620      	mov	r0, r4
24050812:	2303      	movs	r3, #3
24050814:	2246      	movs	r2, #70	; 0x46
24050816:	214d      	movs	r1, #77	; 0x4d
24050818:	9601      	str	r6, [sp, #4]
2405081a:	f8cd a000 	str.w	sl, [sp]
2405081e:	f000 fb16 	bl	24050e4e <LCD_FillRect>
24050822:	4620      	mov	r0, r4
24050824:	2303      	movs	r3, #3
24050826:	2246      	movs	r2, #70	; 0x46
24050828:	21f0      	movs	r1, #240	; 0xf0
2405082a:	e9cd a600 	strd	sl, r6, [sp]
2405082e:	f000 fb0e 	bl	24050e4e <LCD_FillRect>
24050832:	2303      	movs	r3, #3
24050834:	4620      	mov	r0, r4
24050836:	2243      	movs	r2, #67	; 0x43
24050838:	2150      	movs	r1, #80	; 0x50
2405083a:	9601      	str	r6, [sp, #4]
2405083c:	9300      	str	r3, [sp, #0]
2405083e:	23a0      	movs	r3, #160	; 0xa0
24050840:	f000 fb05 	bl	24050e4e <LCD_FillRect>
24050844:	2303      	movs	r3, #3
24050846:	4620      	mov	r0, r4
24050848:	22aa      	movs	r2, #170	; 0xaa
2405084a:	2150      	movs	r1, #80	; 0x50
2405084c:	9601      	str	r6, [sp, #4]
2405084e:	9300      	str	r3, [sp, #0]
24050850:	23a0      	movs	r3, #160	; 0xa0
24050852:	f000 fafc 	bl	24050e4e <LCD_FillRect>
24050856:	f248 4310 	movw	r3, #33808	; 0x8410
2405085a:	2246      	movs	r2, #70	; 0x46
2405085c:	2150      	movs	r1, #80	; 0x50
2405085e:	4620      	mov	r0, r4
24050860:	2601      	movs	r6, #1
24050862:	e9cd a300 	strd	sl, r3, [sp]
24050866:	23a0      	movs	r3, #160	; 0xa0
24050868:	f000 faf1 	bl	24050e4e <LCD_FillRect>
2405086c:	f44f 4000 	mov.w	r0, #32768	; 0x8000
24050870:	f000 f9b0 	bl	24050bd4 <LCD_SetTextColor>
24050874:	f8db 3000 	ldr.w	r3, [fp]
24050878:	4620      	mov	r0, r4
2405087a:	2250      	movs	r2, #80	; 0x50
2405087c:	2b01      	cmp	r3, #1
2405087e:	f04f 0100 	mov.w	r1, #0
24050882:	bf13      	iteet	ne
24050884:	2301      	movne	r3, #1
24050886:	9300      	streq	r3, [sp, #0]
24050888:	ee18 3a10 	vmoveq	r3, s16
2405088c:	9300      	strne	r3, [sp, #0]
2405088e:	bf18      	it	ne
24050890:	464b      	movne	r3, r9
24050892:	f000 fb53 	bl	24050f3c <LCD_DisplayStringAt>
24050896:	782b      	ldrb	r3, [r5, #0]
24050898:	07da      	lsls	r2, r3, #31
2405089a:	bf54      	ite	pl
2405089c:	2010      	movpl	r0, #16
2405089e:	f64f 70ff 	movwmi	r0, #65535	; 0xffff
240508a2:	f000 f997 	bl	24050bd4 <LCD_SetTextColor>
240508a6:	4620      	mov	r0, r4
240508a8:	226e      	movs	r2, #110	; 0x6e
240508aa:	2100      	movs	r1, #0
240508ac:	4b24      	ldr	r3, [pc, #144]	; (24050940 <game_over_init+0x1ec>)
240508ae:	9600      	str	r6, [sp, #0]
240508b0:	f000 fb44 	bl	24050f3c <LCD_DisplayStringAt>
240508b4:	782b      	ldrb	r3, [r5, #0]
240508b6:	07db      	lsls	r3, r3, #31
240508b8:	bf4c      	ite	mi
240508ba:	2010      	movmi	r0, #16
240508bc:	f64f 70ff 	movwpl	r0, #65535	; 0xffff
240508c0:	f000 f988 	bl	24050bd4 <LCD_SetTextColor>
240508c4:	4b1f      	ldr	r3, [pc, #124]	; (24050944 <game_over_init+0x1f0>)
240508c6:	228c      	movs	r2, #140	; 0x8c
240508c8:	2100      	movs	r1, #0
240508ca:	4620      	mov	r0, r4
240508cc:	9600      	str	r6, [sp, #0]
240508ce:	f000 fb35 	bl	24050f3c <LCD_DisplayStringAt>
240508d2:	2000      	movs	r0, #0
240508d4:	f000 f984 	bl	24050be0 <LCD_SetBackColor>
240508d8:	f001 f938 	bl	24051b4c <buttons_get>
240508dc:	4604      	mov	r4, r0
240508de:	05a0      	lsls	r0, r4, #22
240508e0:	d501      	bpl.n	240508e6 <game_over_init+0x192>
240508e2:	f004 fced 	bl	240552c0 <HAL_NVIC_SystemReset>
240508e6:	683b      	ldr	r3, [r7, #0]
240508e8:	2b00      	cmp	r3, #0
240508ea:	dc1b      	bgt.n	24050924 <game_over_init+0x1d0>
240508ec:	07a1      	lsls	r1, r4, #30
240508ee:	d504      	bpl.n	240508fa <game_over_init+0x1a6>
240508f0:	782b      	ldrb	r3, [r5, #0]
240508f2:	3b01      	subs	r3, #1
240508f4:	702b      	strb	r3, [r5, #0]
240508f6:	230f      	movs	r3, #15
240508f8:	603b      	str	r3, [r7, #0]
240508fa:	0722      	lsls	r2, r4, #28
240508fc:	d504      	bpl.n	24050908 <game_over_init+0x1b4>
240508fe:	782b      	ldrb	r3, [r5, #0]
24050900:	3301      	adds	r3, #1
24050902:	702b      	strb	r3, [r5, #0]
24050904:	230f      	movs	r3, #15
24050906:	603b      	str	r3, [r7, #0]
24050908:	06e3      	lsls	r3, r4, #27
2405090a:	d502      	bpl.n	24050912 <game_over_init+0x1be>
2405090c:	2300      	movs	r3, #0
2405090e:	f8c8 3000 	str.w	r3, [r8]
24050912:	4a0d      	ldr	r2, [pc, #52]	; (24050948 <game_over_init+0x1f4>)
24050914:	6813      	ldr	r3, [r2, #0]
24050916:	3301      	adds	r3, #1
24050918:	6013      	str	r3, [r2, #0]
2405091a:	f001 fe73 	bl	24052604 <lcd_swap>
2405091e:	f001 fead 	bl	2405267c <lcd_wait_for_vblank>
24050922:	e73b      	b.n	2405079c <game_over_init+0x48>
24050924:	3b01      	subs	r3, #1
24050926:	603b      	str	r3, [r7, #0]
24050928:	e7f3      	b.n	24050912 <game_over_init+0x1be>
2405092a:	bf00      	nop
2405092c:	200001d4 	.word	0x200001d4
24050930:	200001d0 	.word	0x200001d0
24050934:	20000018 	.word	0x20000018
24050938:	20000184 	.word	0x20000184
2405093c:	20000220 	.word	0x20000220
24050940:	2405be02 	.word	0x2405be02
24050944:	2405be0b 	.word	0x2405be0b
24050948:	200001d8 	.word	0x200001d8
2405094c:	200001dc 	.word	0x200001dc
24050950:	20000070 	.word	0x20000070
24050954:	2405bdf7 	.word	0x2405bdf7

24050958 <in_game_menu_init>:
24050958:	e92d 4ff7 	stmdb	sp!, {r0, r1, r2, r4, r5, r6, r7, r8, r9, sl, fp, lr}
2405095c:	2300      	movs	r3, #0
2405095e:	4d83      	ldr	r5, [pc, #524]	; (24050b6c <in_game_menu_init+0x214>)
24050960:	2401      	movs	r4, #1
24050962:	f8df 9224 	ldr.w	r9, [pc, #548]	; 24050b88 <in_game_menu_init+0x230>
24050966:	702b      	strb	r3, [r5, #0]
24050968:	230f      	movs	r3, #15
2405096a:	f8df 8220 	ldr.w	r8, [pc, #544]	; 24050b8c <in_game_menu_init+0x234>
2405096e:	f64f 70ff 	movw	r0, #65535	; 0xffff
24050972:	f8c9 4000 	str.w	r4, [r9]
24050976:	f8c8 3000 	str.w	r3, [r8]
2405097a:	f000 f92b 	bl	24050bd4 <LCD_SetTextColor>
2405097e:	f8df a210 	ldr.w	sl, [pc, #528]	; 24050b90 <in_game_menu_init+0x238>
24050982:	487b      	ldr	r0, [pc, #492]	; (24050b70 <in_game_menu_init+0x218>)
24050984:	f000 f932 	bl	24050bec <LCD_SetFont>
24050988:	4620      	mov	r0, r4
2405098a:	f000 f935 	bl	24050bf8 <LCD_SetFontScale>
2405098e:	f8d9 1000 	ldr.w	r1, [r9]
24050992:	b991      	cbnz	r1, 240509ba <in_game_menu_init+0x62>
24050994:	f995 3000 	ldrsb.w	r3, [r5]
24050998:	2203      	movs	r2, #3
2405099a:	fb93 f2f2 	sdiv	r2, r3, r2
2405099e:	eb02 0242 	add.w	r2, r2, r2, lsl #1
240509a2:	1a9b      	subs	r3, r3, r2
240509a4:	b25b      	sxtb	r3, r3
240509a6:	2b01      	cmp	r3, #1
240509a8:	f040 80db 	bne.w	24050b62 <in_game_menu_init+0x20a>
240509ac:	4a71      	ldr	r2, [pc, #452]	; (24050b74 <in_game_menu_init+0x21c>)
240509ae:	6011      	str	r1, [r2, #0]
240509b0:	4a71      	ldr	r2, [pc, #452]	; (24050b78 <in_game_menu_init+0x220>)
240509b2:	6013      	str	r3, [r2, #0]
240509b4:	b003      	add	sp, #12
240509b6:	e8bd 8ff0 	ldmia.w	sp!, {r4, r5, r6, r7, r8, r9, sl, fp, pc}
240509ba:	f64f 76ff 	movw	r6, #65535	; 0xffff
240509be:	f001 fe31 	bl	24052624 <lcd_get_active_buffer>
240509c2:	4604      	mov	r4, r0
240509c4:	f248 4010 	movw	r0, #33808	; 0x8410
240509c8:	f000 f90a 	bl	24050be0 <LCD_SetBackColor>
240509cc:	2303      	movs	r3, #3
240509ce:	2246      	movs	r2, #70	; 0x46
240509d0:	2150      	movs	r1, #80	; 0x50
240509d2:	4620      	mov	r0, r4
240509d4:	9600      	str	r6, [sp, #0]
240509d6:	f000 faff 	bl	24050fd8 <LCD_FillCircle>
240509da:	2303      	movs	r3, #3
240509dc:	2246      	movs	r2, #70	; 0x46
240509de:	21ef      	movs	r1, #239	; 0xef
240509e0:	4620      	mov	r0, r4
240509e2:	9600      	str	r6, [sp, #0]
240509e4:	f000 faf8 	bl	24050fd8 <LCD_FillCircle>
240509e8:	f04f 0b64 	mov.w	fp, #100	; 0x64
240509ec:	2303      	movs	r3, #3
240509ee:	22a9      	movs	r2, #169	; 0xa9
240509f0:	2150      	movs	r1, #80	; 0x50
240509f2:	4620      	mov	r0, r4
240509f4:	9600      	str	r6, [sp, #0]
240509f6:	2703      	movs	r7, #3
240509f8:	f000 faee 	bl	24050fd8 <LCD_FillCircle>
240509fc:	2303      	movs	r3, #3
240509fe:	22a9      	movs	r2, #169	; 0xa9
24050a00:	21ef      	movs	r1, #239	; 0xef
24050a02:	4620      	mov	r0, r4
24050a04:	9600      	str	r6, [sp, #0]
24050a06:	f000 fae7 	bl	24050fd8 <LCD_FillCircle>
24050a0a:	2303      	movs	r3, #3
24050a0c:	2246      	movs	r2, #70	; 0x46
24050a0e:	214d      	movs	r1, #77	; 0x4d
24050a10:	4620      	mov	r0, r4
24050a12:	9601      	str	r6, [sp, #4]
24050a14:	f8cd b000 	str.w	fp, [sp]
24050a18:	f000 fa19 	bl	24050e4e <LCD_FillRect>
24050a1c:	2303      	movs	r3, #3
24050a1e:	2246      	movs	r2, #70	; 0x46
24050a20:	21f0      	movs	r1, #240	; 0xf0
24050a22:	4620      	mov	r0, r4
24050a24:	e9cd b600 	strd	fp, r6, [sp]
24050a28:	f000 fa11 	bl	24050e4e <LCD_FillRect>
24050a2c:	23a0      	movs	r3, #160	; 0xa0
24050a2e:	2243      	movs	r2, #67	; 0x43
24050a30:	2150      	movs	r1, #80	; 0x50
24050a32:	4620      	mov	r0, r4
24050a34:	9700      	str	r7, [sp, #0]
24050a36:	9601      	str	r6, [sp, #4]
24050a38:	f000 fa09 	bl	24050e4e <LCD_FillRect>
24050a3c:	23a0      	movs	r3, #160	; 0xa0
24050a3e:	22aa      	movs	r2, #170	; 0xaa
24050a40:	2150      	movs	r1, #80	; 0x50
24050a42:	4620      	mov	r0, r4
24050a44:	e9cd 7600 	strd	r7, r6, [sp]
24050a48:	f000 fa01 	bl	24050e4e <LCD_FillRect>
24050a4c:	f248 4310 	movw	r3, #33808	; 0x8410
24050a50:	2246      	movs	r2, #70	; 0x46
24050a52:	2150      	movs	r1, #80	; 0x50
24050a54:	4620      	mov	r0, r4
24050a56:	e9cd b300 	strd	fp, r3, [sp]
24050a5a:	23a0      	movs	r3, #160	; 0xa0
24050a5c:	f000 f9f7 	bl	24050e4e <LCD_FillRect>
24050a60:	f995 3000 	ldrsb.w	r3, [r5]
24050a64:	fb93 f7f7 	sdiv	r7, r3, r7
24050a68:	eb07 0747 	add.w	r7, r7, r7, lsl #1
24050a6c:	1bdb      	subs	r3, r3, r7
24050a6e:	b25b      	sxtb	r3, r3
24050a70:	2b00      	cmp	r3, #0
24050a72:	d170      	bne.n	24050b56 <in_game_menu_init+0x1fe>
24050a74:	2010      	movs	r0, #16
24050a76:	2601      	movs	r6, #1
24050a78:	f000 f8ac 	bl	24050bd4 <LCD_SetTextColor>
24050a7c:	4620      	mov	r0, r4
24050a7e:	2100      	movs	r1, #0
24050a80:	4653      	mov	r3, sl
24050a82:	2250      	movs	r2, #80	; 0x50
24050a84:	9600      	str	r6, [sp, #0]
24050a86:	f000 fa59 	bl	24050f3c <LCD_DisplayStringAt>
24050a8a:	f995 3000 	ldrsb.w	r3, [r5]
24050a8e:	2203      	movs	r2, #3
24050a90:	fb93 f2f2 	sdiv	r2, r3, r2
24050a94:	eb02 0242 	add.w	r2, r2, r2, lsl #1
24050a98:	1a9b      	subs	r3, r3, r2
24050a9a:	b25b      	sxtb	r3, r3
24050a9c:	42b3      	cmp	r3, r6
24050a9e:	bf0c      	ite	eq
24050aa0:	2010      	moveq	r0, #16
24050aa2:	f64f 70ff 	movwne	r0, #65535	; 0xffff
24050aa6:	f000 f895 	bl	24050bd4 <LCD_SetTextColor>
24050aaa:	4620      	mov	r0, r4
24050aac:	2100      	movs	r1, #0
24050aae:	4b33      	ldr	r3, [pc, #204]	; (24050b7c <in_game_menu_init+0x224>)
24050ab0:	226e      	movs	r2, #110	; 0x6e
24050ab2:	9600      	str	r6, [sp, #0]
24050ab4:	f000 fa42 	bl	24050f3c <LCD_DisplayStringAt>
24050ab8:	f995 3000 	ldrsb.w	r3, [r5]
24050abc:	2203      	movs	r2, #3
24050abe:	fb93 f2f2 	sdiv	r2, r3, r2
24050ac2:	eb02 0242 	add.w	r2, r2, r2, lsl #1
24050ac6:	1a9b      	subs	r3, r3, r2
24050ac8:	b25b      	sxtb	r3, r3
24050aca:	2b02      	cmp	r3, #2
24050acc:	bf0c      	ite	eq
24050ace:	2010      	moveq	r0, #16
24050ad0:	f64f 70ff 	movwne	r0, #65535	; 0xffff
24050ad4:	f000 f87e 	bl	24050bd4 <LCD_SetTextColor>
24050ad8:	2301      	movs	r3, #1
24050ada:	228c      	movs	r2, #140	; 0x8c
24050adc:	2100      	movs	r1, #0
24050ade:	4620      	mov	r0, r4
24050ae0:	9300      	str	r3, [sp, #0]
24050ae2:	4b27      	ldr	r3, [pc, #156]	; (24050b80 <in_game_menu_init+0x228>)
24050ae4:	f000 fa2a 	bl	24050f3c <LCD_DisplayStringAt>
24050ae8:	2000      	movs	r0, #0
24050aea:	f000 f879 	bl	24050be0 <LCD_SetBackColor>
24050aee:	f001 f82d 	bl	24051b4c <buttons_get>
24050af2:	4604      	mov	r4, r0
24050af4:	05a0      	lsls	r0, r4, #22
24050af6:	d501      	bpl.n	24050afc <in_game_menu_init+0x1a4>
24050af8:	f004 fbe2 	bl	240552c0 <HAL_NVIC_SystemReset>
24050afc:	f8d8 3000 	ldr.w	r3, [r8]
24050b00:	2b00      	cmp	r3, #0
24050b02:	dc2a      	bgt.n	24050b5a <in_game_menu_init+0x202>
24050b04:	07a1      	lsls	r1, r4, #30
24050b06:	d50a      	bpl.n	24050b1e <in_game_menu_init+0x1c6>
24050b08:	f995 3000 	ldrsb.w	r3, [r5]
24050b0c:	b90b      	cbnz	r3, 24050b12 <in_game_menu_init+0x1ba>
24050b0e:	2303      	movs	r3, #3
24050b10:	702b      	strb	r3, [r5, #0]
24050b12:	782b      	ldrb	r3, [r5, #0]
24050b14:	3b01      	subs	r3, #1
24050b16:	702b      	strb	r3, [r5, #0]
24050b18:	230f      	movs	r3, #15
24050b1a:	f8c8 3000 	str.w	r3, [r8]
24050b1e:	0722      	lsls	r2, r4, #28
24050b20:	d50b      	bpl.n	24050b3a <in_game_menu_init+0x1e2>
24050b22:	f995 3000 	ldrsb.w	r3, [r5]
24050b26:	2b02      	cmp	r3, #2
24050b28:	bf04      	itt	eq
24050b2a:	23ff      	moveq	r3, #255	; 0xff
24050b2c:	702b      	strbeq	r3, [r5, #0]
24050b2e:	782b      	ldrb	r3, [r5, #0]
24050b30:	3301      	adds	r3, #1
24050b32:	702b      	strb	r3, [r5, #0]
24050b34:	230f      	movs	r3, #15
24050b36:	f8c8 3000 	str.w	r3, [r8]
24050b3a:	06e3      	lsls	r3, r4, #27
24050b3c:	d502      	bpl.n	24050b44 <in_game_menu_init+0x1ec>
24050b3e:	2300      	movs	r3, #0
24050b40:	f8c9 3000 	str.w	r3, [r9]
24050b44:	4a0f      	ldr	r2, [pc, #60]	; (24050b84 <in_game_menu_init+0x22c>)
24050b46:	6813      	ldr	r3, [r2, #0]
24050b48:	3301      	adds	r3, #1
24050b4a:	6013      	str	r3, [r2, #0]
24050b4c:	f001 fd5a 	bl	24052604 <lcd_swap>
24050b50:	f001 fd94 	bl	2405267c <lcd_wait_for_vblank>
24050b54:	e71b      	b.n	2405098e <in_game_menu_init+0x36>
24050b56:	4630      	mov	r0, r6
24050b58:	e78d      	b.n	24050a76 <in_game_menu_init+0x11e>
24050b5a:	3b01      	subs	r3, #1
24050b5c:	f8c8 3000 	str.w	r3, [r8]
24050b60:	e7f0      	b.n	24050b44 <in_game_menu_init+0x1ec>
24050b62:	2b02      	cmp	r3, #2
24050b64:	bf04      	itt	eq
24050b66:	4b03      	ldreq	r3, [pc, #12]	; (24050b74 <in_game_menu_init+0x21c>)
24050b68:	6019      	streq	r1, [r3, #0]
24050b6a:	e723      	b.n	240509b4 <in_game_menu_init+0x5c>
24050b6c:	200001e4 	.word	0x200001e4
24050b70:	20000018 	.word	0x20000018
24050b74:	20000184 	.word	0x20000184
24050b78:	20000220 	.word	0x20000220
24050b7c:	2405be19 	.word	0x2405be19
24050b80:	2405be22 	.word	0x2405be22
24050b84:	200001e8 	.word	0x200001e8
24050b88:	20000074 	.word	0x20000074
24050b8c:	200001e0 	.word	0x200001e0
24050b90:	2405be11 	.word	0x2405be11

24050b94 <FillBuffer>:
24050b94:	b530      	push	{r4, r5, lr}
24050b96:	4c0b      	ldr	r4, [pc, #44]	; (24050bc4 <FillBuffer+0x30>)
24050b98:	f44f 3540 	mov.w	r5, #196608	; 0x30000
24050b9c:	ea42 4101 	orr.w	r1, r2, r1, lsl #16
24050ba0:	6025      	str	r5, [r4, #0]
24050ba2:	f8bd 500c 	ldrh.w	r5, [sp, #12]
24050ba6:	63a5      	str	r5, [r4, #56]	; 0x38
24050ba8:	63e0      	str	r0, [r4, #60]	; 0x3c
24050baa:	6423      	str	r3, [r4, #64]	; 0x40
24050bac:	2302      	movs	r3, #2
24050bae:	6363      	str	r3, [r4, #52]	; 0x34
24050bb0:	6461      	str	r1, [r4, #68]	; 0x44
24050bb2:	6823      	ldr	r3, [r4, #0]
24050bb4:	f043 0301 	orr.w	r3, r3, #1
24050bb8:	6023      	str	r3, [r4, #0]
24050bba:	6823      	ldr	r3, [r4, #0]
24050bbc:	07db      	lsls	r3, r3, #31
24050bbe:	d4fc      	bmi.n	24050bba <FillBuffer+0x26>
24050bc0:	bd30      	pop	{r4, r5, pc}
24050bc2:	bf00      	nop
24050bc4:	52001000 	.word	0x52001000

24050bc8 <LCD_GetXSize>:
24050bc8:	f44f 70a0 	mov.w	r0, #320	; 0x140
24050bcc:	4770      	bx	lr

24050bce <LCD_GetYSize>:
24050bce:	20f0      	movs	r0, #240	; 0xf0
24050bd0:	4770      	bx	lr
	...

24050bd4 <LCD_SetTextColor>:
24050bd4:	4b01      	ldr	r3, [pc, #4]	; (24050bdc <LCD_SetTextColor+0x8>)
24050bd6:	8018      	strh	r0, [r3, #0]
24050bd8:	4770      	bx	lr
24050bda:	bf00      	nop
24050bdc:	2000007c 	.word	0x2000007c

24050be0 <LCD_SetBackColor>:
24050be0:	4b01      	ldr	r3, [pc, #4]	; (24050be8 <LCD_SetBackColor+0x8>)
24050be2:	8018      	strh	r0, [r3, #0]
24050be4:	4770      	bx	lr
24050be6:	bf00      	nop
24050be8:	200001ec 	.word	0x200001ec

24050bec <LCD_SetFont>:
24050bec:	4b01      	ldr	r3, [pc, #4]	; (24050bf4 <LCD_SetFont+0x8>)
24050bee:	6018      	str	r0, [r3, #0]
24050bf0:	4770      	bx	lr
24050bf2:	bf00      	nop
24050bf4:	20000078 	.word	0x20000078

24050bf8 <LCD_SetFontScale>:
24050bf8:	4b01      	ldr	r3, [pc, #4]	; (24050c00 <LCD_SetFontScale+0x8>)
24050bfa:	7018      	strb	r0, [r3, #0]
24050bfc:	4770      	bx	lr
24050bfe:	bf00      	nop
24050c00:	2000007e 	.word	0x2000007e

24050c04 <LCD_DrawPixel>:
24050c04:	b510      	push	{r4, lr}
24050c06:	f44f 74a0 	mov.w	r4, #320	; 0x140
24050c0a:	fb04 1102 	mla	r1, r4, r2, r1
24050c0e:	f5b1 3f96 	cmp.w	r1, #76800	; 0x12c00
24050c12:	bfd8      	it	le
24050c14:	f820 3011 	strhle.w	r3, [r0, r1, lsl #1]
24050c18:	bd10      	pop	{r4, pc}

24050c1a <LCD_Clear>:
24050c1a:	b507      	push	{r0, r1, r2, lr}
24050c1c:	2300      	movs	r3, #0
24050c1e:	9100      	str	r1, [sp, #0]
24050c20:	22f0      	movs	r2, #240	; 0xf0
24050c22:	f44f 71a0 	mov.w	r1, #320	; 0x140
24050c26:	f7ff ffb5 	bl	24050b94 <FillBuffer>
24050c2a:	b003      	add	sp, #12
24050c2c:	f85d fb04 	ldr.w	pc, [sp], #4

24050c30 <LCD_DrawHLine>:
24050c30:	b430      	push	{r4, r5}
24050c32:	460c      	mov	r4, r1
24050c34:	f44f 75a0 	mov.w	r5, #320	; 0x140
24050c38:	4619      	mov	r1, r3
24050c3a:	f8bd 3008 	ldrh.w	r3, [sp, #8]
24050c3e:	fb05 4402 	mla	r4, r5, r2, r4
24050c42:	2201      	movs	r2, #1
24050c44:	9302      	str	r3, [sp, #8]
24050c46:	2300      	movs	r3, #0
24050c48:	eb00 0044 	add.w	r0, r0, r4, lsl #1
24050c4c:	bc30      	pop	{r4, r5}
24050c4e:	f7ff bfa1 	b.w	24050b94 <FillBuffer>

24050c52 <LCD_DrawVLine>:
24050c52:	b430      	push	{r4, r5}
24050c54:	4614      	mov	r4, r2
24050c56:	f44f 75a0 	mov.w	r5, #320	; 0x140
24050c5a:	461a      	mov	r2, r3
24050c5c:	f8bd 3008 	ldrh.w	r3, [sp, #8]
24050c60:	fb05 1404 	mla	r4, r5, r4, r1
24050c64:	2101      	movs	r1, #1
24050c66:	9302      	str	r3, [sp, #8]
24050c68:	f240 133f 	movw	r3, #319	; 0x13f
24050c6c:	eb00 0044 	add.w	r0, r0, r4, lsl #1
24050c70:	bc30      	pop	{r4, r5}
24050c72:	f7ff bf8f 	b.w	24050b94 <FillBuffer>

24050c76 <LCD_DrawLine>:
24050c76:	e92d 4ff0 	stmdb	sp!, {r4, r5, r6, r7, r8, r9, sl, fp, lr}
24050c7a:	461f      	mov	r7, r3
24050c7c:	b085      	sub	sp, #20
24050c7e:	fa0f f981 	sxth.w	r9, r1
24050c82:	1a7c      	subs	r4, r7, r1
24050c84:	f8bd 8038 	ldrh.w	r8, [sp, #56]	; 0x38
24050c88:	f8bd 303c 	ldrh.w	r3, [sp, #60]	; 0x3c
24050c8c:	fa0f fa82 	sxth.w	sl, r2
24050c90:	eba8 0602 	sub.w	r6, r8, r2
24050c94:	2c00      	cmp	r4, #0
24050c96:	bfb8      	it	lt
24050c98:	4264      	neglt	r4, r4
24050c9a:	2e00      	cmp	r6, #0
24050c9c:	bfb8      	it	lt
24050c9e:	4276      	neglt	r6, r6
24050ca0:	b224      	sxth	r4, r4
24050ca2:	428f      	cmp	r7, r1
24050ca4:	bf2c      	ite	cs
24050ca6:	2701      	movcs	r7, #1
24050ca8:	f04f 37ff 	movcc.w	r7, #4294967295
24050cac:	4590      	cmp	r8, r2
24050cae:	bf2c      	ite	cs
24050cb0:	f04f 0801 	movcs.w	r8, #1
24050cb4:	f04f 38ff 	movcc.w	r8, #4294967295
24050cb8:	b236      	sxth	r6, r6
24050cba:	42b4      	cmp	r4, r6
24050cbc:	db0e      	blt.n	24050cdc <LCD_DrawLine+0x66>
24050cbe:	eb04 75d4 	add.w	r5, r4, r4, lsr #31
24050cc2:	9701      	str	r7, [sp, #4]
24050cc4:	2700      	movs	r7, #0
24050cc6:	106d      	asrs	r5, r5, #1
24050cc8:	9702      	str	r7, [sp, #8]
24050cca:	f04f 0b00 	mov.w	fp, #0
24050cce:	fa0f f28b 	sxth.w	r2, fp
24050cd2:	4294      	cmp	r4, r2
24050cd4:	da10      	bge.n	24050cf8 <LCD_DrawLine+0x82>
24050cd6:	b005      	add	sp, #20
24050cd8:	e8bd 8ff0 	ldmia.w	sp!, {r4, r5, r6, r7, r8, r9, sl, fp, pc}
24050cdc:	eb06 75d6 	add.w	r5, r6, r6, lsr #31
24050ce0:	4622      	mov	r2, r4
24050ce2:	f8cd 8008 	str.w	r8, [sp, #8]
24050ce6:	f04f 0800 	mov.w	r8, #0
24050cea:	4634      	mov	r4, r6
24050cec:	f345 054f 	sbfx	r5, r5, #1, #16
24050cf0:	4616      	mov	r6, r2
24050cf2:	f8cd 8004 	str.w	r8, [sp, #4]
24050cf6:	e7e8      	b.n	24050cca <LCD_DrawLine+0x54>
24050cf8:	fa1f f189 	uxth.w	r1, r9
24050cfc:	4435      	add	r5, r6
24050cfe:	fa1f f28a 	uxth.w	r2, sl
24050d02:	9103      	str	r1, [sp, #12]
24050d04:	f7ff ff7e 	bl	24050c04 <LCD_DrawPixel>
24050d08:	fa1f fc85 	uxth.w	ip, r5
24050d0c:	b22d      	sxth	r5, r5
24050d0e:	42ac      	cmp	r4, r5
24050d10:	dc09      	bgt.n	24050d26 <LCD_DrawLine+0xb0>
24050d12:	9903      	ldr	r1, [sp, #12]
24050d14:	ebac 0504 	sub.w	r5, ip, r4
24050d18:	4442      	add	r2, r8
24050d1a:	4439      	add	r1, r7
24050d1c:	b22d      	sxth	r5, r5
24050d1e:	fa0f fa82 	sxth.w	sl, r2
24050d22:	fa0f f981 	sxth.w	r9, r1
24050d26:	9a01      	ldr	r2, [sp, #4]
24050d28:	f10b 0b01 	add.w	fp, fp, #1
24050d2c:	4491      	add	r9, r2
24050d2e:	9a02      	ldr	r2, [sp, #8]
24050d30:	4492      	add	sl, r2
24050d32:	fa0f f989 	sxth.w	r9, r9
24050d36:	fa0f fa8a 	sxth.w	sl, sl
24050d3a:	e7c8      	b.n	24050cce <LCD_DrawLine+0x58>

24050d3c <LCD_DrawRect>:
24050d3c:	e92d 43f7 	stmdb	sp!, {r0, r1, r2, r4, r5, r6, r7, r8, r9, lr}
24050d40:	f8bd 702c 	ldrh.w	r7, [sp, #44]	; 0x2c
24050d44:	4616      	mov	r6, r2
24050d46:	f8bd 9028 	ldrh.w	r9, [sp, #40]	; 0x28
24050d4a:	4605      	mov	r5, r0
24050d4c:	9700      	str	r7, [sp, #0]
24050d4e:	460c      	mov	r4, r1
24050d50:	4698      	mov	r8, r3
24050d52:	f7ff ff6d 	bl	24050c30 <LCD_DrawHLine>
24050d56:	eb06 0209 	add.w	r2, r6, r9
24050d5a:	4621      	mov	r1, r4
24050d5c:	4643      	mov	r3, r8
24050d5e:	4628      	mov	r0, r5
24050d60:	b292      	uxth	r2, r2
24050d62:	9700      	str	r7, [sp, #0]
24050d64:	f7ff ff64 	bl	24050c30 <LCD_DrawHLine>
24050d68:	464b      	mov	r3, r9
24050d6a:	4632      	mov	r2, r6
24050d6c:	4621      	mov	r1, r4
24050d6e:	4628      	mov	r0, r5
24050d70:	9700      	str	r7, [sp, #0]
24050d72:	f7ff ff6e 	bl	24050c52 <LCD_DrawVLine>
24050d76:	eb04 0108 	add.w	r1, r4, r8
24050d7a:	464b      	mov	r3, r9
24050d7c:	4632      	mov	r2, r6
24050d7e:	b289      	uxth	r1, r1
24050d80:	4628      	mov	r0, r5
24050d82:	970a      	str	r7, [sp, #40]	; 0x28
24050d84:	b003      	add	sp, #12
24050d86:	e8bd 43f0 	ldmia.w	sp!, {r4, r5, r6, r7, r8, r9, lr}
24050d8a:	f7ff bf62 	b.w	24050c52 <LCD_DrawVLine>

24050d8e <LCD_DrawCircle>:
24050d8e:	e92d 4ff0 	stmdb	sp!, {r4, r5, r6, r7, r8, r9, sl, fp, lr}
24050d92:	461d      	mov	r5, r3
24050d94:	b085      	sub	sp, #20
24050d96:	2600      	movs	r6, #0
24050d98:	006c      	lsls	r4, r5, #1
24050d9a:	f8bd 3038 	ldrh.w	r3, [sp, #56]	; 0x38
24050d9e:	9501      	str	r5, [sp, #4]
24050da0:	f1c4 0403 	rsb	r4, r4, #3
24050da4:	e9cd 1202 	strd	r1, r2, [sp, #8]
24050da8:	9a02      	ldr	r2, [sp, #8]
24050daa:	fa1f f886 	uxth.w	r8, r6
24050dae:	f8bd 7004 	ldrh.w	r7, [sp, #4]
24050db2:	fa12 fb86 	uxtah	fp, r2, r6
24050db6:	9a03      	ldr	r2, [sp, #12]
24050db8:	4645      	mov	r5, r8
24050dba:	fa1f fb8b 	uxth.w	fp, fp
24050dbe:	1bd2      	subs	r2, r2, r7
24050dc0:	4659      	mov	r1, fp
24050dc2:	b292      	uxth	r2, r2
24050dc4:	f7ff ff1e 	bl	24050c04 <LCD_DrawPixel>
24050dc8:	9902      	ldr	r1, [sp, #8]
24050dca:	eba1 0a08 	sub.w	sl, r1, r8
24050dce:	fa1f fa8a 	uxth.w	sl, sl
24050dd2:	4651      	mov	r1, sl
24050dd4:	f7ff ff16 	bl	24050c04 <LCD_DrawPixel>
24050dd8:	9a02      	ldr	r2, [sp, #8]
24050dda:	eb07 0902 	add.w	r9, r7, r2
24050dde:	9a03      	ldr	r2, [sp, #12]
24050de0:	fa1f f989 	uxth.w	r9, r9
24050de4:	1b52      	subs	r2, r2, r5
24050de6:	4649      	mov	r1, r9
24050de8:	b292      	uxth	r2, r2
24050dea:	f7ff ff0b 	bl	24050c04 <LCD_DrawPixel>
24050dee:	9902      	ldr	r1, [sp, #8]
24050df0:	eba1 0807 	sub.w	r8, r1, r7
24050df4:	fa1f f888 	uxth.w	r8, r8
24050df8:	4641      	mov	r1, r8
24050dfa:	f7ff ff03 	bl	24050c04 <LCD_DrawPixel>
24050dfe:	9a03      	ldr	r2, [sp, #12]
24050e00:	4659      	mov	r1, fp
24050e02:	18ba      	adds	r2, r7, r2
24050e04:	b292      	uxth	r2, r2
24050e06:	f7ff fefd 	bl	24050c04 <LCD_DrawPixel>
24050e0a:	4651      	mov	r1, sl
24050e0c:	f7ff fefa 	bl	24050c04 <LCD_DrawPixel>
24050e10:	9903      	ldr	r1, [sp, #12]
24050e12:	462a      	mov	r2, r5
24050e14:	440a      	add	r2, r1
24050e16:	4649      	mov	r1, r9
24050e18:	b292      	uxth	r2, r2
24050e1a:	f7ff fef3 	bl	24050c04 <LCD_DrawPixel>
24050e1e:	4641      	mov	r1, r8
24050e20:	f7ff fef0 	bl	24050c04 <LCD_DrawPixel>
24050e24:	2c00      	cmp	r4, #0
24050e26:	da09      	bge.n	24050e3c <LCD_DrawCircle+0xae>
24050e28:	3406      	adds	r4, #6
24050e2a:	eb04 0486 	add.w	r4, r4, r6, lsl #2
24050e2e:	3601      	adds	r6, #1
24050e30:	9a01      	ldr	r2, [sp, #4]
24050e32:	42b2      	cmp	r2, r6
24050e34:	d2b8      	bcs.n	24050da8 <LCD_DrawCircle+0x1a>
24050e36:	b005      	add	sp, #20
24050e38:	e8bd 8ff0 	ldmia.w	sp!, {r4, r5, r6, r7, r8, r9, sl, fp, pc}
24050e3c:	9a01      	ldr	r2, [sp, #4]
24050e3e:	340a      	adds	r4, #10
24050e40:	1ab2      	subs	r2, r6, r2
24050e42:	eb04 0482 	add.w	r4, r4, r2, lsl #2
24050e46:	9a01      	ldr	r2, [sp, #4]
24050e48:	3a01      	subs	r2, #1
24050e4a:	9201      	str	r2, [sp, #4]
24050e4c:	e7ef      	b.n	24050e2e <LCD_DrawCircle+0xa0>

24050e4e <LCD_FillRect>:
24050e4e:	b470      	push	{r4, r5, r6}
24050e50:	f44f 76a0 	mov.w	r6, #320	; 0x140
24050e54:	4615      	mov	r5, r2
24050e56:	461c      	mov	r4, r3
24050e58:	f8bd 3010 	ldrh.w	r3, [sp, #16]
24050e5c:	fb06 1505 	mla	r5, r6, r5, r1
24050e60:	f8bd 200c 	ldrh.w	r2, [sp, #12]
24050e64:	4621      	mov	r1, r4
24050e66:	9303      	str	r3, [sp, #12]
24050e68:	eb00 0045 	add.w	r0, r0, r5, lsl #1
24050e6c:	1b33      	subs	r3, r6, r4
24050e6e:	bc70      	pop	{r4, r5, r6}
24050e70:	f7ff be90 	b.w	24050b94 <FillBuffer>

24050e74 <LCD_DisplayChar>:
24050e74:	e92d 4ff0 	stmdb	sp!, {r4, r5, r6, r7, r8, r9, sl, fp, lr}
24050e78:	4690      	mov	r8, r2
24050e7a:	4a2c      	ldr	r2, [pc, #176]	; (24050f2c <LCD_DisplayChar+0xb8>)
24050e7c:	b089      	sub	sp, #36	; 0x24
24050e7e:	3b20      	subs	r3, #32
24050e80:	6812      	ldr	r2, [r2, #0]
24050e82:	9106      	str	r1, [sp, #24]
24050e84:	f8b2 b004 	ldrh.w	fp, [r2, #4]
24050e88:	88d1      	ldrh	r1, [r2, #6]
24050e8a:	f10b 0707 	add.w	r7, fp, #7
24050e8e:	6815      	ldr	r5, [r2, #0]
24050e90:	9103      	str	r1, [sp, #12]
24050e92:	4927      	ldr	r1, [pc, #156]	; (24050f30 <LCD_DisplayChar+0xbc>)
24050e94:	10ff      	asrs	r7, r7, #3
24050e96:	7809      	ldrb	r1, [r1, #0]
24050e98:	9105      	str	r1, [sp, #20]
24050e9a:	ebcb 01c7 	rsb	r1, fp, r7, lsl #3
24050e9e:	b2c9      	uxtb	r1, r1
24050ea0:	9104      	str	r1, [sp, #16]
24050ea2:	9903      	ldr	r1, [sp, #12]
24050ea4:	434b      	muls	r3, r1
24050ea6:	fb07 5503 	mla	r5, r7, r3, r5
24050eaa:	2300      	movs	r3, #0
24050eac:	9302      	str	r3, [sp, #8]
24050eae:	e9dd 3202 	ldrd	r3, r2, [sp, #8]
24050eb2:	4293      	cmp	r3, r2
24050eb4:	d302      	bcc.n	24050ebc <LCD_DisplayChar+0x48>
24050eb6:	b009      	add	sp, #36	; 0x24
24050eb8:	e8bd 8ff0 	ldmia.w	sp!, {r4, r5, r6, r7, r8, r9, sl, fp, pc}
24050ebc:	2f01      	cmp	r7, #1
24050ebe:	782c      	ldrb	r4, [r5, #0]
24050ec0:	d004      	beq.n	24050ecc <LCD_DisplayChar+0x58>
24050ec2:	2f02      	cmp	r7, #2
24050ec4:	d114      	bne.n	24050ef0 <LCD_DisplayChar+0x7c>
24050ec6:	882c      	ldrh	r4, [r5, #0]
24050ec8:	ba64      	rev16	r4, r4
24050eca:	b2a4      	uxth	r4, r4
24050ecc:	9b04      	ldr	r3, [sp, #16]
24050ece:	f8bd 6014 	ldrh.w	r6, [sp, #20]
24050ed2:	eb0b 0a03 	add.w	sl, fp, r3
24050ed6:	f8dd 9018 	ldr.w	r9, [sp, #24]
24050eda:	9b04      	ldr	r3, [sp, #16]
24050edc:	459a      	cmp	sl, r3
24050ede:	d10e      	bne.n	24050efe <LCD_DisplayChar+0x8a>
24050ee0:	9b02      	ldr	r3, [sp, #8]
24050ee2:	4446      	add	r6, r8
24050ee4:	443d      	add	r5, r7
24050ee6:	3301      	adds	r3, #1
24050ee8:	fa1f f886 	uxth.w	r8, r6
24050eec:	9302      	str	r3, [sp, #8]
24050eee:	e7de      	b.n	24050eae <LCD_DisplayChar+0x3a>
24050ef0:	786b      	ldrb	r3, [r5, #1]
24050ef2:	0424      	lsls	r4, r4, #16
24050ef4:	ea44 2403 	orr.w	r4, r4, r3, lsl #8
24050ef8:	78ab      	ldrb	r3, [r5, #2]
24050efa:	431c      	orrs	r4, r3
24050efc:	e7e6      	b.n	24050ecc <LCD_DisplayChar+0x58>
24050efe:	f10a 3aff 	add.w	sl, sl, #4294967295
24050f02:	2301      	movs	r3, #1
24050f04:	4649      	mov	r1, r9
24050f06:	44b1      	add	r9, r6
24050f08:	fa03 f30a 	lsl.w	r3, r3, sl
24050f0c:	4642      	mov	r2, r8
24050f0e:	fa1f f989 	uxth.w	r9, r9
24050f12:	4223      	tst	r3, r4
24050f14:	bf14      	ite	ne
24050f16:	4b07      	ldrne	r3, [pc, #28]	; (24050f34 <LCD_DisplayChar+0xc0>)
24050f18:	4b07      	ldreq	r3, [pc, #28]	; (24050f38 <LCD_DisplayChar+0xc4>)
24050f1a:	881b      	ldrh	r3, [r3, #0]
24050f1c:	9007      	str	r0, [sp, #28]
24050f1e:	e9cd 6300 	strd	r6, r3, [sp]
24050f22:	4633      	mov	r3, r6
24050f24:	f7ff ff93 	bl	24050e4e <LCD_FillRect>
24050f28:	9807      	ldr	r0, [sp, #28]
24050f2a:	e7d6      	b.n	24050eda <LCD_DisplayChar+0x66>
24050f2c:	20000078 	.word	0x20000078
24050f30:	2000007e 	.word	0x2000007e
24050f34:	2000007c 	.word	0x2000007c
24050f38:	200001ec 	.word	0x200001ec

24050f3c <LCD_DisplayStringAt>:
24050f3c:	e92d 43f8 	stmdb	sp!, {r3, r4, r5, r6, r7, r8, r9, lr}
24050f40:	461f      	mov	r7, r3
24050f42:	4b23      	ldr	r3, [pc, #140]	; (24050fd0 <LCD_DisplayStringAt+0x94>)
24050f44:	460d      	mov	r5, r1
24050f46:	4680      	mov	r8, r0
24050f48:	681b      	ldr	r3, [r3, #0]
24050f4a:	4691      	mov	r9, r2
24050f4c:	f89d 1020 	ldrb.w	r1, [sp, #32]
24050f50:	889e      	ldrh	r6, [r3, #4]
24050f52:	4b20      	ldr	r3, [pc, #128]	; (24050fd4 <LCD_DisplayStringAt+0x98>)
24050f54:	781b      	ldrb	r3, [r3, #0]
24050f56:	435e      	muls	r6, r3
24050f58:	463b      	mov	r3, r7
24050f5a:	461c      	mov	r4, r3
24050f5c:	f813 2b01 	ldrb.w	r2, [r3], #1
24050f60:	2a00      	cmp	r2, #0
24050f62:	d1fa      	bne.n	24050f5a <LCD_DisplayStringAt+0x1e>
24050f64:	f44f 72a0 	mov.w	r2, #320	; 0x140
24050f68:	2901      	cmp	r1, #1
24050f6a:	fbb2 f2f6 	udiv	r2, r2, r6
24050f6e:	fb06 f302 	mul.w	r3, r6, r2
24050f72:	f5c3 73a0 	rsb	r3, r3, #320	; 0x140
24050f76:	d013      	beq.n	24050fa0 <LCD_DisplayStringAt+0x64>
24050f78:	2902      	cmp	r1, #2
24050f7a:	d019      	beq.n	24050fb0 <LCD_DisplayStringAt+0x74>
24050f7c:	2400      	movs	r4, #0
24050f7e:	b2a2      	uxth	r2, r4
24050f80:	5d3b      	ldrb	r3, [r7, r4]
24050f82:	3401      	adds	r4, #1
24050f84:	4372      	muls	r2, r6
24050f86:	f5c2 72a0 	rsb	r2, r2, #320	; 0x140
24050f8a:	b292      	uxth	r2, r2
24050f8c:	42b2      	cmp	r2, r6
24050f8e:	bf34      	ite	cc
24050f90:	2200      	movcc	r2, #0
24050f92:	2201      	movcs	r2, #1
24050f94:	2b00      	cmp	r3, #0
24050f96:	bf08      	it	eq
24050f98:	2200      	moveq	r2, #0
24050f9a:	b982      	cbnz	r2, 24050fbe <LCD_DisplayStringAt+0x82>
24050f9c:	e8bd 83f8 	ldmia.w	sp!, {r3, r4, r5, r6, r7, r8, r9, pc}
24050fa0:	1b3c      	subs	r4, r7, r4
24050fa2:	4414      	add	r4, r2
24050fa4:	fb06 3304 	mla	r3, r6, r4, r3
24050fa8:	eb05 0353 	add.w	r3, r5, r3, lsr #1
24050fac:	b29d      	uxth	r5, r3
24050fae:	e7e5      	b.n	24050f7c <LCD_DisplayStringAt+0x40>
24050fb0:	1b3c      	subs	r4, r7, r4
24050fb2:	442b      	add	r3, r5
24050fb4:	4414      	add	r4, r2
24050fb6:	fb14 3406 	smlabb	r4, r4, r6, r3
24050fba:	b2a5      	uxth	r5, r4
24050fbc:	e7de      	b.n	24050f7c <LCD_DisplayStringAt+0x40>
24050fbe:	4629      	mov	r1, r5
24050fc0:	4435      	add	r5, r6
24050fc2:	464a      	mov	r2, r9
24050fc4:	4640      	mov	r0, r8
24050fc6:	b2ad      	uxth	r5, r5
24050fc8:	f7ff ff54 	bl	24050e74 <LCD_DisplayChar>
24050fcc:	e7d7      	b.n	24050f7e <LCD_DisplayStringAt+0x42>
24050fce:	bf00      	nop
24050fd0:	20000078 	.word	0x20000078
24050fd4:	2000007e 	.word	0x2000007e

24050fd8 <LCD_FillCircle>:
24050fd8:	e92d 4ff0 	stmdb	sp!, {r4, r5, r6, r7, r8, r9, sl, fp, lr}
24050fdc:	005c      	lsls	r4, r3, #1
24050fde:	b087      	sub	sp, #28
24050fe0:	4689      	mov	r9, r1
24050fe2:	4616      	mov	r6, r2
24050fe4:	469a      	mov	sl, r3
24050fe6:	f8bd b040 	ldrh.w	fp, [sp, #64]	; 0x40
24050fea:	f1c4 0403 	rsb	r4, r4, #3
24050fee:	461f      	mov	r7, r3
24050ff0:	2500      	movs	r5, #0
24050ff2:	b1e7      	cbz	r7, 2405102e <LCD_FillCircle+0x56>
24050ff4:	b2bb      	uxth	r3, r7
24050ff6:	fa16 f285 	uxtah	r2, r6, r5
24050ffa:	fa1f f885 	uxth.w	r8, r5
24050ffe:	f8cd b000 	str.w	fp, [sp]
24051002:	eba9 0103 	sub.w	r1, r9, r3
24051006:	005b      	lsls	r3, r3, #1
24051008:	b292      	uxth	r2, r2
2405100a:	b289      	uxth	r1, r1
2405100c:	b29b      	uxth	r3, r3
2405100e:	e9cd 0103 	strd	r0, r1, [sp, #12]
24051012:	9305      	str	r3, [sp, #20]
24051014:	f7ff fe0c 	bl	24050c30 <LCD_DrawHLine>
24051018:	eba6 0208 	sub.w	r2, r6, r8
2405101c:	9b05      	ldr	r3, [sp, #20]
2405101e:	f8cd b000 	str.w	fp, [sp]
24051022:	b292      	uxth	r2, r2
24051024:	e9dd 0103 	ldrd	r0, r1, [sp, #12]
24051028:	f7ff fe02 	bl	24050c30 <LCD_DrawHLine>
2405102c:	9803      	ldr	r0, [sp, #12]
2405102e:	b1e5      	cbz	r5, 2405106a <LCD_FillCircle+0x92>
24051030:	b2ab      	uxth	r3, r5
24051032:	f8cd b000 	str.w	fp, [sp]
24051036:	fa1f f887 	uxth.w	r8, r7
2405103a:	eba9 0103 	sub.w	r1, r9, r3
2405103e:	005b      	lsls	r3, r3, #1
24051040:	eba6 0208 	sub.w	r2, r6, r8
24051044:	b289      	uxth	r1, r1
24051046:	b29b      	uxth	r3, r3
24051048:	b292      	uxth	r2, r2
2405104a:	9305      	str	r3, [sp, #20]
2405104c:	e9cd 0103 	strd	r0, r1, [sp, #12]
24051050:	f7ff fdee 	bl	24050c30 <LCD_DrawHLine>
24051054:	eb08 0206 	add.w	r2, r8, r6
24051058:	9b05      	ldr	r3, [sp, #20]
2405105a:	b292      	uxth	r2, r2
2405105c:	f8cd b000 	str.w	fp, [sp]
24051060:	e9dd 0103 	ldrd	r0, r1, [sp, #12]
24051064:	f7ff fde4 	bl	24050c30 <LCD_DrawHLine>
24051068:	9803      	ldr	r0, [sp, #12]
2405106a:	2c00      	cmp	r4, #0
2405106c:	bfb1      	iteee	lt
2405106e:	3406      	addlt	r4, #6
24051070:	1beb      	subge	r3, r5, r7
24051072:	340a      	addge	r4, #10
24051074:	f107 37ff 	addge.w	r7, r7, #4294967295
24051078:	bfb8      	it	lt
2405107a:	eb04 0485 	addlt.w	r4, r4, r5, lsl #2
2405107e:	f105 0501 	add.w	r5, r5, #1
24051082:	bfa8      	it	ge
24051084:	eb04 0483 	addge.w	r4, r4, r3, lsl #2
24051088:	42af      	cmp	r7, r5
2405108a:	d2b2      	bcs.n	24050ff2 <LCD_FillCircle+0x1a>
2405108c:	4653      	mov	r3, sl
2405108e:	4632      	mov	r2, r6
24051090:	4649      	mov	r1, r9
24051092:	f8cd b040 	str.w	fp, [sp, #64]	; 0x40
24051096:	b007      	add	sp, #28
24051098:	e8bd 4ff0 	ldmia.w	sp!, {r4, r5, r6, r7, r8, r9, sl, fp, lr}
2405109c:	f7ff be77 	b.w	24050d8e <LCD_DrawCircle>

240510a0 <init_sprite>:
240510a0:	7103      	strb	r3, [r0, #4]
240510a2:	f89d 3000 	ldrb.w	r3, [sp]
240510a6:	8001      	strh	r1, [r0, #0]
240510a8:	7143      	strb	r3, [r0, #5]
240510aa:	f89d 3004 	ldrb.w	r3, [sp, #4]
240510ae:	8042      	strh	r2, [r0, #2]
240510b0:	7183      	strb	r3, [r0, #6]
240510b2:	9b02      	ldr	r3, [sp, #8]
240510b4:	6083      	str	r3, [r0, #8]
240510b6:	9b03      	ldr	r3, [sp, #12]
240510b8:	60c3      	str	r3, [r0, #12]
240510ba:	4770      	bx	lr

240510bc <set_sprite_flip_x>:
240510bc:	7983      	ldrb	r3, [r0, #6]
240510be:	b919      	cbnz	r1, 240510c8 <set_sprite_flip_x+0xc>
240510c0:	f003 03df 	and.w	r3, r3, #223	; 0xdf
240510c4:	7183      	strb	r3, [r0, #6]
240510c6:	4770      	bx	lr
240510c8:	f043 0320 	orr.w	r3, r3, #32
240510cc:	e7fa      	b.n	240510c4 <set_sprite_flip_x+0x8>

240510ce <render_sprite>:
240510ce:	b084      	sub	sp, #16
240510d0:	e92d 4ff0 	stmdb	sp!, {r4, r5, r6, r7, r8, r9, sl, fp, lr}
240510d4:	b08d      	sub	sp, #52	; 0x34
240510d6:	ac17      	add	r4, sp, #92	; 0x5c
240510d8:	e884 000e 	stmia.w	r4, {r1, r2, r3}
240510dc:	f89d 2062 	ldrb.w	r2, [sp, #98]	; 0x62
240510e0:	06d3      	lsls	r3, r2, #27
240510e2:	f140 82c8 	bpl.w	24051676 <render_sprite+0x5a8>
240510e6:	f012 030f 	ands.w	r3, r2, #15
240510ea:	9302      	str	r3, [sp, #8]
240510ec:	f000 82c3 	beq.w	24051676 <render_sprite+0x5a8>
240510f0:	f8bd 305e 	ldrh.w	r3, [sp, #94]	; 0x5e
240510f4:	f012 0f80 	tst.w	r2, #128	; 0x80
240510f8:	f8bd 605c 	ldrh.w	r6, [sp, #92]	; 0x5c
240510fc:	9305      	str	r3, [sp, #20]
240510fe:	f89d 3060 	ldrb.w	r3, [sp, #96]	; 0x60
24051102:	f8bd 4008 	ldrh.w	r4, [sp, #8]
24051106:	9301      	str	r3, [sp, #4]
24051108:	f89d 3061 	ldrb.w	r3, [sp, #97]	; 0x61
2405110c:	9304      	str	r3, [sp, #16]
2405110e:	9b19      	ldr	r3, [sp, #100]	; 0x64
24051110:	9303      	str	r3, [sp, #12]
24051112:	9b1a      	ldr	r3, [sp, #104]	; 0x68
24051114:	9306      	str	r3, [sp, #24]
24051116:	f002 0360 	and.w	r3, r2, #96	; 0x60
2405111a:	f000 8156 	beq.w	240513ca <render_sprite+0x2fc>
2405111e:	2b60      	cmp	r3, #96	; 0x60
24051120:	d159      	bne.n	240511d6 <render_sprite+0x108>
24051122:	9b01      	ldr	r3, [sp, #4]
24051124:	9a05      	ldr	r2, [sp, #20]
24051126:	1e5d      	subs	r5, r3, #1
24051128:	9b04      	ldr	r3, [sp, #16]
2405112a:	3b01      	subs	r3, #1
2405112c:	fb05 6504 	mla	r5, r5, r4, r6
24051130:	2600      	movs	r6, #0
24051132:	fb03 2304 	mla	r3, r3, r4, r2
24051136:	b2ad      	uxth	r5, r5
24051138:	b29b      	uxth	r3, r3
2405113a:	9307      	str	r3, [sp, #28]
2405113c:	9b01      	ldr	r3, [sp, #4]
2405113e:	429e      	cmp	r6, r3
24051140:	f280 8299 	bge.w	24051676 <render_sprite+0x5a8>
24051144:	f006 0301 	and.w	r3, r6, #1
24051148:	f04f 0800 	mov.w	r8, #0
2405114c:	9f07      	ldr	r7, [sp, #28]
2405114e:	9308      	str	r3, [sp, #32]
24051150:	46c3      	mov	fp, r8
24051152:	9b06      	ldr	r3, [sp, #24]
24051154:	eb03 0366 	add.w	r3, r3, r6, asr #1
24051158:	9305      	str	r3, [sp, #20]
2405115a:	e014      	b.n	24051186 <render_sprite+0xb8>
2405115c:	9a08      	ldr	r2, [sp, #32]
2405115e:	ea4f 0368 	mov.w	r3, r8, asr #1
24051162:	b9ba      	cbnz	r2, 24051194 <render_sprite+0xc6>
24051164:	9a05      	ldr	r2, [sp, #20]
24051166:	5cd3      	ldrb	r3, [r2, r3]
24051168:	091b      	lsrs	r3, r3, #4
2405116a:	005b      	lsls	r3, r3, #1
2405116c:	9a03      	ldr	r2, [sp, #12]
2405116e:	f04f 0900 	mov.w	r9, #0
24051172:	5ad3      	ldrh	r3, [r2, r3]
24051174:	9a02      	ldr	r2, [sp, #8]
24051176:	4591      	cmp	r9, r2
24051178:	db11      	blt.n	2405119e <render_sprite+0xd0>
2405117a:	1b3f      	subs	r7, r7, r4
2405117c:	9b01      	ldr	r3, [sp, #4]
2405117e:	f10b 0b01 	add.w	fp, fp, #1
24051182:	b2bf      	uxth	r7, r7
24051184:	4498      	add	r8, r3
24051186:	9b04      	ldr	r3, [sp, #16]
24051188:	459b      	cmp	fp, r3
2405118a:	dbe7      	blt.n	2405115c <render_sprite+0x8e>
2405118c:	1b2d      	subs	r5, r5, r4
2405118e:	3601      	adds	r6, #1
24051190:	b2ad      	uxth	r5, r5
24051192:	e7d3      	b.n	2405113c <render_sprite+0x6e>
24051194:	9a05      	ldr	r2, [sp, #20]
24051196:	5cd3      	ldrb	r3, [r2, r3]
24051198:	f003 030f 	and.w	r3, r3, #15
2405119c:	e7e5      	b.n	2405116a <render_sprite+0x9c>
2405119e:	9a03      	ldr	r2, [sp, #12]
240511a0:	8812      	ldrh	r2, [r2, #0]
240511a2:	429a      	cmp	r2, r3
240511a4:	d0e9      	beq.n	2405117a <render_sprite+0xac>
240511a6:	eb05 0209 	add.w	r2, r5, r9
240511aa:	f04f 0a00 	mov.w	sl, #0
240511ae:	b292      	uxth	r2, r2
240511b0:	eb07 010a 	add.w	r1, r7, sl
240511b4:	9009      	str	r0, [sp, #36]	; 0x24
240511b6:	f10a 0a01 	add.w	sl, sl, #1
240511ba:	b289      	uxth	r1, r1
240511bc:	e9cd 230a 	strd	r2, r3, [sp, #40]	; 0x28
240511c0:	f7ff fd20 	bl	24050c04 <LCD_DrawPixel>
240511c4:	9b02      	ldr	r3, [sp, #8]
240511c6:	459a      	cmp	sl, r3
240511c8:	9b0b      	ldr	r3, [sp, #44]	; 0x2c
240511ca:	e9dd 0209 	ldrd	r0, r2, [sp, #36]	; 0x24
240511ce:	dbef      	blt.n	240511b0 <render_sprite+0xe2>
240511d0:	f109 0901 	add.w	r9, r9, #1
240511d4:	e7ce      	b.n	24051174 <render_sprite+0xa6>
240511d6:	2b40      	cmp	r3, #64	; 0x40
240511d8:	d154      	bne.n	24051284 <render_sprite+0x1b6>
240511da:	9b04      	ldr	r3, [sp, #16]
240511dc:	2500      	movs	r5, #0
240511de:	9a05      	ldr	r2, [sp, #20]
240511e0:	3b01      	subs	r3, #1
240511e2:	fb03 2304 	mla	r3, r3, r4, r2
240511e6:	b29b      	uxth	r3, r3
240511e8:	9307      	str	r3, [sp, #28]
240511ea:	9b01      	ldr	r3, [sp, #4]
240511ec:	429d      	cmp	r5, r3
240511ee:	f280 8242 	bge.w	24051676 <render_sprite+0x5a8>
240511f2:	f005 0301 	and.w	r3, r5, #1
240511f6:	f04f 0800 	mov.w	r8, #0
240511fa:	9f07      	ldr	r7, [sp, #28]
240511fc:	9308      	str	r3, [sp, #32]
240511fe:	46c3      	mov	fp, r8
24051200:	9b06      	ldr	r3, [sp, #24]
24051202:	eb03 0365 	add.w	r3, r3, r5, asr #1
24051206:	9305      	str	r3, [sp, #20]
24051208:	e014      	b.n	24051234 <render_sprite+0x166>
2405120a:	9a08      	ldr	r2, [sp, #32]
2405120c:	ea4f 0368 	mov.w	r3, r8, asr #1
24051210:	b9ba      	cbnz	r2, 24051242 <render_sprite+0x174>
24051212:	9a05      	ldr	r2, [sp, #20]
24051214:	5cd3      	ldrb	r3, [r2, r3]
24051216:	091b      	lsrs	r3, r3, #4
24051218:	005b      	lsls	r3, r3, #1
2405121a:	9a03      	ldr	r2, [sp, #12]
2405121c:	f04f 0900 	mov.w	r9, #0
24051220:	5ad3      	ldrh	r3, [r2, r3]
24051222:	9a02      	ldr	r2, [sp, #8]
24051224:	4591      	cmp	r9, r2
24051226:	db11      	blt.n	2405124c <render_sprite+0x17e>
24051228:	1b3f      	subs	r7, r7, r4
2405122a:	9b01      	ldr	r3, [sp, #4]
2405122c:	f10b 0b01 	add.w	fp, fp, #1
24051230:	b2bf      	uxth	r7, r7
24051232:	4498      	add	r8, r3
24051234:	9b04      	ldr	r3, [sp, #16]
24051236:	459b      	cmp	fp, r3
24051238:	dbe7      	blt.n	2405120a <render_sprite+0x13c>
2405123a:	4426      	add	r6, r4
2405123c:	3501      	adds	r5, #1
2405123e:	b2b6      	uxth	r6, r6
24051240:	e7d3      	b.n	240511ea <render_sprite+0x11c>
24051242:	9a05      	ldr	r2, [sp, #20]
24051244:	5cd3      	ldrb	r3, [r2, r3]
24051246:	f003 030f 	and.w	r3, r3, #15
2405124a:	e7e5      	b.n	24051218 <render_sprite+0x14a>
2405124c:	9a03      	ldr	r2, [sp, #12]
2405124e:	8812      	ldrh	r2, [r2, #0]
24051250:	429a      	cmp	r2, r3
24051252:	d0e9      	beq.n	24051228 <render_sprite+0x15a>
24051254:	eb06 0209 	add.w	r2, r6, r9
24051258:	f04f 0a00 	mov.w	sl, #0
2405125c:	b292      	uxth	r2, r2
2405125e:	eb07 010a 	add.w	r1, r7, sl
24051262:	9009      	str	r0, [sp, #36]	; 0x24
24051264:	f10a 0a01 	add.w	sl, sl, #1
24051268:	b289      	uxth	r1, r1
2405126a:	e9cd 230a 	strd	r2, r3, [sp, #40]	; 0x28
2405126e:	f7ff fcc9 	bl	24050c04 <LCD_DrawPixel>
24051272:	9b02      	ldr	r3, [sp, #8]
24051274:	459a      	cmp	sl, r3
24051276:	9b0b      	ldr	r3, [sp, #44]	; 0x2c
24051278:	e9dd 0209 	ldrd	r0, r2, [sp, #36]	; 0x24
2405127c:	dbef      	blt.n	2405125e <render_sprite+0x190>
2405127e:	f109 0901 	add.w	r9, r9, #1
24051282:	e7ce      	b.n	24051222 <render_sprite+0x154>
24051284:	2b20      	cmp	r3, #32
24051286:	d010      	beq.n	240512aa <render_sprite+0x1dc>
24051288:	2500      	movs	r5, #0
2405128a:	9b01      	ldr	r3, [sp, #4]
2405128c:	429d      	cmp	r5, r3
2405128e:	f280 81f2 	bge.w	24051676 <render_sprite+0x5a8>
24051292:	f005 0301 	and.w	r3, r5, #1
24051296:	f04f 0800 	mov.w	r8, #0
2405129a:	9f05      	ldr	r7, [sp, #20]
2405129c:	9308      	str	r3, [sp, #32]
2405129e:	46c3      	mov	fp, r8
240512a0:	9b06      	ldr	r3, [sp, #24]
240512a2:	eb03 0365 	add.w	r3, r3, r5, asr #1
240512a6:	9307      	str	r3, [sp, #28]
240512a8:	e067      	b.n	2405137a <render_sprite+0x2ac>
240512aa:	9b01      	ldr	r3, [sp, #4]
240512ac:	1e5d      	subs	r5, r3, #1
240512ae:	fb05 6504 	mla	r5, r5, r4, r6
240512b2:	2600      	movs	r6, #0
240512b4:	b2ad      	uxth	r5, r5
240512b6:	9b01      	ldr	r3, [sp, #4]
240512b8:	429e      	cmp	r6, r3
240512ba:	f280 81dc 	bge.w	24051676 <render_sprite+0x5a8>
240512be:	f006 0301 	and.w	r3, r6, #1
240512c2:	f04f 0800 	mov.w	r8, #0
240512c6:	9f05      	ldr	r7, [sp, #20]
240512c8:	9308      	str	r3, [sp, #32]
240512ca:	46c3      	mov	fp, r8
240512cc:	9b06      	ldr	r3, [sp, #24]
240512ce:	eb03 0366 	add.w	r3, r3, r6, asr #1
240512d2:	9307      	str	r3, [sp, #28]
240512d4:	e014      	b.n	24051300 <render_sprite+0x232>
240512d6:	9a08      	ldr	r2, [sp, #32]
240512d8:	ea4f 0368 	mov.w	r3, r8, asr #1
240512dc:	b9ba      	cbnz	r2, 2405130e <render_sprite+0x240>
240512de:	9a07      	ldr	r2, [sp, #28]
240512e0:	5cd3      	ldrb	r3, [r2, r3]
240512e2:	091b      	lsrs	r3, r3, #4
240512e4:	005b      	lsls	r3, r3, #1
240512e6:	9a03      	ldr	r2, [sp, #12]
240512e8:	f04f 0900 	mov.w	r9, #0
240512ec:	5ad3      	ldrh	r3, [r2, r3]
240512ee:	9a02      	ldr	r2, [sp, #8]
240512f0:	4591      	cmp	r9, r2
240512f2:	db11      	blt.n	24051318 <render_sprite+0x24a>
240512f4:	4427      	add	r7, r4
240512f6:	9b01      	ldr	r3, [sp, #4]
240512f8:	f10b 0b01 	add.w	fp, fp, #1
240512fc:	b2bf      	uxth	r7, r7
240512fe:	4498      	add	r8, r3
24051300:	9b04      	ldr	r3, [sp, #16]
24051302:	459b      	cmp	fp, r3
24051304:	dbe7      	blt.n	240512d6 <render_sprite+0x208>
24051306:	1b2d      	subs	r5, r5, r4
24051308:	3601      	adds	r6, #1
2405130a:	b2ad      	uxth	r5, r5
2405130c:	e7d3      	b.n	240512b6 <render_sprite+0x1e8>
2405130e:	9a07      	ldr	r2, [sp, #28]
24051310:	5cd3      	ldrb	r3, [r2, r3]
24051312:	f003 030f 	and.w	r3, r3, #15
24051316:	e7e5      	b.n	240512e4 <render_sprite+0x216>
24051318:	9a03      	ldr	r2, [sp, #12]
2405131a:	8812      	ldrh	r2, [r2, #0]
2405131c:	429a      	cmp	r2, r3
2405131e:	d0e9      	beq.n	240512f4 <render_sprite+0x226>
24051320:	eb05 0209 	add.w	r2, r5, r9
24051324:	f04f 0a00 	mov.w	sl, #0
24051328:	b292      	uxth	r2, r2
2405132a:	eb07 010a 	add.w	r1, r7, sl
2405132e:	9009      	str	r0, [sp, #36]	; 0x24
24051330:	f10a 0a01 	add.w	sl, sl, #1
24051334:	b289      	uxth	r1, r1
24051336:	e9cd 230a 	strd	r2, r3, [sp, #40]	; 0x28
2405133a:	f7ff fc63 	bl	24050c04 <LCD_DrawPixel>
2405133e:	9b02      	ldr	r3, [sp, #8]
24051340:	459a      	cmp	sl, r3
24051342:	9b0b      	ldr	r3, [sp, #44]	; 0x2c
24051344:	e9dd 0209 	ldrd	r0, r2, [sp, #36]	; 0x24
24051348:	dbef      	blt.n	2405132a <render_sprite+0x25c>
2405134a:	f109 0901 	add.w	r9, r9, #1
2405134e:	e7ce      	b.n	240512ee <render_sprite+0x220>
24051350:	9a08      	ldr	r2, [sp, #32]
24051352:	ea4f 0368 	mov.w	r3, r8, asr #1
24051356:	b9ba      	cbnz	r2, 24051388 <render_sprite+0x2ba>
24051358:	9a07      	ldr	r2, [sp, #28]
2405135a:	5cd3      	ldrb	r3, [r2, r3]
2405135c:	091b      	lsrs	r3, r3, #4
2405135e:	005b      	lsls	r3, r3, #1
24051360:	9a03      	ldr	r2, [sp, #12]
24051362:	f04f 0900 	mov.w	r9, #0
24051366:	5ad3      	ldrh	r3, [r2, r3]
24051368:	9a02      	ldr	r2, [sp, #8]
2405136a:	4591      	cmp	r9, r2
2405136c:	db11      	blt.n	24051392 <render_sprite+0x2c4>
2405136e:	4427      	add	r7, r4
24051370:	9b01      	ldr	r3, [sp, #4]
24051372:	f10b 0b01 	add.w	fp, fp, #1
24051376:	b2bf      	uxth	r7, r7
24051378:	4498      	add	r8, r3
2405137a:	9b04      	ldr	r3, [sp, #16]
2405137c:	459b      	cmp	fp, r3
2405137e:	dbe7      	blt.n	24051350 <render_sprite+0x282>
24051380:	4426      	add	r6, r4
24051382:	3501      	adds	r5, #1
24051384:	b2b6      	uxth	r6, r6
24051386:	e780      	b.n	2405128a <render_sprite+0x1bc>
24051388:	9a07      	ldr	r2, [sp, #28]
2405138a:	5cd3      	ldrb	r3, [r2, r3]
2405138c:	f003 030f 	and.w	r3, r3, #15
24051390:	e7e5      	b.n	2405135e <render_sprite+0x290>
24051392:	9a03      	ldr	r2, [sp, #12]
24051394:	8812      	ldrh	r2, [r2, #0]
24051396:	429a      	cmp	r2, r3
24051398:	d0e9      	beq.n	2405136e <render_sprite+0x2a0>
2405139a:	eb06 0209 	add.w	r2, r6, r9
2405139e:	f04f 0a00 	mov.w	sl, #0
240513a2:	b292      	uxth	r2, r2
240513a4:	eb07 010a 	add.w	r1, r7, sl
240513a8:	9009      	str	r0, [sp, #36]	; 0x24
240513aa:	f10a 0a01 	add.w	sl, sl, #1
240513ae:	b289      	uxth	r1, r1
240513b0:	e9cd 230a 	strd	r2, r3, [sp, #40]	; 0x28
240513b4:	f7ff fc26 	bl	24050c04 <LCD_DrawPixel>
240513b8:	9b02      	ldr	r3, [sp, #8]
240513ba:	459a      	cmp	sl, r3
240513bc:	9b0b      	ldr	r3, [sp, #44]	; 0x2c
240513be:	e9dd 0209 	ldrd	r0, r2, [sp, #36]	; 0x24
240513c2:	dbef      	blt.n	240513a4 <render_sprite+0x2d6>
240513c4:	f109 0901 	add.w	r9, r9, #1
240513c8:	e7ce      	b.n	24051368 <render_sprite+0x29a>
240513ca:	2b60      	cmp	r3, #96	; 0x60
240513cc:	d159      	bne.n	24051482 <render_sprite+0x3b4>
240513ce:	9b01      	ldr	r3, [sp, #4]
240513d0:	9a05      	ldr	r2, [sp, #20]
240513d2:	1e5d      	subs	r5, r3, #1
240513d4:	9b04      	ldr	r3, [sp, #16]
240513d6:	3b01      	subs	r3, #1
240513d8:	fb05 6504 	mla	r5, r5, r4, r6
240513dc:	2600      	movs	r6, #0
240513de:	fb03 2304 	mla	r3, r3, r4, r2
240513e2:	b2ad      	uxth	r5, r5
240513e4:	b29b      	uxth	r3, r3
240513e6:	9307      	str	r3, [sp, #28]
240513e8:	9b01      	ldr	r3, [sp, #4]
240513ea:	429e      	cmp	r6, r3
240513ec:	f280 8143 	bge.w	24051676 <render_sprite+0x5a8>
240513f0:	f006 0301 	and.w	r3, r6, #1
240513f4:	f04f 0800 	mov.w	r8, #0
240513f8:	9f07      	ldr	r7, [sp, #28]
240513fa:	9308      	str	r3, [sp, #32]
240513fc:	46c3      	mov	fp, r8
240513fe:	9b06      	ldr	r3, [sp, #24]
24051400:	eb03 0366 	add.w	r3, r3, r6, asr #1
24051404:	9305      	str	r3, [sp, #20]
24051406:	e014      	b.n	24051432 <render_sprite+0x364>
24051408:	9a08      	ldr	r2, [sp, #32]
2405140a:	ea4f 0368 	mov.w	r3, r8, asr #1
2405140e:	b9ba      	cbnz	r2, 24051440 <render_sprite+0x372>
24051410:	9a05      	ldr	r2, [sp, #20]
24051412:	5cd3      	ldrb	r3, [r2, r3]
24051414:	091b      	lsrs	r3, r3, #4
24051416:	005b      	lsls	r3, r3, #1
24051418:	9a03      	ldr	r2, [sp, #12]
2405141a:	f04f 0900 	mov.w	r9, #0
2405141e:	5ad3      	ldrh	r3, [r2, r3]
24051420:	9a02      	ldr	r2, [sp, #8]
24051422:	4591      	cmp	r9, r2
24051424:	db11      	blt.n	2405144a <render_sprite+0x37c>
24051426:	1b3f      	subs	r7, r7, r4
24051428:	9b01      	ldr	r3, [sp, #4]
2405142a:	f10b 0b01 	add.w	fp, fp, #1
2405142e:	b2bf      	uxth	r7, r7
24051430:	4498      	add	r8, r3
24051432:	9b04      	ldr	r3, [sp, #16]
24051434:	459b      	cmp	fp, r3
24051436:	dbe7      	blt.n	24051408 <render_sprite+0x33a>
24051438:	1b2d      	subs	r5, r5, r4
2405143a:	3601      	adds	r6, #1
2405143c:	b2ad      	uxth	r5, r5
2405143e:	e7d3      	b.n	240513e8 <render_sprite+0x31a>
24051440:	9a05      	ldr	r2, [sp, #20]
24051442:	5cd3      	ldrb	r3, [r2, r3]
24051444:	f003 030f 	and.w	r3, r3, #15
24051448:	e7e5      	b.n	24051416 <render_sprite+0x348>
2405144a:	9a03      	ldr	r2, [sp, #12]
2405144c:	8812      	ldrh	r2, [r2, #0]
2405144e:	429a      	cmp	r2, r3
24051450:	d0e9      	beq.n	24051426 <render_sprite+0x358>
24051452:	eb05 0109 	add.w	r1, r5, r9
24051456:	f04f 0a00 	mov.w	sl, #0
2405145a:	b289      	uxth	r1, r1
2405145c:	eb07 020a 	add.w	r2, r7, sl
24051460:	930b      	str	r3, [sp, #44]	; 0x2c
24051462:	f10a 0a01 	add.w	sl, sl, #1
24051466:	b292      	uxth	r2, r2
24051468:	e9cd 0109 	strd	r0, r1, [sp, #36]	; 0x24
2405146c:	f7ff fbca 	bl	24050c04 <LCD_DrawPixel>
24051470:	9b02      	ldr	r3, [sp, #8]
24051472:	459a      	cmp	sl, r3
24051474:	9b0b      	ldr	r3, [sp, #44]	; 0x2c
24051476:	e9dd 0109 	ldrd	r0, r1, [sp, #36]	; 0x24
2405147a:	dbef      	blt.n	2405145c <render_sprite+0x38e>
2405147c:	f109 0901 	add.w	r9, r9, #1
24051480:	e7ce      	b.n	24051420 <render_sprite+0x352>
24051482:	2b40      	cmp	r3, #64	; 0x40
24051484:	d154      	bne.n	24051530 <render_sprite+0x462>
24051486:	9b04      	ldr	r3, [sp, #16]
24051488:	2500      	movs	r5, #0
2405148a:	9a05      	ldr	r2, [sp, #20]
2405148c:	3b01      	subs	r3, #1
2405148e:	fb03 2304 	mla	r3, r3, r4, r2
24051492:	b29b      	uxth	r3, r3
24051494:	9307      	str	r3, [sp, #28]
24051496:	9b01      	ldr	r3, [sp, #4]
24051498:	429d      	cmp	r5, r3
2405149a:	f280 80ec 	bge.w	24051676 <render_sprite+0x5a8>
2405149e:	f005 0301 	and.w	r3, r5, #1
240514a2:	f04f 0800 	mov.w	r8, #0
240514a6:	9f07      	ldr	r7, [sp, #28]
240514a8:	9308      	str	r3, [sp, #32]
240514aa:	46c3      	mov	fp, r8
240514ac:	9b06      	ldr	r3, [sp, #24]
240514ae:	eb03 0365 	add.w	r3, r3, r5, asr #1
240514b2:	9305      	str	r3, [sp, #20]
240514b4:	e014      	b.n	240514e0 <render_sprite+0x412>
240514b6:	9a08      	ldr	r2, [sp, #32]
240514b8:	ea4f 0368 	mov.w	r3, r8, asr #1
240514bc:	b9ba      	cbnz	r2, 240514ee <render_sprite+0x420>
240514be:	9a05      	ldr	r2, [sp, #20]
240514c0:	5cd3      	ldrb	r3, [r2, r3]
240514c2:	091b      	lsrs	r3, r3, #4
240514c4:	005b      	lsls	r3, r3, #1
240514c6:	9a03      	ldr	r2, [sp, #12]
240514c8:	f04f 0900 	mov.w	r9, #0
240514cc:	5ad3      	ldrh	r3, [r2, r3]
240514ce:	9a02      	ldr	r2, [sp, #8]
240514d0:	4591      	cmp	r9, r2
240514d2:	db11      	blt.n	240514f8 <render_sprite+0x42a>
240514d4:	1b3f      	subs	r7, r7, r4
240514d6:	9b01      	ldr	r3, [sp, #4]
240514d8:	f10b 0b01 	add.w	fp, fp, #1
240514dc:	b2bf      	uxth	r7, r7
240514de:	4498      	add	r8, r3
240514e0:	9b04      	ldr	r3, [sp, #16]
240514e2:	459b      	cmp	fp, r3
240514e4:	dbe7      	blt.n	240514b6 <render_sprite+0x3e8>
240514e6:	4426      	add	r6, r4
240514e8:	3501      	adds	r5, #1
240514ea:	b2b6      	uxth	r6, r6
240514ec:	e7d3      	b.n	24051496 <render_sprite+0x3c8>
240514ee:	9a05      	ldr	r2, [sp, #20]
240514f0:	5cd3      	ldrb	r3, [r2, r3]
240514f2:	f003 030f 	and.w	r3, r3, #15
240514f6:	e7e5      	b.n	240514c4 <render_sprite+0x3f6>
240514f8:	9a03      	ldr	r2, [sp, #12]
240514fa:	8812      	ldrh	r2, [r2, #0]
240514fc:	429a      	cmp	r2, r3
240514fe:	d0e9      	beq.n	240514d4 <render_sprite+0x406>
24051500:	eb06 0109 	add.w	r1, r6, r9
24051504:	f04f 0a00 	mov.w	sl, #0
24051508:	b289      	uxth	r1, r1
2405150a:	eb07 020a 	add.w	r2, r7, sl
2405150e:	930b      	str	r3, [sp, #44]	; 0x2c
24051510:	f10a 0a01 	add.w	sl, sl, #1
24051514:	b292      	uxth	r2, r2
24051516:	e9cd 0109 	strd	r0, r1, [sp, #36]	; 0x24
2405151a:	f7ff fb73 	bl	24050c04 <LCD_DrawPixel>
2405151e:	9b02      	ldr	r3, [sp, #8]
24051520:	459a      	cmp	sl, r3
24051522:	9b0b      	ldr	r3, [sp, #44]	; 0x2c
24051524:	e9dd 0109 	ldrd	r0, r1, [sp, #36]	; 0x24
24051528:	dbef      	blt.n	2405150a <render_sprite+0x43c>
2405152a:	f109 0901 	add.w	r9, r9, #1
2405152e:	e7ce      	b.n	240514ce <render_sprite+0x400>
24051530:	2b20      	cmp	r3, #32
24051532:	d010      	beq.n	24051556 <render_sprite+0x488>
24051534:	2500      	movs	r5, #0
24051536:	9b01      	ldr	r3, [sp, #4]
24051538:	429d      	cmp	r5, r3
2405153a:	f280 809c 	bge.w	24051676 <render_sprite+0x5a8>
2405153e:	f005 0301 	and.w	r3, r5, #1
24051542:	f04f 0800 	mov.w	r8, #0
24051546:	9f05      	ldr	r7, [sp, #20]
24051548:	9308      	str	r3, [sp, #32]
2405154a:	46c3      	mov	fp, r8
2405154c:	9b06      	ldr	r3, [sp, #24]
2405154e:	eb03 0365 	add.w	r3, r3, r5, asr #1
24051552:	9307      	str	r3, [sp, #28]
24051554:	e067      	b.n	24051626 <render_sprite+0x558>
24051556:	9b01      	ldr	r3, [sp, #4]
24051558:	1e5d      	subs	r5, r3, #1
2405155a:	fb05 6504 	mla	r5, r5, r4, r6
2405155e:	2600      	movs	r6, #0
24051560:	b2ad      	uxth	r5, r5
24051562:	9b01      	ldr	r3, [sp, #4]
24051564:	429e      	cmp	r6, r3
24051566:	f280 8086 	bge.w	24051676 <render_sprite+0x5a8>
2405156a:	f006 0301 	and.w	r3, r6, #1
2405156e:	f04f 0800 	mov.w	r8, #0
24051572:	9f05      	ldr	r7, [sp, #20]
24051574:	9308      	str	r3, [sp, #32]
24051576:	46c3      	mov	fp, r8
24051578:	9b06      	ldr	r3, [sp, #24]
2405157a:	eb03 0366 	add.w	r3, r3, r6, asr #1
2405157e:	9307      	str	r3, [sp, #28]
24051580:	e014      	b.n	240515ac <render_sprite+0x4de>
24051582:	9a08      	ldr	r2, [sp, #32]
24051584:	ea4f 0368 	mov.w	r3, r8, asr #1
24051588:	b9ba      	cbnz	r2, 240515ba <render_sprite+0x4ec>
2405158a:	9a07      	ldr	r2, [sp, #28]
2405158c:	5cd3      	ldrb	r3, [r2, r3]
2405158e:	091b      	lsrs	r3, r3, #4
24051590:	005b      	lsls	r3, r3, #1
24051592:	9a03      	ldr	r2, [sp, #12]
24051594:	f04f 0900 	mov.w	r9, #0
24051598:	5ad3      	ldrh	r3, [r2, r3]
2405159a:	9a02      	ldr	r2, [sp, #8]
2405159c:	4591      	cmp	r9, r2
2405159e:	db11      	blt.n	240515c4 <render_sprite+0x4f6>
240515a0:	4427      	add	r7, r4
240515a2:	9b01      	ldr	r3, [sp, #4]
240515a4:	f10b 0b01 	add.w	fp, fp, #1
240515a8:	b2bf      	uxth	r7, r7
240515aa:	4498      	add	r8, r3
240515ac:	9b04      	ldr	r3, [sp, #16]
240515ae:	459b      	cmp	fp, r3
240515b0:	dbe7      	blt.n	24051582 <render_sprite+0x4b4>
240515b2:	1b2d      	subs	r5, r5, r4
240515b4:	3601      	adds	r6, #1
240515b6:	b2ad      	uxth	r5, r5
240515b8:	e7d3      	b.n	24051562 <render_sprite+0x494>
240515ba:	9a07      	ldr	r2, [sp, #28]
240515bc:	5cd3      	ldrb	r3, [r2, r3]
240515be:	f003 030f 	and.w	r3, r3, #15
240515c2:	e7e5      	b.n	24051590 <render_sprite+0x4c2>
240515c4:	9a03      	ldr	r2, [sp, #12]
240515c6:	8812      	ldrh	r2, [r2, #0]
240515c8:	429a      	cmp	r2, r3
240515ca:	d0e9      	beq.n	240515a0 <render_sprite+0x4d2>
240515cc:	eb05 0109 	add.w	r1, r5, r9
240515d0:	f04f 0a00 	mov.w	sl, #0
240515d4:	b289      	uxth	r1, r1
240515d6:	eb07 020a 	add.w	r2, r7, sl
240515da:	930b      	str	r3, [sp, #44]	; 0x2c
240515dc:	f10a 0a01 	add.w	sl, sl, #1
240515e0:	b292      	uxth	r2, r2
240515e2:	e9cd 0109 	strd	r0, r1, [sp, #36]	; 0x24
240515e6:	f7ff fb0d 	bl	24050c04 <LCD_DrawPixel>
240515ea:	9b02      	ldr	r3, [sp, #8]
240515ec:	459a      	cmp	sl, r3
240515ee:	9b0b      	ldr	r3, [sp, #44]	; 0x2c
240515f0:	e9dd 0109 	ldrd	r0, r1, [sp, #36]	; 0x24
240515f4:	dbef      	blt.n	240515d6 <render_sprite+0x508>
240515f6:	f109 0901 	add.w	r9, r9, #1
240515fa:	e7ce      	b.n	2405159a <render_sprite+0x4cc>
240515fc:	9a08      	ldr	r2, [sp, #32]
240515fe:	ea4f 0368 	mov.w	r3, r8, asr #1
24051602:	b9ba      	cbnz	r2, 24051634 <render_sprite+0x566>
24051604:	9a07      	ldr	r2, [sp, #28]
24051606:	5cd3      	ldrb	r3, [r2, r3]
24051608:	091b      	lsrs	r3, r3, #4
2405160a:	005b      	lsls	r3, r3, #1
2405160c:	9a03      	ldr	r2, [sp, #12]
2405160e:	f04f 0900 	mov.w	r9, #0
24051612:	5ad3      	ldrh	r3, [r2, r3]
24051614:	9a02      	ldr	r2, [sp, #8]
24051616:	4591      	cmp	r9, r2
24051618:	db11      	blt.n	2405163e <render_sprite+0x570>
2405161a:	4427      	add	r7, r4
2405161c:	9b01      	ldr	r3, [sp, #4]
2405161e:	f10b 0b01 	add.w	fp, fp, #1
24051622:	b2bf      	uxth	r7, r7
24051624:	4498      	add	r8, r3
24051626:	9b04      	ldr	r3, [sp, #16]
24051628:	459b      	cmp	fp, r3
2405162a:	dbe7      	blt.n	240515fc <render_sprite+0x52e>
2405162c:	4426      	add	r6, r4
2405162e:	3501      	adds	r5, #1
24051630:	b2b6      	uxth	r6, r6
24051632:	e780      	b.n	24051536 <render_sprite+0x468>
24051634:	9a07      	ldr	r2, [sp, #28]
24051636:	5cd3      	ldrb	r3, [r2, r3]
24051638:	f003 030f 	and.w	r3, r3, #15
2405163c:	e7e5      	b.n	2405160a <render_sprite+0x53c>
2405163e:	9a03      	ldr	r2, [sp, #12]
24051640:	8812      	ldrh	r2, [r2, #0]
24051642:	429a      	cmp	r2, r3
24051644:	d0e9      	beq.n	2405161a <render_sprite+0x54c>
24051646:	eb06 0109 	add.w	r1, r6, r9
2405164a:	f04f 0a00 	mov.w	sl, #0
2405164e:	b289      	uxth	r1, r1
24051650:	eb07 020a 	add.w	r2, r7, sl
24051654:	930b      	str	r3, [sp, #44]	; 0x2c
24051656:	f10a 0a01 	add.w	sl, sl, #1
2405165a:	b292      	uxth	r2, r2
2405165c:	e9cd 0109 	strd	r0, r1, [sp, #36]	; 0x24
24051660:	f7ff fad0 	bl	24050c04 <LCD_DrawPixel>
24051664:	9b02      	ldr	r3, [sp, #8]
24051666:	459a      	cmp	sl, r3
24051668:	9b0b      	ldr	r3, [sp, #44]	; 0x2c
2405166a:	e9dd 0109 	ldrd	r0, r1, [sp, #36]	; 0x24
2405166e:	dbef      	blt.n	24051650 <render_sprite+0x582>
24051670:	f109 0901 	add.w	r9, r9, #1
24051674:	e7ce      	b.n	24051614 <render_sprite+0x546>
24051676:	b00d      	add	sp, #52	; 0x34
24051678:	e8bd 4ff0 	ldmia.w	sp!, {r4, r5, r6, r7, r8, r9, sl, fp, lr}
2405167c:	b004      	add	sp, #16
2405167e:	4770      	bx	lr

24051680 <sprites_init_list>:
24051680:	b510      	push	{r4, lr}
24051682:	4604      	mov	r4, r0
24051684:	2008      	movs	r0, #8
24051686:	f009 f95d 	bl	2405a944 <malloc>
2405168a:	2200      	movs	r2, #0
2405168c:	6004      	str	r4, [r0, #0]
2405168e:	6042      	str	r2, [r0, #4]
24051690:	bd10      	pop	{r4, pc}

24051692 <get_sprite_list_length>:
24051692:	2300      	movs	r3, #0
24051694:	f850 2023 	ldr.w	r2, [r0, r3, lsl #2]
24051698:	b90a      	cbnz	r2, 2405169e <get_sprite_list_length+0xc>
2405169a:	4618      	mov	r0, r3
2405169c:	4770      	bx	lr
2405169e:	3301      	adds	r3, #1
240516a0:	e7f8      	b.n	24051694 <get_sprite_list_length+0x2>

240516a2 <render_sprites>:
240516a2:	b5f7      	push	{r0, r1, r2, r4, r5, r6, r7, lr}
240516a4:	4607      	mov	r7, r0
240516a6:	4608      	mov	r0, r1
240516a8:	f7ff fff3 	bl	24051692 <get_sprite_list_length>
240516ac:	2600      	movs	r6, #0
240516ae:	4605      	mov	r5, r0
240516b0:	eb01 0480 	add.w	r4, r1, r0, lsl #2
240516b4:	42ae      	cmp	r6, r5
240516b6:	db01      	blt.n	240516bc <render_sprites+0x1a>
240516b8:	b003      	add	sp, #12
240516ba:	bdf0      	pop	{r4, r5, r6, r7, pc}
240516bc:	f854 3d04 	ldr.w	r3, [r4, #-4]!
240516c0:	4638      	mov	r0, r7
240516c2:	3601      	adds	r6, #1
240516c4:	68da      	ldr	r2, [r3, #12]
240516c6:	9200      	str	r2, [sp, #0]
240516c8:	cb0e      	ldmia	r3, {r1, r2, r3}
240516ca:	f7ff fd00 	bl	240510ce <render_sprite>
240516ce:	e7f1      	b.n	240516b4 <render_sprites+0x12>

240516d0 <sprites_add_to_list>:
240516d0:	b5f8      	push	{r3, r4, r5, r6, r7, lr}
240516d2:	4606      	mov	r6, r0
240516d4:	f7ff ffdd 	bl	24051692 <get_sprite_list_length>
240516d8:	4604      	mov	r4, r0
240516da:	3002      	adds	r0, #2
240516dc:	460f      	mov	r7, r1
240516de:	0080      	lsls	r0, r0, #2
240516e0:	f009 f930 	bl	2405a944 <malloc>
240516e4:	4605      	mov	r5, r0
240516e6:	b908      	cbnz	r0, 240516ec <sprites_add_to_list+0x1c>
240516e8:	f002 f930 	bl	2405394c <Error_Handler>
240516ec:	ea24 74e4 	bic.w	r4, r4, r4, asr #31
240516f0:	4631      	mov	r1, r6
240516f2:	4628      	mov	r0, r5
240516f4:	00a2      	lsls	r2, r4, #2
240516f6:	f009 fd5c 	bl	2405b1b2 <memcpy>
240516fa:	f845 7024 	str.w	r7, [r5, r4, lsl #2]
240516fe:	2300      	movs	r3, #0
24051700:	3401      	adds	r4, #1
24051702:	4630      	mov	r0, r6
24051704:	f845 3024 	str.w	r3, [r5, r4, lsl #2]
24051708:	f009 f924 	bl	2405a954 <free>
2405170c:	4628      	mov	r0, r5
2405170e:	bdf8      	pop	{r3, r4, r5, r6, r7, pc}

24051710 <gw_audio_init>:
24051710:	e92d 41f0 	stmdb	sp!, {r4, r5, r6, r7, r8, lr}
24051714:	4b36      	ldr	r3, [pc, #216]	; (240517f0 <gw_audio_init+0xe0>)
24051716:	f44f 5596 	mov.w	r5, #4800	; 0x12c0
2405171a:	2428      	movs	r4, #40	; 0x28
2405171c:	4e35      	ldr	r6, [pc, #212]	; (240517f4 <gw_audio_init+0xe4>)
2405171e:	4618      	mov	r0, r3
24051720:	462a      	mov	r2, r5
24051722:	2100      	movs	r1, #0
24051724:	f8df 80dc 	ldr.w	r8, [pc, #220]	; 24051804 <gw_audio_init+0xf4>
24051728:	f009 fcb8 	bl	2405b09c <memset>
2405172c:	f44f 6216 	mov.w	r2, #2400	; 0x960
24051730:	4601      	mov	r1, r0
24051732:	4831      	ldr	r0, [pc, #196]	; (240517f8 <gw_audio_init+0xe8>)
24051734:	f008 fac2 	bl	24059cbc <HAL_SAI_Transmit_DMA>
24051738:	4622      	mov	r2, r4
2405173a:	2100      	movs	r1, #0
2405173c:	4630      	mov	r0, r6
2405173e:	f009 fcad 	bl	2405b09c <memset>
24051742:	4622      	mov	r2, r4
24051744:	2101      	movs	r1, #1
24051746:	f106 0050 	add.w	r0, r6, #80	; 0x50
2405174a:	f009 fca7 	bl	2405b09c <memset>
2405174e:	4622      	mov	r2, r4
24051750:	1930      	adds	r0, r6, r4
24051752:	2100      	movs	r1, #0
24051754:	f009 fca2 	bl	2405b09c <memset>
24051758:	4622      	mov	r2, r4
2405175a:	2100      	movs	r1, #0
2405175c:	4640      	mov	r0, r8
2405175e:	f009 fc9d 	bl	2405b09c <memset>
24051762:	4f26      	ldr	r7, [pc, #152]	; (240517fc <gw_audio_init+0xec>)
24051764:	4622      	mov	r2, r4
24051766:	2101      	movs	r1, #1
24051768:	f108 0050 	add.w	r0, r8, #80	; 0x50
2405176c:	f009 fc96 	bl	2405b09c <memset>
24051770:	4622      	mov	r2, r4
24051772:	eb08 0004 	add.w	r0, r8, r4
24051776:	2100      	movs	r1, #0
24051778:	f009 fc90 	bl	2405b09c <memset>
2405177c:	4622      	mov	r2, r4
2405177e:	2100      	movs	r1, #0
24051780:	4638      	mov	r0, r7
24051782:	f009 fc8b 	bl	2405b09c <memset>
24051786:	4622      	mov	r2, r4
24051788:	2101      	movs	r1, #1
2405178a:	f107 0050 	add.w	r0, r7, #80	; 0x50
2405178e:	f009 fc85 	bl	2405b09c <memset>
24051792:	4622      	mov	r2, r4
24051794:	1938      	adds	r0, r7, r4
24051796:	4c1a      	ldr	r4, [pc, #104]	; (24051800 <gw_audio_init+0xf0>)
24051798:	2100      	movs	r1, #0
2405179a:	f009 fc7f 	bl	2405b09c <memset>
2405179e:	2250      	movs	r2, #80	; 0x50
240517a0:	2100      	movs	r1, #0
240517a2:	4620      	mov	r0, r4
240517a4:	f009 fc7a 	bl	2405b09c <memset>
240517a8:	f506 5380 	add.w	r3, r6, #4096	; 0x1000
240517ac:	2100      	movs	r1, #0
240517ae:	2201      	movs	r2, #1
240517b0:	f106 0078 	add.w	r0, r6, #120	; 0x78
240517b4:	f8c3 1338 	str.w	r1, [r3, #824]	; 0x338
240517b8:	f504 5380 	add.w	r3, r4, #4096	; 0x1000
240517bc:	f8c3 2310 	str.w	r2, [r3, #784]	; 0x310
240517c0:	462a      	mov	r2, r5
240517c2:	f009 fc6b 	bl	2405b09c <memset>
240517c6:	462a      	mov	r2, r5
240517c8:	2100      	movs	r1, #0
240517ca:	f108 0078 	add.w	r0, r8, #120	; 0x78
240517ce:	f009 fc65 	bl	2405b09c <memset>
240517d2:	462a      	mov	r2, r5
240517d4:	2100      	movs	r1, #0
240517d6:	f107 0078 	add.w	r0, r7, #120	; 0x78
240517da:	f009 fc5f 	bl	2405b09c <memset>
240517de:	462a      	mov	r2, r5
240517e0:	f104 0050 	add.w	r0, r4, #80	; 0x50
240517e4:	2100      	movs	r1, #0
240517e6:	e8bd 41f0 	ldmia.w	sp!, {r4, r5, r6, r7, r8, lr}
240517ea:	f009 bc57 	b.w	2405b09c <memset>
240517ee:	bf00      	nop
240517f0:	30004ce0 	.word	0x30004ce0
240517f4:	300039a0 	.word	0x300039a0
240517f8:	200004d4 	.word	0x200004d4
240517fc:	30001320 	.word	0x30001320
24051800:	30000000 	.word	0x30000000
24051804:	30002660 	.word	0x30002660

24051808 <play_generator>:
24051808:	e92d 41f0 	stmdb	sp!, {r4, r5, r6, r7, r8, lr}
2405180c:	460c      	mov	r4, r1
2405180e:	7801      	ldrb	r1, [r0, #0]
24051810:	b949      	cbnz	r1, 24051826 <play_generator+0x1e>
24051812:	343c      	adds	r4, #60	; 0x3c
24051814:	ea22 72e2 	bic.w	r2, r2, r2, asr #31
24051818:	eb00 0044 	add.w	r0, r0, r4, lsl #1
2405181c:	0052      	lsls	r2, r2, #1
2405181e:	e8bd 41f0 	ldmia.w	sp!, {r4, r5, r6, r7, r8, lr}
24051822:	f009 bc3b 	b.w	2405b09c <memset>
24051826:	f890 5050 	ldrb.w	r5, [r0, #80]	; 0x50
2405182a:	b28e      	uxth	r6, r1
2405182c:	004b      	lsls	r3, r1, #1
2405182e:	b12d      	cbz	r5, 2405183c <play_generator+0x34>
24051830:	2d02      	cmp	r5, #2
24051832:	d121      	bne.n	24051878 <play_generator+0x70>
24051834:	4433      	add	r3, r6
24051836:	46b4      	mov	ip, r6
24051838:	b29e      	uxth	r6, r3
2405183a:	e002      	b.n	24051842 <play_generator+0x3a>
2405183c:	4433      	add	r3, r6
2405183e:	fa1f fc83 	uxth.w	ip, r3
24051842:	f500 5780 	add.w	r7, r0, #4096	; 0x1000
24051846:	f890 e028 	ldrb.w	lr, [r0, #40]	; 0x28
2405184a:	4621      	mov	r1, r4
2405184c:	4422      	add	r2, r4
2405184e:	f8b7 5338 	ldrh.w	r5, [r7, #824]	; 0x338
24051852:	f1ce 0400 	rsb	r4, lr, #0
24051856:	f8b7 333a 	ldrh.w	r3, [r7, #826]	; 0x33a
2405185a:	42b5      	cmp	r5, r6
2405185c:	bf28      	it	cs
2405185e:	4635      	movcs	r5, r6
24051860:	4563      	cmp	r3, ip
24051862:	bf28      	it	cs
24051864:	4663      	movcs	r3, ip
24051866:	b29b      	uxth	r3, r3
24051868:	428a      	cmp	r2, r1
2405186a:	dc08      	bgt.n	2405187e <play_generator+0x76>
2405186c:	f8a7 5338 	strh.w	r5, [r7, #824]	; 0x338
24051870:	f8a7 333a 	strh.w	r3, [r7, #826]	; 0x33a
24051874:	e8bd 81f0 	ldmia.w	sp!, {r4, r5, r6, r7, r8, pc}
24051878:	b29e      	uxth	r6, r3
2405187a:	46b4      	mov	ip, r6
2405187c:	e7e1      	b.n	24051842 <play_generator+0x3a>
2405187e:	b13d      	cbz	r5, 24051890 <play_generator+0x88>
24051880:	3d01      	subs	r5, #1
24051882:	f101 083c 	add.w	r8, r1, #60	; 0x3c
24051886:	b2ad      	uxth	r5, r5
24051888:	f820 e018 	strh.w	lr, [r0, r8, lsl #1]
2405188c:	3101      	adds	r1, #1
2405188e:	e7eb      	b.n	24051868 <play_generator+0x60>
24051890:	b133      	cbz	r3, 240518a0 <play_generator+0x98>
24051892:	f101 083c 	add.w	r8, r1, #60	; 0x3c
24051896:	3b01      	subs	r3, #1
24051898:	f820 4018 	strh.w	r4, [r0, r8, lsl #1]
2405189c:	b29b      	uxth	r3, r3
2405189e:	e7f5      	b.n	2405188c <play_generator+0x84>
240518a0:	3901      	subs	r1, #1
240518a2:	4663      	mov	r3, ip
240518a4:	4635      	mov	r5, r6
240518a6:	e7f1      	b.n	2405188c <play_generator+0x84>

240518a8 <move_generator>:
240518a8:	4601      	mov	r1, r0
240518aa:	2227      	movs	r2, #39	; 0x27
240518ac:	b538      	push	{r3, r4, r5, lr}
240518ae:	4604      	mov	r4, r0
240518b0:	f811 5b01 	ldrb.w	r5, [r1], #1
240518b4:	f009 fbd8 	bl	2405b068 <memmove>
240518b8:	2227      	movs	r2, #39	; 0x27
240518ba:	f884 5027 	strb.w	r5, [r4, #39]	; 0x27
240518be:	f104 0129 	add.w	r1, r4, #41	; 0x29
240518c2:	f894 5028 	ldrb.w	r5, [r4, #40]	; 0x28
240518c6:	f104 0028 	add.w	r0, r4, #40	; 0x28
240518ca:	f009 fbcd 	bl	2405b068 <memmove>
240518ce:	2227      	movs	r2, #39	; 0x27
240518d0:	f884 504f 	strb.w	r5, [r4, #79]	; 0x4f
240518d4:	f104 0151 	add.w	r1, r4, #81	; 0x51
240518d8:	f894 5050 	ldrb.w	r5, [r4, #80]	; 0x50
240518dc:	f104 0050 	add.w	r0, r4, #80	; 0x50
240518e0:	f009 fbc2 	bl	2405b068 <memmove>
240518e4:	f884 5077 	strb.w	r5, [r4, #119]	; 0x77
240518e8:	bd38      	pop	{r3, r4, r5, pc}

240518ea <play_noise>:
240518ea:	e92d 43f0 	stmdb	sp!, {r4, r5, r6, r7, r8, r9, lr}
240518ee:	7804      	ldrb	r4, [r0, #0]
240518f0:	460b      	mov	r3, r1
240518f2:	00a1      	lsls	r1, r4, #2
240518f4:	b94c      	cbnz	r4, 2405190a <play_noise+0x20>
240518f6:	ea22 72e2 	bic.w	r2, r2, r2, asr #31
240518fa:	3328      	adds	r3, #40	; 0x28
240518fc:	0052      	lsls	r2, r2, #1
240518fe:	eb00 0043 	add.w	r0, r0, r3, lsl #1
24051902:	e8bd 43f0 	ldmia.w	sp!, {r4, r5, r6, r7, r8, r9, lr}
24051906:	f009 bbc9 	b.w	2405b09c <memset>
2405190a:	f500 5780 	add.w	r7, r0, #4096	; 0x1000
2405190e:	f890 6028 	ldrb.w	r6, [r0, #40]	; 0x28
24051912:	f04f 0c00 	mov.w	ip, #0
24051916:	441a      	add	r2, r3
24051918:	f8b7 4312 	ldrh.w	r4, [r7, #786]	; 0x312
2405191c:	46b6      	mov	lr, r6
2405191e:	4276      	negs	r6, r6
24051920:	f8b7 5310 	ldrh.w	r5, [r7, #784]	; 0x310
24051924:	428c      	cmp	r4, r1
24051926:	b236      	sxth	r6, r6
24051928:	bf28      	it	cs
2405192a:	460c      	movcs	r4, r1
2405192c:	429a      	cmp	r2, r3
2405192e:	dc05      	bgt.n	2405193c <play_noise+0x52>
24051930:	f8a7 5310 	strh.w	r5, [r7, #784]	; 0x310
24051934:	f8a7 4312 	strh.w	r4, [r7, #786]	; 0x312
24051938:	e8bd 83f0 	ldmia.w	sp!, {r4, r5, r6, r7, r8, r9, pc}
2405193c:	b16c      	cbz	r4, 2405195a <play_noise+0x70>
2405193e:	f1bc 0f00 	cmp.w	ip, #0
24051942:	f104 34ff 	add.w	r4, r4, #4294967295
24051946:	f103 0828 	add.w	r8, r3, #40	; 0x28
2405194a:	bf0c      	ite	eq
2405194c:	46f1      	moveq	r9, lr
2405194e:	46b1      	movne	r9, r6
24051950:	b2a4      	uxth	r4, r4
24051952:	f820 9018 	strh.w	r9, [r0, r8, lsl #1]
24051956:	3301      	adds	r3, #1
24051958:	e7e8      	b.n	2405192c <play_noise+0x42>
2405195a:	ea85 0455 	eor.w	r4, r5, r5, lsr #1
2405195e:	3b01      	subs	r3, #1
24051960:	f004 0401 	and.w	r4, r4, #1
24051964:	03a4      	lsls	r4, r4, #14
24051966:	ea44 0555 	orr.w	r5, r4, r5, lsr #1
2405196a:	460c      	mov	r4, r1
2405196c:	ea6f 0c05 	mvn.w	ip, r5
24051970:	f00c 0c01 	and.w	ip, ip, #1
24051974:	e7ef      	b.n	24051956 <play_noise+0x6c>
	...

24051978 <HAL_SAI_TxCpltCallback>:
24051978:	4a1b      	ldr	r2, [pc, #108]	; (240519e8 <HAL_SAI_TxCpltCallback+0x70>)
2405197a:	481c      	ldr	r0, [pc, #112]	; (240519ec <HAL_SAI_TxCpltCallback+0x74>)
2405197c:	b5f8      	push	{r3, r4, r5, r6, r7, lr}
2405197e:	6813      	ldr	r3, [r2, #0]
24051980:	f241 3438 	movw	r4, #4920	; 0x1338
24051984:	4f1a      	ldr	r7, [pc, #104]	; (240519f0 <HAL_SAI_TxCpltCallback+0x78>)
24051986:	3301      	adds	r3, #1
24051988:	4e1a      	ldr	r6, [pc, #104]	; (240519f4 <HAL_SAI_TxCpltCallback+0x7c>)
2405198a:	6013      	str	r3, [r2, #0]
2405198c:	f44f 6296 	mov.w	r2, #1200	; 0x4b0
24051990:	4611      	mov	r1, r2
24051992:	f7ff ff39 	bl	24051808 <play_generator>
24051996:	f44f 6296 	mov.w	r2, #1200	; 0x4b0
2405199a:	4815      	ldr	r0, [pc, #84]	; (240519f0 <HAL_SAI_TxCpltCallback+0x78>)
2405199c:	4611      	mov	r1, r2
2405199e:	f7ff ff33 	bl	24051808 <play_generator>
240519a2:	f44f 6296 	mov.w	r2, #1200	; 0x4b0
240519a6:	4813      	ldr	r0, [pc, #76]	; (240519f4 <HAL_SAI_TxCpltCallback+0x7c>)
240519a8:	4611      	mov	r1, r2
240519aa:	f7ff ff2d 	bl	24051808 <play_generator>
240519ae:	f44f 6296 	mov.w	r2, #1200	; 0x4b0
240519b2:	4811      	ldr	r0, [pc, #68]	; (240519f8 <HAL_SAI_TxCpltCallback+0x80>)
240519b4:	4611      	mov	r1, r2
240519b6:	f7ff ff98 	bl	240518ea <play_noise>
240519ba:	4810      	ldr	r0, [pc, #64]	; (240519fc <HAL_SAI_TxCpltCallback+0x84>)
240519bc:	4910      	ldr	r1, [pc, #64]	; (24051a00 <HAL_SAI_TxCpltCallback+0x88>)
240519be:	f640 12d8 	movw	r2, #2520	; 0x9d8
240519c2:	f8df c028 	ldr.w	ip, [pc, #40]	; 240519ec <HAL_SAI_TxCpltCallback+0x74>
240519c6:	5ebd      	ldrsh	r5, [r7, r2]
240519c8:	f93c 3002 	ldrsh.w	r3, [ip, r2]
240519cc:	442b      	add	r3, r5
240519ce:	5eb5      	ldrsh	r5, [r6, r2]
240519d0:	3202      	adds	r2, #2
240519d2:	442b      	add	r3, r5
240519d4:	f930 5f02 	ldrsh.w	r5, [r0, #2]!
240519d8:	42a2      	cmp	r2, r4
240519da:	442b      	add	r3, r5
240519dc:	ea4f 0343 	mov.w	r3, r3, lsl #1
240519e0:	f821 3f02 	strh.w	r3, [r1, #2]!
240519e4:	d1ef      	bne.n	240519c6 <HAL_SAI_TxCpltCallback+0x4e>
240519e6:	bdf8      	pop	{r3, r4, r5, r6, r7, pc}
240519e8:	200001f0 	.word	0x200001f0
240519ec:	300039a0 	.word	0x300039a0
240519f0:	30002660 	.word	0x30002660
240519f4:	30001320 	.word	0x30001320
240519f8:	30000000 	.word	0x30000000
240519fc:	300009ae 	.word	0x300009ae
24051a00:	3000563e 	.word	0x3000563e

24051a04 <move_noise>:
24051a04:	4601      	mov	r1, r0
24051a06:	2227      	movs	r2, #39	; 0x27
24051a08:	b538      	push	{r3, r4, r5, lr}
24051a0a:	4604      	mov	r4, r0
24051a0c:	f811 5b01 	ldrb.w	r5, [r1], #1
24051a10:	f009 fb2a 	bl	2405b068 <memmove>
24051a14:	2227      	movs	r2, #39	; 0x27
24051a16:	f884 5027 	strb.w	r5, [r4, #39]	; 0x27
24051a1a:	f104 0129 	add.w	r1, r4, #41	; 0x29
24051a1e:	f894 5028 	ldrb.w	r5, [r4, #40]	; 0x28
24051a22:	f104 0028 	add.w	r0, r4, #40	; 0x28
24051a26:	f009 fb1f 	bl	2405b068 <memmove>
24051a2a:	f884 504f 	strb.w	r5, [r4, #79]	; 0x4f
24051a2e:	bd38      	pop	{r3, r4, r5, pc}

24051a30 <HAL_SAI_TxHalfCpltCallback>:
24051a30:	b5f8      	push	{r3, r4, r5, r6, r7, lr}
24051a32:	481f      	ldr	r0, [pc, #124]	; (24051ab0 <HAL_SAI_TxHalfCpltCallback+0x80>)
24051a34:	f640 14d8 	movw	r4, #2520	; 0x9d8
24051a38:	f7ff ff36 	bl	240518a8 <move_generator>
24051a3c:	f44f 6296 	mov.w	r2, #1200	; 0x4b0
24051a40:	2100      	movs	r1, #0
24051a42:	481b      	ldr	r0, [pc, #108]	; (24051ab0 <HAL_SAI_TxHalfCpltCallback+0x80>)
24051a44:	f7ff fee0 	bl	24051808 <play_generator>
24051a48:	481a      	ldr	r0, [pc, #104]	; (24051ab4 <HAL_SAI_TxHalfCpltCallback+0x84>)
24051a4a:	f7ff ff2d 	bl	240518a8 <move_generator>
24051a4e:	f44f 6296 	mov.w	r2, #1200	; 0x4b0
24051a52:	2100      	movs	r1, #0
24051a54:	4817      	ldr	r0, [pc, #92]	; (24051ab4 <HAL_SAI_TxHalfCpltCallback+0x84>)
24051a56:	f7ff fed7 	bl	24051808 <play_generator>
24051a5a:	4817      	ldr	r0, [pc, #92]	; (24051ab8 <HAL_SAI_TxHalfCpltCallback+0x88>)
24051a5c:	f7ff ff24 	bl	240518a8 <move_generator>
24051a60:	f44f 6296 	mov.w	r2, #1200	; 0x4b0
24051a64:	2100      	movs	r1, #0
24051a66:	4814      	ldr	r0, [pc, #80]	; (24051ab8 <HAL_SAI_TxHalfCpltCallback+0x88>)
24051a68:	f7ff fece 	bl	24051808 <play_generator>
24051a6c:	4813      	ldr	r0, [pc, #76]	; (24051abc <HAL_SAI_TxHalfCpltCallback+0x8c>)
24051a6e:	f7ff ffc9 	bl	24051a04 <move_noise>
24051a72:	f44f 6296 	mov.w	r2, #1200	; 0x4b0
24051a76:	2100      	movs	r1, #0
24051a78:	4810      	ldr	r0, [pc, #64]	; (24051abc <HAL_SAI_TxHalfCpltCallback+0x8c>)
24051a7a:	f7ff ff36 	bl	240518ea <play_noise>
24051a7e:	4f0d      	ldr	r7, [pc, #52]	; (24051ab4 <HAL_SAI_TxHalfCpltCallback+0x84>)
24051a80:	480f      	ldr	r0, [pc, #60]	; (24051ac0 <HAL_SAI_TxHalfCpltCallback+0x90>)
24051a82:	2278      	movs	r2, #120	; 0x78
24051a84:	490f      	ldr	r1, [pc, #60]	; (24051ac4 <HAL_SAI_TxHalfCpltCallback+0x94>)
24051a86:	f8df c028 	ldr.w	ip, [pc, #40]	; 24051ab0 <HAL_SAI_TxHalfCpltCallback+0x80>
24051a8a:	4e0b      	ldr	r6, [pc, #44]	; (24051ab8 <HAL_SAI_TxHalfCpltCallback+0x88>)
24051a8c:	5ebd      	ldrsh	r5, [r7, r2]
24051a8e:	f93c 3002 	ldrsh.w	r3, [ip, r2]
24051a92:	442b      	add	r3, r5
24051a94:	5eb5      	ldrsh	r5, [r6, r2]
24051a96:	3202      	adds	r2, #2
24051a98:	442b      	add	r3, r5
24051a9a:	f930 5f02 	ldrsh.w	r5, [r0, #2]!
24051a9e:	42a2      	cmp	r2, r4
24051aa0:	442b      	add	r3, r5
24051aa2:	ea4f 0383 	mov.w	r3, r3, lsl #2
24051aa6:	f821 3b02 	strh.w	r3, [r1], #2
24051aaa:	d1ef      	bne.n	24051a8c <HAL_SAI_TxHalfCpltCallback+0x5c>
24051aac:	bdf8      	pop	{r3, r4, r5, r6, r7, pc}
24051aae:	bf00      	nop
24051ab0:	300039a0 	.word	0x300039a0
24051ab4:	30002660 	.word	0x30002660
24051ab8:	30001320 	.word	0x30001320
24051abc:	30000000 	.word	0x30000000
24051ac0:	3000004e 	.word	0x3000004e
24051ac4:	30004ce0 	.word	0x30004ce0

24051ac8 <HAL_ADC_ConvCpltCallback>:
24051ac8:	b510      	push	{r4, lr}
24051aca:	4604      	mov	r4, r0
24051acc:	f002 fcee 	bl	240544ac <HAL_ADC_GetValue>
24051ad0:	4b03      	ldr	r3, [pc, #12]	; (24051ae0 <HAL_ADC_ConvCpltCallback+0x18>)
24051ad2:	8018      	strh	r0, [r3, #0]
24051ad4:	4620      	mov	r0, r4
24051ad6:	e8bd 4010 	ldmia.w	sp!, {r4, lr}
24051ada:	f003 b9b2 	b.w	24054e42 <HAL_ADC_Stop_IT>
24051ade:	bf00      	nop
24051ae0:	200001f4 	.word	0x200001f4

24051ae4 <bq24072_handle_power_good>:
24051ae4:	b508      	push	{r3, lr}
24051ae6:	2104      	movs	r1, #4
24051ae8:	4804      	ldr	r0, [pc, #16]	; (24051afc <bq24072_handle_power_good+0x18>)
24051aea:	f004 fed7 	bl	2405689c <HAL_GPIO_ReadPin>
24051aee:	3801      	subs	r0, #1
24051af0:	4b03      	ldr	r3, [pc, #12]	; (24051b00 <bq24072_handle_power_good+0x1c>)
24051af2:	bf18      	it	ne
24051af4:	2001      	movne	r0, #1
24051af6:	70d8      	strb	r0, [r3, #3]
24051af8:	bd08      	pop	{r3, pc}
24051afa:	bf00      	nop
24051afc:	58020000 	.word	0x58020000
24051b00:	200001f4 	.word	0x200001f4

24051b04 <bq24072_handle_charging>:
24051b04:	b508      	push	{r3, lr}
24051b06:	2180      	movs	r1, #128	; 0x80
24051b08:	4804      	ldr	r0, [pc, #16]	; (24051b1c <bq24072_handle_charging+0x18>)
24051b0a:	f004 fec7 	bl	2405689c <HAL_GPIO_ReadPin>
24051b0e:	3801      	subs	r0, #1
24051b10:	4b03      	ldr	r3, [pc, #12]	; (24051b20 <bq24072_handle_charging+0x1c>)
24051b12:	bf18      	it	ne
24051b14:	2001      	movne	r0, #1
24051b16:	7098      	strb	r0, [r3, #2]
24051b18:	bd08      	pop	{r3, pc}
24051b1a:	bf00      	nop
24051b1c:	58021000 	.word	0x58021000
24051b20:	200001f4 	.word	0x200001f4

24051b24 <bq24072_poll>:
24051b24:	4801      	ldr	r0, [pc, #4]	; (24051b2c <bq24072_poll+0x8>)
24051b26:	f003 b8b3 	b.w	24054c90 <HAL_ADC_Start_IT>
24051b2a:	bf00      	nop
24051b2c:	2000023c 	.word	0x2000023c

24051b30 <bq24072_init>:
24051b30:	b508      	push	{r3, lr}
24051b32:	f7ff ffd7 	bl	24051ae4 <bq24072_handle_power_good>
24051b36:	f7ff ffe5 	bl	24051b04 <bq24072_handle_charging>
24051b3a:	f7ff fff3 	bl	24051b24 <bq24072_poll>
24051b3e:	4802      	ldr	r0, [pc, #8]	; (24051b48 <bq24072_init+0x18>)
24051b40:	f008 fc42 	bl	2405a3c8 <HAL_TIM_Base_Start_IT>
24051b44:	2000      	movs	r0, #0
24051b46:	bd08      	pop	{r3, pc}
24051b48:	200005f4 	.word	0x200005f4

24051b4c <buttons_get>:
24051b4c:	e92d 4ff7 	stmdb	sp!, {r0, r1, r2, r4, r5, r6, r7, r8, r9, sl, fp, lr}
24051b50:	4d38      	ldr	r5, [pc, #224]	; (24051c34 <buttons_get+0xe8>)
24051b52:	f44f 6100 	mov.w	r1, #2048	; 0x800
24051b56:	4628      	mov	r0, r5
24051b58:	f004 fea0 	bl	2405689c <HAL_GPIO_ReadPin>
24051b5c:	f44f 4100 	mov.w	r1, #32768	; 0x8000
24051b60:	4683      	mov	fp, r0
24051b62:	4628      	mov	r0, r5
24051b64:	f004 fe9a 	bl	2405689c <HAL_GPIO_ReadPin>
24051b68:	2101      	movs	r1, #1
24051b6a:	4604      	mov	r4, r0
24051b6c:	4628      	mov	r0, r5
24051b6e:	f004 fe95 	bl	2405689c <HAL_GPIO_ReadPin>
24051b72:	f44f 4180 	mov.w	r1, #16384	; 0x4000
24051b76:	9001      	str	r0, [sp, #4]
24051b78:	4628      	mov	r0, r5
24051b7a:	f004 fe8f 	bl	2405689c <HAL_GPIO_ReadPin>
24051b7e:	f44f 7100 	mov.w	r1, #512	; 0x200
24051b82:	4682      	mov	sl, r0
24051b84:	4628      	mov	r0, r5
24051b86:	f004 fe89 	bl	2405689c <HAL_GPIO_ReadPin>
24051b8a:	4681      	mov	r9, r0
24051b8c:	4628      	mov	r0, r5
24051b8e:	f5a5 6580 	sub.w	r5, r5, #1024	; 0x400
24051b92:	2120      	movs	r1, #32
24051b94:	faba fa8a 	clz	sl, sl
24051b98:	f004 fe80 	bl	2405689c <HAL_GPIO_ReadPin>
24051b9c:	2120      	movs	r1, #32
24051b9e:	4680      	mov	r8, r0
24051ba0:	4628      	mov	r0, r5
24051ba2:	f004 fe7b 	bl	2405689c <HAL_GPIO_ReadPin>
24051ba6:	2102      	movs	r1, #2
24051ba8:	4607      	mov	r7, r0
24051baa:	4628      	mov	r0, r5
24051bac:	f004 fe76 	bl	2405689c <HAL_GPIO_ReadPin>
24051bb0:	f44f 5100 	mov.w	r1, #8192	; 0x2000
24051bb4:	4606      	mov	r6, r0
24051bb6:	4628      	mov	r0, r5
24051bb8:	f004 fe70 	bl	2405689c <HAL_GPIO_ReadPin>
24051bbc:	2101      	movs	r1, #1
24051bbe:	4605      	mov	r5, r0
24051bc0:	481d      	ldr	r0, [pc, #116]	; (24051c38 <buttons_get+0xec>)
24051bc2:	f004 fe6b 	bl	2405689c <HAL_GPIO_ReadPin>
24051bc6:	9a01      	ldr	r2, [sp, #4]
24051bc8:	fab4 f384 	clz	r3, r4
24051bcc:	ea4f 1a5a 	mov.w	sl, sl, lsr #5
24051bd0:	fab2 f282 	clz	r2, r2
24051bd4:	fab9 f989 	clz	r9, r9
24051bd8:	095b      	lsrs	r3, r3, #5
24051bda:	fab8 f888 	clz	r8, r8
24051bde:	0952      	lsrs	r2, r2, #5
24051be0:	fab7 f787 	clz	r7, r7
24051be4:	009b      	lsls	r3, r3, #2
24051be6:	fab6 f686 	clz	r6, r6
24051bea:	ea4f 1959 	mov.w	r9, r9, lsr #5
24051bee:	fab5 f585 	clz	r5, r5
24051bf2:	ea43 0342 	orr.w	r3, r3, r2, lsl #1
24051bf6:	fab0 f080 	clz	r0, r0
24051bfa:	ea4f 1858 	mov.w	r8, r8, lsr #5
24051bfe:	f1bb 0f00 	cmp.w	fp, #0
24051c02:	bf08      	it	eq
24051c04:	f043 0301 	orreq.w	r3, r3, #1
24051c08:	097f      	lsrs	r7, r7, #5
24051c0a:	0976      	lsrs	r6, r6, #5
24051c0c:	ea43 03ca 	orr.w	r3, r3, sl, lsl #3
24051c10:	096d      	lsrs	r5, r5, #5
24051c12:	ea43 1309 	orr.w	r3, r3, r9, lsl #4
24051c16:	0940      	lsrs	r0, r0, #5
24051c18:	ea43 1348 	orr.w	r3, r3, r8, lsl #5
24051c1c:	ea43 1387 	orr.w	r3, r3, r7, lsl #6
24051c20:	ea43 13c6 	orr.w	r3, r3, r6, lsl #7
24051c24:	ea43 2305 	orr.w	r3, r3, r5, lsl #8
24051c28:	ea43 2040 	orr.w	r0, r3, r0, lsl #9
24051c2c:	b003      	add	sp, #12
24051c2e:	e8bd 8ff0 	ldmia.w	sp!, {r4, r5, r6, r7, r8, r9, sl, fp, pc}
24051c32:	bf00      	nop
24051c34:	58020c00 	.word	0x58020c00
24051c38:	58020000 	.word	0x58020000

24051c3c <set_ospi_cmd.constprop.0>:
24051c3c:	b5f8      	push	{r3, r4, r5, r6, r7, lr}
24051c3e:	460d      	mov	r5, r1
24051c40:	4617      	mov	r7, r2
24051c42:	2100      	movs	r1, #0
24051c44:	2250      	movs	r2, #80	; 0x50
24051c46:	4604      	mov	r4, r0
24051c48:	461e      	mov	r6, r3
24051c4a:	f009 fa27 	bl	2405b09c <memset>
24051c4e:	782b      	ldrb	r3, [r5, #0]
24051c50:	4a10      	ldr	r2, [pc, #64]	; (24051c94 <set_ospi_cmd.constprop.0+0x58>)
24051c52:	60a3      	str	r3, [r4, #8]
24051c54:	786b      	ldrb	r3, [r5, #1]
24051c56:	f003 0303 	and.w	r3, r3, #3
24051c5a:	f852 3023 	ldr.w	r3, [r2, r3, lsl #2]
24051c5e:	4a0e      	ldr	r2, [pc, #56]	; (24051c98 <set_ospi_cmd.constprop.0+0x5c>)
24051c60:	60e3      	str	r3, [r4, #12]
24051c62:	78ab      	ldrb	r3, [r5, #2]
24051c64:	61a7      	str	r7, [r4, #24]
24051c66:	6463      	str	r3, [r4, #68]	; 0x44
24051c68:	786b      	ldrb	r3, [r5, #1]
24051c6a:	f3c3 1301 	ubfx	r3, r3, #4, #2
24051c6e:	f852 3023 	ldr.w	r3, [r2, r3, lsl #2]
24051c72:	4a0a      	ldr	r2, [pc, #40]	; (24051c9c <set_ospi_cmd.constprop.0+0x60>)
24051c74:	6223      	str	r3, [r4, #32]
24051c76:	786b      	ldrb	r3, [r5, #1]
24051c78:	63e6      	str	r6, [r4, #60]	; 0x3c
24051c7a:	f3c3 0381 	ubfx	r3, r3, #2, #2
24051c7e:	f852 3023 	ldr.w	r3, [r2, r3, lsl #2]
24051c82:	4a07      	ldr	r2, [pc, #28]	; (24051ca0 <set_ospi_cmd.constprop.0+0x64>)
24051c84:	61e3      	str	r3, [r4, #28]
24051c86:	786b      	ldrb	r3, [r5, #1]
24051c88:	099b      	lsrs	r3, r3, #6
24051c8a:	f852 3023 	ldr.w	r3, [r2, r3, lsl #2]
24051c8e:	63a3      	str	r3, [r4, #56]	; 0x38
24051c90:	bdf8      	pop	{r3, r4, r5, r6, r7, pc}
24051c92:	bf00      	nop
24051c94:	2405ffd0 	.word	0x2405ffd0
24051c98:	2405fd6c 	.word	0x2405fd6c
24051c9c:	2405fd60 	.word	0x2405fd60
24051ca0:	2405ffc4 	.word	0x2405ffc4

24051ca4 <OSPI_ReadBytes>:
24051ca4:	b530      	push	{r4, r5, lr}
24051ca6:	4c12      	ldr	r4, [pc, #72]	; (24051cf0 <OSPI_ReadBytes+0x4c>)
24051ca8:	4615      	mov	r5, r2
24051caa:	b095      	sub	sp, #84	; 0x54
24051cac:	7c22      	ldrb	r2, [r4, #16]
24051cae:	b132      	cbz	r2, 24051cbe <OSPI_ReadBytes+0x1a>
24051cb0:	4b10      	ldr	r3, [pc, #64]	; (24051cf4 <OSPI_ReadBytes+0x50>)
24051cb2:	f240 11a3 	movw	r1, #419	; 0x1a3
24051cb6:	4a10      	ldr	r2, [pc, #64]	; (24051cf8 <OSPI_ReadBytes+0x54>)
24051cb8:	4810      	ldr	r0, [pc, #64]	; (24051cfc <OSPI_ReadBytes+0x58>)
24051cba:	f008 fe25 	bl	2405a908 <__assert_func>
24051cbe:	460a      	mov	r2, r1
24051cc0:	4601      	mov	r1, r0
24051cc2:	4668      	mov	r0, sp
24051cc4:	f7ff ffba 	bl	24051c3c <set_ospi_cmd.constprop.0>
24051cc8:	f241 3288 	movw	r2, #5000	; 0x1388
24051ccc:	4669      	mov	r1, sp
24051cce:	6820      	ldr	r0, [r4, #0]
24051cd0:	f005 f940 	bl	24056f54 <HAL_OSPI_Command>
24051cd4:	b108      	cbz	r0, 24051cda <OSPI_ReadBytes+0x36>
24051cd6:	f001 fe39 	bl	2405394c <Error_Handler>
24051cda:	f241 3288 	movw	r2, #5000	; 0x1388
24051cde:	4629      	mov	r1, r5
24051ce0:	6820      	ldr	r0, [r4, #0]
24051ce2:	f005 f9c6 	bl	24057072 <HAL_OSPI_Receive>
24051ce6:	b108      	cbz	r0, 24051cec <OSPI_ReadBytes+0x48>
24051ce8:	f001 fe30 	bl	2405394c <Error_Handler>
24051cec:	b015      	add	sp, #84	; 0x54
24051cee:	bd30      	pop	{r4, r5, pc}
24051cf0:	20000080 	.word	0x20000080
24051cf4:	2405f9a8 	.word	0x2405f9a8
24051cf8:	2405fd2f 	.word	0x2405fd2f
24051cfc:	2405f9ca 	.word	0x2405f9ca

24051d00 <wait_for_status>:
24051d00:	e92d 41f3 	stmdb	sp!, {r0, r1, r4, r5, r6, r7, r8, lr}
24051d04:	4606      	mov	r6, r0
24051d06:	460d      	mov	r5, r1
24051d08:	4614      	mov	r4, r2
24051d0a:	f8df 8054 	ldr.w	r8, [pc, #84]	; 24051d60 <wait_for_status+0x60>
24051d0e:	f002 fb29 	bl	24054364 <HAL_GetTick>
24051d12:	4607      	mov	r7, r0
24051d14:	f8d8 3008 	ldr.w	r3, [r8, #8]
24051d18:	f10d 0207 	add.w	r2, sp, #7
24051d1c:	2100      	movs	r1, #0
24051d1e:	6818      	ldr	r0, [r3, #0]
24051d20:	2301      	movs	r3, #1
24051d22:	3003      	adds	r0, #3
24051d24:	f7ff ffbe 	bl	24051ca4 <OSPI_ReadBytes>
24051d28:	b15c      	cbz	r4, 24051d42 <wait_for_status+0x42>
24051d2a:	f002 fb1b 	bl	24054364 <HAL_GetTick>
24051d2e:	193b      	adds	r3, r7, r4
24051d30:	4298      	cmp	r0, r3
24051d32:	d906      	bls.n	24051d42 <wait_for_status+0x42>
24051d34:	4b07      	ldr	r3, [pc, #28]	; (24051d54 <wait_for_status+0x54>)
24051d36:	f240 11e5 	movw	r1, #485	; 0x1e5
24051d3a:	4a07      	ldr	r2, [pc, #28]	; (24051d58 <wait_for_status+0x58>)
24051d3c:	4807      	ldr	r0, [pc, #28]	; (24051d5c <wait_for_status+0x5c>)
24051d3e:	f008 fde3 	bl	2405a908 <__assert_func>
24051d42:	f89d 3007 	ldrb.w	r3, [sp, #7]
24051d46:	4033      	ands	r3, r6
24051d48:	42ab      	cmp	r3, r5
24051d4a:	d1e3      	bne.n	24051d14 <wait_for_status+0x14>
24051d4c:	b002      	add	sp, #8
24051d4e:	e8bd 81f0 	ldmia.w	sp!, {r4, r5, r6, r7, r8, pc}
24051d52:	bf00      	nop
24051d54:	2405f9ed 	.word	0x2405f9ed
24051d58:	2405fd3e 	.word	0x2405fd3e
24051d5c:	2405f9ca 	.word	0x2405f9ca
24051d60:	20000080 	.word	0x20000080

24051d64 <OSPI_WriteBytes>:
24051d64:	b570      	push	{r4, r5, r6, lr}
24051d66:	4c13      	ldr	r4, [pc, #76]	; (24051db4 <OSPI_WriteBytes+0x50>)
24051d68:	4615      	mov	r5, r2
24051d6a:	b094      	sub	sp, #80	; 0x50
24051d6c:	461e      	mov	r6, r3
24051d6e:	7c22      	ldrb	r2, [r4, #16]
24051d70:	b132      	cbz	r2, 24051d80 <OSPI_WriteBytes+0x1c>
24051d72:	4b11      	ldr	r3, [pc, #68]	; (24051db8 <OSPI_WriteBytes+0x54>)
24051d74:	f240 11c1 	movw	r1, #449	; 0x1c1
24051d78:	4a10      	ldr	r2, [pc, #64]	; (24051dbc <OSPI_WriteBytes+0x58>)
24051d7a:	4811      	ldr	r0, [pc, #68]	; (24051dc0 <OSPI_WriteBytes+0x5c>)
24051d7c:	f008 fdc4 	bl	2405a908 <__assert_func>
24051d80:	460a      	mov	r2, r1
24051d82:	4601      	mov	r1, r0
24051d84:	4668      	mov	r0, sp
24051d86:	f7ff ff59 	bl	24051c3c <set_ospi_cmd.constprop.0>
24051d8a:	f241 3288 	movw	r2, #5000	; 0x1388
24051d8e:	4669      	mov	r1, sp
24051d90:	6820      	ldr	r0, [r4, #0]
24051d92:	f005 f8df 	bl	24056f54 <HAL_OSPI_Command>
24051d96:	b108      	cbz	r0, 24051d9c <OSPI_WriteBytes+0x38>
24051d98:	f001 fdd8 	bl	2405394c <Error_Handler>
24051d9c:	b146      	cbz	r6, 24051db0 <OSPI_WriteBytes+0x4c>
24051d9e:	f241 3288 	movw	r2, #5000	; 0x1388
24051da2:	4629      	mov	r1, r5
24051da4:	6820      	ldr	r0, [r4, #0]
24051da6:	f005 f924 	bl	24056ff2 <HAL_OSPI_Transmit>
24051daa:	b108      	cbz	r0, 24051db0 <OSPI_WriteBytes+0x4c>
24051dac:	f001 fdce 	bl	2405394c <Error_Handler>
24051db0:	b014      	add	sp, #80	; 0x50
24051db2:	bd70      	pop	{r4, r5, r6, pc}
24051db4:	20000080 	.word	0x20000080
24051db8:	2405f9a8 	.word	0x2405f9a8
24051dbc:	2405fd4e 	.word	0x2405fd4e
24051dc0:	2405f9ca 	.word	0x2405f9ca

24051dc4 <OSPI_EnableMemoryMappedMode>:
24051dc4:	b510      	push	{r4, lr}
24051dc6:	4c1b      	ldr	r4, [pc, #108]	; (24051e34 <OSPI_EnableMemoryMappedMode+0x70>)
24051dc8:	b096      	sub	sp, #88	; 0x58
24051dca:	68a3      	ldr	r3, [r4, #8]
24051dcc:	6819      	ldr	r1, [r3, #0]
24051dce:	7c23      	ldrb	r3, [r4, #16]
24051dd0:	312a      	adds	r1, #42	; 0x2a
24051dd2:	b133      	cbz	r3, 24051de2 <OSPI_EnableMemoryMappedMode+0x1e>
24051dd4:	4b18      	ldr	r3, [pc, #96]	; (24051e38 <OSPI_EnableMemoryMappedMode+0x74>)
24051dd6:	f240 11f1 	movw	r1, #497	; 0x1f1
24051dda:	4a18      	ldr	r2, [pc, #96]	; (24051e3c <OSPI_EnableMemoryMappedMode+0x78>)
24051ddc:	4818      	ldr	r0, [pc, #96]	; (24051e40 <OSPI_EnableMemoryMappedMode+0x7c>)
24051dde:	f008 fd93 	bl	2405a908 <__assert_func>
24051de2:	461a      	mov	r2, r3
24051de4:	a802      	add	r0, sp, #8
24051de6:	f7ff ff29 	bl	24051c3c <set_ospi_cmd.constprop.0>
24051dea:	2301      	movs	r3, #1
24051dec:	f241 3288 	movw	r2, #5000	; 0x1388
24051df0:	a902      	add	r1, sp, #8
24051df2:	6820      	ldr	r0, [r4, #0]
24051df4:	9302      	str	r3, [sp, #8]
24051df6:	f005 f8ad 	bl	24056f54 <HAL_OSPI_Command>
24051dfa:	b108      	cbz	r0, 24051e00 <OSPI_EnableMemoryMappedMode+0x3c>
24051dfc:	f001 fda6 	bl	2405394c <Error_Handler>
24051e00:	2302      	movs	r3, #2
24051e02:	f241 3288 	movw	r2, #5000	; 0x1388
24051e06:	a902      	add	r1, sp, #8
24051e08:	6820      	ldr	r0, [r4, #0]
24051e0a:	9302      	str	r3, [sp, #8]
24051e0c:	f005 f8a2 	bl	24056f54 <HAL_OSPI_Command>
24051e10:	b108      	cbz	r0, 24051e16 <OSPI_EnableMemoryMappedMode+0x52>
24051e12:	f001 fd9b 	bl	2405394c <Error_Handler>
24051e16:	2300      	movs	r3, #0
24051e18:	4669      	mov	r1, sp
24051e1a:	6820      	ldr	r0, [r4, #0]
24051e1c:	e9cd 3300 	strd	r3, r3, [sp]
24051e20:	f005 f979 	bl	24057116 <HAL_OSPI_MemoryMapped>
24051e24:	b108      	cbz	r0, 24051e2a <OSPI_EnableMemoryMappedMode+0x66>
24051e26:	f001 fd91 	bl	2405394c <Error_Handler>
24051e2a:	2301      	movs	r3, #1
24051e2c:	7423      	strb	r3, [r4, #16]
24051e2e:	b016      	add	sp, #88	; 0x58
24051e30:	bd10      	pop	{r4, pc}
24051e32:	bf00      	nop
24051e34:	20000080 	.word	0x20000080
24051e38:	2405f9a8 	.word	0x2405f9a8
24051e3c:	2405fd13 	.word	0x2405fd13
24051e40:	2405f9ca 	.word	0x2405f9ca

24051e44 <OSPI_NOR_WriteEnable>:
24051e44:	b508      	push	{r3, lr}
24051e46:	4b08      	ldr	r3, [pc, #32]	; (24051e68 <OSPI_NOR_WriteEnable+0x24>)
24051e48:	689b      	ldr	r3, [r3, #8]
24051e4a:	6818      	ldr	r0, [r3, #0]
24051e4c:	2300      	movs	r3, #0
24051e4e:	300c      	adds	r0, #12
24051e50:	461a      	mov	r2, r3
24051e52:	4619      	mov	r1, r3
24051e54:	f7ff ff86 	bl	24051d64 <OSPI_WriteBytes>
24051e58:	2102      	movs	r1, #2
24051e5a:	f44f 727a 	mov.w	r2, #1000	; 0x3e8
24051e5e:	4608      	mov	r0, r1
24051e60:	e8bd 4008 	ldmia.w	sp!, {r3, lr}
24051e64:	f7ff bf4c 	b.w	24051d00 <wait_for_status>
24051e68:	20000080 	.word	0x20000080

24051e6c <init_mx_issi>:
24051e6c:	b51f      	push	{r0, r1, r2, r3, r4, lr}
24051e6e:	4c1e      	ldr	r4, [pc, #120]	; (24051ee8 <init_mx_issi+0x7c>)
24051e70:	481e      	ldr	r0, [pc, #120]	; (24051eec <init_mx_issi+0x80>)
24051e72:	f008 fff9 	bl	2405ae68 <puts>
24051e76:	68a3      	ldr	r3, [r4, #8]
24051e78:	f10d 020e 	add.w	r2, sp, #14
24051e7c:	2100      	movs	r1, #0
24051e7e:	6818      	ldr	r0, [r3, #0]
24051e80:	2301      	movs	r3, #1
24051e82:	3003      	adds	r0, #3
24051e84:	f7ff ff0e 	bl	24051ca4 <OSPI_ReadBytes>
24051e88:	68a3      	ldr	r3, [r4, #8]
24051e8a:	7d1b      	ldrb	r3, [r3, #20]
24051e8c:	b34b      	cbz	r3, 24051ee2 <init_mx_issi+0x76>
24051e8e:	f89d 100e 	ldrb.w	r1, [sp, #14]
24051e92:	f011 0140 	ands.w	r1, r1, #64	; 0x40
24051e96:	d124      	bne.n	24051ee2 <init_mx_issi+0x76>
24051e98:	2340      	movs	r3, #64	; 0x40
24051e9a:	4815      	ldr	r0, [pc, #84]	; (24051ef0 <init_mx_issi+0x84>)
24051e9c:	9101      	str	r1, [sp, #4]
24051e9e:	f88d 300f 	strb.w	r3, [sp, #15]
24051ea2:	f008 ffe1 	bl	2405ae68 <puts>
24051ea6:	f7ff ffcd 	bl	24051e44 <OSPI_NOR_WriteEnable>
24051eaa:	68a0      	ldr	r0, [r4, #8]
24051eac:	2301      	movs	r3, #1
24051eae:	f10d 020f 	add.w	r2, sp, #15
24051eb2:	9901      	ldr	r1, [sp, #4]
24051eb4:	6800      	ldr	r0, [r0, #0]
24051eb6:	f7ff ff55 	bl	24051d64 <OSPI_WriteBytes>
24051eba:	f44f 727a 	mov.w	r2, #1000	; 0x3e8
24051ebe:	9901      	ldr	r1, [sp, #4]
24051ec0:	2001      	movs	r0, #1
24051ec2:	f7ff ff1d 	bl	24051d00 <wait_for_status>
24051ec6:	68a3      	ldr	r3, [r4, #8]
24051ec8:	9901      	ldr	r1, [sp, #4]
24051eca:	f10d 020e 	add.w	r2, sp, #14
24051ece:	6818      	ldr	r0, [r3, #0]
24051ed0:	2301      	movs	r3, #1
24051ed2:	3003      	adds	r0, #3
24051ed4:	f7ff fee6 	bl	24051ca4 <OSPI_ReadBytes>
24051ed8:	f89d 100e 	ldrb.w	r1, [sp, #14]
24051edc:	4805      	ldr	r0, [pc, #20]	; (24051ef4 <init_mx_issi+0x88>)
24051ede:	f008 ff5d 	bl	2405ad9c <iprintf>
24051ee2:	b004      	add	sp, #16
24051ee4:	bd10      	pop	{r4, pc}
24051ee6:	bf00      	nop
24051ee8:	20000080 	.word	0x20000080
24051eec:	2405fcfc 	.word	0x2405fcfc
24051ef0:	2405fa05 	.word	0x2405fa05
24051ef4:	2405fa15 	.word	0x2405fa15

24051ef8 <init_spansion>:
24051ef8:	b530      	push	{r4, r5, lr}
24051efa:	4c40      	ldr	r4, [pc, #256]	; (24051ffc <init_spansion+0x104>)
24051efc:	b089      	sub	sp, #36	; 0x24
24051efe:	2100      	movs	r1, #0
24051f00:	68a3      	ldr	r3, [r4, #8]
24051f02:	f10d 0216 	add.w	r2, sp, #22
24051f06:	6818      	ldr	r0, [r3, #0]
24051f08:	2301      	movs	r3, #1
24051f0a:	3003      	adds	r0, #3
24051f0c:	f7ff feca 	bl	24051ca4 <OSPI_ReadBytes>
24051f10:	68a3      	ldr	r3, [r4, #8]
24051f12:	f10d 0217 	add.w	r2, sp, #23
24051f16:	493a      	ldr	r1, [pc, #232]	; (24052000 <init_spansion+0x108>)
24051f18:	6818      	ldr	r0, [r3, #0]
24051f1a:	2301      	movs	r3, #1
24051f1c:	3009      	adds	r0, #9
24051f1e:	f7ff fec1 	bl	24051ca4 <OSPI_ReadBytes>
24051f22:	68a3      	ldr	r3, [r4, #8]
24051f24:	aa06      	add	r2, sp, #24
24051f26:	2100      	movs	r1, #0
24051f28:	6818      	ldr	r0, [r3, #0]
24051f2a:	2301      	movs	r3, #1
24051f2c:	3006      	adds	r0, #6
24051f2e:	f7ff feb9 	bl	24051ca4 <OSPI_ReadBytes>
24051f32:	68a3      	ldr	r3, [r4, #8]
24051f34:	f10d 0219 	add.w	r2, sp, #25
24051f38:	2103      	movs	r1, #3
24051f3a:	6818      	ldr	r0, [r3, #0]
24051f3c:	2301      	movs	r3, #1
24051f3e:	3009      	adds	r0, #9
24051f40:	f7ff feb0 	bl	24051ca4 <OSPI_ReadBytes>
24051f44:	68a3      	ldr	r3, [r4, #8]
24051f46:	f10d 021a 	add.w	r2, sp, #26
24051f4a:	2104      	movs	r1, #4
24051f4c:	6818      	ldr	r0, [r3, #0]
24051f4e:	2301      	movs	r3, #1
24051f50:	3009      	adds	r0, #9
24051f52:	f7ff fea7 	bl	24051ca4 <OSPI_ReadBytes>
24051f56:	68a3      	ldr	r3, [r4, #8]
24051f58:	f10d 021b 	add.w	r2, sp, #27
24051f5c:	2105      	movs	r1, #5
24051f5e:	6818      	ldr	r0, [r3, #0]
24051f60:	2301      	movs	r3, #1
24051f62:	3009      	adds	r0, #9
24051f64:	f7ff fe9e 	bl	24051ca4 <OSPI_ReadBytes>
24051f68:	f89d 301b 	ldrb.w	r3, [sp, #27]
24051f6c:	f89d 2017 	ldrb.w	r2, [sp, #23]
24051f70:	9302      	str	r3, [sp, #8]
24051f72:	f89d 301a 	ldrb.w	r3, [sp, #26]
24051f76:	f89d 1016 	ldrb.w	r1, [sp, #22]
24051f7a:	9301      	str	r3, [sp, #4]
24051f7c:	f89d 3019 	ldrb.w	r3, [sp, #25]
24051f80:	4820      	ldr	r0, [pc, #128]	; (24052004 <init_spansion+0x10c>)
24051f82:	9300      	str	r3, [sp, #0]
24051f84:	f89d 3018 	ldrb.w	r3, [sp, #24]
24051f88:	f008 ff08 	bl	2405ad9c <iprintf>
24051f8c:	68a3      	ldr	r3, [r4, #8]
24051f8e:	7d1b      	ldrb	r3, [r3, #20]
24051f90:	b393      	cbz	r3, 24051ff8 <init_spansion+0x100>
24051f92:	f89d 5018 	ldrb.w	r5, [sp, #24]
24051f96:	f015 0502 	ands.w	r5, r5, #2
24051f9a:	d12d      	bne.n	24051ff8 <init_spansion+0x100>
24051f9c:	f44f 7300 	mov.w	r3, #512	; 0x200
24051fa0:	4819      	ldr	r0, [pc, #100]	; (24052008 <init_spansion+0x110>)
24051fa2:	f8ad 301c 	strh.w	r3, [sp, #28]
24051fa6:	f008 ff5f 	bl	2405ae68 <puts>
24051faa:	f7ff ff4b 	bl	24051e44 <OSPI_NOR_WriteEnable>
24051fae:	68a0      	ldr	r0, [r4, #8]
24051fb0:	2302      	movs	r3, #2
24051fb2:	aa07      	add	r2, sp, #28
24051fb4:	4629      	mov	r1, r5
24051fb6:	6800      	ldr	r0, [r0, #0]
24051fb8:	f7ff fed4 	bl	24051d64 <OSPI_WriteBytes>
24051fbc:	f44f 727a 	mov.w	r2, #1000	; 0x3e8
24051fc0:	4629      	mov	r1, r5
24051fc2:	2001      	movs	r0, #1
24051fc4:	f7ff fe9c 	bl	24051d00 <wait_for_status>
24051fc8:	68a3      	ldr	r3, [r4, #8]
24051fca:	f10d 0216 	add.w	r2, sp, #22
24051fce:	4629      	mov	r1, r5
24051fd0:	6818      	ldr	r0, [r3, #0]
24051fd2:	2301      	movs	r3, #1
24051fd4:	3003      	adds	r0, #3
24051fd6:	f7ff fe65 	bl	24051ca4 <OSPI_ReadBytes>
24051fda:	68a3      	ldr	r3, [r4, #8]
24051fdc:	aa06      	add	r2, sp, #24
24051fde:	4629      	mov	r1, r5
24051fe0:	6818      	ldr	r0, [r3, #0]
24051fe2:	2301      	movs	r3, #1
24051fe4:	3006      	adds	r0, #6
24051fe6:	f7ff fe5d 	bl	24051ca4 <OSPI_ReadBytes>
24051fea:	f89d 2018 	ldrb.w	r2, [sp, #24]
24051fee:	f89d 1016 	ldrb.w	r1, [sp, #22]
24051ff2:	4806      	ldr	r0, [pc, #24]	; (2405200c <init_spansion+0x114>)
24051ff4:	f008 fed2 	bl	2405ad9c <iprintf>
24051ff8:	b009      	add	sp, #36	; 0x24
24051ffa:	bd30      	pop	{r4, r5, pc}
24051ffc:	20000080 	.word	0x20000080
24052000:	00800001 	.word	0x00800001
24052004:	2405fa2f 	.word	0x2405fa2f
24052008:	2405fa5c 	.word	0x2405fa5c
2405200c:	2405fa72 	.word	0x2405fa72

24052010 <init_winbond>:
24052010:	4b6c      	ldr	r3, [pc, #432]	; (240521c4 <init_winbond+0x1b4>)
24052012:	b570      	push	{r4, r5, r6, lr}
24052014:	789a      	ldrb	r2, [r3, #2]
24052016:	b086      	sub	sp, #24
24052018:	8819      	ldrh	r1, [r3, #0]
2405201a:	f88d 200a 	strb.w	r2, [sp, #10]
2405201e:	795a      	ldrb	r2, [r3, #5]
24052020:	f8ad 1008 	strh.w	r1, [sp, #8]
24052024:	f88d 200e 	strb.w	r2, [sp, #14]
24052028:	f8b3 1003 	ldrh.w	r1, [r3, #3]
2405202c:	7a1a      	ldrb	r2, [r3, #8]
2405202e:	f8ad 100c 	strh.w	r1, [sp, #12]
24052032:	f88d 2012 	strb.w	r2, [sp, #18]
24052036:	88d9      	ldrh	r1, [r3, #6]
24052038:	f8b3 2009 	ldrh.w	r2, [r3, #9]
2405203c:	4c62      	ldr	r4, [pc, #392]	; (240521c8 <init_winbond+0x1b8>)
2405203e:	7adb      	ldrb	r3, [r3, #11]
24052040:	f8ad 1010 	strh.w	r1, [sp, #16]
24052044:	2100      	movs	r1, #0
24052046:	f88d 3016 	strb.w	r3, [sp, #22]
2405204a:	68a3      	ldr	r3, [r4, #8]
2405204c:	f8ad 2014 	strh.w	r2, [sp, #20]
24052050:	f10d 0205 	add.w	r2, sp, #5
24052054:	6818      	ldr	r0, [r3, #0]
24052056:	7d1d      	ldrb	r5, [r3, #20]
24052058:	2301      	movs	r3, #1
2405205a:	3003      	adds	r0, #3
2405205c:	f7ff fe22 	bl	24051ca4 <OSPI_ReadBytes>
24052060:	2301      	movs	r3, #1
24052062:	f10d 0206 	add.w	r2, sp, #6
24052066:	2100      	movs	r1, #0
24052068:	a802      	add	r0, sp, #8
2405206a:	f7ff fe1b 	bl	24051ca4 <OSPI_ReadBytes>
2405206e:	2301      	movs	r3, #1
24052070:	f10d 0207 	add.w	r2, sp, #7
24052074:	2100      	movs	r1, #0
24052076:	a803      	add	r0, sp, #12
24052078:	f7ff fe14 	bl	24051ca4 <OSPI_ReadBytes>
2405207c:	f89d 3007 	ldrb.w	r3, [sp, #7]
24052080:	f89d 2006 	ldrb.w	r2, [sp, #6]
24052084:	f89d 1005 	ldrb.w	r1, [sp, #5]
24052088:	4850      	ldr	r0, [pc, #320]	; (240521cc <init_winbond+0x1bc>)
2405208a:	f008 fe87 	bl	2405ad9c <iprintf>
2405208e:	f89d 3005 	ldrb.w	r3, [sp, #5]
24052092:	f013 0ffc 	tst.w	r3, #252	; 0xfc
24052096:	d026      	beq.n	240520e6 <init_winbond+0xd6>
24052098:	2600      	movs	r6, #0
2405209a:	484d      	ldr	r0, [pc, #308]	; (240521d0 <init_winbond+0x1c0>)
2405209c:	f008 fee4 	bl	2405ae68 <puts>
240520a0:	f88d 6005 	strb.w	r6, [sp, #5]
240520a4:	f7ff fece 	bl	24051e44 <OSPI_NOR_WriteEnable>
240520a8:	68a0      	ldr	r0, [r4, #8]
240520aa:	2301      	movs	r3, #1
240520ac:	f10d 0205 	add.w	r2, sp, #5
240520b0:	4631      	mov	r1, r6
240520b2:	6800      	ldr	r0, [r0, #0]
240520b4:	f7ff fe56 	bl	24051d64 <OSPI_WriteBytes>
240520b8:	f44f 727a 	mov.w	r2, #1000	; 0x3e8
240520bc:	4631      	mov	r1, r6
240520be:	2001      	movs	r0, #1
240520c0:	f7ff fe1e 	bl	24051d00 <wait_for_status>
240520c4:	68a3      	ldr	r3, [r4, #8]
240520c6:	4631      	mov	r1, r6
240520c8:	f10d 0205 	add.w	r2, sp, #5
240520cc:	6818      	ldr	r0, [r3, #0]
240520ce:	2301      	movs	r3, #1
240520d0:	3003      	adds	r0, #3
240520d2:	f7ff fde7 	bl	24051ca4 <OSPI_ReadBytes>
240520d6:	f89d 1005 	ldrb.w	r1, [sp, #5]
240520da:	f011 0ffc 	tst.w	r1, #252	; 0xfc
240520de:	d002      	beq.n	240520e6 <init_winbond+0xd6>
240520e0:	483c      	ldr	r0, [pc, #240]	; (240521d4 <init_winbond+0x1c4>)
240520e2:	f008 fe5b 	bl	2405ad9c <iprintf>
240520e6:	f89d 3006 	ldrb.w	r3, [sp, #6]
240520ea:	f013 0f41 	tst.w	r3, #65	; 0x41
240520ee:	d102      	bne.n	240520f6 <init_winbond+0xe6>
240520f0:	b37d      	cbz	r5, 24052152 <init_winbond+0x142>
240520f2:	0799      	lsls	r1, r3, #30
240520f4:	d42d      	bmi.n	24052152 <init_winbond+0x142>
240520f6:	4838      	ldr	r0, [pc, #224]	; (240521d8 <init_winbond+0x1c8>)
240520f8:	f008 feb6 	bl	2405ae68 <puts>
240520fc:	2300      	movs	r3, #0
240520fe:	f88d 3006 	strb.w	r3, [sp, #6]
24052102:	b12d      	cbz	r5, 24052110 <init_winbond+0x100>
24052104:	4835      	ldr	r0, [pc, #212]	; (240521dc <init_winbond+0x1cc>)
24052106:	f008 feaf 	bl	2405ae68 <puts>
2405210a:	2302      	movs	r3, #2
2405210c:	f88d 3006 	strb.w	r3, [sp, #6]
24052110:	f7ff fe98 	bl	24051e44 <OSPI_NOR_WriteEnable>
24052114:	2301      	movs	r3, #1
24052116:	f10d 0206 	add.w	r2, sp, #6
2405211a:	2100      	movs	r1, #0
2405211c:	a804      	add	r0, sp, #16
2405211e:	f7ff fe21 	bl	24051d64 <OSPI_WriteBytes>
24052122:	f44f 727a 	mov.w	r2, #1000	; 0x3e8
24052126:	2100      	movs	r1, #0
24052128:	2001      	movs	r0, #1
2405212a:	f7ff fde9 	bl	24051d00 <wait_for_status>
2405212e:	2100      	movs	r1, #0
24052130:	2301      	movs	r3, #1
24052132:	f10d 0206 	add.w	r2, sp, #6
24052136:	a802      	add	r0, sp, #8
24052138:	f7ff fdb4 	bl	24051ca4 <OSPI_ReadBytes>
2405213c:	f89d 1006 	ldrb.w	r1, [sp, #6]
24052140:	f011 0f41 	tst.w	r1, #65	; 0x41
24052144:	d102      	bne.n	2405214c <init_winbond+0x13c>
24052146:	b125      	cbz	r5, 24052152 <init_winbond+0x142>
24052148:	078a      	lsls	r2, r1, #30
2405214a:	d402      	bmi.n	24052152 <init_winbond+0x142>
2405214c:	4824      	ldr	r0, [pc, #144]	; (240521e0 <init_winbond+0x1d0>)
2405214e:	f008 fe25 	bl	2405ad9c <iprintf>
24052152:	f89d 3007 	ldrb.w	r3, [sp, #7]
24052156:	f003 0364 	and.w	r3, r3, #100	; 0x64
2405215a:	2b40      	cmp	r3, #64	; 0x40
2405215c:	d024      	beq.n	240521a8 <init_winbond+0x198>
2405215e:	4821      	ldr	r0, [pc, #132]	; (240521e4 <init_winbond+0x1d4>)
24052160:	f008 fe1c 	bl	2405ad9c <iprintf>
24052164:	2340      	movs	r3, #64	; 0x40
24052166:	f88d 3007 	strb.w	r3, [sp, #7]
2405216a:	f7ff fe6b 	bl	24051e44 <OSPI_NOR_WriteEnable>
2405216e:	2301      	movs	r3, #1
24052170:	f10d 0207 	add.w	r2, sp, #7
24052174:	2100      	movs	r1, #0
24052176:	a805      	add	r0, sp, #20
24052178:	f7ff fdf4 	bl	24051d64 <OSPI_WriteBytes>
2405217c:	f44f 727a 	mov.w	r2, #1000	; 0x3e8
24052180:	2100      	movs	r1, #0
24052182:	2001      	movs	r0, #1
24052184:	f7ff fdbc 	bl	24051d00 <wait_for_status>
24052188:	2301      	movs	r3, #1
2405218a:	2100      	movs	r1, #0
2405218c:	f10d 0207 	add.w	r2, sp, #7
24052190:	a803      	add	r0, sp, #12
24052192:	f7ff fd87 	bl	24051ca4 <OSPI_ReadBytes>
24052196:	f89d 1007 	ldrb.w	r1, [sp, #7]
2405219a:	f001 0364 	and.w	r3, r1, #100	; 0x64
2405219e:	2b40      	cmp	r3, #64	; 0x40
240521a0:	d002      	beq.n	240521a8 <init_winbond+0x198>
240521a2:	4811      	ldr	r0, [pc, #68]	; (240521e8 <init_winbond+0x1d8>)
240521a4:	f008 fdfa 	bl	2405ad9c <iprintf>
240521a8:	b155      	cbz	r5, 240521c0 <init_winbond+0x1b0>
240521aa:	f89d 3006 	ldrb.w	r3, [sp, #6]
240521ae:	079b      	lsls	r3, r3, #30
240521b0:	d406      	bmi.n	240521c0 <init_winbond+0x1b0>
240521b2:	480e      	ldr	r0, [pc, #56]	; (240521ec <init_winbond+0x1dc>)
240521b4:	f008 fe58 	bl	2405ae68 <puts>
240521b8:	4b0d      	ldr	r3, [pc, #52]	; (240521f0 <init_winbond+0x1e0>)
240521ba:	60a3      	str	r3, [r4, #8]
240521bc:	4b0d      	ldr	r3, [pc, #52]	; (240521f4 <init_winbond+0x1e4>)
240521be:	60e3      	str	r3, [r4, #12]
240521c0:	b006      	add	sp, #24
240521c2:	bd70      	pop	{r4, r5, r6, pc}
240521c4:	2405be28 	.word	0x2405be28
240521c8:	20000080 	.word	0x20000080
240521cc:	2405fa93 	.word	0x2405fa93
240521d0:	2405faba 	.word	0x2405faba
240521d4:	2405fad4 	.word	0x2405fad4
240521d8:	2405faee 	.word	0x2405faee
240521dc:	2405fb08 	.word	0x2405fb08
240521e0:	2405fb1f 	.word	0x2405fb1f
240521e4:	2405fb39 	.word	0x2405fb39
240521e8:	2405fb71 	.word	0x2405fb71
240521ec:	2405fb8b 	.word	0x2405fb8b
240521f0:	2405ffa8 	.word	0x2405ffa8
240521f4:	2405fbbf 	.word	0x2405fbbf

240521f8 <OSPI_Init>:
240521f8:	b573      	push	{r0, r1, r4, r5, r6, lr}
240521fa:	4c31      	ldr	r4, [pc, #196]	; (240522c0 <OSPI_Init+0xc8>)
240521fc:	68a3      	ldr	r3, [r4, #8]
240521fe:	6020      	str	r0, [r4, #0]
24052200:	6818      	ldr	r0, [r3, #0]
24052202:	2300      	movs	r3, #0
24052204:	3012      	adds	r0, #18
24052206:	461a      	mov	r2, r3
24052208:	4619      	mov	r1, r3
2405220a:	f7ff fdab 	bl	24051d64 <OSPI_WriteBytes>
2405220e:	2002      	movs	r0, #2
24052210:	f002 f8ae 	bl	24054370 <HAL_Delay>
24052214:	68a3      	ldr	r3, [r4, #8]
24052216:	6818      	ldr	r0, [r3, #0]
24052218:	2300      	movs	r3, #0
2405221a:	3015      	adds	r0, #21
2405221c:	461a      	mov	r2, r3
2405221e:	4619      	mov	r1, r3
24052220:	f7ff fda0 	bl	24051d64 <OSPI_WriteBytes>
24052224:	2014      	movs	r0, #20
24052226:	f002 f8a3 	bl	24054370 <HAL_Delay>
2405222a:	68a3      	ldr	r3, [r4, #8]
2405222c:	1d22      	adds	r2, r4, #4
2405222e:	2100      	movs	r1, #0
24052230:	6818      	ldr	r0, [r3, #0]
24052232:	2303      	movs	r3, #3
24052234:	300f      	adds	r0, #15
24052236:	f7ff fd35 	bl	24051ca4 <OSPI_ReadBytes>
2405223a:	79a3      	ldrb	r3, [r4, #6]
2405223c:	7962      	ldrb	r2, [r4, #5]
2405223e:	7921      	ldrb	r1, [r4, #4]
24052240:	4820      	ldr	r0, [pc, #128]	; (240522c4 <OSPI_Init+0xcc>)
24052242:	f008 fdab 	bl	2405ad9c <iprintf>
24052246:	6863      	ldr	r3, [r4, #4]
24052248:	f06f 427f 	mvn.w	r2, #4278190080	; 0xff000000
2405224c:	f023 437f 	bic.w	r3, r3, #4278190080	; 0xff000000
24052250:	4293      	cmp	r3, r2
24052252:	d000      	beq.n	24052256 <OSPI_Init+0x5e>
24052254:	b933      	cbnz	r3, 24052264 <OSPI_Init+0x6c>
24052256:	4b1c      	ldr	r3, [pc, #112]	; (240522c8 <OSPI_Init+0xd0>)
24052258:	f240 3149 	movw	r1, #841	; 0x349
2405225c:	4a1b      	ldr	r2, [pc, #108]	; (240522cc <OSPI_Init+0xd4>)
2405225e:	481c      	ldr	r0, [pc, #112]	; (240522d0 <OSPI_Init+0xd8>)
24052260:	f008 fb52 	bl	2405a908 <__assert_func>
24052264:	68a3      	ldr	r3, [r4, #8]
24052266:	f10d 0207 	add.w	r2, sp, #7
2405226a:	2100      	movs	r1, #0
2405226c:	260c      	movs	r6, #12
2405226e:	6818      	ldr	r0, [r3, #0]
24052270:	2301      	movs	r3, #1
24052272:	3003      	adds	r0, #3
24052274:	f7ff fd16 	bl	24051ca4 <OSPI_ReadBytes>
24052278:	f89d 1007 	ldrb.w	r1, [sp, #7]
2405227c:	4815      	ldr	r0, [pc, #84]	; (240522d4 <OSPI_Init+0xdc>)
2405227e:	f008 fd8d 	bl	2405ad9c <iprintf>
24052282:	6865      	ldr	r5, [r4, #4]
24052284:	2200      	movs	r2, #0
24052286:	4b14      	ldr	r3, [pc, #80]	; (240522d8 <OSPI_Init+0xe0>)
24052288:	fb06 f002 	mul.w	r0, r6, r2
2405228c:	58c1      	ldr	r1, [r0, r3]
2405228e:	4069      	eors	r1, r5
24052290:	f031 417f 	bics.w	r1, r1, #4278190080	; 0xff000000
24052294:	d10f      	bne.n	240522b6 <OSPI_Init+0xbe>
24052296:	4403      	add	r3, r0
24052298:	4810      	ldr	r0, [pc, #64]	; (240522dc <OSPI_Init+0xe4>)
2405229a:	689a      	ldr	r2, [r3, #8]
2405229c:	6859      	ldr	r1, [r3, #4]
2405229e:	60a2      	str	r2, [r4, #8]
240522a0:	60e1      	str	r1, [r4, #12]
240522a2:	f008 fd7b 	bl	2405ad9c <iprintf>
240522a6:	68a3      	ldr	r3, [r4, #8]
240522a8:	699b      	ldr	r3, [r3, #24]
240522aa:	b103      	cbz	r3, 240522ae <OSPI_Init+0xb6>
240522ac:	4798      	blx	r3
240522ae:	f7ff fd89 	bl	24051dc4 <OSPI_EnableMemoryMappedMode>
240522b2:	b002      	add	sp, #8
240522b4:	bd70      	pop	{r4, r5, r6, pc}
240522b6:	3201      	adds	r2, #1
240522b8:	2a11      	cmp	r2, #17
240522ba:	d1e5      	bne.n	24052288 <OSPI_Init+0x90>
240522bc:	e7f3      	b.n	240522a6 <OSPI_Init+0xae>
240522be:	bf00      	nop
240522c0:	20000080 	.word	0x20000080
240522c4:	2405fbcb 	.word	0x2405fbcb
240522c8:	2405fbe5 	.word	0x2405fbe5
240522cc:	2405fd09 	.word	0x2405fd09
240522d0:	2405f9ca 	.word	0x2405f9ca
240522d4:	2405fa21 	.word	0x2405fa21
240522d8:	2405ffdc 	.word	0x2405ffdc
240522dc:	2405fc2f 	.word	0x2405fc2f

240522e0 <lcd_backlight_set>:
240522e0:	b537      	push	{r0, r1, r2, r4, r5, lr}
240522e2:	4c12      	ldr	r4, [pc, #72]	; (2405232c <lcd_backlight_set+0x4c>)
240522e4:	4603      	mov	r3, r0
240522e6:	4d12      	ldr	r5, [pc, #72]	; (24052330 <lcd_backlight_set+0x50>)
240522e8:	2208      	movs	r2, #8
240522ea:	9001      	str	r0, [sp, #4]
240522ec:	2100      	movs	r1, #0
240522ee:	4620      	mov	r0, r4
240522f0:	f003 f848 	bl	24055384 <HAL_DAC_SetValue>
240522f4:	9b01      	ldr	r3, [sp, #4]
240522f6:	2208      	movs	r2, #8
240522f8:	2110      	movs	r1, #16
240522fa:	4620      	mov	r0, r4
240522fc:	f003 f842 	bl	24055384 <HAL_DAC_SetValue>
24052300:	9b01      	ldr	r3, [sp, #4]
24052302:	2208      	movs	r2, #8
24052304:	2100      	movs	r1, #0
24052306:	4628      	mov	r0, r5
24052308:	f003 f83c 	bl	24055384 <HAL_DAC_SetValue>
2405230c:	2100      	movs	r1, #0
2405230e:	4620      	mov	r0, r4
24052310:	f003 f80f 	bl	24055332 <HAL_DAC_Start>
24052314:	2110      	movs	r1, #16
24052316:	4620      	mov	r0, r4
24052318:	f003 f80b 	bl	24055332 <HAL_DAC_Start>
2405231c:	2100      	movs	r1, #0
2405231e:	4628      	mov	r0, r5
24052320:	b003      	add	sp, #12
24052322:	e8bd 4030 	ldmia.w	sp!, {r4, r5, lr}
24052326:	f003 b804 	b.w	24055332 <HAL_DAC_Start>
2405232a:	bf00      	nop
2405232c:	200002a0 	.word	0x200002a0
24052330:	200002b4 	.word	0x200002b4

24052334 <lcd_init>:
24052334:	b5f8      	push	{r3, r4, r5, r6, r7, lr}
24052336:	4e9e      	ldr	r6, [pc, #632]	; (240525b0 <lcd_init+0x27c>)
24052338:	4605      	mov	r5, r0
2405233a:	460f      	mov	r7, r1
2405233c:	2200      	movs	r2, #0
2405233e:	2102      	movs	r1, #2
24052340:	4630      	mov	r0, r6
24052342:	4c9c      	ldr	r4, [pc, #624]	; (240525b4 <lcd_init+0x280>)
24052344:	f004 fab0 	bl	240568a8 <HAL_GPIO_WritePin>
24052348:	2001      	movs	r0, #1
2405234a:	f002 f811 	bl	24054370 <HAL_Delay>
2405234e:	4630      	mov	r0, r6
24052350:	2201      	movs	r2, #1
24052352:	2110      	movs	r1, #16
24052354:	f004 faa8 	bl	240568a8 <HAL_GPIO_WritePin>
24052358:	2201      	movs	r2, #1
2405235a:	f44f 5180 	mov.w	r1, #4096	; 0x1000
2405235e:	4620      	mov	r0, r4
24052360:	f004 faa2 	bl	240568a8 <HAL_GPIO_WritePin>
24052364:	2007      	movs	r0, #7
24052366:	f002 f803 	bl	24054370 <HAL_Delay>
2405236a:	2201      	movs	r2, #1
2405236c:	f44f 7180 	mov.w	r1, #256	; 0x100
24052370:	4630      	mov	r0, r6
24052372:	f004 fa99 	bl	240568a8 <HAL_GPIO_WritePin>
24052376:	2002      	movs	r0, #2
24052378:	f001 fffa 	bl	24054370 <HAL_Delay>
2405237c:	2200      	movs	r2, #0
2405237e:	f44f 7180 	mov.w	r1, #256	; 0x100
24052382:	4630      	mov	r0, r6
24052384:	f004 fa90 	bl	240568a8 <HAL_GPIO_WritePin>
24052388:	2002      	movs	r0, #2
2405238a:	f001 fff1 	bl	24054370 <HAL_Delay>
2405238e:	2201      	movs	r2, #1
24052390:	f44f 7180 	mov.w	r1, #256	; 0x100
24052394:	4630      	mov	r0, r6
24052396:	f004 fa87 	bl	240568a8 <HAL_GPIO_WritePin>
2405239a:	200a      	movs	r0, #10
2405239c:	f001 ffe8 	bl	24054370 <HAL_Delay>
240523a0:	2200      	movs	r2, #0
240523a2:	f44f 5180 	mov.w	r1, #4096	; 0x1000
240523a6:	4620      	mov	r0, r4
240523a8:	f004 fa7e 	bl	240568a8 <HAL_GPIO_WritePin>
240523ac:	202d      	movs	r0, #45	; 0x2d
240523ae:	f001 ffdf 	bl	24054370 <HAL_Delay>
240523b2:	2364      	movs	r3, #100	; 0x64
240523b4:	2202      	movs	r2, #2
240523b6:	4980      	ldr	r1, [pc, #512]	; (240525b8 <lcd_init+0x284>)
240523b8:	4628      	mov	r0, r5
240523ba:	4e80      	ldr	r6, [pc, #512]	; (240525bc <lcd_init+0x288>)
240523bc:	f007 fede 	bl	2405a17c <HAL_SPI_Transmit>
240523c0:	2002      	movs	r0, #2
240523c2:	f001 ffd5 	bl	24054370 <HAL_Delay>
240523c6:	4620      	mov	r0, r4
240523c8:	2201      	movs	r2, #1
240523ca:	f44f 5180 	mov.w	r1, #4096	; 0x1000
240523ce:	f004 fa6b 	bl	240568a8 <HAL_GPIO_WritePin>
240523d2:	2200      	movs	r2, #0
240523d4:	f44f 5180 	mov.w	r1, #4096	; 0x1000
240523d8:	4620      	mov	r0, r4
240523da:	f004 fa65 	bl	240568a8 <HAL_GPIO_WritePin>
240523de:	2002      	movs	r0, #2
240523e0:	f001 ffc6 	bl	24054370 <HAL_Delay>
240523e4:	2364      	movs	r3, #100	; 0x64
240523e6:	2202      	movs	r2, #2
240523e8:	4975      	ldr	r1, [pc, #468]	; (240525c0 <lcd_init+0x28c>)
240523ea:	4628      	mov	r0, r5
240523ec:	f007 fec6 	bl	2405a17c <HAL_SPI_Transmit>
240523f0:	2002      	movs	r0, #2
240523f2:	f001 ffbd 	bl	24054370 <HAL_Delay>
240523f6:	4620      	mov	r0, r4
240523f8:	2201      	movs	r2, #1
240523fa:	f44f 5180 	mov.w	r1, #4096	; 0x1000
240523fe:	f004 fa53 	bl	240568a8 <HAL_GPIO_WritePin>
24052402:	2200      	movs	r2, #0
24052404:	f44f 5180 	mov.w	r1, #4096	; 0x1000
24052408:	4620      	mov	r0, r4
2405240a:	f004 fa4d 	bl	240568a8 <HAL_GPIO_WritePin>
2405240e:	2002      	movs	r0, #2
24052410:	f001 ffae 	bl	24054370 <HAL_Delay>
24052414:	2364      	movs	r3, #100	; 0x64
24052416:	2202      	movs	r2, #2
24052418:	496a      	ldr	r1, [pc, #424]	; (240525c4 <lcd_init+0x290>)
2405241a:	4628      	mov	r0, r5
2405241c:	f007 feae 	bl	2405a17c <HAL_SPI_Transmit>
24052420:	2002      	movs	r0, #2
24052422:	f001 ffa5 	bl	24054370 <HAL_Delay>
24052426:	4620      	mov	r0, r4
24052428:	2201      	movs	r2, #1
2405242a:	f44f 5180 	mov.w	r1, #4096	; 0x1000
2405242e:	f004 fa3b 	bl	240568a8 <HAL_GPIO_WritePin>
24052432:	2200      	movs	r2, #0
24052434:	f44f 5180 	mov.w	r1, #4096	; 0x1000
24052438:	4620      	mov	r0, r4
2405243a:	f004 fa35 	bl	240568a8 <HAL_GPIO_WritePin>
2405243e:	2002      	movs	r0, #2
24052440:	f001 ff96 	bl	24054370 <HAL_Delay>
24052444:	2364      	movs	r3, #100	; 0x64
24052446:	4631      	mov	r1, r6
24052448:	2202      	movs	r2, #2
2405244a:	4628      	mov	r0, r5
2405244c:	f007 fe96 	bl	2405a17c <HAL_SPI_Transmit>
24052450:	2002      	movs	r0, #2
24052452:	f001 ff8d 	bl	24054370 <HAL_Delay>
24052456:	4620      	mov	r0, r4
24052458:	2201      	movs	r2, #1
2405245a:	f44f 5180 	mov.w	r1, #4096	; 0x1000
2405245e:	f004 fa23 	bl	240568a8 <HAL_GPIO_WritePin>
24052462:	2200      	movs	r2, #0
24052464:	f44f 5180 	mov.w	r1, #4096	; 0x1000
24052468:	4620      	mov	r0, r4
2405246a:	f004 fa1d 	bl	240568a8 <HAL_GPIO_WritePin>
2405246e:	2002      	movs	r0, #2
24052470:	f001 ff7e 	bl	24054370 <HAL_Delay>
24052474:	2364      	movs	r3, #100	; 0x64
24052476:	1cf1      	adds	r1, r6, #3
24052478:	2202      	movs	r2, #2
2405247a:	4628      	mov	r0, r5
2405247c:	f007 fe7e 	bl	2405a17c <HAL_SPI_Transmit>
24052480:	2002      	movs	r0, #2
24052482:	f001 ff75 	bl	24054370 <HAL_Delay>
24052486:	4620      	mov	r0, r4
24052488:	2201      	movs	r2, #1
2405248a:	f44f 5180 	mov.w	r1, #4096	; 0x1000
2405248e:	f004 fa0b 	bl	240568a8 <HAL_GPIO_WritePin>
24052492:	2200      	movs	r2, #0
24052494:	f44f 5180 	mov.w	r1, #4096	; 0x1000
24052498:	4620      	mov	r0, r4
2405249a:	f004 fa05 	bl	240568a8 <HAL_GPIO_WritePin>
2405249e:	2002      	movs	r0, #2
240524a0:	f001 ff66 	bl	24054370 <HAL_Delay>
240524a4:	2364      	movs	r3, #100	; 0x64
240524a6:	1db1      	adds	r1, r6, #6
240524a8:	2202      	movs	r2, #2
240524aa:	4628      	mov	r0, r5
240524ac:	f007 fe66 	bl	2405a17c <HAL_SPI_Transmit>
240524b0:	2002      	movs	r0, #2
240524b2:	f001 ff5d 	bl	24054370 <HAL_Delay>
240524b6:	4620      	mov	r0, r4
240524b8:	2201      	movs	r2, #1
240524ba:	f44f 5180 	mov.w	r1, #4096	; 0x1000
240524be:	f004 f9f3 	bl	240568a8 <HAL_GPIO_WritePin>
240524c2:	2200      	movs	r2, #0
240524c4:	f44f 5180 	mov.w	r1, #4096	; 0x1000
240524c8:	4620      	mov	r0, r4
240524ca:	f004 f9ed 	bl	240568a8 <HAL_GPIO_WritePin>
240524ce:	2002      	movs	r0, #2
240524d0:	f001 ff4e 	bl	24054370 <HAL_Delay>
240524d4:	2364      	movs	r3, #100	; 0x64
240524d6:	f106 0109 	add.w	r1, r6, #9
240524da:	2202      	movs	r2, #2
240524dc:	4628      	mov	r0, r5
240524de:	f007 fe4d 	bl	2405a17c <HAL_SPI_Transmit>
240524e2:	2002      	movs	r0, #2
240524e4:	f001 ff44 	bl	24054370 <HAL_Delay>
240524e8:	4620      	mov	r0, r4
240524ea:	2201      	movs	r2, #1
240524ec:	f44f 5180 	mov.w	r1, #4096	; 0x1000
240524f0:	f004 f9da 	bl	240568a8 <HAL_GPIO_WritePin>
240524f4:	2200      	movs	r2, #0
240524f6:	f44f 5180 	mov.w	r1, #4096	; 0x1000
240524fa:	4620      	mov	r0, r4
240524fc:	f004 f9d4 	bl	240568a8 <HAL_GPIO_WritePin>
24052500:	2002      	movs	r0, #2
24052502:	f001 ff35 	bl	24054370 <HAL_Delay>
24052506:	2364      	movs	r3, #100	; 0x64
24052508:	2202      	movs	r2, #2
2405250a:	492f      	ldr	r1, [pc, #188]	; (240525c8 <lcd_init+0x294>)
2405250c:	4628      	mov	r0, r5
2405250e:	f007 fe35 	bl	2405a17c <HAL_SPI_Transmit>
24052512:	2002      	movs	r0, #2
24052514:	f001 ff2c 	bl	24054370 <HAL_Delay>
24052518:	4620      	mov	r0, r4
2405251a:	2201      	movs	r2, #1
2405251c:	f44f 5180 	mov.w	r1, #4096	; 0x1000
24052520:	f004 f9c2 	bl	240568a8 <HAL_GPIO_WritePin>
24052524:	2200      	movs	r2, #0
24052526:	f44f 5180 	mov.w	r1, #4096	; 0x1000
2405252a:	4620      	mov	r0, r4
2405252c:	f004 f9bc 	bl	240568a8 <HAL_GPIO_WritePin>
24052530:	2002      	movs	r0, #2
24052532:	f001 ff1d 	bl	24054370 <HAL_Delay>
24052536:	2364      	movs	r3, #100	; 0x64
24052538:	f106 010c 	add.w	r1, r6, #12
2405253c:	2202      	movs	r2, #2
2405253e:	4628      	mov	r0, r5
24052540:	f007 fe1c 	bl	2405a17c <HAL_SPI_Transmit>
24052544:	2002      	movs	r0, #2
24052546:	f001 ff13 	bl	24054370 <HAL_Delay>
2405254a:	4620      	mov	r0, r4
2405254c:	2201      	movs	r2, #1
2405254e:	f44f 5180 	mov.w	r1, #4096	; 0x1000
24052552:	f004 f9a9 	bl	240568a8 <HAL_GPIO_WritePin>
24052556:	2200      	movs	r2, #0
24052558:	f44f 5180 	mov.w	r1, #4096	; 0x1000
2405255c:	4620      	mov	r0, r4
2405255e:	f004 f9a3 	bl	240568a8 <HAL_GPIO_WritePin>
24052562:	2002      	movs	r0, #2
24052564:	f001 ff04 	bl	24054370 <HAL_Delay>
24052568:	2364      	movs	r3, #100	; 0x64
2405256a:	2202      	movs	r2, #2
2405256c:	4917      	ldr	r1, [pc, #92]	; (240525cc <lcd_init+0x298>)
2405256e:	4628      	mov	r0, r5
24052570:	f007 fe04 	bl	2405a17c <HAL_SPI_Transmit>
24052574:	2002      	movs	r0, #2
24052576:	f001 fefb 	bl	24054370 <HAL_Delay>
2405257a:	4620      	mov	r0, r4
2405257c:	4c14      	ldr	r4, [pc, #80]	; (240525d0 <lcd_init+0x29c>)
2405257e:	2201      	movs	r2, #1
24052580:	f44f 5180 	mov.w	r1, #4096	; 0x1000
24052584:	f004 f990 	bl	240568a8 <HAL_GPIO_WritePin>
24052588:	4621      	mov	r1, r4
2405258a:	2200      	movs	r2, #0
2405258c:	4638      	mov	r0, r7
2405258e:	f004 fb17 	bl	24056bc0 <HAL_LTDC_SetAddress>
24052592:	f44f 3216 	mov.w	r2, #153600	; 0x25800
24052596:	2100      	movs	r1, #0
24052598:	6820      	ldr	r0, [r4, #0]
2405259a:	f008 fd7f 	bl	2405b09c <memset>
2405259e:	4b0d      	ldr	r3, [pc, #52]	; (240525d4 <lcd_init+0x2a0>)
240525a0:	f44f 3216 	mov.w	r2, #153600	; 0x25800
240525a4:	2100      	movs	r1, #0
240525a6:	6818      	ldr	r0, [r3, #0]
240525a8:	e8bd 40f8 	ldmia.w	sp!, {r3, r4, r5, r6, r7, lr}
240525ac:	f008 bd76 	b.w	2405b09c <memset>
240525b0:	58020c00 	.word	0x58020c00
240525b4:	58020400 	.word	0x58020400
240525b8:	240600a8 	.word	0x240600a8
240525bc:	2405be34 	.word	0x2405be34
240525c0:	240600ab 	.word	0x240600ab
240525c4:	240600ae 	.word	0x240600ae
240525c8:	240600b1 	.word	0x240600b1
240525cc:	240600b4 	.word	0x240600b4
240525d0:	20000094 	.word	0x20000094
240525d4:	20000098 	.word	0x20000098

240525d8 <HAL_LTDC_ReloadEventCallback>:
240525d8:	4a06      	ldr	r2, [pc, #24]	; (240525f4 <HAL_LTDC_ReloadEventCallback+0x1c>)
240525da:	6813      	ldr	r3, [r2, #0]
240525dc:	3301      	adds	r3, #1
240525de:	6013      	str	r3, [r2, #0]
240525e0:	4b05      	ldr	r3, [pc, #20]	; (240525f8 <HAL_LTDC_ReloadEventCallback+0x20>)
240525e2:	681a      	ldr	r2, [r3, #0]
240525e4:	b91a      	cbnz	r2, 240525ee <HAL_LTDC_ReloadEventCallback+0x16>
240525e6:	4b05      	ldr	r3, [pc, #20]	; (240525fc <HAL_LTDC_ReloadEventCallback+0x24>)
240525e8:	6819      	ldr	r1, [r3, #0]
240525ea:	f004 bae9 	b.w	24056bc0 <HAL_LTDC_SetAddress>
240525ee:	2200      	movs	r2, #0
240525f0:	4b03      	ldr	r3, [pc, #12]	; (24052600 <HAL_LTDC_ReloadEventCallback+0x28>)
240525f2:	e7f9      	b.n	240525e8 <HAL_LTDC_ReloadEventCallback+0x10>
240525f4:	20000204 	.word	0x20000204
240525f8:	20000200 	.word	0x20000200
240525fc:	20000098 	.word	0x20000098
24052600:	20000094 	.word	0x20000094

24052604 <lcd_swap>:
24052604:	b508      	push	{r3, lr}
24052606:	2102      	movs	r1, #2
24052608:	4804      	ldr	r0, [pc, #16]	; (2405261c <lcd_swap+0x18>)
2405260a:	f004 faf9 	bl	24056c00 <HAL_LTDC_Reload>
2405260e:	4a04      	ldr	r2, [pc, #16]	; (24052620 <lcd_swap+0x1c>)
24052610:	6813      	ldr	r3, [r2, #0]
24052612:	fab3 f383 	clz	r3, r3
24052616:	095b      	lsrs	r3, r3, #5
24052618:	6013      	str	r3, [r2, #0]
2405261a:	bd08      	pop	{r3, pc}
2405261c:	200003a8 	.word	0x200003a8
24052620:	20000200 	.word	0x20000200

24052624 <lcd_get_active_buffer>:
24052624:	4b03      	ldr	r3, [pc, #12]	; (24052634 <lcd_get_active_buffer+0x10>)
24052626:	681b      	ldr	r3, [r3, #0]
24052628:	b113      	cbz	r3, 24052630 <lcd_get_active_buffer+0xc>
2405262a:	4b03      	ldr	r3, [pc, #12]	; (24052638 <lcd_get_active_buffer+0x14>)
2405262c:	6818      	ldr	r0, [r3, #0]
2405262e:	4770      	bx	lr
24052630:	4b02      	ldr	r3, [pc, #8]	; (2405263c <lcd_get_active_buffer+0x18>)
24052632:	e7fb      	b.n	2405262c <lcd_get_active_buffer+0x8>
24052634:	20000200 	.word	0x20000200
24052638:	20000098 	.word	0x20000098
2405263c:	20000094 	.word	0x20000094

24052640 <lcd_get_inactive_buffer>:
24052640:	4b03      	ldr	r3, [pc, #12]	; (24052650 <lcd_get_inactive_buffer+0x10>)
24052642:	681b      	ldr	r3, [r3, #0]
24052644:	b113      	cbz	r3, 2405264c <lcd_get_inactive_buffer+0xc>
24052646:	4b03      	ldr	r3, [pc, #12]	; (24052654 <lcd_get_inactive_buffer+0x14>)
24052648:	6818      	ldr	r0, [r3, #0]
2405264a:	4770      	bx	lr
2405264c:	4b02      	ldr	r3, [pc, #8]	; (24052658 <lcd_get_inactive_buffer+0x18>)
2405264e:	e7fb      	b.n	24052648 <lcd_get_inactive_buffer+0x8>
24052650:	20000200 	.word	0x20000200
24052654:	20000094 	.word	0x20000094
24052658:	20000098 	.word	0x20000098

2405265c <lcd_sync>:
2405265c:	b508      	push	{r3, lr}
2405265e:	f7ff ffe1 	bl	24052624 <lcd_get_active_buffer>
24052662:	4601      	mov	r1, r0
24052664:	f7ff ffec 	bl	24052640 <lcd_get_inactive_buffer>
24052668:	4281      	cmp	r1, r0
2405266a:	d005      	beq.n	24052678 <lcd_sync+0x1c>
2405266c:	f44f 3216 	mov.w	r2, #153600	; 0x25800
24052670:	e8bd 4008 	ldmia.w	sp!, {r3, lr}
24052674:	f008 bd9d 	b.w	2405b1b2 <memcpy>
24052678:	bd08      	pop	{r3, pc}
	...

2405267c <lcd_wait_for_vblank>:
2405267c:	4b03      	ldr	r3, [pc, #12]	; (2405268c <lcd_wait_for_vblank+0x10>)
2405267e:	681a      	ldr	r2, [r3, #0]
24052680:	bf00      	nop
24052682:	6819      	ldr	r1, [r3, #0]
24052684:	4291      	cmp	r1, r2
24052686:	d0fb      	beq.n	24052680 <lcd_wait_for_vblank+0x4>
24052688:	4770      	bx	lr
2405268a:	bf00      	nop
2405268c:	20000204 	.word	0x20000204

24052690 <secret_function>:
24052690:	e92d 4ff0 	stmdb	sp!, {r4, r5, r6, r7, r8, r9, sl, fp, lr}
24052694:	f5ad 7d29 	sub.w	sp, sp, #676	; 0x2a4
24052698:	4b98      	ldr	r3, [pc, #608]	; (240528fc <secret_function+0x26c>)
2405269a:	ad1c      	add	r5, sp, #112	; 0x70
2405269c:	f103 0620 	add.w	r6, r3, #32
240526a0:	462c      	mov	r4, r5
240526a2:	6818      	ldr	r0, [r3, #0]
240526a4:	3308      	adds	r3, #8
240526a6:	f853 1c04 	ldr.w	r1, [r3, #-4]
240526aa:	4622      	mov	r2, r4
240526ac:	42b3      	cmp	r3, r6
240526ae:	c203      	stmia	r2!, {r0, r1}
240526b0:	4614      	mov	r4, r2
240526b2:	d1f6      	bne.n	240526a2 <secret_function+0x12>
240526b4:	ac34      	add	r4, sp, #208	; 0xd0
240526b6:	4b92      	ldr	r3, [pc, #584]	; (24052900 <secret_function+0x270>)
240526b8:	4626      	mov	r6, r4
240526ba:	f103 0740 	add.w	r7, r3, #64	; 0x40
240526be:	6818      	ldr	r0, [r3, #0]
240526c0:	3308      	adds	r3, #8
240526c2:	f853 1c04 	ldr.w	r1, [r3, #-4]
240526c6:	4632      	mov	r2, r6
240526c8:	42bb      	cmp	r3, r7
240526ca:	c203      	stmia	r2!, {r0, r1}
240526cc:	4616      	mov	r6, r2
240526ce:	d1f6      	bne.n	240526be <secret_function+0x2e>
240526d0:	4b8c      	ldr	r3, [pc, #560]	; (24052904 <secret_function+0x274>)
240526d2:	ae24      	add	r6, sp, #144	; 0x90
240526d4:	f103 0720 	add.w	r7, r3, #32
240526d8:	6818      	ldr	r0, [r3, #0]
240526da:	3308      	adds	r3, #8
240526dc:	f853 1c04 	ldr.w	r1, [r3, #-4]
240526e0:	4632      	mov	r2, r6
240526e2:	42bb      	cmp	r3, r7
240526e4:	c203      	stmia	r2!, {r0, r1}
240526e6:	4616      	mov	r6, r2
240526e8:	d1f6      	bne.n	240526d8 <secret_function+0x48>
240526ea:	4b87      	ldr	r3, [pc, #540]	; (24052908 <secret_function+0x278>)
240526ec:	ae2c      	add	r6, sp, #176	; 0xb0
240526ee:	f103 0720 	add.w	r7, r3, #32
240526f2:	6818      	ldr	r0, [r3, #0]
240526f4:	3308      	adds	r3, #8
240526f6:	f853 1c04 	ldr.w	r1, [r3, #-4]
240526fa:	4632      	mov	r2, r6
240526fc:	42bb      	cmp	r3, r7
240526fe:	c203      	stmia	r2!, {r0, r1}
24052700:	4616      	mov	r6, r2
24052702:	d1f6      	bne.n	240526f2 <secret_function+0x62>
24052704:	4b81      	ldr	r3, [pc, #516]	; (2405290c <secret_function+0x27c>)
24052706:	ae14      	add	r6, sp, #80	; 0x50
24052708:	f103 0710 	add.w	r7, r3, #16
2405270c:	6818      	ldr	r0, [r3, #0]
2405270e:	3308      	adds	r3, #8
24052710:	f853 1c04 	ldr.w	r1, [r3, #-4]
24052714:	4632      	mov	r2, r6
24052716:	42bb      	cmp	r3, r7
24052718:	c203      	stmia	r2!, {r0, r1}
2405271a:	4616      	mov	r6, r2
2405271c:	d1f6      	bne.n	2405270c <secret_function+0x7c>
2405271e:	4b7c      	ldr	r3, [pc, #496]	; (24052910 <secret_function+0x280>)
24052720:	ae18      	add	r6, sp, #96	; 0x60
24052722:	f103 0710 	add.w	r7, r3, #16
24052726:	6818      	ldr	r0, [r3, #0]
24052728:	3308      	adds	r3, #8
2405272a:	f853 1c04 	ldr.w	r1, [r3, #-4]
2405272e:	4632      	mov	r2, r6
24052730:	42bb      	cmp	r3, r7
24052732:	c203      	stmia	r2!, {r0, r1}
24052734:	4616      	mov	r6, r2
24052736:	d1f6      	bne.n	24052726 <secret_function+0x96>
24052738:	f50d 79ec 	add.w	r9, sp, #472	; 0x1d8
2405273c:	ae44      	add	r6, sp, #272	; 0x110
2405273e:	f04f 0800 	mov.w	r8, #0
24052742:	f44f 77a0 	mov.w	r7, #320	; 0x140
24052746:	f04f 0af0 	mov.w	sl, #240	; 0xf0
2405274a:	f008 f9e5 	bl	2405ab18 <rand>
2405274e:	f108 0801 	add.w	r8, r8, #1
24052752:	fb90 f3f7 	sdiv	r3, r0, r7
24052756:	fb03 0017 	mls	r0, r3, r7, r0
2405275a:	f826 0b02 	strh.w	r0, [r6], #2
2405275e:	f008 f9db 	bl	2405ab18 <rand>
24052762:	f1b8 0f64 	cmp.w	r8, #100	; 0x64
24052766:	fb90 f3fa 	sdiv	r3, r0, sl
2405276a:	fb03 001a 	mls	r0, r3, sl, r0
2405276e:	f829 0b02 	strh.w	r0, [r9], #2
24052772:	d1ea      	bne.n	2405274a <secret_function+0xba>
24052774:	2308      	movs	r3, #8
24052776:	2211      	movs	r2, #17
24052778:	9503      	str	r5, [sp, #12]
2405277a:	f44f 7198 	mov.w	r1, #304	; 0x130
2405277e:	4d65      	ldr	r5, [pc, #404]	; (24052914 <secret_function+0x284>)
24052780:	a80c      	add	r0, sp, #48	; 0x30
24052782:	2600      	movs	r6, #0
24052784:	271e      	movs	r7, #30
24052786:	9502      	str	r5, [sp, #8]
24052788:	e9cd 3200 	strd	r3, r2, [sp]
2405278c:	22e0      	movs	r2, #224	; 0xe0
2405278e:	f7fe fc87 	bl	240510a0 <init_sprite>
24052792:	2210      	movs	r2, #16
24052794:	2112      	movs	r1, #18
24052796:	2308      	movs	r3, #8
24052798:	a810      	add	r0, sp, #64	; 0x40
2405279a:	e9cd 2100 	strd	r2, r1, [sp]
2405279e:	e9cd 5402 	strd	r5, r4, [sp, #8]
240527a2:	2200      	movs	r2, #0
240527a4:	f44f 7190 	mov.w	r1, #288	; 0x120
240527a8:	f7fe fc7a 	bl	240510a0 <init_sprite>
240527ac:	2301      	movs	r3, #1
240527ae:	9607      	str	r6, [sp, #28]
240527b0:	930b      	str	r3, [sp, #44]	; 0x2c
240527b2:	23e0      	movs	r3, #224	; 0xe0
240527b4:	e9cd 6305 	strd	r6, r3, [sp, #20]
240527b8:	f44f 7398 	mov.w	r3, #304	; 0x130
240527bc:	9304      	str	r3, [sp, #16]
240527be:	f7ff ff31 	bl	24052624 <lcd_get_active_buffer>
240527c2:	9b0b      	ldr	r3, [sp, #44]	; 0x2c
240527c4:	4605      	mov	r5, r0
240527c6:	2b00      	cmp	r3, #0
240527c8:	f000 80a6 	beq.w	24052918 <secret_function+0x288>
240527cc:	ac0c      	add	r4, sp, #48	; 0x30
240527ce:	f8bd 8090 	ldrh.w	r8, [sp, #144]	; 0x90
240527d2:	f8bd 90b0 	ldrh.w	r9, [sp, #176]	; 0xb0
240527d6:	68e3      	ldr	r3, [r4, #12]
240527d8:	f8a4 8000 	strh.w	r8, [r4]
240527dc:	f8a4 9002 	strh.w	r9, [r4, #2]
240527e0:	9300      	str	r3, [sp, #0]
240527e2:	e894 000e 	ldmia.w	r4, {r1, r2, r3}
240527e6:	f7fe fc72 	bl	240510ce <render_sprite>
240527ea:	f108 0308 	add.w	r3, r8, #8
240527ee:	4628      	mov	r0, r5
240527f0:	8023      	strh	r3, [r4, #0]
240527f2:	68e3      	ldr	r3, [r4, #12]
240527f4:	9300      	str	r3, [sp, #0]
240527f6:	e894 000e 	ldmia.w	r4, {r1, r2, r3}
240527fa:	f7fe fc68 	bl	240510ce <render_sprite>
240527fe:	f109 0308 	add.w	r3, r9, #8
24052802:	4628      	mov	r0, r5
24052804:	8063      	strh	r3, [r4, #2]
24052806:	68e3      	ldr	r3, [r4, #12]
24052808:	9300      	str	r3, [sp, #0]
2405280a:	e894 000e 	ldmia.w	r4, {r1, r2, r3}
2405280e:	f7fe fc5e 	bl	240510ce <render_sprite>
24052812:	68e3      	ldr	r3, [r4, #12]
24052814:	f8a4 8000 	strh.w	r8, [r4]
24052818:	4628      	mov	r0, r5
2405281a:	9300      	str	r3, [sp, #0]
2405281c:	e894 000e 	ldmia.w	r4, {r1, r2, r3}
24052820:	f7fe fc55 	bl	240510ce <render_sprite>
24052824:	f1b8 0f70 	cmp.w	r8, #112	; 0x70
24052828:	d125      	bne.n	24052876 <secret_function+0x1e6>
2405282a:	f1b9 0f70 	cmp.w	r9, #112	; 0x70
2405282e:	d122      	bne.n	24052876 <secret_function+0x1e6>
24052830:	2300      	movs	r3, #0
24052832:	271e      	movs	r7, #30
24052834:	2605      	movs	r6, #5
24052836:	f8ad 3090 	strh.w	r3, [sp, #144]	; 0x90
2405283a:	f8ad 30b0 	strh.w	r3, [sp, #176]	; 0xb0
2405283e:	930b      	str	r3, [sp, #44]	; 0x2c
24052840:	f7ff ff0c 	bl	2405265c <lcd_sync>
24052844:	f7ff f982 	bl	24051b4c <buttons_get>
24052848:	0583      	lsls	r3, r0, #22
2405284a:	4604      	mov	r4, r0
2405284c:	d501      	bpl.n	24052852 <secret_function+0x1c2>
2405284e:	f002 fd37 	bl	240552c0 <HAL_NVIC_SystemReset>
24052852:	2f00      	cmp	r7, #0
24052854:	f040 80f7 	bne.w	24052a46 <secret_function+0x3b6>
24052858:	f434 7300 	bics.w	r3, r4, #512	; 0x200
2405285c:	bf0c      	ite	eq
2405285e:	2401      	moveq	r4, #1
24052860:	2400      	movne	r4, #0
24052862:	f7ff fecf 	bl	24052604 <lcd_swap>
24052866:	f7ff ff09 	bl	2405267c <lcd_wait_for_vblank>
2405286a:	2c00      	cmp	r4, #0
2405286c:	d1a7      	bne.n	240527be <secret_function+0x12e>
2405286e:	f50d 7d29 	add.w	sp, sp, #676	; 0x2a4
24052872:	e8bd 8ff0 	ldmia.w	sp!, {r4, r5, r6, r7, r8, r9, sl, fp, pc}
24052876:	2e03      	cmp	r6, #3
24052878:	d8e2      	bhi.n	24052840 <secret_function+0x1b0>
2405287a:	e8df f006 	tbb	[pc, r6]
2405287e:	1102      	.short	0x1102
24052880:	2f20      	.short	0x2f20
24052882:	f1a8 0810 	sub.w	r8, r8, #16
24052886:	9b05      	ldr	r3, [sp, #20]
24052888:	fa1f f888 	uxth.w	r8, r8
2405288c:	4598      	cmp	r8, r3
2405288e:	f8ad 8090 	strh.w	r8, [sp, #144]	; 0x90
24052892:	d1d5      	bne.n	24052840 <secret_function+0x1b0>
24052894:	9b06      	ldr	r3, [sp, #24]
24052896:	2601      	movs	r6, #1
24052898:	3b10      	subs	r3, #16
2405289a:	b29b      	uxth	r3, r3
2405289c:	9306      	str	r3, [sp, #24]
2405289e:	e7cf      	b.n	24052840 <secret_function+0x1b0>
240528a0:	f1a9 0910 	sub.w	r9, r9, #16
240528a4:	9b07      	ldr	r3, [sp, #28]
240528a6:	fa1f f989 	uxth.w	r9, r9
240528aa:	4599      	cmp	r9, r3
240528ac:	f8ad 90b0 	strh.w	r9, [sp, #176]	; 0xb0
240528b0:	d1c6      	bne.n	24052840 <secret_function+0x1b0>
240528b2:	9b05      	ldr	r3, [sp, #20]
240528b4:	2602      	movs	r6, #2
240528b6:	3310      	adds	r3, #16
240528b8:	b29b      	uxth	r3, r3
240528ba:	9305      	str	r3, [sp, #20]
240528bc:	e7c0      	b.n	24052840 <secret_function+0x1b0>
240528be:	f108 0810 	add.w	r8, r8, #16
240528c2:	9b04      	ldr	r3, [sp, #16]
240528c4:	fa1f f888 	uxth.w	r8, r8
240528c8:	4598      	cmp	r8, r3
240528ca:	f8ad 8090 	strh.w	r8, [sp, #144]	; 0x90
240528ce:	d1b7      	bne.n	24052840 <secret_function+0x1b0>
240528d0:	9b07      	ldr	r3, [sp, #28]
240528d2:	2603      	movs	r6, #3
240528d4:	3310      	adds	r3, #16
240528d6:	b29b      	uxth	r3, r3
240528d8:	9307      	str	r3, [sp, #28]
240528da:	e7b1      	b.n	24052840 <secret_function+0x1b0>
240528dc:	f109 0910 	add.w	r9, r9, #16
240528e0:	9b06      	ldr	r3, [sp, #24]
240528e2:	fa1f f989 	uxth.w	r9, r9
240528e6:	4599      	cmp	r9, r3
240528e8:	f8ad 90b0 	strh.w	r9, [sp, #176]	; 0xb0
240528ec:	d1a8      	bne.n	24052840 <secret_function+0x1b0>
240528ee:	9b04      	ldr	r3, [sp, #16]
240528f0:	2600      	movs	r6, #0
240528f2:	3b10      	subs	r3, #16
240528f4:	b29b      	uxth	r3, r3
240528f6:	9304      	str	r3, [sp, #16]
240528f8:	e7a2      	b.n	24052840 <secret_function+0x1b0>
240528fa:	bf00      	nop
240528fc:	240600b7 	.word	0x240600b7
24052900:	2405be44 	.word	0x2405be44
24052904:	2405be84 	.word	0x2405be84
24052908:	2405bea4 	.word	0x2405bea4
2405290c:	240600d8 	.word	0x240600d8
24052910:	240600e9 	.word	0x240600e9
24052914:	20000050 	.word	0x20000050
24052918:	2f00      	cmp	r7, #0
2405291a:	d193      	bne.n	24052844 <secret_function+0x1b4>
2405291c:	f50d 79ec 	add.w	r9, sp, #472	; 0x1d8
24052920:	f50d 7888 	add.w	r8, sp, #272	; 0x110
24052924:	463c      	mov	r4, r7
24052926:	4639      	mov	r1, r7
24052928:	f7fe f977 	bl	24050c1a <LCD_Clear>
2405292c:	3401      	adds	r4, #1
2405292e:	f64f 73ff 	movw	r3, #65535	; 0xffff
24052932:	f839 2b02 	ldrh.w	r2, [r9], #2
24052936:	4628      	mov	r0, r5
24052938:	f838 1b02 	ldrh.w	r1, [r8], #2
2405293c:	f7fe f962 	bl	24050c04 <LCD_DrawPixel>
24052940:	2c64      	cmp	r4, #100	; 0x64
24052942:	d1f3      	bne.n	2405292c <secret_function+0x29c>
24052944:	2000      	movs	r0, #0
24052946:	f10d 0b50 	add.w	fp, sp, #80	; 0x50
2405294a:	f7fe f949 	bl	24050be0 <LCD_SetBackColor>
2405294e:	f64f 5080 	movw	r0, #64896	; 0xfd80
24052952:	f7fe f93f 	bl	24050bd4 <LCD_SetTextColor>
24052956:	483e      	ldr	r0, [pc, #248]	; (24052a50 <secret_function+0x3c0>)
24052958:	f7fe f948 	bl	24050bec <LCD_SetFont>
2405295c:	2301      	movs	r3, #1
2405295e:	2260      	movs	r2, #96	; 0x60
24052960:	2100      	movs	r1, #0
24052962:	4628      	mov	r0, r5
24052964:	9300      	str	r3, [sp, #0]
24052966:	4b3b      	ldr	r3, [pc, #236]	; (24052a54 <secret_function+0x3c4>)
24052968:	f10d 0a60 	add.w	sl, sp, #96	; 0x60
2405296c:	f7fe fae6 	bl	24050f3c <LCD_DisplayStringAt>
24052970:	2301      	movs	r3, #1
24052972:	2278      	movs	r2, #120	; 0x78
24052974:	2100      	movs	r1, #0
24052976:	9300      	str	r3, [sp, #0]
24052978:	4628      	mov	r0, r5
2405297a:	4b37      	ldr	r3, [pc, #220]	; (24052a58 <secret_function+0x3c8>)
2405297c:	ac10      	add	r4, sp, #64	; 0x40
2405297e:	f7fe fadd 	bl	24050f3c <LCD_DisplayStringAt>
24052982:	ab24      	add	r3, sp, #144	; 0x90
24052984:	9308      	str	r3, [sp, #32]
24052986:	ab2c      	add	r3, sp, #176	; 0xb0
24052988:	9309      	str	r3, [sp, #36]	; 0x24
2405298a:	2310      	movs	r3, #16
2405298c:	930a      	str	r3, [sp, #40]	; 0x28
2405298e:	2100      	movs	r1, #0
24052990:	4620      	mov	r0, r4
24052992:	f7fe fb93 	bl	240510bc <set_sprite_flip_x>
24052996:	9b08      	ldr	r3, [sp, #32]
24052998:	4628      	mov	r0, r5
2405299a:	f833 8b02 	ldrh.w	r8, [r3], #2
2405299e:	9308      	str	r3, [sp, #32]
240529a0:	9b09      	ldr	r3, [sp, #36]	; 0x24
240529a2:	f8a4 8000 	strh.w	r8, [r4]
240529a6:	f833 9b02 	ldrh.w	r9, [r3], #2
240529aa:	9309      	str	r3, [sp, #36]	; 0x24
240529ac:	68e3      	ldr	r3, [r4, #12]
240529ae:	f8a4 9002 	strh.w	r9, [r4, #2]
240529b2:	9300      	str	r3, [sp, #0]
240529b4:	e894 000e 	ldmia.w	r4, {r1, r2, r3}
240529b8:	f7fe fb89 	bl	240510ce <render_sprite>
240529bc:	f108 0310 	add.w	r3, r8, #16
240529c0:	2101      	movs	r1, #1
240529c2:	4620      	mov	r0, r4
240529c4:	8023      	strh	r3, [r4, #0]
240529c6:	f7fe fb79 	bl	240510bc <set_sprite_flip_x>
240529ca:	68e3      	ldr	r3, [r4, #12]
240529cc:	4628      	mov	r0, r5
240529ce:	9300      	str	r3, [sp, #0]
240529d0:	e894 000e 	ldmia.w	r4, {r1, r2, r3}
240529d4:	f7fe fb7b 	bl	240510ce <render_sprite>
240529d8:	2303      	movs	r3, #3
240529da:	21ff      	movs	r1, #255	; 0xff
240529dc:	f1b9 0f00 	cmp.w	r9, #0
240529e0:	d125      	bne.n	24052a2e <secret_function+0x39e>
240529e2:	f04f 0201 	mov.w	r2, #1
240529e6:	f88a 2000 	strb.w	r2, [sl]
240529ea:	f1b8 0f00 	cmp.w	r8, #0
240529ee:	d124      	bne.n	24052a3a <secret_function+0x3aa>
240529f0:	f04f 0201 	mov.w	r2, #1
240529f4:	f88b 2000 	strb.w	r2, [fp]
240529f8:	f99b 2000 	ldrsb.w	r2, [fp]
240529fc:	3b01      	subs	r3, #1
240529fe:	4442      	add	r2, r8
24052a00:	fa1f f882 	uxth.w	r8, r2
24052a04:	f99a 2000 	ldrsb.w	r2, [sl]
24052a08:	444a      	add	r2, r9
24052a0a:	fa1f f982 	uxth.w	r9, r2
24052a0e:	d1e5      	bne.n	240529dc <secret_function+0x34c>
24052a10:	9b08      	ldr	r3, [sp, #32]
24052a12:	f10b 0b01 	add.w	fp, fp, #1
24052a16:	f10a 0a01 	add.w	sl, sl, #1
24052a1a:	f823 8c02 	strh.w	r8, [r3, #-2]
24052a1e:	9b09      	ldr	r3, [sp, #36]	; 0x24
24052a20:	f823 9c02 	strh.w	r9, [r3, #-2]
24052a24:	9b0a      	ldr	r3, [sp, #40]	; 0x28
24052a26:	3b01      	subs	r3, #1
24052a28:	930a      	str	r3, [sp, #40]	; 0x28
24052a2a:	d1b0      	bne.n	2405298e <secret_function+0x2fe>
24052a2c:	e70a      	b.n	24052844 <secret_function+0x1b4>
24052a2e:	f1b9 0fd0 	cmp.w	r9, #208	; 0xd0
24052a32:	bf08      	it	eq
24052a34:	f88a 1000 	strbeq.w	r1, [sl]
24052a38:	e7d7      	b.n	240529ea <secret_function+0x35a>
24052a3a:	f5b8 7f90 	cmp.w	r8, #288	; 0x120
24052a3e:	bf08      	it	eq
24052a40:	f88b 1000 	strbeq.w	r1, [fp]
24052a44:	e7d8      	b.n	240529f8 <secret_function+0x368>
24052a46:	3f01      	subs	r7, #1
24052a48:	2401      	movs	r4, #1
24052a4a:	b2ff      	uxtb	r7, r7
24052a4c:	e709      	b.n	24052862 <secret_function+0x1d2>
24052a4e:	bf00      	nop
24052a50:	20000018 	.word	0x20000018
24052a54:	2405bec4 	.word	0x2405bec4
24052a58:	2405bed3 	.word	0x2405bed3

24052a5c <about_menu_init>:
24052a5c:	e92d 43f7 	stmdb	sp!, {r0, r1, r2, r4, r5, r6, r7, r8, r9, lr}
24052a60:	2401      	movs	r4, #1
24052a62:	4e70      	ldr	r6, [pc, #448]	; (24052c24 <about_menu_init+0x1c8>)
24052a64:	f64f 70ff 	movw	r0, #65535	; 0xffff
24052a68:	f8df 81c0 	ldr.w	r8, [pc, #448]	; 24052c2c <about_menu_init+0x1d0>
24052a6c:	6034      	str	r4, [r6, #0]
24052a6e:	f7fe f8b1 	bl	24050bd4 <LCD_SetTextColor>
24052a72:	4f6d      	ldr	r7, [pc, #436]	; (24052c28 <about_menu_init+0x1cc>)
24052a74:	486d      	ldr	r0, [pc, #436]	; (24052c2c <about_menu_init+0x1d0>)
24052a76:	f7fe f8b9 	bl	24050bec <LCD_SetFont>
24052a7a:	4620      	mov	r0, r4
24052a7c:	f7fe f8bc 	bl	24050bf8 <LCD_SetFontScale>
24052a80:	6833      	ldr	r3, [r6, #0]
24052a82:	b913      	cbnz	r3, 24052a8a <about_menu_init+0x2e>
24052a84:	b003      	add	sp, #12
24052a86:	e8bd 83f0 	ldmia.w	sp!, {r4, r5, r6, r7, r8, r9, pc}
24052a8a:	f7ff fdcb 	bl	24052624 <lcd_get_active_buffer>
24052a8e:	2100      	movs	r1, #0
24052a90:	4604      	mov	r4, r0
24052a92:	f7fe f8c2 	bl	24050c1a <LCD_Clear>
24052a96:	2003      	movs	r0, #3
24052a98:	f64f 75ff 	movw	r5, #65535	; 0xffff
24052a9c:	f7fe f8ac 	bl	24050bf8 <LCD_SetFontScale>
24052aa0:	f64f 70ff 	movw	r0, #65535	; 0xffff
24052aa4:	f7fe f896 	bl	24050bd4 <LCD_SetTextColor>
24052aa8:	4640      	mov	r0, r8
24052aaa:	f7fe f89f 	bl	24050bec <LCD_SetFont>
24052aae:	f44f 6080 	mov.w	r0, #1024	; 0x400
24052ab2:	f7fe f88f 	bl	24050bd4 <LCD_SetTextColor>
24052ab6:	2350      	movs	r3, #80	; 0x50
24052ab8:	2214      	movs	r2, #20
24052aba:	2128      	movs	r1, #40	; 0x28
24052abc:	4620      	mov	r0, r4
24052abe:	f04f 0940 	mov.w	r9, #64	; 0x40
24052ac2:	f7fe f9d7 	bl	24050e74 <LCD_DisplayChar>
24052ac6:	f64f 5080 	movw	r0, #64896	; 0xfd80
24052aca:	f7fe f883 	bl	24050bd4 <LCD_SetTextColor>
24052ace:	236f      	movs	r3, #111	; 0x6f
24052ad0:	2214      	movs	r2, #20
24052ad2:	2150      	movs	r1, #80	; 0x50
24052ad4:	4620      	mov	r0, r4
24052ad6:	f7fe f9cd 	bl	24050e74 <LCD_DisplayChar>
24052ada:	2010      	movs	r0, #16
24052adc:	f7fe f87a 	bl	24050bd4 <LCD_SetTextColor>
24052ae0:	236e      	movs	r3, #110	; 0x6e
24052ae2:	2214      	movs	r2, #20
24052ae4:	2178      	movs	r1, #120	; 0x78
24052ae6:	4620      	mov	r0, r4
24052ae8:	f7fe f9c4 	bl	24050e74 <LCD_DisplayChar>
24052aec:	f44f 4078 	mov.w	r0, #63488	; 0xf800
24052af0:	f7fe f870 	bl	24050bd4 <LCD_SetTextColor>
24052af4:	2367      	movs	r3, #103	; 0x67
24052af6:	2214      	movs	r2, #20
24052af8:	21a0      	movs	r1, #160	; 0xa0
24052afa:	4620      	mov	r0, r4
24052afc:	f7fe f9ba 	bl	24050e74 <LCD_DisplayChar>
24052b00:	2001      	movs	r0, #1
24052b02:	f7fe f879 	bl	24050bf8 <LCD_SetFontScale>
24052b06:	2308      	movs	r3, #8
24052b08:	4620      	mov	r0, r4
24052b0a:	2240      	movs	r2, #64	; 0x40
24052b0c:	21dc      	movs	r1, #220	; 0xdc
24052b0e:	e9cd 3500 	strd	r3, r5, [sp]
24052b12:	2332      	movs	r3, #50	; 0x32
24052b14:	f7fe f99b 	bl	24050e4e <LCD_FillRect>
24052b18:	4620      	mov	r0, r4
24052b1a:	230a      	movs	r3, #10
24052b1c:	2228      	movs	r2, #40	; 0x28
24052b1e:	f44f 7187 	mov.w	r1, #270	; 0x10e
24052b22:	9500      	str	r5, [sp, #0]
24052b24:	f7fe fa58 	bl	24050fd8 <LCD_FillCircle>
24052b28:	4620      	mov	r0, r4
24052b2a:	23f5      	movs	r3, #245	; 0xf5
24052b2c:	2228      	movs	r2, #40	; 0x28
24052b2e:	21dd      	movs	r1, #221	; 0xdd
24052b30:	f8cd 9000 	str.w	r9, [sp]
24052b34:	9501      	str	r5, [sp, #4]
24052b36:	f7fe f89e 	bl	24050c76 <LCD_DrawLine>
24052b3a:	23f5      	movs	r3, #245	; 0xf5
24052b3c:	2228      	movs	r2, #40	; 0x28
24052b3e:	f240 110d 	movw	r1, #269	; 0x10d
24052b42:	4620      	mov	r0, r4
24052b44:	e9cd 9500 	strd	r9, r5, [sp]
24052b48:	f7fe f895 	bl	24050c76 <LCD_DrawLine>
24052b4c:	f04f 0901 	mov.w	r9, #1
24052b50:	4628      	mov	r0, r5
24052b52:	f7fe f83f 	bl	24050bd4 <LCD_SetTextColor>
24052b56:	4836      	ldr	r0, [pc, #216]	; (24052c30 <about_menu_init+0x1d4>)
24052b58:	f7fe f848 	bl	24050bec <LCD_SetFont>
24052b5c:	4b35      	ldr	r3, [pc, #212]	; (24052c34 <about_menu_init+0x1d8>)
24052b5e:	226e      	movs	r2, #110	; 0x6e
24052b60:	2100      	movs	r1, #0
24052b62:	4620      	mov	r0, r4
24052b64:	f8cd 9000 	str.w	r9, [sp]
24052b68:	f7fe f9e8 	bl	24050f3c <LCD_DisplayStringAt>
24052b6c:	4640      	mov	r0, r8
24052b6e:	f7fe f83d 	bl	24050bec <LCD_SetFont>
24052b72:	f44f 4004 	mov.w	r0, #33792	; 0x8400
24052b76:	f7fe f82d 	bl	24050bd4 <LCD_SetTextColor>
24052b7a:	4b2f      	ldr	r3, [pc, #188]	; (24052c38 <about_menu_init+0x1dc>)
24052b7c:	228c      	movs	r2, #140	; 0x8c
24052b7e:	2100      	movs	r1, #0
24052b80:	4620      	mov	r0, r4
24052b82:	f8cd 9000 	str.w	r9, [sp]
24052b86:	f7fe f9d9 	bl	24050f3c <LCD_DisplayStringAt>
24052b8a:	4628      	mov	r0, r5
24052b8c:	f7fe f822 	bl	24050bd4 <LCD_SetTextColor>
24052b90:	482a      	ldr	r0, [pc, #168]	; (24052c3c <about_menu_init+0x1e0>)
24052b92:	f7fe f82b 	bl	24050bec <LCD_SetFont>
24052b96:	4620      	mov	r0, r4
24052b98:	4b29      	ldr	r3, [pc, #164]	; (24052c40 <about_menu_init+0x1e4>)
24052b9a:	22af      	movs	r2, #175	; 0xaf
24052b9c:	2100      	movs	r1, #0
24052b9e:	f8cd 9000 	str.w	r9, [sp]
24052ba2:	f7fe f9cb 	bl	24050f3c <LCD_DisplayStringAt>
24052ba6:	4620      	mov	r0, r4
24052ba8:	4b26      	ldr	r3, [pc, #152]	; (24052c44 <about_menu_init+0x1e8>)
24052baa:	22c8      	movs	r2, #200	; 0xc8
24052bac:	2100      	movs	r1, #0
24052bae:	f8cd 9000 	str.w	r9, [sp]
24052bb2:	f7fe f9c3 	bl	24050f3c <LCD_DisplayStringAt>
24052bb6:	4620      	mov	r0, r4
24052bb8:	4b23      	ldr	r3, [pc, #140]	; (24052c48 <about_menu_init+0x1ec>)
24052bba:	22d4      	movs	r2, #212	; 0xd4
24052bbc:	2100      	movs	r1, #0
24052bbe:	f8cd 9000 	str.w	r9, [sp]
24052bc2:	f7fe f9bb 	bl	24050f3c <LCD_DisplayStringAt>
24052bc6:	f7fe ffc1 	bl	24051b4c <buttons_get>
24052bca:	4604      	mov	r4, r0
24052bcc:	05a0      	lsls	r0, r4, #22
24052bce:	d501      	bpl.n	24052bd4 <about_menu_init+0x178>
24052bd0:	f002 fb76 	bl	240552c0 <HAL_NVIC_SystemReset>
24052bd4:	683b      	ldr	r3, [r7, #0]
24052bd6:	2b00      	cmp	r3, #0
24052bd8:	dc20      	bgt.n	24052c1c <about_menu_init+0x1c0>
24052bda:	06a1      	lsls	r1, r4, #26
24052bdc:	d501      	bpl.n	24052be2 <about_menu_init+0x186>
24052bde:	2300      	movs	r3, #0
24052be0:	6033      	str	r3, [r6, #0]
24052be2:	07a2      	lsls	r2, r4, #30
24052be4:	bf42      	ittt	mi
24052be6:	4b19      	ldrmi	r3, [pc, #100]	; (24052c4c <about_menu_init+0x1f0>)
24052be8:	2201      	movmi	r2, #1
24052bea:	601a      	strmi	r2, [r3, #0]
24052bec:	0723      	lsls	r3, r4, #28
24052bee:	d506      	bpl.n	24052bfe <about_menu_init+0x1a2>
24052bf0:	4b16      	ldr	r3, [pc, #88]	; (24052c4c <about_menu_init+0x1f0>)
24052bf2:	681b      	ldr	r3, [r3, #0]
24052bf4:	b11b      	cbz	r3, 24052bfe <about_menu_init+0x1a2>
24052bf6:	f7ff fd4b 	bl	24052690 <secret_function>
24052bfa:	230f      	movs	r3, #15
24052bfc:	603b      	str	r3, [r7, #0]
24052bfe:	f034 0302 	bics.w	r3, r4, #2
24052c02:	bf1e      	ittt	ne
24052c04:	4b11      	ldrne	r3, [pc, #68]	; (24052c4c <about_menu_init+0x1f0>)
24052c06:	2200      	movne	r2, #0
24052c08:	601a      	strne	r2, [r3, #0]
24052c0a:	4a11      	ldr	r2, [pc, #68]	; (24052c50 <about_menu_init+0x1f4>)
24052c0c:	6813      	ldr	r3, [r2, #0]
24052c0e:	3301      	adds	r3, #1
24052c10:	6013      	str	r3, [r2, #0]
24052c12:	f7ff fcf7 	bl	24052604 <lcd_swap>
24052c16:	f7ff fd31 	bl	2405267c <lcd_wait_for_vblank>
24052c1a:	e731      	b.n	24052a80 <about_menu_init+0x24>
24052c1c:	3b01      	subs	r3, #1
24052c1e:	603b      	str	r3, [r7, #0]
24052c20:	e7df      	b.n	24052be2 <about_menu_init+0x186>
24052c22:	bf00      	nop
24052c24:	2000009c 	.word	0x2000009c
24052c28:	20000208 	.word	0x20000208
24052c2c:	20000018 	.word	0x20000018
24052c30:	20000010 	.word	0x20000010
24052c34:	2405bedd 	.word	0x2405bedd
24052c38:	2405beec 	.word	0x2405beec
24052c3c:	20000000 	.word	0x20000000
24052c40:	2405bef7 	.word	0x2405bef7
24052c44:	2405bf11 	.word	0x2405bf11
24052c48:	2405bf30 	.word	0x2405bf30
24052c4c:	2000020c 	.word	0x2000020c
24052c50:	20000210 	.word	0x20000210

24052c54 <main_menu_init>:
24052c54:	4ba5      	ldr	r3, [pc, #660]	; (24052eec <main_menu_init+0x298>)
24052c56:	681b      	ldr	r3, [r3, #0]
24052c58:	e92d 4ff7 	stmdb	sp!, {r0, r1, r2, r4, r5, r6, r7, r8, r9, sl, fp, lr}
24052c5c:	b123      	cbz	r3, 24052c68 <main_menu_init+0x14>
24052c5e:	b003      	add	sp, #12
24052c60:	e8bd 4ff0 	ldmia.w	sp!, {r4, r5, r6, r7, r8, r9, sl, fp, lr}
24052c64:	f7fd bb4a 	b.w	240502fc <game_init>
24052c68:	2214      	movs	r2, #20
24052c6a:	2401      	movs	r4, #1
24052c6c:	f8df 92a4 	ldr.w	r9, [pc, #676]	; 24052f14 <main_menu_init+0x2c0>
24052c70:	f64f 70ff 	movw	r0, #65535	; 0xffff
24052c74:	f8df a2a0 	ldr.w	sl, [pc, #672]	; 24052f18 <main_menu_init+0x2c4>
24052c78:	4f9d      	ldr	r7, [pc, #628]	; (24052ef0 <main_menu_init+0x29c>)
24052c7a:	4e9e      	ldr	r6, [pc, #632]	; (24052ef4 <main_menu_init+0x2a0>)
24052c7c:	f8c9 3000 	str.w	r3, [r9]
24052c80:	603a      	str	r2, [r7, #0]
24052c82:	7033      	strb	r3, [r6, #0]
24052c84:	f8ca 4000 	str.w	r4, [sl]
24052c88:	f7fd ffa4 	bl	24050bd4 <LCD_SetTextColor>
24052c8c:	4d9a      	ldr	r5, [pc, #616]	; (24052ef8 <main_menu_init+0x2a4>)
24052c8e:	489b      	ldr	r0, [pc, #620]	; (24052efc <main_menu_init+0x2a8>)
24052c90:	f8df b288 	ldr.w	fp, [pc, #648]	; 24052f1c <main_menu_init+0x2c8>
24052c94:	f7fd ffaa 	bl	24050bec <LCD_SetFont>
24052c98:	4620      	mov	r0, r4
24052c9a:	f7fd ffad 	bl	24050bf8 <LCD_SetFontScale>
24052c9e:	f8da 3000 	ldr.w	r3, [sl]
24052ca2:	b97b      	cbnz	r3, 24052cc4 <main_menu_init+0x70>
24052ca4:	782b      	ldrb	r3, [r5, #0]
24052ca6:	f003 0303 	and.w	r3, r3, #3
24052caa:	2b02      	cmp	r3, #2
24052cac:	f000 8113 	beq.w	24052ed6 <main_menu_init+0x282>
24052cb0:	2b03      	cmp	r3, #3
24052cb2:	f000 8115 	beq.w	24052ee0 <main_menu_init+0x28c>
24052cb6:	2b01      	cmp	r3, #1
24052cb8:	d1d1      	bne.n	24052c5e <main_menu_init+0xa>
24052cba:	b003      	add	sp, #12
24052cbc:	e8bd 4ff0 	ldmia.w	sp!, {r4, r5, r6, r7, r8, r9, sl, fp, lr}
24052cc0:	f000 b986 	b.w	24052fd0 <settings_menu_init>
24052cc4:	f7ff fcae 	bl	24052624 <lcd_get_active_buffer>
24052cc8:	2100      	movs	r1, #0
24052cca:	4604      	mov	r4, r0
24052ccc:	f7fd ffa5 	bl	24050c1a <LCD_Clear>
24052cd0:	f8db 3000 	ldr.w	r3, [fp]
24052cd4:	220a      	movs	r2, #10
24052cd6:	fb93 f1f2 	sdiv	r1, r3, r2
24052cda:	fb02 3311 	mls	r3, r2, r1, r3
24052cde:	b913      	cbnz	r3, 24052ce6 <main_menu_init+0x92>
24052ce0:	7833      	ldrb	r3, [r6, #0]
24052ce2:	3b01      	subs	r3, #1
24052ce4:	7033      	strb	r3, [r6, #0]
24052ce6:	2003      	movs	r0, #3
24052ce8:	f8df 8234 	ldr.w	r8, [pc, #564]	; 24052f20 <main_menu_init+0x2cc>
24052cec:	f7fd ff84 	bl	24050bf8 <LCD_SetFontScale>
24052cf0:	4882      	ldr	r0, [pc, #520]	; (24052efc <main_menu_init+0x2a8>)
24052cf2:	f7fd ff7b 	bl	24050bec <LCD_SetFont>
24052cf6:	7833      	ldrb	r3, [r6, #0]
24052cf8:	f003 0303 	and.w	r3, r3, #3
24052cfc:	f838 0013 	ldrh.w	r0, [r8, r3, lsl #1]
24052d00:	f7fd ff68 	bl	24050bd4 <LCD_SetTextColor>
24052d04:	2214      	movs	r2, #20
24052d06:	2128      	movs	r1, #40	; 0x28
24052d08:	4620      	mov	r0, r4
24052d0a:	2350      	movs	r3, #80	; 0x50
24052d0c:	f7fe f8b2 	bl	24050e74 <LCD_DisplayChar>
24052d10:	7833      	ldrb	r3, [r6, #0]
24052d12:	3301      	adds	r3, #1
24052d14:	f003 0303 	and.w	r3, r3, #3
24052d18:	f838 0013 	ldrh.w	r0, [r8, r3, lsl #1]
24052d1c:	f7fd ff5a 	bl	24050bd4 <LCD_SetTextColor>
24052d20:	2214      	movs	r2, #20
24052d22:	2150      	movs	r1, #80	; 0x50
24052d24:	4620      	mov	r0, r4
24052d26:	236f      	movs	r3, #111	; 0x6f
24052d28:	f7fe f8a4 	bl	24050e74 <LCD_DisplayChar>
24052d2c:	7833      	ldrb	r3, [r6, #0]
24052d2e:	3302      	adds	r3, #2
24052d30:	f003 0303 	and.w	r3, r3, #3
24052d34:	f838 0013 	ldrh.w	r0, [r8, r3, lsl #1]
24052d38:	f7fd ff4c 	bl	24050bd4 <LCD_SetTextColor>
24052d3c:	2214      	movs	r2, #20
24052d3e:	2178      	movs	r1, #120	; 0x78
24052d40:	4620      	mov	r0, r4
24052d42:	236e      	movs	r3, #110	; 0x6e
24052d44:	f7fe f896 	bl	24050e74 <LCD_DisplayChar>
24052d48:	7833      	ldrb	r3, [r6, #0]
24052d4a:	3303      	adds	r3, #3
24052d4c:	f003 0303 	and.w	r3, r3, #3
24052d50:	f838 0013 	ldrh.w	r0, [r8, r3, lsl #1]
24052d54:	f64f 78ff 	movw	r8, #65535	; 0xffff
24052d58:	f7fd ff3c 	bl	24050bd4 <LCD_SetTextColor>
24052d5c:	2367      	movs	r3, #103	; 0x67
24052d5e:	2214      	movs	r2, #20
24052d60:	21a0      	movs	r1, #160	; 0xa0
24052d62:	4620      	mov	r0, r4
24052d64:	f7fe f886 	bl	24050e74 <LCD_DisplayChar>
24052d68:	2001      	movs	r0, #1
24052d6a:	f7fd ff45 	bl	24050bf8 <LCD_SetFontScale>
24052d6e:	2308      	movs	r3, #8
24052d70:	4620      	mov	r0, r4
24052d72:	2240      	movs	r2, #64	; 0x40
24052d74:	21dc      	movs	r1, #220	; 0xdc
24052d76:	e9cd 3800 	strd	r3, r8, [sp]
24052d7a:	2332      	movs	r3, #50	; 0x32
24052d7c:	f7fe f867 	bl	24050e4e <LCD_FillRect>
24052d80:	4620      	mov	r0, r4
24052d82:	230a      	movs	r3, #10
24052d84:	2228      	movs	r2, #40	; 0x28
24052d86:	f44f 7187 	mov.w	r1, #270	; 0x10e
24052d8a:	f8cd 8000 	str.w	r8, [sp]
24052d8e:	f7fe f923 	bl	24050fd8 <LCD_FillCircle>
24052d92:	2340      	movs	r3, #64	; 0x40
24052d94:	4620      	mov	r0, r4
24052d96:	2228      	movs	r2, #40	; 0x28
24052d98:	21dd      	movs	r1, #221	; 0xdd
24052d9a:	f8cd 8004 	str.w	r8, [sp, #4]
24052d9e:	9300      	str	r3, [sp, #0]
24052da0:	23f5      	movs	r3, #245	; 0xf5
24052da2:	f7fd ff68 	bl	24050c76 <LCD_DrawLine>
24052da6:	2340      	movs	r3, #64	; 0x40
24052da8:	4620      	mov	r0, r4
24052daa:	2228      	movs	r2, #40	; 0x28
24052dac:	f240 110d 	movw	r1, #269	; 0x10d
24052db0:	f8cd 8004 	str.w	r8, [sp, #4]
24052db4:	9300      	str	r3, [sp, #0]
24052db6:	23f5      	movs	r3, #245	; 0xf5
24052db8:	f7fd ff5d 	bl	24050c76 <LCD_DrawLine>
24052dbc:	782b      	ldrb	r3, [r5, #0]
24052dbe:	079b      	lsls	r3, r3, #30
24052dc0:	bf18      	it	ne
24052dc2:	4640      	movne	r0, r8
24052dc4:	f04f 0801 	mov.w	r8, #1
24052dc8:	bf08      	it	eq
24052dca:	f44f 4004 	moveq.w	r0, #33792	; 0x8400
24052dce:	f7fd ff01 	bl	24050bd4 <LCD_SetTextColor>
24052dd2:	4620      	mov	r0, r4
24052dd4:	226e      	movs	r2, #110	; 0x6e
24052dd6:	2100      	movs	r1, #0
24052dd8:	4b49      	ldr	r3, [pc, #292]	; (24052f00 <main_menu_init+0x2ac>)
24052dda:	f8cd 8000 	str.w	r8, [sp]
24052dde:	f7fe f8ad 	bl	24050f3c <LCD_DisplayStringAt>
24052de2:	782b      	ldrb	r3, [r5, #0]
24052de4:	f003 0303 	and.w	r3, r3, #3
24052de8:	4543      	cmp	r3, r8
24052dea:	bf0c      	ite	eq
24052dec:	f44f 4004 	moveq.w	r0, #33792	; 0x8400
24052df0:	f64f 70ff 	movwne	r0, #65535	; 0xffff
24052df4:	f7fd feee 	bl	24050bd4 <LCD_SetTextColor>
24052df8:	4620      	mov	r0, r4
24052dfa:	228c      	movs	r2, #140	; 0x8c
24052dfc:	2100      	movs	r1, #0
24052dfe:	4b41      	ldr	r3, [pc, #260]	; (24052f04 <main_menu_init+0x2b0>)
24052e00:	f8cd 8000 	str.w	r8, [sp]
24052e04:	f04f 0801 	mov.w	r8, #1
24052e08:	f7fe f898 	bl	24050f3c <LCD_DisplayStringAt>
24052e0c:	782b      	ldrb	r3, [r5, #0]
24052e0e:	f003 0303 	and.w	r3, r3, #3
24052e12:	2b02      	cmp	r3, #2
24052e14:	bf0c      	ite	eq
24052e16:	f44f 4004 	moveq.w	r0, #33792	; 0x8400
24052e1a:	f64f 70ff 	movwne	r0, #65535	; 0xffff
24052e1e:	f7fd fed9 	bl	24050bd4 <LCD_SetTextColor>
24052e22:	4620      	mov	r0, r4
24052e24:	22aa      	movs	r2, #170	; 0xaa
24052e26:	2100      	movs	r1, #0
24052e28:	4b37      	ldr	r3, [pc, #220]	; (24052f08 <main_menu_init+0x2b4>)
24052e2a:	f8cd 8000 	str.w	r8, [sp]
24052e2e:	f7fe f885 	bl	24050f3c <LCD_DisplayStringAt>
24052e32:	782b      	ldrb	r3, [r5, #0]
24052e34:	f003 0303 	and.w	r3, r3, #3
24052e38:	2b03      	cmp	r3, #3
24052e3a:	bf0c      	ite	eq
24052e3c:	f44f 4004 	moveq.w	r0, #33792	; 0x8400
24052e40:	f64f 70ff 	movwne	r0, #65535	; 0xffff
24052e44:	f7fd fec6 	bl	24050bd4 <LCD_SetTextColor>
24052e48:	4620      	mov	r0, r4
24052e4a:	4b30      	ldr	r3, [pc, #192]	; (24052f0c <main_menu_init+0x2b8>)
24052e4c:	22c8      	movs	r2, #200	; 0xc8
24052e4e:	2100      	movs	r1, #0
24052e50:	f8cd 8000 	str.w	r8, [sp]
24052e54:	f7fe f872 	bl	24050f3c <LCD_DisplayStringAt>
24052e58:	f7fe fe78 	bl	24051b4c <buttons_get>
24052e5c:	4604      	mov	r4, r0
24052e5e:	05a0      	lsls	r0, r4, #22
24052e60:	d501      	bpl.n	24052e66 <main_menu_init+0x212>
24052e62:	f002 fa2d 	bl	240552c0 <HAL_NVIC_SystemReset>
24052e66:	f434 7300 	bics.w	r3, r4, #512	; 0x200
24052e6a:	bf1c      	itt	ne
24052e6c:	2300      	movne	r3, #0
24052e6e:	f8c9 3000 	strne.w	r3, [r9]
24052e72:	683b      	ldr	r3, [r7, #0]
24052e74:	2b00      	cmp	r3, #0
24052e76:	dc2b      	bgt.n	24052ed0 <main_menu_init+0x27c>
24052e78:	07a1      	lsls	r1, r4, #30
24052e7a:	d504      	bpl.n	24052e86 <main_menu_init+0x232>
24052e7c:	782b      	ldrb	r3, [r5, #0]
24052e7e:	3b01      	subs	r3, #1
24052e80:	702b      	strb	r3, [r5, #0]
24052e82:	230a      	movs	r3, #10
24052e84:	603b      	str	r3, [r7, #0]
24052e86:	0722      	lsls	r2, r4, #28
24052e88:	d504      	bpl.n	24052e94 <main_menu_init+0x240>
24052e8a:	782b      	ldrb	r3, [r5, #0]
24052e8c:	3301      	adds	r3, #1
24052e8e:	702b      	strb	r3, [r5, #0]
24052e90:	230a      	movs	r3, #10
24052e92:	603b      	str	r3, [r7, #0]
24052e94:	06e3      	lsls	r3, r4, #27
24052e96:	d502      	bpl.n	24052e9e <main_menu_init+0x24a>
24052e98:	2300      	movs	r3, #0
24052e9a:	f8ca 3000 	str.w	r3, [sl]
24052e9e:	f8db 3000 	ldr.w	r3, [fp]
24052ea2:	3301      	adds	r3, #1
24052ea4:	f8cb 3000 	str.w	r3, [fp]
24052ea8:	f8d9 3000 	ldr.w	r3, [r9]
24052eac:	3301      	adds	r3, #1
24052eae:	f5b3 7f7a 	cmp.w	r3, #1000	; 0x3e8
24052eb2:	f8c9 3000 	str.w	r3, [r9]
24052eb6:	dd06      	ble.n	24052ec6 <main_menu_init+0x272>
24052eb8:	4b15      	ldr	r3, [pc, #84]	; (24052f10 <main_menu_init+0x2bc>)
24052eba:	2201      	movs	r2, #1
24052ebc:	601a      	str	r2, [r3, #0]
24052ebe:	f7fd fa1d 	bl	240502fc <game_init>
24052ec2:	2314      	movs	r3, #20
24052ec4:	603b      	str	r3, [r7, #0]
24052ec6:	f7ff fb9d 	bl	24052604 <lcd_swap>
24052eca:	f7ff fbd7 	bl	2405267c <lcd_wait_for_vblank>
24052ece:	e6e6      	b.n	24052c9e <main_menu_init+0x4a>
24052ed0:	3b01      	subs	r3, #1
24052ed2:	603b      	str	r3, [r7, #0]
24052ed4:	e7e3      	b.n	24052e9e <main_menu_init+0x24a>
24052ed6:	b003      	add	sp, #12
24052ed8:	e8bd 4ff0 	ldmia.w	sp!, {r4, r5, r6, r7, r8, r9, sl, fp, lr}
24052edc:	f7ff bdbe 	b.w	24052a5c <about_menu_init>
24052ee0:	b003      	add	sp, #12
24052ee2:	e8bd 4ff0 	ldmia.w	sp!, {r4, r5, r6, r7, r8, r9, sl, fp, lr}
24052ee6:	f002 b9eb 	b.w	240552c0 <HAL_NVIC_SystemReset>
24052eea:	bf00      	nop
24052eec:	20000220 	.word	0x20000220
24052ef0:	20000214 	.word	0x20000214
24052ef4:	2000022c 	.word	0x2000022c
24052ef8:	20000224 	.word	0x20000224
24052efc:	20000018 	.word	0x20000018
24052f00:	2405bf45 	.word	0x2405bf45
24052f04:	2405bf4c 	.word	0x2405bf4c
24052f08:	2405bf56 	.word	0x2405bf56
24052f0c:	2405bf5d 	.word	0x2405bf5d
24052f10:	20000180 	.word	0x20000180
24052f14:	20000218 	.word	0x20000218
24052f18:	2000021c 	.word	0x2000021c
24052f1c:	20000228 	.word	0x20000228
24052f20:	240600fa 	.word	0x240600fa

24052f24 <change_settings>:
24052f24:	4b22      	ldr	r3, [pc, #136]	; (24052fb0 <change_settings+0x8c>)
24052f26:	781b      	ldrb	r3, [r3, #0]
24052f28:	f003 0303 	and.w	r3, r3, #3
24052f2c:	2b02      	cmp	r3, #2
24052f2e:	d02a      	beq.n	24052f86 <change_settings+0x62>
24052f30:	2b03      	cmp	r3, #3
24052f32:	d038      	beq.n	24052fa6 <change_settings+0x82>
24052f34:	2b01      	cmp	r3, #1
24052f36:	d015      	beq.n	24052f64 <change_settings+0x40>
24052f38:	4b1e      	ldr	r3, [pc, #120]	; (24052fb4 <change_settings+0x90>)
24052f3a:	781a      	ldrb	r2, [r3, #0]
24052f3c:	2a01      	cmp	r2, #1
24052f3e:	d00a      	beq.n	24052f56 <change_settings+0x32>
24052f40:	2a02      	cmp	r2, #2
24052f42:	d00c      	beq.n	24052f5e <change_settings+0x3a>
24052f44:	2a00      	cmp	r2, #0
24052f46:	d131      	bne.n	24052fac <change_settings+0x88>
24052f48:	2801      	cmp	r0, #1
24052f4a:	d102      	bne.n	24052f52 <change_settings+0x2e>
24052f4c:	2201      	movs	r2, #1
24052f4e:	701a      	strb	r2, [r3, #0]
24052f50:	4770      	bx	lr
24052f52:	2202      	movs	r2, #2
24052f54:	e7fb      	b.n	24052f4e <change_settings+0x2a>
24052f56:	2801      	cmp	r0, #1
24052f58:	d0fb      	beq.n	24052f52 <change_settings+0x2e>
24052f5a:	2200      	movs	r2, #0
24052f5c:	e7f7      	b.n	24052f4e <change_settings+0x2a>
24052f5e:	2801      	cmp	r0, #1
24052f60:	d0fb      	beq.n	24052f5a <change_settings+0x36>
24052f62:	e7f3      	b.n	24052f4c <change_settings+0x28>
24052f64:	4a14      	ldr	r2, [pc, #80]	; (24052fb8 <change_settings+0x94>)
24052f66:	2801      	cmp	r0, #1
24052f68:	7813      	ldrb	r3, [r2, #0]
24052f6a:	bf0c      	ite	eq
24052f6c:	3301      	addeq	r3, #1
24052f6e:	f103 33ff 	addne.w	r3, r3, #4294967295
24052f72:	b2db      	uxtb	r3, r3
24052f74:	f003 030f 	and.w	r3, r3, #15
24052f78:	7013      	strb	r3, [r2, #0]
24052f7a:	4a10      	ldr	r2, [pc, #64]	; (24052fbc <change_settings+0x98>)
24052f7c:	f832 2013 	ldrh.w	r2, [r2, r3, lsl #1]
24052f80:	4b0f      	ldr	r3, [pc, #60]	; (24052fc0 <change_settings+0x9c>)
24052f82:	801a      	strh	r2, [r3, #0]
24052f84:	4770      	bx	lr
24052f86:	4a0f      	ldr	r2, [pc, #60]	; (24052fc4 <change_settings+0xa0>)
24052f88:	2801      	cmp	r0, #1
24052f8a:	7813      	ldrb	r3, [r2, #0]
24052f8c:	bf0c      	ite	eq
24052f8e:	3301      	addeq	r3, #1
24052f90:	f103 33ff 	addne.w	r3, r3, #4294967295
24052f94:	b2db      	uxtb	r3, r3
24052f96:	f003 030f 	and.w	r3, r3, #15
24052f9a:	7013      	strb	r3, [r2, #0]
24052f9c:	4a07      	ldr	r2, [pc, #28]	; (24052fbc <change_settings+0x98>)
24052f9e:	f832 2013 	ldrh.w	r2, [r2, r3, lsl #1]
24052fa2:	4b09      	ldr	r3, [pc, #36]	; (24052fc8 <change_settings+0xa4>)
24052fa4:	e7ed      	b.n	24052f82 <change_settings+0x5e>
24052fa6:	4b09      	ldr	r3, [pc, #36]	; (24052fcc <change_settings+0xa8>)
24052fa8:	2200      	movs	r2, #0
24052faa:	601a      	str	r2, [r3, #0]
24052fac:	4770      	bx	lr
24052fae:	bf00      	nop
24052fb0:	20000237 	.word	0x20000237
24052fb4:	20000235 	.word	0x20000235
24052fb8:	20000236 	.word	0x20000236
24052fbc:	24060102 	.word	0x24060102
24052fc0:	200000a8 	.word	0x200000a8
24052fc4:	20000234 	.word	0x20000234
24052fc8:	200000a0 	.word	0x200000a0
24052fcc:	200000a4 	.word	0x200000a4

24052fd0 <settings_menu_init>:
24052fd0:	e92d 4ff7 	stmdb	sp!, {r0, r1, r2, r4, r5, r6, r7, r8, r9, sl, fp, lr}
24052fd4:	230a      	movs	r3, #10
24052fd6:	4e86      	ldr	r6, [pc, #536]	; (240531f0 <settings_menu_init+0x220>)
24052fd8:	2401      	movs	r4, #1
24052fda:	4d86      	ldr	r5, [pc, #536]	; (240531f4 <settings_menu_init+0x224>)
24052fdc:	6033      	str	r3, [r6, #0]
24052fde:	2300      	movs	r3, #0
24052fe0:	4f85      	ldr	r7, [pc, #532]	; (240531f8 <settings_menu_init+0x228>)
24052fe2:	f64f 70ff 	movw	r0, #65535	; 0xffff
24052fe6:	f8df 8234 	ldr.w	r8, [pc, #564]	; 2405321c <settings_menu_init+0x24c>
24052fea:	702b      	strb	r3, [r5, #0]
24052fec:	603c      	str	r4, [r7, #0]
24052fee:	f108 0a14 	add.w	sl, r8, #20
24052ff2:	f7fd fdef 	bl	24050bd4 <LCD_SetTextColor>
24052ff6:	f8df 9228 	ldr.w	r9, [pc, #552]	; 24053220 <settings_menu_init+0x250>
24052ffa:	4880      	ldr	r0, [pc, #512]	; (240531fc <settings_menu_init+0x22c>)
24052ffc:	f7fd fdf6 	bl	24050bec <LCD_SetFont>
24053000:	4620      	mov	r0, r4
24053002:	f7fd fdf9 	bl	24050bf8 <LCD_SetFontScale>
24053006:	683b      	ldr	r3, [r7, #0]
24053008:	b913      	cbnz	r3, 24053010 <settings_menu_init+0x40>
2405300a:	b003      	add	sp, #12
2405300c:	e8bd 8ff0 	ldmia.w	sp!, {r4, r5, r6, r7, r8, r9, sl, fp, pc}
24053010:	f7ff fb08 	bl	24052624 <lcd_get_active_buffer>
24053014:	2100      	movs	r1, #0
24053016:	4604      	mov	r4, r0
24053018:	f7fd fdff 	bl	24050c1a <LCD_Clear>
2405301c:	f64f 70ff 	movw	r0, #65535	; 0xffff
24053020:	f7fd fdd8 	bl	24050bd4 <LCD_SetTextColor>
24053024:	2002      	movs	r0, #2
24053026:	f7fd fde7 	bl	24050bf8 <LCD_SetFontScale>
2405302a:	2353      	movs	r3, #83	; 0x53
2405302c:	2214      	movs	r2, #20
2405302e:	2128      	movs	r1, #40	; 0x28
24053030:	4620      	mov	r0, r4
24053032:	f7fd ff1f 	bl	24050e74 <LCD_DisplayChar>
24053036:	2365      	movs	r3, #101	; 0x65
24053038:	2214      	movs	r2, #20
2405303a:	2146      	movs	r1, #70	; 0x46
2405303c:	4620      	mov	r0, r4
2405303e:	f7fd ff19 	bl	24050e74 <LCD_DisplayChar>
24053042:	2374      	movs	r3, #116	; 0x74
24053044:	2214      	movs	r2, #20
24053046:	2164      	movs	r1, #100	; 0x64
24053048:	4620      	mov	r0, r4
2405304a:	f7fd ff13 	bl	24050e74 <LCD_DisplayChar>
2405304e:	2374      	movs	r3, #116	; 0x74
24053050:	2214      	movs	r2, #20
24053052:	2182      	movs	r1, #130	; 0x82
24053054:	4620      	mov	r0, r4
24053056:	f7fd ff0d 	bl	24050e74 <LCD_DisplayChar>
2405305a:	2369      	movs	r3, #105	; 0x69
2405305c:	2214      	movs	r2, #20
2405305e:	21a0      	movs	r1, #160	; 0xa0
24053060:	4620      	mov	r0, r4
24053062:	f7fd ff07 	bl	24050e74 <LCD_DisplayChar>
24053066:	236e      	movs	r3, #110	; 0x6e
24053068:	2214      	movs	r2, #20
2405306a:	21be      	movs	r1, #190	; 0xbe
2405306c:	4620      	mov	r0, r4
2405306e:	f7fd ff01 	bl	24050e74 <LCD_DisplayChar>
24053072:	2367      	movs	r3, #103	; 0x67
24053074:	2214      	movs	r2, #20
24053076:	21dc      	movs	r1, #220	; 0xdc
24053078:	4620      	mov	r0, r4
2405307a:	f7fd fefb 	bl	24050e74 <LCD_DisplayChar>
2405307e:	21fa      	movs	r1, #250	; 0xfa
24053080:	2373      	movs	r3, #115	; 0x73
24053082:	2214      	movs	r2, #20
24053084:	4620      	mov	r0, r4
24053086:	f7fd fef5 	bl	24050e74 <LCD_DisplayChar>
2405308a:	2001      	movs	r0, #1
2405308c:	f7fd fdb4 	bl	24050bf8 <LCD_SetFontScale>
24053090:	782b      	ldrb	r3, [r5, #0]
24053092:	0798      	lsls	r0, r3, #30
24053094:	bf0c      	ite	eq
24053096:	f44f 4004 	moveq.w	r0, #33792	; 0x8400
2405309a:	f64f 70ff 	movwne	r0, #65535	; 0xffff
2405309e:	f7fd fd99 	bl	24050bd4 <LCD_SetTextColor>
240530a2:	f899 1000 	ldrb.w	r1, [r9]
240530a6:	2901      	cmp	r1, #1
240530a8:	f000 8097 	beq.w	240531da <settings_menu_init+0x20a>
240530ac:	2902      	cmp	r1, #2
240530ae:	f04f 0301 	mov.w	r3, #1
240530b2:	f000 8097 	beq.w	240531e4 <settings_menu_init+0x214>
240530b6:	b929      	cbnz	r1, 240530c4 <settings_menu_init+0xf4>
240530b8:	9300      	str	r3, [sp, #0]
240530ba:	226e      	movs	r2, #110	; 0x6e
240530bc:	4b50      	ldr	r3, [pc, #320]	; (24053200 <settings_menu_init+0x230>)
240530be:	4620      	mov	r0, r4
240530c0:	f7fd ff3c 	bl	24050f3c <LCD_DisplayStringAt>
240530c4:	782b      	ldrb	r3, [r5, #0]
240530c6:	f04f 0b01 	mov.w	fp, #1
240530ca:	f003 0303 	and.w	r3, r3, #3
240530ce:	2b01      	cmp	r3, #1
240530d0:	bf0c      	ite	eq
240530d2:	f44f 4004 	moveq.w	r0, #33792	; 0x8400
240530d6:	f64f 70ff 	movwne	r0, #65535	; 0xffff
240530da:	f7fd fd7b 	bl	24050bd4 <LCD_SetTextColor>
240530de:	4620      	mov	r0, r4
240530e0:	4b48      	ldr	r3, [pc, #288]	; (24053204 <settings_menu_init+0x234>)
240530e2:	228c      	movs	r2, #140	; 0x8c
240530e4:	2100      	movs	r1, #0
240530e6:	f8cd b000 	str.w	fp, [sp]
240530ea:	f7fd ff27 	bl	24050f3c <LCD_DisplayStringAt>
240530ee:	4b46      	ldr	r3, [pc, #280]	; (24053208 <settings_menu_init+0x238>)
240530f0:	4620      	mov	r0, r4
240530f2:	2296      	movs	r2, #150	; 0x96
240530f4:	881b      	ldrh	r3, [r3, #0]
240530f6:	21fa      	movs	r1, #250	; 0xfa
240530f8:	9301      	str	r3, [sp, #4]
240530fa:	2308      	movs	r3, #8
240530fc:	9300      	str	r3, [sp, #0]
240530fe:	2332      	movs	r3, #50	; 0x32
24053100:	f7fd fea5 	bl	24050e4e <LCD_FillRect>
24053104:	782b      	ldrb	r3, [r5, #0]
24053106:	f003 0303 	and.w	r3, r3, #3
2405310a:	2b02      	cmp	r3, #2
2405310c:	bf0c      	ite	eq
2405310e:	f44f 4004 	moveq.w	r0, #33792	; 0x8400
24053112:	f64f 70ff 	movwne	r0, #65535	; 0xffff
24053116:	f7fd fd5d 	bl	24050bd4 <LCD_SetTextColor>
2405311a:	4620      	mov	r0, r4
2405311c:	4b3b      	ldr	r3, [pc, #236]	; (2405320c <settings_menu_init+0x23c>)
2405311e:	22aa      	movs	r2, #170	; 0xaa
24053120:	2100      	movs	r1, #0
24053122:	f8cd b000 	str.w	fp, [sp]
24053126:	f7fd ff09 	bl	24050f3c <LCD_DisplayStringAt>
2405312a:	4b39      	ldr	r3, [pc, #228]	; (24053210 <settings_menu_init+0x240>)
2405312c:	4620      	mov	r0, r4
2405312e:	22b4      	movs	r2, #180	; 0xb4
24053130:	881b      	ldrh	r3, [r3, #0]
24053132:	f240 1113 	movw	r1, #275	; 0x113
24053136:	9300      	str	r3, [sp, #0]
24053138:	230a      	movs	r3, #10
2405313a:	f7fd ff4d 	bl	24050fd8 <LCD_FillCircle>
2405313e:	782b      	ldrb	r3, [r5, #0]
24053140:	f003 0303 	and.w	r3, r3, #3
24053144:	2b03      	cmp	r3, #3
24053146:	bf0c      	ite	eq
24053148:	f44f 4004 	moveq.w	r0, #33792	; 0x8400
2405314c:	f64f 70ff 	movwne	r0, #65535	; 0xffff
24053150:	f7fd fd40 	bl	24050bd4 <LCD_SetTextColor>
24053154:	2301      	movs	r3, #1
24053156:	2100      	movs	r1, #0
24053158:	4620      	mov	r0, r4
2405315a:	22c8      	movs	r2, #200	; 0xc8
2405315c:	9300      	str	r3, [sp, #0]
2405315e:	4b2d      	ldr	r3, [pc, #180]	; (24053214 <settings_menu_init+0x244>)
24053160:	f7fd feec 	bl	24050f3c <LCD_DisplayStringAt>
24053164:	f7fe fcf2 	bl	24051b4c <buttons_get>
24053168:	0581      	lsls	r1, r0, #22
2405316a:	4604      	mov	r4, r0
2405316c:	d501      	bpl.n	24053172 <settings_menu_init+0x1a2>
2405316e:	f002 f8a7 	bl	240552c0 <HAL_NVIC_SystemReset>
24053172:	6833      	ldr	r3, [r6, #0]
24053174:	2b00      	cmp	r3, #0
24053176:	dc38      	bgt.n	240531ea <settings_menu_init+0x21a>
24053178:	07a2      	lsls	r2, r4, #30
2405317a:	d504      	bpl.n	24053186 <settings_menu_init+0x1b6>
2405317c:	782b      	ldrb	r3, [r5, #0]
2405317e:	3b01      	subs	r3, #1
24053180:	702b      	strb	r3, [r5, #0]
24053182:	230a      	movs	r3, #10
24053184:	6033      	str	r3, [r6, #0]
24053186:	0723      	lsls	r3, r4, #28
24053188:	d504      	bpl.n	24053194 <settings_menu_init+0x1c4>
2405318a:	782b      	ldrb	r3, [r5, #0]
2405318c:	3301      	adds	r3, #1
2405318e:	702b      	strb	r3, [r5, #0]
24053190:	230a      	movs	r3, #10
24053192:	6033      	str	r3, [r6, #0]
24053194:	07e0      	lsls	r0, r4, #31
24053196:	d505      	bpl.n	240531a4 <settings_menu_init+0x1d4>
24053198:	230a      	movs	r3, #10
2405319a:	f04f 30ff 	mov.w	r0, #4294967295
2405319e:	6033      	str	r3, [r6, #0]
240531a0:	f7ff fec0 	bl	24052f24 <change_settings>
240531a4:	0761      	lsls	r1, r4, #29
240531a6:	d504      	bpl.n	240531b2 <settings_menu_init+0x1e2>
240531a8:	230a      	movs	r3, #10
240531aa:	2001      	movs	r0, #1
240531ac:	6033      	str	r3, [r6, #0]
240531ae:	f7ff feb9 	bl	24052f24 <change_settings>
240531b2:	06e2      	lsls	r2, r4, #27
240531b4:	d504      	bpl.n	240531c0 <settings_menu_init+0x1f0>
240531b6:	230a      	movs	r3, #10
240531b8:	2001      	movs	r0, #1
240531ba:	6033      	str	r3, [r6, #0]
240531bc:	f7ff feb2 	bl	24052f24 <change_settings>
240531c0:	06a3      	lsls	r3, r4, #26
240531c2:	4a15      	ldr	r2, [pc, #84]	; (24053218 <settings_menu_init+0x248>)
240531c4:	bf44      	itt	mi
240531c6:	2300      	movmi	r3, #0
240531c8:	603b      	strmi	r3, [r7, #0]
240531ca:	6813      	ldr	r3, [r2, #0]
240531cc:	3301      	adds	r3, #1
240531ce:	6013      	str	r3, [r2, #0]
240531d0:	f7ff fa18 	bl	24052604 <lcd_swap>
240531d4:	f7ff fa52 	bl	2405267c <lcd_wait_for_vblank>
240531d8:	e715      	b.n	24053006 <settings_menu_init+0x36>
240531da:	4643      	mov	r3, r8
240531dc:	9100      	str	r1, [sp, #0]
240531de:	226e      	movs	r2, #110	; 0x6e
240531e0:	2100      	movs	r1, #0
240531e2:	e76c      	b.n	240530be <settings_menu_init+0xee>
240531e4:	9300      	str	r3, [sp, #0]
240531e6:	4653      	mov	r3, sl
240531e8:	e7f9      	b.n	240531de <settings_menu_init+0x20e>
240531ea:	3b01      	subs	r3, #1
240531ec:	6033      	str	r3, [r6, #0]
240531ee:	e7e7      	b.n	240531c0 <settings_menu_init+0x1f0>
240531f0:	20000230 	.word	0x20000230
240531f4:	20000237 	.word	0x20000237
240531f8:	200000a4 	.word	0x200000a4
240531fc:	20000018 	.word	0x20000018
24053200:	2405bf63 	.word	0x2405bf63
24053204:	2405bf9b 	.word	0x2405bf9b
24053208:	200000a8 	.word	0x200000a8
2405320c:	2405bfad 	.word	0x2405bfad
24053210:	200000a0 	.word	0x200000a0
24053214:	2405bfbb 	.word	0x2405bfbb
24053218:	20000238 	.word	0x20000238
2405321c:	2405bf75 	.word	0x2405bf75
24053220:	20000235 	.word	0x20000235

24053224 <SystemClock_Config>:
24053224:	b510      	push	{r4, lr}
24053226:	b09c      	sub	sp, #112	; 0x70
24053228:	224c      	movs	r2, #76	; 0x4c
2405322a:	2100      	movs	r1, #0
2405322c:	4c2b      	ldr	r4, [pc, #172]	; (240532dc <SystemClock_Config+0xb8>)
2405322e:	a809      	add	r0, sp, #36	; 0x24
24053230:	f007 ff34 	bl	2405b09c <memset>
24053234:	2220      	movs	r2, #32
24053236:	2100      	movs	r1, #0
24053238:	a801      	add	r0, sp, #4
2405323a:	f007 ff2f 	bl	2405b09c <memset>
2405323e:	f04f 33ff 	mov.w	r3, #4294967295
24053242:	2002      	movs	r0, #2
24053244:	f8c4 30b0 	str.w	r3, [r4, #176]	; 0xb0
24053248:	f004 faf8 	bl	2405783c <HAL_PWREx_ConfigSupply>
2405324c:	2300      	movs	r3, #0
2405324e:	9300      	str	r3, [sp, #0]
24053250:	4b23      	ldr	r3, [pc, #140]	; (240532e0 <SystemClock_Config+0xbc>)
24053252:	699a      	ldr	r2, [r3, #24]
24053254:	f442 4240 	orr.w	r2, r2, #49152	; 0xc000
24053258:	619a      	str	r2, [r3, #24]
2405325a:	699a      	ldr	r2, [r3, #24]
2405325c:	f402 4240 	and.w	r2, r2, #49152	; 0xc000
24053260:	9200      	str	r2, [sp, #0]
24053262:	9a00      	ldr	r2, [sp, #0]
24053264:	699a      	ldr	r2, [r3, #24]
24053266:	0492      	lsls	r2, r2, #18
24053268:	d5fc      	bpl.n	24053264 <SystemClock_Config+0x40>
2405326a:	f004 fadf 	bl	2405782c <HAL_PWR_EnableBkUpAccess>
2405326e:	6f23      	ldr	r3, [r4, #112]	; 0x70
24053270:	2200      	movs	r2, #0
24053272:	2010      	movs	r0, #16
24053274:	f023 0318 	bic.w	r3, r3, #24
24053278:	218c      	movs	r1, #140	; 0x8c
2405327a:	6723      	str	r3, [r4, #112]	; 0x70
2405327c:	230e      	movs	r3, #14
2405327e:	2440      	movs	r4, #64	; 0x40
24053280:	921b      	str	r2, [sp, #108]	; 0x6c
24053282:	9309      	str	r3, [sp, #36]	; 0x24
24053284:	2301      	movs	r3, #1
24053286:	e9cd 330b 	strd	r3, r3, [sp, #44]	; 0x2c
2405328a:	e9cd 430d 	strd	r4, r3, [sp, #52]	; 0x34
2405328e:	2302      	movs	r3, #2
24053290:	e9cd 3212 	strd	r3, r2, [sp, #72]	; 0x48
24053294:	e9cd 3316 	strd	r3, r3, [sp, #88]	; 0x58
24053298:	9318      	str	r3, [sp, #96]	; 0x60
2405329a:	2308      	movs	r3, #8
2405329c:	e9cd 0114 	strd	r0, r1, [sp, #80]	; 0x50
240532a0:	a809      	add	r0, sp, #36	; 0x24
240532a2:	e9cd 3219 	strd	r3, r2, [sp, #100]	; 0x64
240532a6:	f004 faed 	bl	24057884 <HAL_RCC_OscConfig>
240532aa:	b108      	cbz	r0, 240532b0 <SystemClock_Config+0x8c>
240532ac:	b672      	cpsid	i
240532ae:	e7fe      	b.n	240532ae <SystemClock_Config+0x8a>
240532b0:	2303      	movs	r3, #3
240532b2:	223f      	movs	r2, #63	; 0x3f
240532b4:	2106      	movs	r1, #6
240532b6:	e9cd 2301 	strd	r2, r3, [sp, #4]
240532ba:	f44f 6380 	mov.w	r3, #1024	; 0x400
240532be:	e9cd 0003 	strd	r0, r0, [sp, #12]
240532c2:	a801      	add	r0, sp, #4
240532c4:	e9cd 4405 	strd	r4, r4, [sp, #20]
240532c8:	e9cd 3407 	strd	r3, r4, [sp, #28]
240532cc:	f004 fe26 	bl	24057f1c <HAL_RCC_ClockConfig>
240532d0:	b108      	cbz	r0, 240532d6 <SystemClock_Config+0xb2>
240532d2:	b672      	cpsid	i
240532d4:	e7fe      	b.n	240532d4 <SystemClock_Config+0xb0>
240532d6:	b01c      	add	sp, #112	; 0x70
240532d8:	bd10      	pop	{r4, pc}
240532da:	bf00      	nop
240532dc:	58024400 	.word	0x58024400
240532e0:	58024800 	.word	0x58024800

240532e4 <PeriphCommonClock_Config>:
240532e4:	b500      	push	{lr}
240532e6:	b0b1      	sub	sp, #196	; 0xc4
240532e8:	22b8      	movs	r2, #184	; 0xb8
240532ea:	2100      	movs	r1, #0
240532ec:	a802      	add	r0, sp, #8
240532ee:	f007 fed5 	bl	2405b09c <memset>
240532f2:	4a0f      	ldr	r2, [pc, #60]	; (24053330 <PeriphCommonClock_Config+0x4c>)
240532f4:	2300      	movs	r3, #0
240532f6:	2118      	movs	r1, #24
240532f8:	4668      	mov	r0, sp
240532fa:	e9cd 2300 	strd	r2, r3, [sp]
240532fe:	2309      	movs	r3, #9
24053300:	2204      	movs	r2, #4
24053302:	e9cd 230a 	strd	r2, r3, [sp, #40]	; 0x28
24053306:	2302      	movs	r3, #2
24053308:	e9cd 330c 	strd	r3, r3, [sp, #48]	; 0x30
2405330c:	f44f 6340 	mov.w	r3, #3072	; 0xc00
24053310:	e9cd 130e 	strd	r1, r3, [sp, #56]	; 0x38
24053314:	f44f 3380 	mov.w	r3, #65536	; 0x10000
24053318:	932b      	str	r3, [sp, #172]	; 0xac
2405331a:	f44f 4300 	mov.w	r3, #32768	; 0x8000
2405331e:	932e      	str	r3, [sp, #184]	; 0xb8
24053320:	f005 f846 	bl	240583b0 <HAL_RCCEx_PeriphCLKConfig>
24053324:	b108      	cbz	r0, 2405332a <PeriphCommonClock_Config+0x46>
24053326:	b672      	cpsid	i
24053328:	e7fe      	b.n	24053328 <PeriphCommonClock_Config+0x44>
2405332a:	b031      	add	sp, #196	; 0xc4
2405332c:	f85d fb04 	ldr.w	pc, [sp], #4
24053330:	a0080000 	.word	0xa0080000

24053334 <main>:
24053334:	e92d 4ff0 	stmdb	sp!, {r4, r5, r6, r7, r8, r9, sl, fp, lr}
24053338:	b099      	sub	sp, #100	; 0x64
2405333a:	4dcb      	ldr	r5, [pc, #812]	; (24053668 <main+0x334>)
2405333c:	f000 ffd8 	bl	240542f0 <HAL_Init>
24053340:	2400      	movs	r4, #0
24053342:	f7ff ff6f 	bl	24053224 <SystemClock_Config>
24053346:	2601      	movs	r6, #1
24053348:	f7ff ffcc 	bl	240532e4 <PeriphCommonClock_Config>
2405334c:	2214      	movs	r2, #20
2405334e:	2100      	movs	r1, #0
24053350:	a80b      	add	r0, sp, #44	; 0x2c
24053352:	f007 fea3 	bl	2405b09c <memset>
24053356:	f8d5 3140 	ldr.w	r3, [r5, #320]	; 0x140
2405335a:	2201      	movs	r2, #1
2405335c:	2108      	movs	r1, #8
2405335e:	f043 0310 	orr.w	r3, r3, #16
24053362:	48c2      	ldr	r0, [pc, #776]	; (2405366c <main+0x338>)
24053364:	f44f 1744 	mov.w	r7, #3211264	; 0x310000
24053368:	f04f 0804 	mov.w	r8, #4
2405336c:	f8c5 3140 	str.w	r3, [r5, #320]	; 0x140
24053370:	f44f 5980 	mov.w	r9, #4096	; 0x1000
24053374:	f8d5 3140 	ldr.w	r3, [r5, #320]	; 0x140
24053378:	f04f 0a07 	mov.w	sl, #7
2405337c:	f8df b314 	ldr.w	fp, [pc, #788]	; 24053694 <main+0x360>
24053380:	f003 0310 	and.w	r3, r3, #16
24053384:	9303      	str	r3, [sp, #12]
24053386:	9b03      	ldr	r3, [sp, #12]
24053388:	f8d5 3140 	ldr.w	r3, [r5, #320]	; 0x140
2405338c:	f043 0304 	orr.w	r3, r3, #4
24053390:	f8c5 3140 	str.w	r3, [r5, #320]	; 0x140
24053394:	f8d5 3140 	ldr.w	r3, [r5, #320]	; 0x140
24053398:	f003 0304 	and.w	r3, r3, #4
2405339c:	9304      	str	r3, [sp, #16]
2405339e:	9b04      	ldr	r3, [sp, #16]
240533a0:	f8d5 3140 	ldr.w	r3, [r5, #320]	; 0x140
240533a4:	f043 0301 	orr.w	r3, r3, #1
240533a8:	f8c5 3140 	str.w	r3, [r5, #320]	; 0x140
240533ac:	f8d5 3140 	ldr.w	r3, [r5, #320]	; 0x140
240533b0:	f003 0301 	and.w	r3, r3, #1
240533b4:	9305      	str	r3, [sp, #20]
240533b6:	9b05      	ldr	r3, [sp, #20]
240533b8:	f8d5 3140 	ldr.w	r3, [r5, #320]	; 0x140
240533bc:	f043 0302 	orr.w	r3, r3, #2
240533c0:	f8c5 3140 	str.w	r3, [r5, #320]	; 0x140
240533c4:	f8d5 3140 	ldr.w	r3, [r5, #320]	; 0x140
240533c8:	f003 0302 	and.w	r3, r3, #2
240533cc:	9306      	str	r3, [sp, #24]
240533ce:	9b06      	ldr	r3, [sp, #24]
240533d0:	f8d5 3140 	ldr.w	r3, [r5, #320]	; 0x140
240533d4:	f043 0308 	orr.w	r3, r3, #8
240533d8:	f8c5 3140 	str.w	r3, [r5, #320]	; 0x140
240533dc:	f8d5 3140 	ldr.w	r3, [r5, #320]	; 0x140
240533e0:	f003 0308 	and.w	r3, r3, #8
240533e4:	9307      	str	r3, [sp, #28]
240533e6:	9b07      	ldr	r3, [sp, #28]
240533e8:	f003 fa5e 	bl	240568a8 <HAL_GPIO_WritePin>
240533ec:	2200      	movs	r2, #0
240533ee:	f44f 7180 	mov.w	r1, #256	; 0x100
240533f2:	489e      	ldr	r0, [pc, #632]	; (2405366c <main+0x338>)
240533f4:	f003 fa58 	bl	240568a8 <HAL_GPIO_WritePin>
240533f8:	2201      	movs	r2, #1
240533fa:	f44f 5180 	mov.w	r1, #4096	; 0x1000
240533fe:	489c      	ldr	r0, [pc, #624]	; (24053670 <main+0x33c>)
24053400:	f003 fa52 	bl	240568a8 <HAL_GPIO_WritePin>
24053404:	2201      	movs	r2, #1
24053406:	f44f 7180 	mov.w	r1, #256	; 0x100
2405340a:	489a      	ldr	r0, [pc, #616]	; (24053674 <main+0x340>)
2405340c:	f003 fa4c 	bl	240568a8 <HAL_GPIO_WritePin>
24053410:	2200      	movs	r2, #0
24053412:	2112      	movs	r1, #18
24053414:	4897      	ldr	r0, [pc, #604]	; (24053674 <main+0x340>)
24053416:	f003 fa47 	bl	240568a8 <HAL_GPIO_WritePin>
2405341a:	f44f 7384 	mov.w	r3, #264	; 0x108
2405341e:	a90b      	add	r1, sp, #44	; 0x2c
24053420:	4892      	ldr	r0, [pc, #584]	; (2405366c <main+0x338>)
24053422:	e9cd 360b 	strd	r3, r6, [sp, #44]	; 0x2c
24053426:	e9cd 440d 	strd	r4, r4, [sp, #52]	; 0x34
2405342a:	f003 f94d 	bl	240566c8 <HAL_GPIO_Init>
2405342e:	f242 0322 	movw	r3, #8226	; 0x2022
24053432:	a90b      	add	r1, sp, #44	; 0x2c
24053434:	4890      	ldr	r0, [pc, #576]	; (24053678 <main+0x344>)
24053436:	960d      	str	r6, [sp, #52]	; 0x34
24053438:	e9cd 340b 	strd	r3, r4, [sp, #44]	; 0x2c
2405343c:	f003 f944 	bl	240566c8 <HAL_GPIO_Init>
24053440:	a90b      	add	r1, sp, #44	; 0x2c
24053442:	488e      	ldr	r0, [pc, #568]	; (2405367c <main+0x348>)
24053444:	940d      	str	r4, [sp, #52]	; 0x34
24053446:	e9cd 640b 	strd	r6, r4, [sp, #44]	; 0x2c
2405344a:	f003 f93d 	bl	240566c8 <HAL_GPIO_Init>
2405344e:	a90b      	add	r1, sp, #44	; 0x2c
24053450:	488a      	ldr	r0, [pc, #552]	; (2405367c <main+0x348>)
24053452:	940d      	str	r4, [sp, #52]	; 0x34
24053454:	e9cd 870b 	strd	r8, r7, [sp, #44]	; 0x2c
24053458:	f003 f936 	bl	240566c8 <HAL_GPIO_Init>
2405345c:	2380      	movs	r3, #128	; 0x80
2405345e:	a90b      	add	r1, sp, #44	; 0x2c
24053460:	4882      	ldr	r0, [pc, #520]	; (2405366c <main+0x338>)
24053462:	940d      	str	r4, [sp, #52]	; 0x34
24053464:	e9cd 370b 	strd	r3, r7, [sp, #44]	; 0x2c
24053468:	f003 f92e 	bl	240566c8 <HAL_GPIO_Init>
2405346c:	a90b      	add	r1, sp, #44	; 0x2c
2405346e:	4880      	ldr	r0, [pc, #512]	; (24053670 <main+0x33c>)
24053470:	27ff      	movs	r7, #255	; 0xff
24053472:	e9cd 960b 	strd	r9, r6, [sp, #44]	; 0x2c
24053476:	e9cd 440d 	strd	r4, r4, [sp, #52]	; 0x34
2405347a:	f003 f925 	bl	240566c8 <HAL_GPIO_Init>
2405347e:	f44f 7389 	mov.w	r3, #274	; 0x112
24053482:	a90b      	add	r1, sp, #44	; 0x2c
24053484:	487b      	ldr	r0, [pc, #492]	; (24053674 <main+0x340>)
24053486:	e9cd 360b 	strd	r3, r6, [sp, #44]	; 0x2c
2405348a:	e9cd 440d 	strd	r4, r4, [sp, #52]	; 0x34
2405348e:	f003 f91b 	bl	240566c8 <HAL_GPIO_Init>
24053492:	f64c 2321 	movw	r3, #51745	; 0xca21
24053496:	a90b      	add	r1, sp, #44	; 0x2c
24053498:	4876      	ldr	r0, [pc, #472]	; (24053674 <main+0x340>)
2405349a:	960d      	str	r6, [sp, #52]	; 0x34
2405349c:	e9cd 340b 	strd	r3, r4, [sp, #44]	; 0x2c
240534a0:	f003 f912 	bl	240566c8 <HAL_GPIO_Init>
240534a4:	4622      	mov	r2, r4
240534a6:	4621      	mov	r1, r4
240534a8:	2008      	movs	r0, #8
240534aa:	f001 fec9 	bl	24055240 <HAL_NVIC_SetPriority>
240534ae:	2008      	movs	r0, #8
240534b0:	f001 fef8 	bl	240552a4 <HAL_NVIC_EnableIRQ>
240534b4:	4622      	mov	r2, r4
240534b6:	4621      	mov	r1, r4
240534b8:	2017      	movs	r0, #23
240534ba:	f001 fec1 	bl	24055240 <HAL_NVIC_SetPriority>
240534be:	2017      	movs	r0, #23
240534c0:	f001 fef0 	bl	240552a4 <HAL_NVIC_EnableIRQ>
240534c4:	f8d5 3138 	ldr.w	r3, [r5, #312]	; 0x138
240534c8:	4622      	mov	r2, r4
240534ca:	4621      	mov	r1, r4
240534cc:	4333      	orrs	r3, r6
240534ce:	200b      	movs	r0, #11
240534d0:	f8c5 3138 	str.w	r3, [r5, #312]	; 0x138
240534d4:	f8d5 3138 	ldr.w	r3, [r5, #312]	; 0x138
240534d8:	4033      	ands	r3, r6
240534da:	9302      	str	r3, [sp, #8]
240534dc:	9b02      	ldr	r3, [sp, #8]
240534de:	f001 feaf 	bl	24055240 <HAL_NVIC_SetPriority>
240534e2:	200b      	movs	r0, #11
240534e4:	f001 fede 	bl	240552a4 <HAL_NVIC_EnableIRQ>
240534e8:	2234      	movs	r2, #52	; 0x34
240534ea:	4621      	mov	r1, r4
240534ec:	a80b      	add	r0, sp, #44	; 0x2c
240534ee:	f007 fdd5 	bl	2405b09c <memset>
240534f2:	4b63      	ldr	r3, [pc, #396]	; (24053680 <main+0x34c>)
240534f4:	f04f 5e80 	mov.w	lr, #268435456	; 0x10000000
240534f8:	f44f 72be 	mov.w	r2, #380	; 0x17c
240534fc:	4658      	mov	r0, fp
240534fe:	f8ab 4034 	strh.w	r4, [fp, #52]	; 0x34
24053502:	f8cb 6018 	str.w	r6, [fp, #24]
24053506:	f88b 4036 	strb.w	r4, [fp, #54]	; 0x36
2405350a:	e9cb 3400 	strd	r3, r4, [fp]
2405350e:	2309      	movs	r3, #9
24053510:	e9cb e304 	strd	lr, r3, [fp, #16]
24053514:	233c      	movs	r3, #60	; 0x3c
24053516:	e9cb 3a07 	strd	r3, sl, [fp, #28]
2405351a:	23f7      	movs	r3, #247	; 0xf7
2405351c:	e9cb 2309 	strd	r2, r3, [fp, #36]	; 0x24
24053520:	f44f 73c4 	mov.w	r3, #392	; 0x188
24053524:	e9cb 4402 	strd	r4, r4, [fp, #8]
24053528:	e9cb 370b 	strd	r3, r7, [fp, #44]	; 0x2c
2405352c:	f003 fa50 	bl	240569d0 <HAL_LTDC_Init>
24053530:	4602      	mov	r2, r0
24053532:	b108      	cbz	r0, 24053538 <main+0x204>
24053534:	b672      	cpsid	i
24053536:	e7fe      	b.n	24053536 <main+0x202>
24053538:	f44f 71a0 	mov.w	r1, #320	; 0x140
2405353c:	f44f 6c80 	mov.w	ip, #1024	; 0x400
24053540:	900b      	str	r0, [sp, #44]	; 0x2c
24053542:	23f0      	movs	r3, #240	; 0xf0
24053544:	2402      	movs	r4, #2
24053546:	f88d 205e 	strb.w	r2, [sp, #94]	; 0x5e
2405354a:	9316      	str	r3, [sp, #88]	; 0x58
2405354c:	e9cd 100c 	strd	r1, r0, [sp, #48]	; 0x30
24053550:	2005      	movs	r0, #5
24053552:	e9cd c012 	strd	ip, r0, [sp, #72]	; 0x48
24053556:	f04f 5010 	mov.w	r0, #603979776	; 0x24000000
2405355a:	e9cd 340e 	strd	r3, r4, [sp, #56]	; 0x38
2405355e:	f44f 437f 	mov.w	r3, #65280	; 0xff00
24053562:	e9cd 0114 	strd	r0, r1, [sp, #80]	; 0x50
24053566:	a90b      	add	r1, sp, #44	; 0x2c
24053568:	4658      	mov	r0, fp
2405356a:	f8ad 305c 	strh.w	r3, [sp, #92]	; 0x5c
2405356e:	e9cd 7710 	strd	r7, r7, [sp, #64]	; 0x40
24053572:	f003 faf8 	bl	24056b66 <HAL_LTDC_ConfigLayer>
24053576:	b108      	cbz	r0, 2405357c <main+0x248>
24053578:	b672      	cpsid	i
2405357a:	e7fe      	b.n	2405357a <main+0x246>
2405357c:	4b41      	ldr	r3, [pc, #260]	; (24053684 <main+0x350>)
2405357e:	f44f 0280 	mov.w	r2, #4194304	; 0x400000
24053582:	f8df c114 	ldr.w	ip, [pc, #276]	; 24053698 <main+0x364>
24053586:	f04f 6e80 	mov.w	lr, #67108864	; 0x4000000
2405358a:	e9c3 c200 	strd	ip, r2, [r3]
2405358e:	f44f 3200 	mov.w	r2, #131072	; 0x20000
24053592:	e9c3 2a02 	strd	r2, sl, [r3, #8]
24053596:	f04f 5240 	mov.w	r2, #805306368	; 0x30000000
2405359a:	e9c3 0004 	strd	r0, r0, [r3, #16]
2405359e:	e9c3 0008 	strd	r0, r0, [r3, #32]
240535a2:	e9c3 000a 	strd	r0, r0, [r3, #40]	; 0x28
240535a6:	e9c3 000d 	strd	r0, r0, [r3, #52]	; 0x34
240535aa:	e9c3 000f 	strd	r0, r0, [r3, #60]	; 0x3c
240535ae:	e9c3 0011 	strd	r0, r0, [r3, #68]	; 0x44
240535b2:	e9c3 0013 	strd	r0, r0, [r3, #76]	; 0x4c
240535b6:	e9c3 0015 	strd	r0, r0, [r3, #84]	; 0x54
240535ba:	4618      	mov	r0, r3
240535bc:	e9c3 e206 	strd	lr, r2, [r3, #24]
240535c0:	f006 fd38 	bl	2405a034 <HAL_SPI_Init>
240535c4:	4601      	mov	r1, r0
240535c6:	b108      	cbz	r0, 240535cc <main+0x298>
240535c8:	b672      	cpsid	i
240535ca:	e7fe      	b.n	240535ca <main+0x296>
240535cc:	f04f 0b18 	mov.w	fp, #24
240535d0:	9001      	str	r0, [sp, #4]
240535d2:	a80b      	add	r0, sp, #44	; 0x2c
240535d4:	f8df a0c4 	ldr.w	sl, [pc, #196]	; 2405369c <main+0x368>
240535d8:	465a      	mov	r2, fp
240535da:	f007 fd5f 	bl	2405b09c <memset>
240535de:	4b2a      	ldr	r3, [pc, #168]	; (24053688 <main+0x354>)
240535e0:	9901      	ldr	r1, [sp, #4]
240535e2:	4650      	mov	r0, sl
240535e4:	e9ca 3800 	strd	r3, r8, [sl]
240535e8:	f04f 7380 	mov.w	r3, #16777216	; 0x1000000
240535ec:	f8ca 1008 	str.w	r1, [sl, #8]
240535f0:	f8ca 103c 	str.w	r1, [sl, #60]	; 0x3c
240535f4:	e9ca 3b03 	strd	r3, fp, [sl, #12]
240535f8:	2308      	movs	r3, #8
240535fa:	e9ca 4105 	strd	r4, r1, [sl, #20]
240535fe:	e9ca 1107 	strd	r1, r1, [sl, #28]
24053602:	e9ca 6109 	strd	r6, r1, [sl, #36]	; 0x24
24053606:	e9ca 110b 	strd	r1, r1, [sl, #44]	; 0x2c
2405360a:	e9ca 310d 	strd	r3, r1, [sl, #52]	; 0x34
2405360e:	f003 fc2d 	bl	24056e6c <HAL_OSPI_Init>
24053612:	b108      	cbz	r0, 24053618 <main+0x2e4>
24053614:	b672      	cpsid	i
24053616:	e7fe      	b.n	24053616 <main+0x2e2>
24053618:	f04f 1301 	mov.w	r3, #65537	; 0x10001
2405361c:	f241 3288 	movw	r2, #5000	; 0x1388
24053620:	a90b      	add	r1, sp, #44	; 0x2c
24053622:	4650      	mov	r0, sl
24053624:	960b      	str	r6, [sp, #44]	; 0x2c
24053626:	960d      	str	r6, [sp, #52]	; 0x34
24053628:	930e      	str	r3, [sp, #56]	; 0x38
2405362a:	f003 fe75 	bl	24057318 <HAL_OSPIM_Config>
2405362e:	4602      	mov	r2, r0
24053630:	b108      	cbz	r0, 24053636 <main+0x302>
24053632:	b672      	cpsid	i
24053634:	e7fe      	b.n	24053634 <main+0x300>
24053636:	4815      	ldr	r0, [pc, #84]	; (2405368c <main+0x358>)
24053638:	4611      	mov	r1, r2
2405363a:	4b15      	ldr	r3, [pc, #84]	; (24053690 <main+0x35c>)
2405363c:	6082      	str	r2, [r0, #8]
2405363e:	f8c0 801c 	str.w	r8, [r0, #28]
24053642:	60c2      	str	r2, [r0, #12]
24053644:	6342      	str	r2, [r0, #52]	; 0x34
24053646:	e9c0 3200 	strd	r3, r2, [r0]
2405364a:	f64b 3380 	movw	r3, #48000	; 0xbb80
2405364e:	6203      	str	r3, [r0, #32]
24053650:	4623      	mov	r3, r4
24053652:	e9c0 2205 	strd	r2, r2, [r0, #20]
24053656:	e9c0 920b 	strd	r9, r2, [r0, #44]	; 0x2c
2405365a:	f006 fa3f 	bl	24059adc <HAL_SAI_InitProtocol>
2405365e:	4606      	mov	r6, r0
24053660:	b1f0      	cbz	r0, 240536a0 <main+0x36c>
24053662:	b672      	cpsid	i
24053664:	e7fe      	b.n	24053664 <main+0x330>
24053666:	bf00      	nop
24053668:	58024400 	.word	0x58024400
2405366c:	58021000 	.word	0x58021000
24053670:	58020400 	.word	0x58020400
24053674:	58020c00 	.word	0x58020c00
24053678:	58020800 	.word	0x58020800
2405367c:	58020000 	.word	0x58020000
24053680:	50001000 	.word	0x50001000
24053684:	2000056c 	.word	0x2000056c
24053688:	52005000 	.word	0x52005000
2405368c:	200004d4 	.word	0x200004d4
24053690:	40015804 	.word	0x40015804
24053694:	200003a8 	.word	0x200003a8
24053698:	40003800 	.word	0x40003800
2405369c:	20000450 	.word	0x20000450
240536a0:	4601      	mov	r1, r0
240536a2:	2214      	movs	r2, #20
240536a4:	a80b      	add	r0, sp, #44	; 0x2c
240536a6:	4c98      	ldr	r4, [pc, #608]	; (24053908 <main+0x5d4>)
240536a8:	f007 fcf8 	bl	2405b09c <memset>
240536ac:	4b97      	ldr	r3, [pc, #604]	; (2405390c <main+0x5d8>)
240536ae:	6126      	str	r6, [r4, #16]
240536b0:	61a6      	str	r6, [r4, #24]
240536b2:	6166      	str	r6, [r4, #20]
240536b4:	9608      	str	r6, [sp, #32]
240536b6:	e9c4 3600 	strd	r3, r6, [r4]
240536ba:	237f      	movs	r3, #127	; 0x7f
240536bc:	e9c4 3702 	strd	r3, r7, [r4, #8]
240536c0:	f04f 4380 	mov.w	r3, #1073741824	; 0x40000000
240536c4:	61e3      	str	r3, [r4, #28]
240536c6:	6f2b      	ldr	r3, [r5, #112]	; 0x70
240536c8:	041d      	lsls	r5, r3, #16
240536ca:	d510      	bpl.n	240536ee <main+0x3ba>
240536cc:	f004 f8ae 	bl	2405782c <HAL_PWR_EnableBkUpAccess>
240536d0:	2224      	movs	r2, #36	; 0x24
240536d2:	2100      	movs	r1, #0
240536d4:	4c8e      	ldr	r4, [pc, #568]	; (24053910 <main+0x5dc>)
240536d6:	a80b      	add	r0, sp, #44	; 0x2c
240536d8:	f007 fce0 	bl	2405b09c <memset>
240536dc:	4b8d      	ldr	r3, [pc, #564]	; (24053914 <main+0x5e0>)
240536de:	4620      	mov	r0, r4
240536e0:	6023      	str	r3, [r4, #0]
240536e2:	f001 fe13 	bl	2405530c <HAL_DAC_Init>
240536e6:	4602      	mov	r2, r0
240536e8:	b300      	cbz	r0, 2405372c <main+0x3f8>
240536ea:	b672      	cpsid	i
240536ec:	e7fe      	b.n	240536ec <main+0x3b8>
240536ee:	4620      	mov	r0, r4
240536f0:	f005 ff12 	bl	24059518 <HAL_RTC_Init>
240536f4:	4602      	mov	r2, r0
240536f6:	b108      	cbz	r0, 240536fc <main+0x3c8>
240536f8:	b672      	cpsid	i
240536fa:	e7fe      	b.n	240536fa <main+0x3c6>
240536fc:	f8ad 002c 	strh.w	r0, [sp, #44]	; 0x2c
24053700:	a90b      	add	r1, sp, #44	; 0x2c
24053702:	f88d 002e 	strb.w	r0, [sp, #46]	; 0x2e
24053706:	e9cd 000e 	strd	r0, r0, [sp, #56]	; 0x38
2405370a:	4620      	mov	r0, r4
2405370c:	f005 ff5d 	bl	240595ca <HAL_RTC_SetTime>
24053710:	4602      	mov	r2, r0
24053712:	b108      	cbz	r0, 24053718 <main+0x3e4>
24053714:	b672      	cpsid	i
24053716:	e7fe      	b.n	24053716 <main+0x3e2>
24053718:	4b7f      	ldr	r3, [pc, #508]	; (24053918 <main+0x5e4>)
2405371a:	a908      	add	r1, sp, #32
2405371c:	4620      	mov	r0, r4
2405371e:	9308      	str	r3, [sp, #32]
24053720:	f005 ffb5 	bl	2405968e <HAL_RTC_SetDate>
24053724:	2800      	cmp	r0, #0
24053726:	d0d3      	beq.n	240536d0 <main+0x39c>
24053728:	b672      	cpsid	i
2405372a:	e7fe      	b.n	2405372a <main+0x3f6>
2405372c:	2601      	movs	r6, #1
2405372e:	900d      	str	r0, [sp, #52]	; 0x34
24053730:	a90b      	add	r1, sp, #44	; 0x2c
24053732:	e9cd 000b 	strd	r0, r0, [sp, #44]	; 0x2c
24053736:	e9cd 600e 	strd	r6, r0, [sp, #56]	; 0x38
2405373a:	4620      	mov	r0, r4
2405373c:	f001 fe34 	bl	240553a8 <HAL_DAC_ConfigChannel>
24053740:	b108      	cbz	r0, 24053746 <main+0x412>
24053742:	b672      	cpsid	i
24053744:	e7fe      	b.n	24053744 <main+0x410>
24053746:	a90b      	add	r1, sp, #44	; 0x2c
24053748:	2210      	movs	r2, #16
2405374a:	4620      	mov	r0, r4
2405374c:	f001 fe2c 	bl	240553a8 <HAL_DAC_ConfigChannel>
24053750:	4601      	mov	r1, r0
24053752:	b108      	cbz	r0, 24053758 <main+0x424>
24053754:	b672      	cpsid	i
24053756:	e7fe      	b.n	24053756 <main+0x422>
24053758:	2224      	movs	r2, #36	; 0x24
2405375a:	4c70      	ldr	r4, [pc, #448]	; (2405391c <main+0x5e8>)
2405375c:	a80b      	add	r0, sp, #44	; 0x2c
2405375e:	f007 fc9d 	bl	2405b09c <memset>
24053762:	4b6f      	ldr	r3, [pc, #444]	; (24053920 <main+0x5ec>)
24053764:	4620      	mov	r0, r4
24053766:	6023      	str	r3, [r4, #0]
24053768:	f001 fdd0 	bl	2405530c <HAL_DAC_Init>
2405376c:	4602      	mov	r2, r0
2405376e:	b108      	cbz	r0, 24053774 <main+0x440>
24053770:	b672      	cpsid	i
24053772:	e7fe      	b.n	24053772 <main+0x43e>
24053774:	e9cd 000b 	strd	r0, r0, [sp, #44]	; 0x2c
24053778:	e9cd 060d 	strd	r0, r6, [sp, #52]	; 0x34
2405377c:	900f      	str	r0, [sp, #60]	; 0x3c
2405377e:	a90b      	add	r1, sp, #44	; 0x2c
24053780:	4620      	mov	r0, r4
24053782:	f001 fe11 	bl	240553a8 <HAL_DAC_ConfigChannel>
24053786:	4604      	mov	r4, r0
24053788:	b108      	cbz	r0, 2405378e <main+0x45a>
2405378a:	b672      	cpsid	i
2405378c:	e7fe      	b.n	2405378c <main+0x458>
2405378e:	4d65      	ldr	r5, [pc, #404]	; (24053924 <main+0x5f0>)
24053790:	4601      	mov	r1, r0
24053792:	900a      	str	r0, [sp, #40]	; 0x28
24053794:	221c      	movs	r2, #28
24053796:	2704      	movs	r7, #4
24053798:	e9cd 0008 	strd	r0, r0, [sp, #32]
2405379c:	a80b      	add	r0, sp, #44	; 0x2c
2405379e:	f007 fc7d 	bl	2405b09c <memset>
240537a2:	4b61      	ldr	r3, [pc, #388]	; (24053928 <main+0x5f4>)
240537a4:	4628      	mov	r0, r5
240537a6:	82ac      	strh	r4, [r5, #20]
240537a8:	612f      	str	r7, [r5, #16]
240537aa:	61ae      	str	r6, [r5, #24]
240537ac:	772c      	strb	r4, [r5, #28]
240537ae:	636c      	str	r4, [r5, #52]	; 0x34
240537b0:	f885 4038 	strb.w	r4, [r5, #56]	; 0x38
240537b4:	e9c5 3400 	strd	r3, r4, [r5]
240537b8:	e9c5 4402 	strd	r4, r4, [r5, #8]
240537bc:	e9c5 4409 	strd	r4, r4, [r5, #36]	; 0x24
240537c0:	e9c5 440b 	strd	r4, r4, [r5, #44]	; 0x2c
240537c4:	f001 fbd8 	bl	24054f78 <HAL_ADC_Init>
240537c8:	b108      	cbz	r0, 240537ce <main+0x49a>
240537ca:	b672      	cpsid	i
240537cc:	e7fe      	b.n	240537cc <main+0x498>
240537ce:	9008      	str	r0, [sp, #32]
240537d0:	a908      	add	r1, sp, #32
240537d2:	4628      	mov	r0, r5
240537d4:	f001 fcbe 	bl	24055154 <HAL_ADCEx_MultiModeConfigChannel>
240537d8:	b108      	cbz	r0, 240537de <main+0x4aa>
240537da:	b672      	cpsid	i
240537dc:	e7fe      	b.n	240537dc <main+0x4a8>
240537de:	4c53      	ldr	r4, [pc, #332]	; (2405392c <main+0x5f8>)
240537e0:	2306      	movs	r3, #6
240537e2:	900d      	str	r0, [sp, #52]	; 0x34
240537e4:	a90b      	add	r1, sp, #44	; 0x2c
240537e6:	9010      	str	r0, [sp, #64]	; 0x40
240537e8:	f88d 0045 	strb.w	r0, [sp, #69]	; 0x45
240537ec:	4628      	mov	r0, r5
240537ee:	e9cd 430b 	strd	r4, r3, [sp, #44]	; 0x2c
240537f2:	f240 73ff 	movw	r3, #2047	; 0x7ff
240537f6:	e9cd 370e 	strd	r3, r7, [sp, #56]	; 0x38
240537fa:	f000 ff7f 	bl	240546fc <HAL_ADC_ConfigChannel>
240537fe:	4604      	mov	r4, r0
24053800:	b108      	cbz	r0, 24053806 <main+0x4d2>
24053802:	b672      	cpsid	i
24053804:	e7fe      	b.n	24053804 <main+0x4d0>
24053806:	4601      	mov	r1, r0
24053808:	2210      	movs	r2, #16
2405380a:	a80b      	add	r0, sp, #44	; 0x2c
2405380c:	4d48      	ldr	r5, [pc, #288]	; (24053930 <main+0x5fc>)
2405380e:	f007 fc45 	bl	2405b09c <memset>
24053812:	4848      	ldr	r0, [pc, #288]	; (24053934 <main+0x600>)
24053814:	f243 63b0 	movw	r3, #14000	; 0x36b0
24053818:	940a      	str	r4, [sp, #40]	; 0x28
2405381a:	60ac      	str	r4, [r5, #8]
2405381c:	e9c5 0300 	strd	r0, r3, [r5]
24053820:	f24c 3350 	movw	r3, #50000	; 0xc350
24053824:	4628      	mov	r0, r5
24053826:	e9cd 4408 	strd	r4, r4, [sp, #32]
2405382a:	e9c5 3403 	strd	r3, r4, [r5, #12]
2405382e:	e9c5 4405 	strd	r4, r4, [r5, #20]
24053832:	f006 ff23 	bl	2405a67c <HAL_TIM_Base_Init>
24053836:	b108      	cbz	r0, 2405383c <main+0x508>
24053838:	b672      	cpsid	i
2405383a:	e7fe      	b.n	2405383a <main+0x506>
2405383c:	f44f 5380 	mov.w	r3, #4096	; 0x1000
24053840:	a90b      	add	r1, sp, #44	; 0x2c
24053842:	4628      	mov	r0, r5
24053844:	930b      	str	r3, [sp, #44]	; 0x2c
24053846:	f006 ff53 	bl	2405a6f0 <HAL_TIM_ConfigClockSource>
2405384a:	b108      	cbz	r0, 24053850 <main+0x51c>
2405384c:	b672      	cpsid	i
2405384e:	e7fe      	b.n	2405384e <main+0x51a>
24053850:	2300      	movs	r3, #0
24053852:	a908      	add	r1, sp, #32
24053854:	4836      	ldr	r0, [pc, #216]	; (24053930 <main+0x5fc>)
24053856:	930a      	str	r3, [sp, #40]	; 0x28
24053858:	e9cd 3308 	strd	r3, r3, [sp, #32]
2405385c:	f007 f804 	bl	2405a868 <HAL_TIMEx_MasterConfigSynchronization>
24053860:	b108      	cbz	r0, 24053866 <main+0x532>
24053862:	b672      	cpsid	i
24053864:	e7fe      	b.n	24053864 <main+0x530>
24053866:	4b34      	ldr	r3, [pc, #208]	; (24053938 <main+0x604>)
24053868:	f44f 3240 	mov.w	r2, #196608	; 0x30000
2405386c:	4933      	ldr	r1, [pc, #204]	; (2405393c <main+0x608>)
2405386e:	e9c3 1200 	strd	r1, r2, [r3]
24053872:	2202      	movs	r2, #2
24053874:	e9c3 2002 	strd	r2, r0, [r3, #8]
24053878:	4618      	mov	r0, r3
2405387a:	f002 fee7 	bl	2405664c <HAL_DMA2D_Init>
2405387e:	4604      	mov	r4, r0
24053880:	b108      	cbz	r0, 24053886 <main+0x552>
24053882:	b672      	cpsid	i
24053884:	e7fe      	b.n	24053884 <main+0x550>
24053886:	4602      	mov	r2, r0
24053888:	4601      	mov	r1, r0
2405388a:	205c      	movs	r0, #92	; 0x5c
2405388c:	f001 fcd8 	bl	24055240 <HAL_NVIC_SetPriority>
24053890:	205c      	movs	r0, #92	; 0x5c
24053892:	f001 fd07 	bl	240552a4 <HAL_NVIC_EnableIRQ>
24053896:	492a      	ldr	r1, [pc, #168]	; (24053940 <main+0x60c>)
24053898:	482a      	ldr	r0, [pc, #168]	; (24053944 <main+0x610>)
2405389a:	f7fe fd4b 	bl	24052334 <lcd_init>
2405389e:	20b2      	movs	r0, #178	; 0xb2
240538a0:	f7fe fd1e 	bl	240522e0 <lcd_backlight_set>
240538a4:	4828      	ldr	r0, [pc, #160]	; (24053948 <main+0x614>)
240538a6:	f7fe fca7 	bl	240521f8 <OSPI_Init>
240538aa:	f04f 4310 	mov.w	r3, #2415919104	; 0x90000000
240538ae:	681b      	ldr	r3, [r3, #0]
240538b0:	f1b3 3f88 	cmp.w	r3, #2290649224	; 0x88888888
240538b4:	d101      	bne.n	240538ba <main+0x586>
240538b6:	b672      	cpsid	i
240538b8:	e7fe      	b.n	240538b8 <main+0x584>
240538ba:	f7fe f939 	bl	24051b30 <bq24072_init>
240538be:	f7fd ff27 	bl	24051710 <gw_audio_init>
240538c2:	2214      	movs	r2, #20
240538c4:	4621      	mov	r1, r4
240538c6:	a80b      	add	r0, sp, #44	; 0x2c
240538c8:	f007 fbe8 	bl	2405b09c <memset>
240538cc:	4622      	mov	r2, r4
240538ce:	a90b      	add	r1, sp, #44	; 0x2c
240538d0:	480d      	ldr	r0, [pc, #52]	; (24053908 <main+0x5d4>)
240538d2:	9408      	str	r4, [sp, #32]
240538d4:	f005 ff32 	bl	2405973c <HAL_RTC_GetTime>
240538d8:	4622      	mov	r2, r4
240538da:	a908      	add	r1, sp, #32
240538dc:	480a      	ldr	r0, [pc, #40]	; (24053908 <main+0x5d4>)
240538de:	f005 ff50 	bl	24059782 <HAL_RTC_GetDate>
240538e2:	4810      	ldr	r0, [pc, #64]	; (24053924 <main+0x5f0>)
240538e4:	f001 f966 	bl	24054bb4 <HAL_ADC_Start>
240538e8:	f04f 31ff 	mov.w	r1, #4294967295
240538ec:	480d      	ldr	r0, [pc, #52]	; (24053924 <main+0x5f0>)
240538ee:	f000 fd69 	bl	240543c4 <HAL_ADC_PollForConversion>
240538f2:	480c      	ldr	r0, [pc, #48]	; (24053924 <main+0x5f0>)
240538f4:	f000 fdda 	bl	240544ac <HAL_ADC_GetValue>
240538f8:	9b0c      	ldr	r3, [sp, #48]	; 0x30
240538fa:	4058      	eors	r0, r3
240538fc:	f007 f8de 	bl	2405aabc <srand>
24053900:	f7ff f9a8 	bl	24052c54 <main_menu_init>
24053904:	e7fc      	b.n	24053900 <main+0x5cc>
24053906:	bf00      	nop
24053908:	200004ac 	.word	0x200004ac
2405390c:	58004000 	.word	0x58004000
24053910:	200002a0 	.word	0x200002a0
24053914:	40007400 	.word	0x40007400
24053918:	00010101 	.word	0x00010101
2405391c:	200002b4 	.word	0x200002b4
24053920:	58003400 	.word	0x58003400
24053924:	2000023c 	.word	0x2000023c
24053928:	40022000 	.word	0x40022000
2405392c:	10c00010 	.word	0x10c00010
24053930:	200005f4 	.word	0x200005f4
24053934:	40010000 	.word	0x40010000
24053938:	200002c8 	.word	0x200002c8
2405393c:	52001000 	.word	0x52001000
24053940:	200003a8 	.word	0x200003a8
24053944:	2000056c 	.word	0x2000056c
24053948:	20000450 	.word	0x20000450

2405394c <Error_Handler>:
2405394c:	b672      	cpsid	i
2405394e:	e7fe      	b.n	2405394e <Error_Handler+0x2>

24053950 <HAL_MspInit>:
24053950:	4b07      	ldr	r3, [pc, #28]	; (24053970 <HAL_MspInit+0x20>)
24053952:	b082      	sub	sp, #8
24053954:	f8d3 2154 	ldr.w	r2, [r3, #340]	; 0x154
24053958:	f042 0202 	orr.w	r2, r2, #2
2405395c:	f8c3 2154 	str.w	r2, [r3, #340]	; 0x154
24053960:	f8d3 3154 	ldr.w	r3, [r3, #340]	; 0x154
24053964:	f003 0302 	and.w	r3, r3, #2
24053968:	9301      	str	r3, [sp, #4]
2405396a:	9b01      	ldr	r3, [sp, #4]
2405396c:	b002      	add	sp, #8
2405396e:	4770      	bx	lr
24053970:	58024400 	.word	0x58024400

24053974 <HAL_ADC_MspInit>:
24053974:	b510      	push	{r4, lr}
24053976:	b088      	sub	sp, #32
24053978:	4604      	mov	r4, r0
2405397a:	2214      	movs	r2, #20
2405397c:	2100      	movs	r1, #0
2405397e:	a803      	add	r0, sp, #12
24053980:	f007 fb8c 	bl	2405b09c <memset>
24053984:	6822      	ldr	r2, [r4, #0]
24053986:	4b17      	ldr	r3, [pc, #92]	; (240539e4 <HAL_ADC_MspInit+0x70>)
24053988:	429a      	cmp	r2, r3
2405398a:	d128      	bne.n	240539de <HAL_ADC_MspInit+0x6a>
2405398c:	4b16      	ldr	r3, [pc, #88]	; (240539e8 <HAL_ADC_MspInit+0x74>)
2405398e:	a903      	add	r1, sp, #12
24053990:	4816      	ldr	r0, [pc, #88]	; (240539ec <HAL_ADC_MspInit+0x78>)
24053992:	f8d3 2138 	ldr.w	r2, [r3, #312]	; 0x138
24053996:	f042 0220 	orr.w	r2, r2, #32
2405399a:	f8c3 2138 	str.w	r2, [r3, #312]	; 0x138
2405399e:	f8d3 2138 	ldr.w	r2, [r3, #312]	; 0x138
240539a2:	f002 0220 	and.w	r2, r2, #32
240539a6:	9201      	str	r2, [sp, #4]
240539a8:	9a01      	ldr	r2, [sp, #4]
240539aa:	f8d3 2140 	ldr.w	r2, [r3, #320]	; 0x140
240539ae:	f042 0204 	orr.w	r2, r2, #4
240539b2:	f8c3 2140 	str.w	r2, [r3, #320]	; 0x140
240539b6:	2210      	movs	r2, #16
240539b8:	f8d3 3140 	ldr.w	r3, [r3, #320]	; 0x140
240539bc:	f003 0304 	and.w	r3, r3, #4
240539c0:	9302      	str	r3, [sp, #8]
240539c2:	9b02      	ldr	r3, [sp, #8]
240539c4:	2303      	movs	r3, #3
240539c6:	e9cd 2303 	strd	r2, r3, [sp, #12]
240539ca:	f002 fe7d 	bl	240566c8 <HAL_GPIO_Init>
240539ce:	2200      	movs	r2, #0
240539d0:	2012      	movs	r0, #18
240539d2:	4611      	mov	r1, r2
240539d4:	f001 fc34 	bl	24055240 <HAL_NVIC_SetPriority>
240539d8:	2012      	movs	r0, #18
240539da:	f001 fc63 	bl	240552a4 <HAL_NVIC_EnableIRQ>
240539de:	b008      	add	sp, #32
240539e0:	bd10      	pop	{r4, pc}
240539e2:	bf00      	nop
240539e4:	40022000 	.word	0x40022000
240539e8:	58024400 	.word	0x58024400
240539ec:	58020800 	.word	0x58020800

240539f0 <HAL_DAC_MspInit>:
240539f0:	2214      	movs	r2, #20
240539f2:	2100      	movs	r1, #0
240539f4:	b510      	push	{r4, lr}
240539f6:	b08a      	sub	sp, #40	; 0x28
240539f8:	4604      	mov	r4, r0
240539fa:	eb0d 0002 	add.w	r0, sp, r2
240539fe:	f007 fb4d 	bl	2405b09c <memset>
24053a02:	6823      	ldr	r3, [r4, #0]
24053a04:	4a21      	ldr	r2, [pc, #132]	; (24053a8c <HAL_DAC_MspInit+0x9c>)
24053a06:	4293      	cmp	r3, r2
24053a08:	d122      	bne.n	24053a50 <HAL_DAC_MspInit+0x60>
24053a0a:	4b21      	ldr	r3, [pc, #132]	; (24053a90 <HAL_DAC_MspInit+0xa0>)
24053a0c:	f8d3 2148 	ldr.w	r2, [r3, #328]	; 0x148
24053a10:	f042 5200 	orr.w	r2, r2, #536870912	; 0x20000000
24053a14:	f8c3 2148 	str.w	r2, [r3, #328]	; 0x148
24053a18:	f8d3 2148 	ldr.w	r2, [r3, #328]	; 0x148
24053a1c:	f002 5200 	and.w	r2, r2, #536870912	; 0x20000000
24053a20:	9201      	str	r2, [sp, #4]
24053a22:	9a01      	ldr	r2, [sp, #4]
24053a24:	f8d3 2140 	ldr.w	r2, [r3, #320]	; 0x140
24053a28:	f042 0201 	orr.w	r2, r2, #1
24053a2c:	f8c3 2140 	str.w	r2, [r3, #320]	; 0x140
24053a30:	f8d3 3140 	ldr.w	r3, [r3, #320]	; 0x140
24053a34:	f003 0301 	and.w	r3, r3, #1
24053a38:	9302      	str	r3, [sp, #8]
24053a3a:	9b02      	ldr	r3, [sp, #8]
24053a3c:	2330      	movs	r3, #48	; 0x30
24053a3e:	9305      	str	r3, [sp, #20]
24053a40:	2303      	movs	r3, #3
24053a42:	a905      	add	r1, sp, #20
24053a44:	4813      	ldr	r0, [pc, #76]	; (24053a94 <HAL_DAC_MspInit+0xa4>)
24053a46:	9306      	str	r3, [sp, #24]
24053a48:	f002 fe3e 	bl	240566c8 <HAL_GPIO_Init>
24053a4c:	b00a      	add	sp, #40	; 0x28
24053a4e:	bd10      	pop	{r4, pc}
24053a50:	4a11      	ldr	r2, [pc, #68]	; (24053a98 <HAL_DAC_MspInit+0xa8>)
24053a52:	4293      	cmp	r3, r2
24053a54:	d1fa      	bne.n	24053a4c <HAL_DAC_MspInit+0x5c>
24053a56:	4b0e      	ldr	r3, [pc, #56]	; (24053a90 <HAL_DAC_MspInit+0xa0>)
24053a58:	f8d3 2154 	ldr.w	r2, [r3, #340]	; 0x154
24053a5c:	f442 5200 	orr.w	r2, r2, #8192	; 0x2000
24053a60:	f8c3 2154 	str.w	r2, [r3, #340]	; 0x154
24053a64:	f8d3 2154 	ldr.w	r2, [r3, #340]	; 0x154
24053a68:	f402 5200 	and.w	r2, r2, #8192	; 0x2000
24053a6c:	9203      	str	r2, [sp, #12]
24053a6e:	9a03      	ldr	r2, [sp, #12]
24053a70:	f8d3 2140 	ldr.w	r2, [r3, #320]	; 0x140
24053a74:	f042 0201 	orr.w	r2, r2, #1
24053a78:	f8c3 2140 	str.w	r2, [r3, #320]	; 0x140
24053a7c:	f8d3 3140 	ldr.w	r3, [r3, #320]	; 0x140
24053a80:	f003 0301 	and.w	r3, r3, #1
24053a84:	9304      	str	r3, [sp, #16]
24053a86:	9b04      	ldr	r3, [sp, #16]
24053a88:	2340      	movs	r3, #64	; 0x40
24053a8a:	e7d8      	b.n	24053a3e <HAL_DAC_MspInit+0x4e>
24053a8c:	40007400 	.word	0x40007400
24053a90:	58024400 	.word	0x58024400
24053a94:	58020000 	.word	0x58020000
24053a98:	58003400 	.word	0x58003400

24053a9c <HAL_DMA2D_MspInit>:
24053a9c:	6802      	ldr	r2, [r0, #0]
24053a9e:	b082      	sub	sp, #8
24053aa0:	4b08      	ldr	r3, [pc, #32]	; (24053ac4 <HAL_DMA2D_MspInit+0x28>)
24053aa2:	429a      	cmp	r2, r3
24053aa4:	d10c      	bne.n	24053ac0 <HAL_DMA2D_MspInit+0x24>
24053aa6:	4b08      	ldr	r3, [pc, #32]	; (24053ac8 <HAL_DMA2D_MspInit+0x2c>)
24053aa8:	f8d3 2134 	ldr.w	r2, [r3, #308]	; 0x134
24053aac:	f042 0210 	orr.w	r2, r2, #16
24053ab0:	f8c3 2134 	str.w	r2, [r3, #308]	; 0x134
24053ab4:	f8d3 3134 	ldr.w	r3, [r3, #308]	; 0x134
24053ab8:	f003 0310 	and.w	r3, r3, #16
24053abc:	9301      	str	r3, [sp, #4]
24053abe:	9b01      	ldr	r3, [sp, #4]
24053ac0:	b002      	add	sp, #8
24053ac2:	4770      	bx	lr
24053ac4:	52001000 	.word	0x52001000
24053ac8:	58024400 	.word	0x58024400

24053acc <HAL_LTDC_MspInit>:
24053acc:	e92d 41f0 	stmdb	sp!, {r4, r5, r6, r7, r8, lr}
24053ad0:	b08c      	sub	sp, #48	; 0x30
24053ad2:	4604      	mov	r4, r0
24053ad4:	2214      	movs	r2, #20
24053ad6:	2100      	movs	r1, #0
24053ad8:	a807      	add	r0, sp, #28
24053ada:	f007 fadf 	bl	2405b09c <memset>
24053ade:	6822      	ldr	r2, [r4, #0]
24053ae0:	4b6a      	ldr	r3, [pc, #424]	; (24053c8c <HAL_LTDC_MspInit+0x1c0>)
24053ae2:	429a      	cmp	r2, r3
24053ae4:	f040 80ce 	bne.w	24053c84 <HAL_LTDC_MspInit+0x1b8>
24053ae8:	4b69      	ldr	r3, [pc, #420]	; (24053c90 <HAL_LTDC_MspInit+0x1c4>)
24053aea:	2502      	movs	r5, #2
24053aec:	f04f 0801 	mov.w	r8, #1
24053af0:	270b      	movs	r7, #11
24053af2:	f8d3 2144 	ldr.w	r2, [r3, #324]	; 0x144
24053af6:	a907      	add	r1, sp, #28
24053af8:	4866      	ldr	r0, [pc, #408]	; (24053c94 <HAL_LTDC_MspInit+0x1c8>)
24053afa:	2400      	movs	r4, #0
24053afc:	f042 0208 	orr.w	r2, r2, #8
24053b00:	260e      	movs	r6, #14
24053b02:	f8c3 2144 	str.w	r2, [r3, #324]	; 0x144
24053b06:	f8d3 2144 	ldr.w	r2, [r3, #324]	; 0x144
24053b0a:	f002 0208 	and.w	r2, r2, #8
24053b0e:	9201      	str	r2, [sp, #4]
24053b10:	9a01      	ldr	r2, [sp, #4]
24053b12:	f8d3 2140 	ldr.w	r2, [r3, #320]	; 0x140
24053b16:	f042 0204 	orr.w	r2, r2, #4
24053b1a:	f8c3 2140 	str.w	r2, [r3, #320]	; 0x140
24053b1e:	f8d3 2140 	ldr.w	r2, [r3, #320]	; 0x140
24053b22:	f002 0204 	and.w	r2, r2, #4
24053b26:	9202      	str	r2, [sp, #8]
24053b28:	9a02      	ldr	r2, [sp, #8]
24053b2a:	f8d3 2140 	ldr.w	r2, [r3, #320]	; 0x140
24053b2e:	f042 0201 	orr.w	r2, r2, #1
24053b32:	f8c3 2140 	str.w	r2, [r3, #320]	; 0x140
24053b36:	f8d3 2140 	ldr.w	r2, [r3, #320]	; 0x140
24053b3a:	f002 0201 	and.w	r2, r2, #1
24053b3e:	9203      	str	r2, [sp, #12]
24053b40:	9a03      	ldr	r2, [sp, #12]
24053b42:	f8d3 2140 	ldr.w	r2, [r3, #320]	; 0x140
24053b46:	f042 0202 	orr.w	r2, r2, #2
24053b4a:	f8c3 2140 	str.w	r2, [r3, #320]	; 0x140
24053b4e:	f8d3 2140 	ldr.w	r2, [r3, #320]	; 0x140
24053b52:	f002 0202 	and.w	r2, r2, #2
24053b56:	9204      	str	r2, [sp, #16]
24053b58:	9a04      	ldr	r2, [sp, #16]
24053b5a:	f8d3 2140 	ldr.w	r2, [r3, #320]	; 0x140
24053b5e:	f042 0210 	orr.w	r2, r2, #16
24053b62:	f8c3 2140 	str.w	r2, [r3, #320]	; 0x140
24053b66:	f8d3 2140 	ldr.w	r2, [r3, #320]	; 0x140
24053b6a:	f002 0210 	and.w	r2, r2, #16
24053b6e:	9205      	str	r2, [sp, #20]
24053b70:	9a05      	ldr	r2, [sp, #20]
24053b72:	f8d3 2140 	ldr.w	r2, [r3, #320]	; 0x140
24053b76:	f042 0208 	orr.w	r2, r2, #8
24053b7a:	f8c3 2140 	str.w	r2, [r3, #320]	; 0x140
24053b7e:	f8d3 3140 	ldr.w	r3, [r3, #320]	; 0x140
24053b82:	f003 0308 	and.w	r3, r3, #8
24053b86:	9306      	str	r3, [sp, #24]
24053b88:	9b06      	ldr	r3, [sp, #24]
24053b8a:	e9cd 8507 	strd	r8, r5, [sp, #28]
24053b8e:	970b      	str	r7, [sp, #44]	; 0x2c
24053b90:	f002 fd9a 	bl	240566c8 <HAL_GPIO_Init>
24053b94:	f44f 6338 	mov.w	r3, #2944	; 0xb80
24053b98:	a907      	add	r1, sp, #28
24053b9a:	483f      	ldr	r0, [pc, #252]	; (24053c98 <HAL_LTDC_MspInit+0x1cc>)
24053b9c:	960b      	str	r6, [sp, #44]	; 0x2c
24053b9e:	e9cd 3507 	strd	r3, r5, [sp, #28]
24053ba2:	e9cd 4409 	strd	r4, r4, [sp, #36]	; 0x24
24053ba6:	f002 fd8f 	bl	240566c8 <HAL_GPIO_Init>
24053baa:	a907      	add	r1, sp, #28
24053bac:	483b      	ldr	r0, [pc, #236]	; (24053c9c <HAL_LTDC_MspInit+0x1d0>)
24053bae:	e9cd 8507 	strd	r8, r5, [sp, #28]
24053bb2:	f04f 0809 	mov.w	r8, #9
24053bb6:	e9cd 4409 	strd	r4, r4, [sp, #36]	; 0x24
24053bba:	f8cd 802c 	str.w	r8, [sp, #44]	; 0x2c
24053bbe:	f002 fd83 	bl	240566c8 <HAL_GPIO_Init>
24053bc2:	f44f 4320 	mov.w	r3, #40960	; 0xa000
24053bc6:	a907      	add	r1, sp, #28
24053bc8:	4835      	ldr	r0, [pc, #212]	; (24053ca0 <HAL_LTDC_MspInit+0x1d4>)
24053bca:	960b      	str	r6, [sp, #44]	; 0x2c
24053bcc:	e9cd 3507 	strd	r3, r5, [sp, #28]
24053bd0:	e9cd 4409 	strd	r4, r4, [sp, #36]	; 0x24
24053bd4:	f002 fd78 	bl	240566c8 <HAL_GPIO_Init>
24053bd8:	f44f 439a 	mov.w	r3, #19712	; 0x4d00
24053bdc:	a907      	add	r1, sp, #28
24053bde:	482f      	ldr	r0, [pc, #188]	; (24053c9c <HAL_LTDC_MspInit+0x1d0>)
24053be0:	960b      	str	r6, [sp, #44]	; 0x2c
24053be2:	e9cd 3507 	strd	r3, r5, [sp, #28]
24053be6:	e9cd 4409 	strd	r4, r4, [sp, #36]	; 0x24
24053bea:	f002 fd6d 	bl	240566c8 <HAL_GPIO_Init>
24053bee:	f44f 6389 	mov.w	r3, #1096	; 0x448
24053bf2:	a907      	add	r1, sp, #28
24053bf4:	482b      	ldr	r0, [pc, #172]	; (24053ca4 <HAL_LTDC_MspInit+0x1d8>)
24053bf6:	960b      	str	r6, [sp, #44]	; 0x2c
24053bf8:	e9cd 3507 	strd	r3, r5, [sp, #28]
24053bfc:	e9cd 4409 	strd	r4, r4, [sp, #36]	; 0x24
24053c00:	f002 fd62 	bl	240566c8 <HAL_GPIO_Init>
24053c04:	f44f 6398 	mov.w	r3, #1216	; 0x4c0
24053c08:	a907      	add	r1, sp, #28
24053c0a:	4822      	ldr	r0, [pc, #136]	; (24053c94 <HAL_LTDC_MspInit+0x1c8>)
24053c0c:	960b      	str	r6, [sp, #44]	; 0x2c
24053c0e:	e9cd 3507 	strd	r3, r5, [sp, #28]
24053c12:	e9cd 4409 	strd	r4, r4, [sp, #36]	; 0x24
24053c16:	f002 fd57 	bl	240566c8 <HAL_GPIO_Init>
24053c1a:	f44f 7300 	mov.w	r3, #512	; 0x200
24053c1e:	a907      	add	r1, sp, #28
24053c20:	481c      	ldr	r0, [pc, #112]	; (24053c94 <HAL_LTDC_MspInit+0x1c8>)
24053c22:	e9cd 3507 	strd	r3, r5, [sp, #28]
24053c26:	230a      	movs	r3, #10
24053c28:	e9cd 4409 	strd	r4, r4, [sp, #36]	; 0x24
24053c2c:	930b      	str	r3, [sp, #44]	; 0x2c
24053c2e:	f002 fd4b 	bl	240566c8 <HAL_GPIO_Init>
24053c32:	f44f 6380 	mov.w	r3, #1024	; 0x400
24053c36:	a907      	add	r1, sp, #28
24053c38:	4817      	ldr	r0, [pc, #92]	; (24053c98 <HAL_LTDC_MspInit+0x1cc>)
24053c3a:	e9cd 3507 	strd	r3, r5, [sp, #28]
24053c3e:	230c      	movs	r3, #12
24053c40:	e9cd 4409 	strd	r4, r4, [sp, #36]	; 0x24
24053c44:	930b      	str	r3, [sp, #44]	; 0x2c
24053c46:	f002 fd3f 	bl	240566c8 <HAL_GPIO_Init>
24053c4a:	2304      	movs	r3, #4
24053c4c:	a907      	add	r1, sp, #28
24053c4e:	4815      	ldr	r0, [pc, #84]	; (24053ca4 <HAL_LTDC_MspInit+0x1d8>)
24053c50:	f8cd 802c 	str.w	r8, [sp, #44]	; 0x2c
24053c54:	e9cd 3507 	strd	r3, r5, [sp, #28]
24053c58:	e9cd 4409 	strd	r4, r4, [sp, #36]	; 0x24
24053c5c:	f002 fd34 	bl	240566c8 <HAL_GPIO_Init>
24053c60:	2320      	movs	r3, #32
24053c62:	a907      	add	r1, sp, #28
24053c64:	480d      	ldr	r0, [pc, #52]	; (24053c9c <HAL_LTDC_MspInit+0x1d0>)
24053c66:	970b      	str	r7, [sp, #44]	; 0x2c
24053c68:	e9cd 3507 	strd	r3, r5, [sp, #28]
24053c6c:	e9cd 4409 	strd	r4, r4, [sp, #36]	; 0x24
24053c70:	f002 fd2a 	bl	240566c8 <HAL_GPIO_Init>
24053c74:	2058      	movs	r0, #88	; 0x58
24053c76:	4622      	mov	r2, r4
24053c78:	4621      	mov	r1, r4
24053c7a:	f001 fae1 	bl	24055240 <HAL_NVIC_SetPriority>
24053c7e:	2058      	movs	r0, #88	; 0x58
24053c80:	f001 fb10 	bl	240552a4 <HAL_NVIC_EnableIRQ>
24053c84:	b00c      	add	sp, #48	; 0x30
24053c86:	e8bd 81f0 	ldmia.w	sp!, {r4, r5, r6, r7, r8, pc}
24053c8a:	bf00      	nop
24053c8c:	50001000 	.word	0x50001000
24053c90:	58024400 	.word	0x58024400
24053c94:	58020800 	.word	0x58020800
24053c98:	58020000 	.word	0x58020000
24053c9c:	58020400 	.word	0x58020400
24053ca0:	58021000 	.word	0x58021000
24053ca4:	58020c00 	.word	0x58020c00

24053ca8 <HAL_OSPI_MspInit>:
24053ca8:	e92d 43f0 	stmdb	sp!, {r4, r5, r6, r7, r8, r9, lr}
24053cac:	b0bd      	sub	sp, #244	; 0xf4
24053cae:	4604      	mov	r4, r0
24053cb0:	2214      	movs	r2, #20
24053cb2:	2100      	movs	r1, #0
24053cb4:	a807      	add	r0, sp, #28
24053cb6:	f007 f9f1 	bl	2405b09c <memset>
24053cba:	22c0      	movs	r2, #192	; 0xc0
24053cbc:	2100      	movs	r1, #0
24053cbe:	a80c      	add	r0, sp, #48	; 0x30
24053cc0:	f007 f9ec 	bl	2405b09c <memset>
24053cc4:	6822      	ldr	r2, [r4, #0]
24053cc6:	4b51      	ldr	r3, [pc, #324]	; (24053e0c <HAL_OSPI_MspInit+0x164>)
24053cc8:	429a      	cmp	r2, r3
24053cca:	f040 809b 	bne.w	24053e04 <HAL_OSPI_MspInit+0x15c>
24053cce:	2300      	movs	r3, #0
24053cd0:	f04f 7200 	mov.w	r2, #33554432	; 0x2000000
24053cd4:	e9cd 230c 	strd	r2, r3, [sp, #48]	; 0x30
24053cd8:	2330      	movs	r3, #48	; 0x30
24053cda:	eb0d 0003 	add.w	r0, sp, r3
24053cde:	931f      	str	r3, [sp, #124]	; 0x7c
24053ce0:	f004 fb66 	bl	240583b0 <HAL_RCCEx_PeriphCLKConfig>
24053ce4:	b108      	cbz	r0, 24053cea <HAL_OSPI_MspInit+0x42>
24053ce6:	f7ff fe31 	bl	2405394c <Error_Handler>
24053cea:	4b49      	ldr	r3, [pc, #292]	; (24053e10 <HAL_OSPI_MspInit+0x168>)
24053cec:	2402      	movs	r4, #2
24053cee:	2600      	movs	r6, #0
24053cf0:	2503      	movs	r5, #3
24053cf2:	f8d3 2134 	ldr.w	r2, [r3, #308]	; 0x134
24053cf6:	2709      	movs	r7, #9
24053cf8:	f04f 0904 	mov.w	r9, #4
24053cfc:	a907      	add	r1, sp, #28
24053cfe:	f442 1200 	orr.w	r2, r2, #2097152	; 0x200000
24053d02:	4844      	ldr	r0, [pc, #272]	; (24053e14 <HAL_OSPI_MspInit+0x16c>)
24053d04:	f04f 080b 	mov.w	r8, #11
24053d08:	f8c3 2134 	str.w	r2, [r3, #308]	; 0x134
24053d0c:	f8d3 2134 	ldr.w	r2, [r3, #308]	; 0x134
24053d10:	f402 1200 	and.w	r2, r2, #2097152	; 0x200000
24053d14:	9201      	str	r2, [sp, #4]
24053d16:	9a01      	ldr	r2, [sp, #4]
24053d18:	f8d3 2134 	ldr.w	r2, [r3, #308]	; 0x134
24053d1c:	f442 4280 	orr.w	r2, r2, #16384	; 0x4000
24053d20:	f8c3 2134 	str.w	r2, [r3, #308]	; 0x134
24053d24:	f8d3 2134 	ldr.w	r2, [r3, #308]	; 0x134
24053d28:	f402 4280 	and.w	r2, r2, #16384	; 0x4000
24053d2c:	9202      	str	r2, [sp, #8]
24053d2e:	9a02      	ldr	r2, [sp, #8]
24053d30:	f8d3 2140 	ldr.w	r2, [r3, #320]	; 0x140
24053d34:	f042 0210 	orr.w	r2, r2, #16
24053d38:	f8c3 2140 	str.w	r2, [r3, #320]	; 0x140
24053d3c:	f8d3 2140 	ldr.w	r2, [r3, #320]	; 0x140
24053d40:	f002 0210 	and.w	r2, r2, #16
24053d44:	9203      	str	r2, [sp, #12]
24053d46:	9a03      	ldr	r2, [sp, #12]
24053d48:	f8d3 2140 	ldr.w	r2, [r3, #320]	; 0x140
24053d4c:	f042 0201 	orr.w	r2, r2, #1
24053d50:	f8c3 2140 	str.w	r2, [r3, #320]	; 0x140
24053d54:	f8d3 2140 	ldr.w	r2, [r3, #320]	; 0x140
24053d58:	f002 0201 	and.w	r2, r2, #1
24053d5c:	9204      	str	r2, [sp, #16]
24053d5e:	9a04      	ldr	r2, [sp, #16]
24053d60:	f8d3 2140 	ldr.w	r2, [r3, #320]	; 0x140
24053d64:	f042 0202 	orr.w	r2, r2, #2
24053d68:	f8c3 2140 	str.w	r2, [r3, #320]	; 0x140
24053d6c:	f8d3 2140 	ldr.w	r2, [r3, #320]	; 0x140
24053d70:	f002 0202 	and.w	r2, r2, #2
24053d74:	9205      	str	r2, [sp, #20]
24053d76:	9a05      	ldr	r2, [sp, #20]
24053d78:	f8d3 2140 	ldr.w	r2, [r3, #320]	; 0x140
24053d7c:	f042 0208 	orr.w	r2, r2, #8
24053d80:	f8c3 2140 	str.w	r2, [r3, #320]	; 0x140
24053d84:	f8d3 3140 	ldr.w	r3, [r3, #320]	; 0x140
24053d88:	f003 0308 	and.w	r3, r3, #8
24053d8c:	9306      	str	r3, [sp, #24]
24053d8e:	9b06      	ldr	r3, [sp, #24]
24053d90:	e9cd 9407 	strd	r9, r4, [sp, #28]
24053d94:	e9cd 6509 	strd	r6, r5, [sp, #36]	; 0x24
24053d98:	970b      	str	r7, [sp, #44]	; 0x2c
24053d9a:	f002 fc95 	bl	240566c8 <HAL_GPIO_Init>
24053d9e:	a907      	add	r1, sp, #28
24053da0:	481d      	ldr	r0, [pc, #116]	; (24053e18 <HAL_OSPI_MspInit+0x170>)
24053da2:	970b      	str	r7, [sp, #44]	; 0x2c
24053da4:	e9cd 4407 	strd	r4, r4, [sp, #28]
24053da8:	e9cd 6509 	strd	r6, r5, [sp, #36]	; 0x24
24053dac:	f002 fc8c 	bl	240566c8 <HAL_GPIO_Init>
24053db0:	a907      	add	r1, sp, #28
24053db2:	481a      	ldr	r0, [pc, #104]	; (24053e1c <HAL_OSPI_MspInit+0x174>)
24053db4:	f8cd 802c 	str.w	r8, [sp, #44]	; 0x2c
24053db8:	e9cd 4407 	strd	r4, r4, [sp, #28]
24053dbc:	e9cd 6509 	strd	r6, r5, [sp, #36]	; 0x24
24053dc0:	f002 fc82 	bl	240566c8 <HAL_GPIO_Init>
24053dc4:	a907      	add	r1, sp, #28
24053dc6:	4815      	ldr	r0, [pc, #84]	; (24053e1c <HAL_OSPI_MspInit+0x174>)
24053dc8:	970b      	str	r7, [sp, #44]	; 0x2c
24053dca:	e9cd 9407 	strd	r9, r4, [sp, #28]
24053dce:	e9cd 6509 	strd	r6, r5, [sp, #36]	; 0x24
24053dd2:	f002 fc79 	bl	240566c8 <HAL_GPIO_Init>
24053dd6:	f44f 6300 	mov.w	r3, #2048	; 0x800
24053dda:	a907      	add	r1, sp, #28
24053ddc:	480d      	ldr	r0, [pc, #52]	; (24053e14 <HAL_OSPI_MspInit+0x16c>)
24053dde:	f8cd 802c 	str.w	r8, [sp, #44]	; 0x2c
24053de2:	e9cd 3407 	strd	r3, r4, [sp, #28]
24053de6:	e9cd 6509 	strd	r6, r5, [sp, #36]	; 0x24
24053dea:	f002 fc6d 	bl	240566c8 <HAL_GPIO_Init>
24053dee:	f44f 5380 	mov.w	r3, #4096	; 0x1000
24053df2:	a907      	add	r1, sp, #28
24053df4:	480a      	ldr	r0, [pc, #40]	; (24053e20 <HAL_OSPI_MspInit+0x178>)
24053df6:	970b      	str	r7, [sp, #44]	; 0x2c
24053df8:	e9cd 3407 	strd	r3, r4, [sp, #28]
24053dfc:	e9cd 6509 	strd	r6, r5, [sp, #36]	; 0x24
24053e00:	f002 fc62 	bl	240566c8 <HAL_GPIO_Init>
24053e04:	b03d      	add	sp, #244	; 0xf4
24053e06:	e8bd 83f0 	ldmia.w	sp!, {r4, r5, r6, r7, r8, r9, pc}
24053e0a:	bf00      	nop
24053e0c:	52005000 	.word	0x52005000
24053e10:	58024400 	.word	0x58024400
24053e14:	58021000 	.word	0x58021000
24053e18:	58020000 	.word	0x58020000
24053e1c:	58020400 	.word	0x58020400
24053e20:	58020c00 	.word	0x58020c00

24053e24 <HAL_RTC_MspInit>:
24053e24:	b510      	push	{r4, lr}
24053e26:	b0b0      	sub	sp, #192	; 0xc0
24053e28:	4604      	mov	r4, r0
24053e2a:	22c0      	movs	r2, #192	; 0xc0
24053e2c:	2100      	movs	r1, #0
24053e2e:	4668      	mov	r0, sp
24053e30:	f007 f934 	bl	2405b09c <memset>
24053e34:	6822      	ldr	r2, [r4, #0]
24053e36:	4b0c      	ldr	r3, [pc, #48]	; (24053e68 <HAL_RTC_MspInit+0x44>)
24053e38:	429a      	cmp	r2, r3
24053e3a:	d112      	bne.n	24053e62 <HAL_RTC_MspInit+0x3e>
24053e3c:	2300      	movs	r3, #0
24053e3e:	f44f 0280 	mov.w	r2, #4194304	; 0x400000
24053e42:	4668      	mov	r0, sp
24053e44:	e9cd 2300 	strd	r2, r3, [sp]
24053e48:	f44f 7380 	mov.w	r3, #256	; 0x100
24053e4c:	932d      	str	r3, [sp, #180]	; 0xb4
24053e4e:	f004 faaf 	bl	240583b0 <HAL_RCCEx_PeriphCLKConfig>
24053e52:	b108      	cbz	r0, 24053e58 <HAL_RTC_MspInit+0x34>
24053e54:	f7ff fd7a 	bl	2405394c <Error_Handler>
24053e58:	4a04      	ldr	r2, [pc, #16]	; (24053e6c <HAL_RTC_MspInit+0x48>)
24053e5a:	6f13      	ldr	r3, [r2, #112]	; 0x70
24053e5c:	f443 4300 	orr.w	r3, r3, #32768	; 0x8000
24053e60:	6713      	str	r3, [r2, #112]	; 0x70
24053e62:	b030      	add	sp, #192	; 0xc0
24053e64:	bd10      	pop	{r4, pc}
24053e66:	bf00      	nop
24053e68:	58004000 	.word	0x58004000
24053e6c:	58024400 	.word	0x58024400

24053e70 <HAL_SPI_MspInit>:
24053e70:	b510      	push	{r4, lr}
24053e72:	b0b8      	sub	sp, #224	; 0xe0
24053e74:	4604      	mov	r4, r0
24053e76:	2214      	movs	r2, #20
24053e78:	2100      	movs	r1, #0
24053e7a:	a803      	add	r0, sp, #12
24053e7c:	f007 f90e 	bl	2405b09c <memset>
24053e80:	22c0      	movs	r2, #192	; 0xc0
24053e82:	2100      	movs	r1, #0
24053e84:	a808      	add	r0, sp, #32
24053e86:	f007 f909 	bl	2405b09c <memset>
24053e8a:	6822      	ldr	r2, [r4, #0]
24053e8c:	4b1c      	ldr	r3, [pc, #112]	; (24053f00 <HAL_SPI_MspInit+0x90>)
24053e8e:	429a      	cmp	r2, r3
24053e90:	d134      	bne.n	24053efc <HAL_SPI_MspInit+0x8c>
24053e92:	2300      	movs	r3, #0
24053e94:	f44f 5280 	mov.w	r2, #4096	; 0x1000
24053e98:	a808      	add	r0, sp, #32
24053e9a:	e9cd 2308 	strd	r2, r3, [sp, #32]
24053e9e:	f44f 4380 	mov.w	r3, #16384	; 0x4000
24053ea2:	9321      	str	r3, [sp, #132]	; 0x84
24053ea4:	f004 fa84 	bl	240583b0 <HAL_RCCEx_PeriphCLKConfig>
24053ea8:	b108      	cbz	r0, 24053eae <HAL_SPI_MspInit+0x3e>
24053eaa:	f7ff fd4f 	bl	2405394c <Error_Handler>
24053eae:	4b15      	ldr	r3, [pc, #84]	; (24053f04 <HAL_SPI_MspInit+0x94>)
24053eb0:	a903      	add	r1, sp, #12
24053eb2:	4815      	ldr	r0, [pc, #84]	; (24053f08 <HAL_SPI_MspInit+0x98>)
24053eb4:	f8d3 2148 	ldr.w	r2, [r3, #328]	; 0x148
24053eb8:	f442 4280 	orr.w	r2, r2, #16384	; 0x4000
24053ebc:	f8c3 2148 	str.w	r2, [r3, #328]	; 0x148
24053ec0:	f8d3 2148 	ldr.w	r2, [r3, #328]	; 0x148
24053ec4:	f402 4280 	and.w	r2, r2, #16384	; 0x4000
24053ec8:	9201      	str	r2, [sp, #4]
24053eca:	9a01      	ldr	r2, [sp, #4]
24053ecc:	f8d3 2140 	ldr.w	r2, [r3, #320]	; 0x140
24053ed0:	f042 0202 	orr.w	r2, r2, #2
24053ed4:	f8c3 2140 	str.w	r2, [r3, #320]	; 0x140
24053ed8:	f44f 4220 	mov.w	r2, #40960	; 0xa000
24053edc:	f8d3 3140 	ldr.w	r3, [r3, #320]	; 0x140
24053ee0:	f003 0302 	and.w	r3, r3, #2
24053ee4:	9302      	str	r3, [sp, #8]
24053ee6:	9b02      	ldr	r3, [sp, #8]
24053ee8:	2302      	movs	r3, #2
24053eea:	e9cd 2303 	strd	r2, r3, [sp, #12]
24053eee:	2300      	movs	r3, #0
24053ef0:	e9cd 3305 	strd	r3, r3, [sp, #20]
24053ef4:	2305      	movs	r3, #5
24053ef6:	9307      	str	r3, [sp, #28]
24053ef8:	f002 fbe6 	bl	240566c8 <HAL_GPIO_Init>
24053efc:	b038      	add	sp, #224	; 0xe0
24053efe:	bd10      	pop	{r4, pc}
24053f00:	40003800 	.word	0x40003800
24053f04:	58024400 	.word	0x58024400
24053f08:	58020400 	.word	0x58020400

24053f0c <HAL_TIM_Base_MspInit>:
24053f0c:	4b0f      	ldr	r3, [pc, #60]	; (24053f4c <HAL_TIM_Base_MspInit+0x40>)
24053f0e:	b507      	push	{r0, r1, r2, lr}
24053f10:	6802      	ldr	r2, [r0, #0]
24053f12:	429a      	cmp	r2, r3
24053f14:	d117      	bne.n	24053f46 <HAL_TIM_Base_MspInit+0x3a>
24053f16:	4b0e      	ldr	r3, [pc, #56]	; (24053f50 <HAL_TIM_Base_MspInit+0x44>)
24053f18:	2019      	movs	r0, #25
24053f1a:	f8d3 2150 	ldr.w	r2, [r3, #336]	; 0x150
24053f1e:	f042 0201 	orr.w	r2, r2, #1
24053f22:	f8c3 2150 	str.w	r2, [r3, #336]	; 0x150
24053f26:	2200      	movs	r2, #0
24053f28:	f8d3 3150 	ldr.w	r3, [r3, #336]	; 0x150
24053f2c:	4611      	mov	r1, r2
24053f2e:	f003 0301 	and.w	r3, r3, #1
24053f32:	9301      	str	r3, [sp, #4]
24053f34:	9b01      	ldr	r3, [sp, #4]
24053f36:	f001 f983 	bl	24055240 <HAL_NVIC_SetPriority>
24053f3a:	2019      	movs	r0, #25
24053f3c:	b003      	add	sp, #12
24053f3e:	f85d eb04 	ldr.w	lr, [sp], #4
24053f42:	f001 b9af 	b.w	240552a4 <HAL_NVIC_EnableIRQ>
24053f46:	b003      	add	sp, #12
24053f48:	f85d fb04 	ldr.w	pc, [sp], #4
24053f4c:	40010000 	.word	0x40010000
24053f50:	58024400 	.word	0x58024400

24053f54 <HAL_SAI_MspInit>:
24053f54:	b570      	push	{r4, r5, r6, lr}
24053f56:	24c0      	movs	r4, #192	; 0xc0
24053f58:	b0b6      	sub	sp, #216	; 0xd8
24053f5a:	4605      	mov	r5, r0
24053f5c:	2100      	movs	r1, #0
24053f5e:	4622      	mov	r2, r4
24053f60:	a806      	add	r0, sp, #24
24053f62:	f007 f89b 	bl	2405b09c <memset>
24053f66:	682a      	ldr	r2, [r5, #0]
24053f68:	4b34      	ldr	r3, [pc, #208]	; (2405403c <HAL_SAI_MspInit+0xe8>)
24053f6a:	429a      	cmp	r2, r3
24053f6c:	d164      	bne.n	24054038 <HAL_SAI_MspInit+0xe4>
24053f6e:	f44f 7280 	mov.w	r2, #256	; 0x100
24053f72:	2300      	movs	r3, #0
24053f74:	a806      	add	r0, sp, #24
24053f76:	e9cd 2306 	strd	r2, r3, [sp, #24]
24053f7a:	2319      	movs	r3, #25
24053f7c:	2202      	movs	r2, #2
24053f7e:	e9cd 3408 	strd	r3, r4, [sp, #32]
24053f82:	2305      	movs	r3, #5
24053f84:	e9cd 320a 	strd	r3, r2, [sp, #40]	; 0x28
24053f88:	930c      	str	r3, [sp, #48]	; 0x30
24053f8a:	2340      	movs	r3, #64	; 0x40
24053f8c:	930d      	str	r3, [sp, #52]	; 0x34
24053f8e:	2301      	movs	r3, #1
24053f90:	931c      	str	r3, [sp, #112]	; 0x70
24053f92:	f004 fa0d 	bl	240583b0 <HAL_RCCEx_PeriphCLKConfig>
24053f96:	b108      	cbz	r0, 24053f9c <HAL_SAI_MspInit+0x48>
24053f98:	f7ff fcd8 	bl	2405394c <Error_Handler>
24053f9c:	4c28      	ldr	r4, [pc, #160]	; (24054040 <HAL_SAI_MspInit+0xec>)
24053f9e:	6822      	ldr	r2, [r4, #0]
24053fa0:	b99a      	cbnz	r2, 24053fca <HAL_SAI_MspInit+0x76>
24053fa2:	4b28      	ldr	r3, [pc, #160]	; (24054044 <HAL_SAI_MspInit+0xf0>)
24053fa4:	2057      	movs	r0, #87	; 0x57
24053fa6:	f8d3 1150 	ldr.w	r1, [r3, #336]	; 0x150
24053faa:	f441 0180 	orr.w	r1, r1, #4194304	; 0x400000
24053fae:	f8c3 1150 	str.w	r1, [r3, #336]	; 0x150
24053fb2:	4611      	mov	r1, r2
24053fb4:	f8d3 3150 	ldr.w	r3, [r3, #336]	; 0x150
24053fb8:	f403 0380 	and.w	r3, r3, #4194304	; 0x400000
24053fbc:	9300      	str	r3, [sp, #0]
24053fbe:	9b00      	ldr	r3, [sp, #0]
24053fc0:	f001 f93e 	bl	24055240 <HAL_NVIC_SetPriority>
24053fc4:	2057      	movs	r0, #87	; 0x57
24053fc6:	f001 f96d 	bl	240552a4 <HAL_NVIC_EnableIRQ>
24053fca:	6823      	ldr	r3, [r4, #0]
24053fcc:	2270      	movs	r2, #112	; 0x70
24053fce:	2600      	movs	r6, #0
24053fd0:	a901      	add	r1, sp, #4
24053fd2:	3301      	adds	r3, #1
24053fd4:	481c      	ldr	r0, [pc, #112]	; (24054048 <HAL_SAI_MspInit+0xf4>)
24053fd6:	6023      	str	r3, [r4, #0]
24053fd8:	2302      	movs	r3, #2
24053fda:	4c1c      	ldr	r4, [pc, #112]	; (2405404c <HAL_SAI_MspInit+0xf8>)
24053fdc:	e9cd 2301 	strd	r2, r3, [sp, #4]
24053fe0:	2306      	movs	r3, #6
24053fe2:	e9cd 6603 	strd	r6, r6, [sp, #12]
24053fe6:	9305      	str	r3, [sp, #20]
24053fe8:	f002 fb6e 	bl	240566c8 <HAL_GPIO_Init>
24053fec:	2357      	movs	r3, #87	; 0x57
24053fee:	4918      	ldr	r1, [pc, #96]	; (24054050 <HAL_SAI_MspInit+0xfc>)
24053ff0:	f44f 6080 	mov.w	r0, #1024	; 0x400
24053ff4:	f44f 5c00 	mov.w	ip, #8192	; 0x2000
24053ff8:	f04f 0e04 	mov.w	lr, #4
24053ffc:	6226      	str	r6, [r4, #32]
24053ffe:	e9c4 1300 	strd	r1, r3, [r4]
24054002:	2340      	movs	r3, #64	; 0x40
24054004:	e9c4 3602 	strd	r3, r6, [r4, #8]
24054008:	f44f 6300 	mov.w	r3, #2048	; 0x800
2405400c:	e9c4 0304 	strd	r0, r3, [r4, #16]
24054010:	f44f 7380 	mov.w	r3, #256	; 0x100
24054014:	4620      	mov	r0, r4
24054016:	e9c4 c306 	strd	ip, r3, [r4, #24]
2405401a:	2303      	movs	r3, #3
2405401c:	e9c4 660b 	strd	r6, r6, [r4, #44]	; 0x2c
24054020:	e9c4 e309 	strd	lr, r3, [r4, #36]	; 0x24
24054024:	f001 fc10 	bl	24055848 <HAL_DMA_Init>
24054028:	b108      	cbz	r0, 2405402e <HAL_SAI_MspInit+0xda>
2405402a:	f7ff fc8f 	bl	2405394c <Error_Handler>
2405402e:	f8c5 4084 	str.w	r4, [r5, #132]	; 0x84
24054032:	63a5      	str	r5, [r4, #56]	; 0x38
24054034:	f8c5 4080 	str.w	r4, [r5, #128]	; 0x80
24054038:	b036      	add	sp, #216	; 0xd8
2405403a:	bd70      	pop	{r4, r5, r6, pc}
2405403c:	40015804 	.word	0x40015804
24054040:	20000640 	.word	0x20000640
24054044:	58024400 	.word	0x58024400
24054048:	58021000 	.word	0x58021000
2405404c:	20000330 	.word	0x20000330
24054050:	40020010 	.word	0x40020010

24054054 <NMI_Handler>:
24054054:	e7fe      	b.n	24054054 <NMI_Handler>

24054056 <HardFault_Handler>:
24054056:	e7fe      	b.n	24054056 <HardFault_Handler>

24054058 <MemManage_Handler>:
24054058:	e7fe      	b.n	24054058 <MemManage_Handler>

2405405a <BusFault_Handler>:
2405405a:	e7fe      	b.n	2405405a <BusFault_Handler>

2405405c <UsageFault_Handler>:
2405405c:	e7fe      	b.n	2405405c <UsageFault_Handler>

2405405e <SVC_Handler>:
2405405e:	4770      	bx	lr

24054060 <DebugMon_Handler>:
24054060:	4770      	bx	lr

24054062 <PendSV_Handler>:
24054062:	4770      	bx	lr

24054064 <SysTick_Handler>:
24054064:	b508      	push	{r3, lr}
24054066:	f000 f971 	bl	2405434c <HAL_IncTick>
2405406a:	2101      	movs	r1, #1
2405406c:	4809      	ldr	r0, [pc, #36]	; (24054094 <SysTick_Handler+0x30>)
2405406e:	f002 fc15 	bl	2405689c <HAL_GPIO_ReadPin>
24054072:	4a09      	ldr	r2, [pc, #36]	; (24054098 <SysTick_Handler+0x34>)
24054074:	b950      	cbnz	r0, 2405408c <SysTick_Handler+0x28>
24054076:	6813      	ldr	r3, [r2, #0]
24054078:	3301      	adds	r3, #1
2405407a:	6013      	str	r3, [r2, #0]
2405407c:	f241 3287 	movw	r2, #4999	; 0x1387
24054080:	4293      	cmp	r3, r2
24054082:	dd05      	ble.n	24054090 <SysTick_Handler+0x2c>
24054084:	e8bd 4008 	ldmia.w	sp!, {r3, lr}
24054088:	f001 b91a 	b.w	240552c0 <HAL_NVIC_SystemReset>
2405408c:	2300      	movs	r3, #0
2405408e:	6013      	str	r3, [r2, #0]
24054090:	bd08      	pop	{r3, pc}
24054092:	bf00      	nop
24054094:	58020000 	.word	0x58020000
24054098:	20000644 	.word	0x20000644

2405409c <EXTI2_IRQHandler>:
2405409c:	2004      	movs	r0, #4
2405409e:	f002 bc09 	b.w	240568b4 <HAL_GPIO_EXTI_IRQHandler>
	...

240540a4 <DMA1_Stream0_IRQHandler>:
240540a4:	4801      	ldr	r0, [pc, #4]	; (240540ac <DMA1_Stream0_IRQHandler+0x8>)
240540a6:	f002 b8dd 	b.w	24056264 <HAL_DMA_IRQHandler>
240540aa:	bf00      	nop
240540ac:	20000330 	.word	0x20000330

240540b0 <ADC_IRQHandler>:
240540b0:	4801      	ldr	r0, [pc, #4]	; (240540b8 <ADC_IRQHandler+0x8>)
240540b2:	f000 ba01 	b.w	240544b8 <HAL_ADC_IRQHandler>
240540b6:	bf00      	nop
240540b8:	2000023c 	.word	0x2000023c

240540bc <EXTI9_5_IRQHandler>:
240540bc:	2080      	movs	r0, #128	; 0x80
240540be:	f002 bbf9 	b.w	240568b4 <HAL_GPIO_EXTI_IRQHandler>
	...

240540c4 <TIM1_UP_IRQHandler>:
240540c4:	4801      	ldr	r0, [pc, #4]	; (240540cc <TIM1_UP_IRQHandler+0x8>)
240540c6:	f006 b9c2 	b.w	2405a44e <HAL_TIM_IRQHandler>
240540ca:	bf00      	nop
240540cc:	200005f4 	.word	0x200005f4

240540d0 <SAI1_IRQHandler>:
240540d0:	4801      	ldr	r0, [pc, #4]	; (240540d8 <SAI1_IRQHandler+0x8>)
240540d2:	f005 bea3 	b.w	24059e1c <HAL_SAI_IRQHandler>
240540d6:	bf00      	nop
240540d8:	200004d4 	.word	0x200004d4

240540dc <LTDC_IRQHandler>:
240540dc:	4801      	ldr	r0, [pc, #4]	; (240540e4 <LTDC_IRQHandler+0x8>)
240540de:	f002 bce5 	b.w	24056aac <HAL_LTDC_IRQHandler>
240540e2:	bf00      	nop
240540e4:	200003a8 	.word	0x200003a8

240540e8 <OCTOSPI1_IRQHandler>:
240540e8:	4801      	ldr	r0, [pc, #4]	; (240540f0 <OCTOSPI1_IRQHandler+0x8>)
240540ea:	f003 b86d 	b.w	240571c8 <HAL_OSPI_IRQHandler>
240540ee:	bf00      	nop
240540f0:	20000450 	.word	0x20000450

240540f4 <_getpid>:
240540f4:	2001      	movs	r0, #1
240540f6:	4770      	bx	lr

240540f8 <_kill>:
240540f8:	b508      	push	{r3, lr}
240540fa:	f007 f82d 	bl	2405b158 <__errno>
240540fe:	2316      	movs	r3, #22
24054100:	6003      	str	r3, [r0, #0]
24054102:	f04f 30ff 	mov.w	r0, #4294967295
24054106:	bd08      	pop	{r3, pc}

24054108 <_exit>:
24054108:	b508      	push	{r3, lr}
2405410a:	f007 f825 	bl	2405b158 <__errno>
2405410e:	2316      	movs	r3, #22
24054110:	6003      	str	r3, [r0, #0]
24054112:	e7fe      	b.n	24054112 <_exit+0xa>

24054114 <_read>:
24054114:	b570      	push	{r4, r5, r6, lr}
24054116:	460d      	mov	r5, r1
24054118:	4614      	mov	r4, r2
2405411a:	460e      	mov	r6, r1
2405411c:	1b73      	subs	r3, r6, r5
2405411e:	429c      	cmp	r4, r3
24054120:	dc01      	bgt.n	24054126 <_read+0x12>
24054122:	4620      	mov	r0, r4
24054124:	bd70      	pop	{r4, r5, r6, pc}
24054126:	f3af 8000 	nop.w
2405412a:	f806 0b01 	strb.w	r0, [r6], #1
2405412e:	e7f5      	b.n	2405411c <_read+0x8>

24054130 <_write>:
24054130:	b570      	push	{r4, r5, r6, lr}
24054132:	460d      	mov	r5, r1
24054134:	4614      	mov	r4, r2
24054136:	460e      	mov	r6, r1
24054138:	1b73      	subs	r3, r6, r5
2405413a:	429c      	cmp	r4, r3
2405413c:	dc01      	bgt.n	24054142 <_write+0x12>
2405413e:	4620      	mov	r0, r4
24054140:	bd70      	pop	{r4, r5, r6, pc}
24054142:	f816 0b01 	ldrb.w	r0, [r6], #1
24054146:	f3af 8000 	nop.w
2405414a:	e7f5      	b.n	24054138 <_write+0x8>

2405414c <_close>:
2405414c:	f04f 30ff 	mov.w	r0, #4294967295
24054150:	4770      	bx	lr

24054152 <_fstat>:
24054152:	f44f 5300 	mov.w	r3, #8192	; 0x2000
24054156:	2000      	movs	r0, #0
24054158:	604b      	str	r3, [r1, #4]
2405415a:	4770      	bx	lr

2405415c <_isatty>:
2405415c:	2001      	movs	r0, #1
2405415e:	4770      	bx	lr

24054160 <_lseek>:
24054160:	2000      	movs	r0, #0
24054162:	4770      	bx	lr

24054164 <_sbrk>:
24054164:	4a0b      	ldr	r2, [pc, #44]	; (24054194 <_sbrk+0x30>)
24054166:	4603      	mov	r3, r0
24054168:	6811      	ldr	r1, [r2, #0]
2405416a:	b510      	push	{r4, lr}
2405416c:	b909      	cbnz	r1, 24054172 <_sbrk+0xe>
2405416e:	490a      	ldr	r1, [pc, #40]	; (24054198 <_sbrk+0x34>)
24054170:	6011      	str	r1, [r2, #0]
24054172:	6810      	ldr	r0, [r2, #0]
24054174:	4909      	ldr	r1, [pc, #36]	; (2405419c <_sbrk+0x38>)
24054176:	4c0a      	ldr	r4, [pc, #40]	; (240541a0 <_sbrk+0x3c>)
24054178:	4403      	add	r3, r0
2405417a:	1b09      	subs	r1, r1, r4
2405417c:	428b      	cmp	r3, r1
2405417e:	d906      	bls.n	2405418e <_sbrk+0x2a>
24054180:	f006 ffea 	bl	2405b158 <__errno>
24054184:	230c      	movs	r3, #12
24054186:	6003      	str	r3, [r0, #0]
24054188:	f04f 30ff 	mov.w	r0, #4294967295
2405418c:	bd10      	pop	{r4, pc}
2405418e:	6013      	str	r3, [r2, #0]
24054190:	e7fc      	b.n	2405418c <_sbrk+0x28>
24054192:	bf00      	nop
24054194:	20000648 	.word	0x20000648
24054198:	200007a0 	.word	0x200007a0
2405419c:	20020000 	.word	0x20020000
240541a0:	00005000 	.word	0x00005000

240541a4 <SystemInit>:
240541a4:	4a22      	ldr	r2, [pc, #136]	; (24054230 <SystemInit+0x8c>)
240541a6:	f8d2 3088 	ldr.w	r3, [r2, #136]	; 0x88
240541aa:	f443 0370 	orr.w	r3, r3, #15728640	; 0xf00000
240541ae:	f8c2 3088 	str.w	r3, [r2, #136]	; 0x88
240541b2:	4a20      	ldr	r2, [pc, #128]	; (24054234 <SystemInit+0x90>)
240541b4:	6813      	ldr	r3, [r2, #0]
240541b6:	f003 030f 	and.w	r3, r3, #15
240541ba:	2b02      	cmp	r3, #2
240541bc:	d805      	bhi.n	240541ca <SystemInit+0x26>
240541be:	6813      	ldr	r3, [r2, #0]
240541c0:	f023 030f 	bic.w	r3, r3, #15
240541c4:	f043 0303 	orr.w	r3, r3, #3
240541c8:	6013      	str	r3, [r2, #0]
240541ca:	4b1b      	ldr	r3, [pc, #108]	; (24054238 <SystemInit+0x94>)
240541cc:	681a      	ldr	r2, [r3, #0]
240541ce:	f042 0201 	orr.w	r2, r2, #1
240541d2:	601a      	str	r2, [r3, #0]
240541d4:	2200      	movs	r2, #0
240541d6:	611a      	str	r2, [r3, #16]
240541d8:	4a18      	ldr	r2, [pc, #96]	; (2405423c <SystemInit+0x98>)
240541da:	6819      	ldr	r1, [r3, #0]
240541dc:	400a      	ands	r2, r1
240541de:	4915      	ldr	r1, [pc, #84]	; (24054234 <SystemInit+0x90>)
240541e0:	601a      	str	r2, [r3, #0]
240541e2:	680a      	ldr	r2, [r1, #0]
240541e4:	f012 0f0c 	tst.w	r2, #12
240541e8:	d005      	beq.n	240541f6 <SystemInit+0x52>
240541ea:	680a      	ldr	r2, [r1, #0]
240541ec:	f022 020f 	bic.w	r2, r2, #15
240541f0:	f042 0203 	orr.w	r2, r2, #3
240541f4:	600a      	str	r2, [r1, #0]
240541f6:	2200      	movs	r2, #0
240541f8:	4911      	ldr	r1, [pc, #68]	; (24054240 <SystemInit+0x9c>)
240541fa:	619a      	str	r2, [r3, #24]
240541fc:	61da      	str	r2, [r3, #28]
240541fe:	621a      	str	r2, [r3, #32]
24054200:	6299      	str	r1, [r3, #40]	; 0x28
24054202:	4910      	ldr	r1, [pc, #64]	; (24054244 <SystemInit+0xa0>)
24054204:	62d9      	str	r1, [r3, #44]	; 0x2c
24054206:	4910      	ldr	r1, [pc, #64]	; (24054248 <SystemInit+0xa4>)
24054208:	6319      	str	r1, [r3, #48]	; 0x30
2405420a:	635a      	str	r2, [r3, #52]	; 0x34
2405420c:	6399      	str	r1, [r3, #56]	; 0x38
2405420e:	63da      	str	r2, [r3, #60]	; 0x3c
24054210:	6419      	str	r1, [r3, #64]	; 0x40
24054212:	645a      	str	r2, [r3, #68]	; 0x44
24054214:	6819      	ldr	r1, [r3, #0]
24054216:	f421 2180 	bic.w	r1, r1, #262144	; 0x40000
2405421a:	6019      	str	r1, [r3, #0]
2405421c:	661a      	str	r2, [r3, #96]	; 0x60
2405421e:	f243 02d2 	movw	r2, #12498	; 0x30d2
24054222:	4b0a      	ldr	r3, [pc, #40]	; (2405424c <SystemInit+0xa8>)
24054224:	601a      	str	r2, [r3, #0]
24054226:	f04f 5210 	mov.w	r2, #603979776	; 0x24000000
2405422a:	4b01      	ldr	r3, [pc, #4]	; (24054230 <SystemInit+0x8c>)
2405422c:	609a      	str	r2, [r3, #8]
2405422e:	4770      	bx	lr
24054230:	e000ed00 	.word	0xe000ed00
24054234:	52002000 	.word	0x52002000
24054238:	58024400 	.word	0x58024400
2405423c:	eaf6ed7f 	.word	0xeaf6ed7f
24054240:	02020200 	.word	0x02020200
24054244:	01ff0000 	.word	0x01ff0000
24054248:	01010280 	.word	0x01010280
2405424c:	52004000 	.word	0x52004000

24054250 <Reset_Handler>:
24054250:	f8df d034 	ldr.w	sp, [pc, #52]	; 24054288 <LoopFillZerobss+0xe>
24054254:	f7ff ffa6 	bl	240541a4 <SystemInit>
24054258:	480c      	ldr	r0, [pc, #48]	; (2405428c <LoopFillZerobss+0x12>)
2405425a:	490d      	ldr	r1, [pc, #52]	; (24054290 <LoopFillZerobss+0x16>)
2405425c:	4a0d      	ldr	r2, [pc, #52]	; (24054294 <LoopFillZerobss+0x1a>)
2405425e:	2300      	movs	r3, #0
24054260:	e002      	b.n	24054268 <LoopCopyDataInit>

24054262 <CopyDataInit>:
24054262:	58d4      	ldr	r4, [r2, r3]
24054264:	50c4      	str	r4, [r0, r3]
24054266:	3304      	adds	r3, #4

24054268 <LoopCopyDataInit>:
24054268:	18c4      	adds	r4, r0, r3
2405426a:	428c      	cmp	r4, r1
2405426c:	d3f9      	bcc.n	24054262 <CopyDataInit>
2405426e:	4a0a      	ldr	r2, [pc, #40]	; (24054298 <LoopFillZerobss+0x1e>)
24054270:	4c0a      	ldr	r4, [pc, #40]	; (2405429c <LoopFillZerobss+0x22>)
24054272:	2300      	movs	r3, #0
24054274:	e001      	b.n	2405427a <LoopFillZerobss>

24054276 <FillZerobss>:
24054276:	6013      	str	r3, [r2, #0]
24054278:	3204      	adds	r2, #4

2405427a <LoopFillZerobss>:
2405427a:	42a2      	cmp	r2, r4
2405427c:	d3fb      	bcc.n	24054276 <FillZerobss>
2405427e:	f006 ff71 	bl	2405b164 <__libc_init_array>
24054282:	f7ff f857 	bl	24053334 <main>
24054286:	4770      	bx	lr
24054288:	20020000 	.word	0x20020000
2405428c:	20000000 	.word	0x20000000
24054290:	20000118 	.word	0x20000118
24054294:	24060228 	.word	0x24060228
24054298:	20000118 	.word	0x20000118
2405429c:	2000079c 	.word	0x2000079c

240542a0 <BDMA1_IRQHandler>:
240542a0:	e7fe      	b.n	240542a0 <BDMA1_IRQHandler>
	...

240542a4 <HAL_InitTick>:
240542a4:	b538      	push	{r3, r4, r5, lr}
240542a6:	4b0f      	ldr	r3, [pc, #60]	; (240542e4 <HAL_InitTick+0x40>)
240542a8:	4605      	mov	r5, r0
240542aa:	781a      	ldrb	r2, [r3, #0]
240542ac:	b90a      	cbnz	r2, 240542b2 <HAL_InitTick+0xe>
240542ae:	2001      	movs	r0, #1
240542b0:	bd38      	pop	{r3, r4, r5, pc}
240542b2:	f44f 737a 	mov.w	r3, #1000	; 0x3e8
240542b6:	fbb3 f3f2 	udiv	r3, r3, r2
240542ba:	4a0b      	ldr	r2, [pc, #44]	; (240542e8 <HAL_InitTick+0x44>)
240542bc:	6810      	ldr	r0, [r2, #0]
240542be:	fbb0 f0f3 	udiv	r0, r0, r3
240542c2:	f001 f80f 	bl	240552e4 <HAL_SYSTICK_Config>
240542c6:	4604      	mov	r4, r0
240542c8:	2800      	cmp	r0, #0
240542ca:	d1f0      	bne.n	240542ae <HAL_InitTick+0xa>
240542cc:	2d0f      	cmp	r5, #15
240542ce:	d8ee      	bhi.n	240542ae <HAL_InitTick+0xa>
240542d0:	4602      	mov	r2, r0
240542d2:	4629      	mov	r1, r5
240542d4:	f04f 30ff 	mov.w	r0, #4294967295
240542d8:	f000 ffb2 	bl	24055240 <HAL_NVIC_SetPriority>
240542dc:	4b03      	ldr	r3, [pc, #12]	; (240542ec <HAL_InitTick+0x48>)
240542de:	4620      	mov	r0, r4
240542e0:	601d      	str	r5, [r3, #0]
240542e2:	e7e5      	b.n	240542b0 <HAL_InitTick+0xc>
240542e4:	200000b4 	.word	0x200000b4
240542e8:	200000ac 	.word	0x200000ac
240542ec:	200000b8 	.word	0x200000b8

240542f0 <HAL_Init>:
240542f0:	b510      	push	{r4, lr}
240542f2:	2003      	movs	r0, #3
240542f4:	f000 ff92 	bl	2405521c <HAL_NVIC_SetPriorityGrouping>
240542f8:	f003 fd6e 	bl	24057dd8 <HAL_RCC_GetSysClockFreq>
240542fc:	490f      	ldr	r1, [pc, #60]	; (2405433c <HAL_Init+0x4c>)
240542fe:	4a10      	ldr	r2, [pc, #64]	; (24054340 <HAL_Init+0x50>)
24054300:	698b      	ldr	r3, [r1, #24]
24054302:	f3c3 2303 	ubfx	r3, r3, #8, #4
24054306:	5cd3      	ldrb	r3, [r2, r3]
24054308:	f003 031f 	and.w	r3, r3, #31
2405430c:	40d8      	lsrs	r0, r3
2405430e:	698b      	ldr	r3, [r1, #24]
24054310:	f003 030f 	and.w	r3, r3, #15
24054314:	5cd3      	ldrb	r3, [r2, r3]
24054316:	4a0b      	ldr	r2, [pc, #44]	; (24054344 <HAL_Init+0x54>)
24054318:	f003 031f 	and.w	r3, r3, #31
2405431c:	fa20 f303 	lsr.w	r3, r0, r3
24054320:	6013      	str	r3, [r2, #0]
24054322:	4b09      	ldr	r3, [pc, #36]	; (24054348 <HAL_Init+0x58>)
24054324:	6018      	str	r0, [r3, #0]
24054326:	2000      	movs	r0, #0
24054328:	f7ff ffbc 	bl	240542a4 <HAL_InitTick>
2405432c:	4604      	mov	r4, r0
2405432e:	b918      	cbnz	r0, 24054338 <HAL_Init+0x48>
24054330:	f7ff fb0e 	bl	24053950 <HAL_MspInit>
24054334:	4620      	mov	r0, r4
24054336:	bd10      	pop	{r4, pc}
24054338:	2401      	movs	r4, #1
2405433a:	e7fb      	b.n	24054334 <HAL_Init+0x44>
2405433c:	58024400 	.word	0x58024400
24054340:	24060122 	.word	0x24060122
24054344:	200000b0 	.word	0x200000b0
24054348:	200000ac 	.word	0x200000ac

2405434c <HAL_IncTick>:
2405434c:	4a03      	ldr	r2, [pc, #12]	; (2405435c <HAL_IncTick+0x10>)
2405434e:	4b04      	ldr	r3, [pc, #16]	; (24054360 <HAL_IncTick+0x14>)
24054350:	6811      	ldr	r1, [r2, #0]
24054352:	781b      	ldrb	r3, [r3, #0]
24054354:	440b      	add	r3, r1
24054356:	6013      	str	r3, [r2, #0]
24054358:	4770      	bx	lr
2405435a:	bf00      	nop
2405435c:	2000064c 	.word	0x2000064c
24054360:	200000b4 	.word	0x200000b4

24054364 <HAL_GetTick>:
24054364:	4b01      	ldr	r3, [pc, #4]	; (2405436c <HAL_GetTick+0x8>)
24054366:	6818      	ldr	r0, [r3, #0]
24054368:	4770      	bx	lr
2405436a:	bf00      	nop
2405436c:	2000064c 	.word	0x2000064c

24054370 <HAL_Delay>:
24054370:	b538      	push	{r3, r4, r5, lr}
24054372:	4604      	mov	r4, r0
24054374:	f7ff fff6 	bl	24054364 <HAL_GetTick>
24054378:	4605      	mov	r5, r0
2405437a:	1c63      	adds	r3, r4, #1
2405437c:	bf1e      	ittt	ne
2405437e:	4b04      	ldrne	r3, [pc, #16]	; (24054390 <HAL_Delay+0x20>)
24054380:	781b      	ldrbne	r3, [r3, #0]
24054382:	18e4      	addne	r4, r4, r3
24054384:	f7ff ffee 	bl	24054364 <HAL_GetTick>
24054388:	1b43      	subs	r3, r0, r5
2405438a:	42a3      	cmp	r3, r4
2405438c:	d3fa      	bcc.n	24054384 <HAL_Delay+0x14>
2405438e:	bd38      	pop	{r3, r4, r5, pc}
24054390:	200000b4 	.word	0x200000b4

24054394 <LL_ADC_SetChannelSamplingTime>:
24054394:	b530      	push	{r4, r5, lr}
24054396:	0dcc      	lsrs	r4, r1, #23
24054398:	3014      	adds	r0, #20
2405439a:	f3c1 5104 	ubfx	r1, r1, #20, #5
2405439e:	2507      	movs	r5, #7
240543a0:	f004 0404 	and.w	r4, r4, #4
240543a4:	408d      	lsls	r5, r1
240543a6:	408a      	lsls	r2, r1
240543a8:	5903      	ldr	r3, [r0, r4]
240543aa:	ea23 0305 	bic.w	r3, r3, r5
240543ae:	4313      	orrs	r3, r2
240543b0:	5103      	str	r3, [r0, r4]
240543b2:	bd30      	pop	{r4, r5, pc}

240543b4 <LL_ADC_IsEnabled>:
240543b4:	6880      	ldr	r0, [r0, #8]
240543b6:	f000 0001 	and.w	r0, r0, #1
240543ba:	4770      	bx	lr

240543bc <LL_ADC_REG_IsConversionOngoing>:
240543bc:	6880      	ldr	r0, [r0, #8]
240543be:	f3c0 0080 	ubfx	r0, r0, #2, #1
240543c2:	4770      	bx	lr

240543c4 <HAL_ADC_PollForConversion>:
240543c4:	e92d 41f0 	stmdb	sp!, {r4, r5, r6, r7, r8, lr}
240543c8:	4a35      	ldr	r2, [pc, #212]	; (240544a0 <HAL_ADC_PollForConversion+0xdc>)
240543ca:	4604      	mov	r4, r0
240543cc:	6905      	ldr	r5, [r0, #16]
240543ce:	460e      	mov	r6, r1
240543d0:	6897      	ldr	r7, [r2, #8]
240543d2:	2d08      	cmp	r5, #8
240543d4:	f007 071f 	and.w	r7, r7, #31
240543d8:	d015      	beq.n	24054406 <HAL_ADC_PollForConversion+0x42>
240543da:	f240 2321 	movw	r3, #545	; 0x221
240543de:	40fb      	lsrs	r3, r7
240543e0:	07d9      	lsls	r1, r3, #31
240543e2:	d50b      	bpl.n	240543fc <HAL_ADC_PollForConversion+0x38>
240543e4:	6803      	ldr	r3, [r0, #0]
240543e6:	68db      	ldr	r3, [r3, #12]
240543e8:	f013 0f01 	tst.w	r3, #1
240543ec:	d00a      	beq.n	24054404 <HAL_ADC_PollForConversion+0x40>
240543ee:	6d63      	ldr	r3, [r4, #84]	; 0x54
240543f0:	2001      	movs	r0, #1
240543f2:	f043 0320 	orr.w	r3, r3, #32
240543f6:	6563      	str	r3, [r4, #84]	; 0x54
240543f8:	e8bd 81f0 	ldmia.w	sp!, {r4, r5, r6, r7, r8, pc}
240543fc:	6893      	ldr	r3, [r2, #8]
240543fe:	f413 4f40 	tst.w	r3, #49152	; 0xc000
24054402:	e7f3      	b.n	240543ec <HAL_ADC_PollForConversion+0x28>
24054404:	2504      	movs	r5, #4
24054406:	f7ff ffad 	bl	24054364 <HAL_GetTick>
2405440a:	4680      	mov	r8, r0
2405440c:	6823      	ldr	r3, [r4, #0]
2405440e:	681a      	ldr	r2, [r3, #0]
24054410:	422a      	tst	r2, r5
24054412:	d020      	beq.n	24054456 <HAL_ADC_PollForConversion+0x92>
24054414:	6d62      	ldr	r2, [r4, #84]	; 0x54
24054416:	f442 7200 	orr.w	r2, r2, #512	; 0x200
2405441a:	6562      	str	r2, [r4, #84]	; 0x54
2405441c:	68da      	ldr	r2, [r3, #12]
2405441e:	f412 6f40 	tst.w	r2, #3072	; 0xc00
24054422:	d10f      	bne.n	24054444 <HAL_ADC_PollForConversion+0x80>
24054424:	7d62      	ldrb	r2, [r4, #21]
24054426:	b96a      	cbnz	r2, 24054444 <HAL_ADC_PollForConversion+0x80>
24054428:	681a      	ldr	r2, [r3, #0]
2405442a:	0710      	lsls	r0, r2, #28
2405442c:	d50a      	bpl.n	24054444 <HAL_ADC_PollForConversion+0x80>
2405442e:	6d62      	ldr	r2, [r4, #84]	; 0x54
24054430:	f422 7280 	bic.w	r2, r2, #256	; 0x100
24054434:	6562      	str	r2, [r4, #84]	; 0x54
24054436:	6d62      	ldr	r2, [r4, #84]	; 0x54
24054438:	04d1      	lsls	r1, r2, #19
2405443a:	d403      	bmi.n	24054444 <HAL_ADC_PollForConversion+0x80>
2405443c:	6d62      	ldr	r2, [r4, #84]	; 0x54
2405443e:	f042 0201 	orr.w	r2, r2, #1
24054442:	6562      	str	r2, [r4, #84]	; 0x54
24054444:	4a17      	ldr	r2, [pc, #92]	; (240544a4 <HAL_ADC_PollForConversion+0xe0>)
24054446:	4293      	cmp	r3, r2
24054448:	d021      	beq.n	2405448e <HAL_ADC_PollForConversion+0xca>
2405444a:	68d8      	ldr	r0, [r3, #12]
2405444c:	2d08      	cmp	r5, #8
2405444e:	d118      	bne.n	24054482 <HAL_ADC_PollForConversion+0xbe>
24054450:	601d      	str	r5, [r3, #0]
24054452:	2000      	movs	r0, #0
24054454:	e7d0      	b.n	240543f8 <HAL_ADC_PollForConversion+0x34>
24054456:	1c72      	adds	r2, r6, #1
24054458:	d0d9      	beq.n	2405440e <HAL_ADC_PollForConversion+0x4a>
2405445a:	f7ff ff83 	bl	24054364 <HAL_GetTick>
2405445e:	eba0 0008 	sub.w	r0, r0, r8
24054462:	42b0      	cmp	r0, r6
24054464:	d801      	bhi.n	2405446a <HAL_ADC_PollForConversion+0xa6>
24054466:	2e00      	cmp	r6, #0
24054468:	d1d0      	bne.n	2405440c <HAL_ADC_PollForConversion+0x48>
2405446a:	6823      	ldr	r3, [r4, #0]
2405446c:	681b      	ldr	r3, [r3, #0]
2405446e:	402b      	ands	r3, r5
24054470:	d1cc      	bne.n	2405440c <HAL_ADC_PollForConversion+0x48>
24054472:	6d62      	ldr	r2, [r4, #84]	; 0x54
24054474:	2003      	movs	r0, #3
24054476:	f884 3050 	strb.w	r3, [r4, #80]	; 0x50
2405447a:	f042 0204 	orr.w	r2, r2, #4
2405447e:	6562      	str	r2, [r4, #84]	; 0x54
24054480:	e7ba      	b.n	240543f8 <HAL_ADC_PollForConversion+0x34>
24054482:	f410 4080 	ands.w	r0, r0, #16384	; 0x4000
24054486:	d1e4      	bne.n	24054452 <HAL_ADC_PollForConversion+0x8e>
24054488:	220c      	movs	r2, #12
2405448a:	601a      	str	r2, [r3, #0]
2405448c:	e7b4      	b.n	240543f8 <HAL_ADC_PollForConversion+0x34>
2405448e:	f240 2221 	movw	r2, #545	; 0x221
24054492:	40fa      	lsrs	r2, r7
24054494:	07d2      	lsls	r2, r2, #31
24054496:	d4d8      	bmi.n	2405444a <HAL_ADC_PollForConversion+0x86>
24054498:	4a03      	ldr	r2, [pc, #12]	; (240544a8 <HAL_ADC_PollForConversion+0xe4>)
2405449a:	68d0      	ldr	r0, [r2, #12]
2405449c:	e7d6      	b.n	2405444c <HAL_ADC_PollForConversion+0x88>
2405449e:	bf00      	nop
240544a0:	40022300 	.word	0x40022300
240544a4:	40022100 	.word	0x40022100
240544a8:	40022000 	.word	0x40022000

240544ac <HAL_ADC_GetValue>:
240544ac:	6803      	ldr	r3, [r0, #0]
240544ae:	6c18      	ldr	r0, [r3, #64]	; 0x40
240544b0:	4770      	bx	lr

240544b2 <HAL_ADC_LevelOutOfWindowCallback>:
240544b2:	4770      	bx	lr

240544b4 <HAL_ADC_ErrorCallback>:
240544b4:	4770      	bx	lr
	...

240544b8 <HAL_ADC_IRQHandler>:
240544b8:	6803      	ldr	r3, [r0, #0]
240544ba:	e92d 41f0 	stmdb	sp!, {r4, r5, r6, r7, r8, lr}
240544be:	681d      	ldr	r5, [r3, #0]
240544c0:	4604      	mov	r4, r0
240544c2:	f8df 8234 	ldr.w	r8, [pc, #564]	; 240546f8 <HAL_ADC_IRQHandler+0x240>
240544c6:	685e      	ldr	r6, [r3, #4]
240544c8:	07a9      	lsls	r1, r5, #30
240544ca:	f8d8 7008 	ldr.w	r7, [r8, #8]
240544ce:	f007 071f 	and.w	r7, r7, #31
240544d2:	d50e      	bpl.n	240544f2 <HAL_ADC_IRQHandler+0x3a>
240544d4:	07b2      	lsls	r2, r6, #30
240544d6:	d50c      	bpl.n	240544f2 <HAL_ADC_IRQHandler+0x3a>
240544d8:	6d43      	ldr	r3, [r0, #84]	; 0x54
240544da:	06db      	lsls	r3, r3, #27
240544dc:	d403      	bmi.n	240544e6 <HAL_ADC_IRQHandler+0x2e>
240544de:	6d43      	ldr	r3, [r0, #84]	; 0x54
240544e0:	f443 6300 	orr.w	r3, r3, #2048	; 0x800
240544e4:	6543      	str	r3, [r0, #84]	; 0x54
240544e6:	4620      	mov	r0, r4
240544e8:	f000 fe32 	bl	24055150 <HAL_ADCEx_EndOfSamplingCallback>
240544ec:	6823      	ldr	r3, [r4, #0]
240544ee:	2202      	movs	r2, #2
240544f0:	601a      	str	r2, [r3, #0]
240544f2:	0768      	lsls	r0, r5, #29
240544f4:	d501      	bpl.n	240544fa <HAL_ADC_IRQHandler+0x42>
240544f6:	0771      	lsls	r1, r6, #29
240544f8:	d403      	bmi.n	24054502 <HAL_ADC_IRQHandler+0x4a>
240544fa:	072a      	lsls	r2, r5, #28
240544fc:	d532      	bpl.n	24054564 <HAL_ADC_IRQHandler+0xac>
240544fe:	0733      	lsls	r3, r6, #28
24054500:	d530      	bpl.n	24054564 <HAL_ADC_IRQHandler+0xac>
24054502:	6d63      	ldr	r3, [r4, #84]	; 0x54
24054504:	06d8      	lsls	r0, r3, #27
24054506:	d403      	bmi.n	24054510 <HAL_ADC_IRQHandler+0x58>
24054508:	6d63      	ldr	r3, [r4, #84]	; 0x54
2405450a:	f443 7300 	orr.w	r3, r3, #512	; 0x200
2405450e:	6563      	str	r3, [r4, #84]	; 0x54
24054510:	6823      	ldr	r3, [r4, #0]
24054512:	68da      	ldr	r2, [r3, #12]
24054514:	f412 6f40 	tst.w	r2, #3072	; 0xc00
24054518:	d11e      	bne.n	24054558 <HAL_ADC_IRQHandler+0xa0>
2405451a:	4a75      	ldr	r2, [pc, #468]	; (240546f0 <HAL_ADC_IRQHandler+0x238>)
2405451c:	4293      	cmp	r3, r2
2405451e:	f000 80dc 	beq.w	240546da <HAL_ADC_IRQHandler+0x222>
24054522:	68da      	ldr	r2, [r3, #12]
24054524:	0491      	lsls	r1, r2, #18
24054526:	d417      	bmi.n	24054558 <HAL_ADC_IRQHandler+0xa0>
24054528:	681a      	ldr	r2, [r3, #0]
2405452a:	0712      	lsls	r2, r2, #28
2405452c:	d514      	bpl.n	24054558 <HAL_ADC_IRQHandler+0xa0>
2405452e:	4618      	mov	r0, r3
24054530:	f7ff ff44 	bl	240543bc <LL_ADC_REG_IsConversionOngoing>
24054534:	2800      	cmp	r0, #0
24054536:	f040 80b2 	bne.w	2405469e <HAL_ADC_IRQHandler+0x1e6>
2405453a:	685a      	ldr	r2, [r3, #4]
2405453c:	f022 020c 	bic.w	r2, r2, #12
24054540:	605a      	str	r2, [r3, #4]
24054542:	6d63      	ldr	r3, [r4, #84]	; 0x54
24054544:	f423 7380 	bic.w	r3, r3, #256	; 0x100
24054548:	6563      	str	r3, [r4, #84]	; 0x54
2405454a:	6d63      	ldr	r3, [r4, #84]	; 0x54
2405454c:	04db      	lsls	r3, r3, #19
2405454e:	d403      	bmi.n	24054558 <HAL_ADC_IRQHandler+0xa0>
24054550:	6d63      	ldr	r3, [r4, #84]	; 0x54
24054552:	f043 0301 	orr.w	r3, r3, #1
24054556:	6563      	str	r3, [r4, #84]	; 0x54
24054558:	4620      	mov	r0, r4
2405455a:	f7fd fab5 	bl	24051ac8 <HAL_ADC_ConvCpltCallback>
2405455e:	6823      	ldr	r3, [r4, #0]
24054560:	220c      	movs	r2, #12
24054562:	601a      	str	r2, [r3, #0]
24054564:	06a8      	lsls	r0, r5, #26
24054566:	d501      	bpl.n	2405456c <HAL_ADC_IRQHandler+0xb4>
24054568:	06b1      	lsls	r1, r6, #26
2405456a:	d403      	bmi.n	24054574 <HAL_ADC_IRQHandler+0xbc>
2405456c:	066a      	lsls	r2, r5, #25
2405456e:	d53a      	bpl.n	240545e6 <HAL_ADC_IRQHandler+0x12e>
24054570:	0673      	lsls	r3, r6, #25
24054572:	d538      	bpl.n	240545e6 <HAL_ADC_IRQHandler+0x12e>
24054574:	6d63      	ldr	r3, [r4, #84]	; 0x54
24054576:	06d8      	lsls	r0, r3, #27
24054578:	d403      	bmi.n	24054582 <HAL_ADC_IRQHandler+0xca>
2405457a:	6d63      	ldr	r3, [r4, #84]	; 0x54
2405457c:	f443 5300 	orr.w	r3, r3, #8192	; 0x2000
24054580:	6563      	str	r3, [r4, #84]	; 0x54
24054582:	6823      	ldr	r3, [r4, #0]
24054584:	4a5a      	ldr	r2, [pc, #360]	; (240546f0 <HAL_ADC_IRQHandler+0x238>)
24054586:	6cd9      	ldr	r1, [r3, #76]	; 0x4c
24054588:	4293      	cmp	r3, r2
2405458a:	68d8      	ldr	r0, [r3, #12]
2405458c:	f401 71c0 	and.w	r1, r1, #384	; 0x180
24054590:	f040 808e 	bne.w	240546b0 <HAL_ADC_IRQHandler+0x1f8>
24054594:	22c1      	movs	r2, #193	; 0xc1
24054596:	40fa      	lsrs	r2, r7
24054598:	07d2      	lsls	r2, r2, #31
2405459a:	f100 8089 	bmi.w	240546b0 <HAL_ADC_IRQHandler+0x1f8>
2405459e:	4a55      	ldr	r2, [pc, #340]	; (240546f4 <HAL_ADC_IRQHandler+0x23c>)
240545a0:	68d2      	ldr	r2, [r2, #12]
240545a2:	b9d1      	cbnz	r1, 240545da <HAL_ADC_IRQHandler+0x122>
240545a4:	0191      	lsls	r1, r2, #6
240545a6:	d505      	bpl.n	240545b4 <HAL_ADC_IRQHandler+0xfc>
240545a8:	f402 5100 	and.w	r1, r2, #8192	; 0x2000
240545ac:	f400 6040 	and.w	r0, r0, #3072	; 0xc00
240545b0:	4301      	orrs	r1, r0
240545b2:	d112      	bne.n	240545da <HAL_ADC_IRQHandler+0x122>
240545b4:	6819      	ldr	r1, [r3, #0]
240545b6:	0648      	lsls	r0, r1, #25
240545b8:	d50f      	bpl.n	240545da <HAL_ADC_IRQHandler+0x122>
240545ba:	0291      	lsls	r1, r2, #10
240545bc:	d40d      	bmi.n	240545da <HAL_ADC_IRQHandler+0x122>
240545be:	689a      	ldr	r2, [r3, #8]
240545c0:	0712      	lsls	r2, r2, #28
240545c2:	d477      	bmi.n	240546b4 <HAL_ADC_IRQHandler+0x1fc>
240545c4:	685a      	ldr	r2, [r3, #4]
240545c6:	f022 0260 	bic.w	r2, r2, #96	; 0x60
240545ca:	605a      	str	r2, [r3, #4]
240545cc:	6d63      	ldr	r3, [r4, #84]	; 0x54
240545ce:	f423 5380 	bic.w	r3, r3, #4096	; 0x1000
240545d2:	6563      	str	r3, [r4, #84]	; 0x54
240545d4:	6d63      	ldr	r3, [r4, #84]	; 0x54
240545d6:	05db      	lsls	r3, r3, #23
240545d8:	d575      	bpl.n	240546c6 <HAL_ADC_IRQHandler+0x20e>
240545da:	4620      	mov	r0, r4
240545dc:	f000 fdb4 	bl	24055148 <HAL_ADCEx_InjectedConvCpltCallback>
240545e0:	6823      	ldr	r3, [r4, #0]
240545e2:	2260      	movs	r2, #96	; 0x60
240545e4:	601a      	str	r2, [r3, #0]
240545e6:	0628      	lsls	r0, r5, #24
240545e8:	d50b      	bpl.n	24054602 <HAL_ADC_IRQHandler+0x14a>
240545ea:	0631      	lsls	r1, r6, #24
240545ec:	d509      	bpl.n	24054602 <HAL_ADC_IRQHandler+0x14a>
240545ee:	6d63      	ldr	r3, [r4, #84]	; 0x54
240545f0:	4620      	mov	r0, r4
240545f2:	f443 3380 	orr.w	r3, r3, #65536	; 0x10000
240545f6:	6563      	str	r3, [r4, #84]	; 0x54
240545f8:	f7ff ff5b 	bl	240544b2 <HAL_ADC_LevelOutOfWindowCallback>
240545fc:	6823      	ldr	r3, [r4, #0]
240545fe:	2280      	movs	r2, #128	; 0x80
24054600:	601a      	str	r2, [r3, #0]
24054602:	05ea      	lsls	r2, r5, #23
24054604:	d50c      	bpl.n	24054620 <HAL_ADC_IRQHandler+0x168>
24054606:	05f3      	lsls	r3, r6, #23
24054608:	d50a      	bpl.n	24054620 <HAL_ADC_IRQHandler+0x168>
2405460a:	6d63      	ldr	r3, [r4, #84]	; 0x54
2405460c:	4620      	mov	r0, r4
2405460e:	f443 3300 	orr.w	r3, r3, #131072	; 0x20000
24054612:	6563      	str	r3, [r4, #84]	; 0x54
24054614:	f000 fd9a 	bl	2405514c <HAL_ADCEx_LevelOutOfWindow2Callback>
24054618:	6823      	ldr	r3, [r4, #0]
2405461a:	f44f 7280 	mov.w	r2, #256	; 0x100
2405461e:	601a      	str	r2, [r3, #0]
24054620:	05a8      	lsls	r0, r5, #22
24054622:	d50c      	bpl.n	2405463e <HAL_ADC_IRQHandler+0x186>
24054624:	05b1      	lsls	r1, r6, #22
24054626:	d50a      	bpl.n	2405463e <HAL_ADC_IRQHandler+0x186>
24054628:	6d63      	ldr	r3, [r4, #84]	; 0x54
2405462a:	4620      	mov	r0, r4
2405462c:	f443 2380 	orr.w	r3, r3, #262144	; 0x40000
24054630:	6563      	str	r3, [r4, #84]	; 0x54
24054632:	f000 fd8c 	bl	2405514e <HAL_ADCEx_LevelOutOfWindow3Callback>
24054636:	6823      	ldr	r3, [r4, #0]
24054638:	f44f 7200 	mov.w	r2, #512	; 0x200
2405463c:	601a      	str	r2, [r3, #0]
2405463e:	06ea      	lsls	r2, r5, #27
24054640:	d518      	bpl.n	24054674 <HAL_ADC_IRQHandler+0x1bc>
24054642:	06f3      	lsls	r3, r6, #27
24054644:	d516      	bpl.n	24054674 <HAL_ADC_IRQHandler+0x1bc>
24054646:	6b23      	ldr	r3, [r4, #48]	; 0x30
24054648:	b133      	cbz	r3, 24054658 <HAL_ADC_IRQHandler+0x1a0>
2405464a:	2f00      	cmp	r7, #0
2405464c:	d040      	beq.n	240546d0 <HAL_ADC_IRQHandler+0x218>
2405464e:	f8d8 3008 	ldr.w	r3, [r8, #8]
24054652:	f413 4f40 	tst.w	r3, #49152	; 0xc000
24054656:	d00a      	beq.n	2405466e <HAL_ADC_IRQHandler+0x1b6>
24054658:	6d63      	ldr	r3, [r4, #84]	; 0x54
2405465a:	4620      	mov	r0, r4
2405465c:	f443 6380 	orr.w	r3, r3, #1024	; 0x400
24054660:	6563      	str	r3, [r4, #84]	; 0x54
24054662:	6da3      	ldr	r3, [r4, #88]	; 0x58
24054664:	f043 0302 	orr.w	r3, r3, #2
24054668:	65a3      	str	r3, [r4, #88]	; 0x58
2405466a:	f7ff ff23 	bl	240544b4 <HAL_ADC_ErrorCallback>
2405466e:	6823      	ldr	r3, [r4, #0]
24054670:	2210      	movs	r2, #16
24054672:	601a      	str	r2, [r3, #0]
24054674:	0568      	lsls	r0, r5, #21
24054676:	d539      	bpl.n	240546ec <HAL_ADC_IRQHandler+0x234>
24054678:	0571      	lsls	r1, r6, #21
2405467a:	d537      	bpl.n	240546ec <HAL_ADC_IRQHandler+0x234>
2405467c:	6d63      	ldr	r3, [r4, #84]	; 0x54
2405467e:	f44f 6280 	mov.w	r2, #1024	; 0x400
24054682:	4620      	mov	r0, r4
24054684:	f443 4380 	orr.w	r3, r3, #16384	; 0x4000
24054688:	6563      	str	r3, [r4, #84]	; 0x54
2405468a:	6da3      	ldr	r3, [r4, #88]	; 0x58
2405468c:	f043 0308 	orr.w	r3, r3, #8
24054690:	65a3      	str	r3, [r4, #88]	; 0x58
24054692:	6823      	ldr	r3, [r4, #0]
24054694:	e8bd 41f0 	ldmia.w	sp!, {r4, r5, r6, r7, r8, lr}
24054698:	601a      	str	r2, [r3, #0]
2405469a:	f000 bd56 	b.w	2405514a <HAL_ADCEx_InjectedQueueOverflowCallback>
2405469e:	6d63      	ldr	r3, [r4, #84]	; 0x54
240546a0:	f043 0310 	orr.w	r3, r3, #16
240546a4:	6563      	str	r3, [r4, #84]	; 0x54
240546a6:	6da3      	ldr	r3, [r4, #88]	; 0x58
240546a8:	f043 0301 	orr.w	r3, r3, #1
240546ac:	65a3      	str	r3, [r4, #88]	; 0x58
240546ae:	e753      	b.n	24054558 <HAL_ADC_IRQHandler+0xa0>
240546b0:	68da      	ldr	r2, [r3, #12]
240546b2:	e776      	b.n	240545a2 <HAL_ADC_IRQHandler+0xea>
240546b4:	6d63      	ldr	r3, [r4, #84]	; 0x54
240546b6:	f043 0310 	orr.w	r3, r3, #16
240546ba:	6563      	str	r3, [r4, #84]	; 0x54
240546bc:	6da3      	ldr	r3, [r4, #88]	; 0x58
240546be:	f043 0301 	orr.w	r3, r3, #1
240546c2:	65a3      	str	r3, [r4, #88]	; 0x58
240546c4:	e789      	b.n	240545da <HAL_ADC_IRQHandler+0x122>
240546c6:	6d63      	ldr	r3, [r4, #84]	; 0x54
240546c8:	f043 0301 	orr.w	r3, r3, #1
240546cc:	6563      	str	r3, [r4, #84]	; 0x54
240546ce:	e784      	b.n	240545da <HAL_ADC_IRQHandler+0x122>
240546d0:	6823      	ldr	r3, [r4, #0]
240546d2:	68db      	ldr	r3, [r3, #12]
240546d4:	f013 0f03 	tst.w	r3, #3
240546d8:	e7bd      	b.n	24054656 <HAL_ADC_IRQHandler+0x19e>
240546da:	f240 2221 	movw	r2, #545	; 0x221
240546de:	40fa      	lsrs	r2, r7
240546e0:	07d2      	lsls	r2, r2, #31
240546e2:	f53f af1e 	bmi.w	24054522 <HAL_ADC_IRQHandler+0x6a>
240546e6:	4a03      	ldr	r2, [pc, #12]	; (240546f4 <HAL_ADC_IRQHandler+0x23c>)
240546e8:	68d2      	ldr	r2, [r2, #12]
240546ea:	e71b      	b.n	24054524 <HAL_ADC_IRQHandler+0x6c>
240546ec:	e8bd 81f0 	ldmia.w	sp!, {r4, r5, r6, r7, r8, pc}
240546f0:	40022100 	.word	0x40022100
240546f4:	40022000 	.word	0x40022000
240546f8:	40022300 	.word	0x40022300

240546fc <HAL_ADC_ConfigChannel>:
240546fc:	2300      	movs	r3, #0
240546fe:	b5f7      	push	{r0, r1, r2, r4, r5, r6, r7, lr}
24054700:	9301      	str	r3, [sp, #4]
24054702:	4605      	mov	r5, r0
24054704:	f890 3050 	ldrb.w	r3, [r0, #80]	; 0x50
24054708:	460e      	mov	r6, r1
2405470a:	2b01      	cmp	r3, #1
2405470c:	f000 8189 	beq.w	24054a22 <HAL_ADC_ConfigChannel+0x326>
24054710:	2301      	movs	r3, #1
24054712:	6804      	ldr	r4, [r0, #0]
24054714:	f880 3050 	strb.w	r3, [r0, #80]	; 0x50
24054718:	4620      	mov	r0, r4
2405471a:	f7ff fe4f 	bl	240543bc <LL_ADC_REG_IsConversionOngoing>
2405471e:	2800      	cmp	r0, #0
24054720:	f040 817a 	bne.w	24054a18 <HAL_ADC_ConfigChannel+0x31c>
24054724:	680a      	ldr	r2, [r1, #0]
24054726:	f3c2 0013 	ubfx	r0, r2, #0, #20
2405472a:	f3c2 6184 	ubfx	r1, r2, #26, #5
2405472e:	2800      	cmp	r0, #0
24054730:	d16b      	bne.n	2405480a <HAL_ADC_ConfigChannel+0x10e>
24054732:	408b      	lsls	r3, r1
24054734:	69e2      	ldr	r2, [r4, #28]
24054736:	f104 0c30 	add.w	ip, r4, #48	; 0x30
2405473a:	271f      	movs	r7, #31
2405473c:	4313      	orrs	r3, r2
2405473e:	6872      	ldr	r2, [r6, #4]
24054740:	0990      	lsrs	r0, r2, #6
24054742:	f002 021f 	and.w	r2, r2, #31
24054746:	61e3      	str	r3, [r4, #28]
24054748:	f000 000c 	and.w	r0, r0, #12
2405474c:	4097      	lsls	r7, r2
2405474e:	4091      	lsls	r1, r2
24054750:	f85c 3000 	ldr.w	r3, [ip, r0]
24054754:	ea23 0307 	bic.w	r3, r3, r7
24054758:	430b      	orrs	r3, r1
2405475a:	f84c 3000 	str.w	r3, [ip, r0]
2405475e:	4620      	mov	r0, r4
24054760:	f7ff fe2c 	bl	240543bc <LL_ADC_REG_IsConversionOngoing>
24054764:	68a3      	ldr	r3, [r4, #8]
24054766:	f003 0308 	and.w	r3, r3, #8
2405476a:	4318      	orrs	r0, r3
2405476c:	d141      	bne.n	240547f2 <HAL_ADC_ConfigChannel+0xf6>
2405476e:	68b2      	ldr	r2, [r6, #8]
24054770:	4620      	mov	r0, r4
24054772:	6831      	ldr	r1, [r6, #0]
24054774:	f7ff fe0e 	bl	24054394 <LL_ADC_SetChannelSamplingTime>
24054778:	68e3      	ldr	r3, [r4, #12]
2405477a:	6937      	ldr	r7, [r6, #16]
2405477c:	f013 0f10 	tst.w	r3, #16
24054780:	68e3      	ldr	r3, [r4, #12]
24054782:	6971      	ldr	r1, [r6, #20]
24054784:	bf0c      	ite	eq
24054786:	f3c3 0382 	ubfxeq	r3, r3, #2, #3
2405478a:	085b      	lsrne	r3, r3, #1
2405478c:	6832      	ldr	r2, [r6, #0]
2405478e:	bf0c      	ite	eq
24054790:	005b      	lsleq	r3, r3, #1
24054792:	f003 0308 	andne.w	r3, r3, #8
24054796:	2f04      	cmp	r7, #4
24054798:	fa01 f103 	lsl.w	r1, r1, r3
2405479c:	d03e      	beq.n	2405481c <HAL_ADC_ConfigChannel+0x120>
2405479e:	f104 0060 	add.w	r0, r4, #96	; 0x60
240547a2:	f002 42f8 	and.w	r2, r2, #2080374784	; 0x7c000000
240547a6:	f850 3027 	ldr.w	r3, [r0, r7, lsl #2]
240547aa:	f003 4300 	and.w	r3, r3, #2147483648	; 0x80000000
240547ae:	4313      	orrs	r3, r2
240547b0:	430b      	orrs	r3, r1
240547b2:	f840 3027 	str.w	r3, [r0, r7, lsl #2]
240547b6:	7e72      	ldrb	r2, [r6, #25]
240547b8:	6931      	ldr	r1, [r6, #16]
240547ba:	1e57      	subs	r7, r2, #1
240547bc:	f850 3021 	ldr.w	r3, [r0, r1, lsl #2]
240547c0:	427a      	negs	r2, r7
240547c2:	f023 4300 	bic.w	r3, r3, #2147483648	; 0x80000000
240547c6:	417a      	adcs	r2, r7
240547c8:	ea43 73c2 	orr.w	r3, r3, r2, lsl #31
240547cc:	f840 3021 	str.w	r3, [r0, r1, lsl #2]
240547d0:	7e33      	ldrb	r3, [r6, #24]
240547d2:	6931      	ldr	r1, [r6, #16]
240547d4:	f103 3cff 	add.w	ip, r3, #4294967295
240547d8:	6922      	ldr	r2, [r4, #16]
240547da:	f001 011f 	and.w	r1, r1, #31
240547de:	f1dc 0300 	rsbs	r3, ip, #0
240547e2:	f422 42f0 	bic.w	r2, r2, #30720	; 0x7800
240547e6:	eb43 030c 	adc.w	r3, r3, ip
240547ea:	02db      	lsls	r3, r3, #11
240547ec:	408b      	lsls	r3, r1
240547ee:	4313      	orrs	r3, r2
240547f0:	6123      	str	r3, [r4, #16]
240547f2:	4620      	mov	r0, r4
240547f4:	f7ff fdde 	bl	240543b4 <LL_ADC_IsEnabled>
240547f8:	2800      	cmp	r0, #0
240547fa:	d036      	beq.n	2405486a <HAL_ADC_ConfigChannel+0x16e>
240547fc:	2300      	movs	r3, #0
240547fe:	2200      	movs	r2, #0
24054800:	f885 2050 	strb.w	r2, [r5, #80]	; 0x50
24054804:	4618      	mov	r0, r3
24054806:	b003      	add	sp, #12
24054808:	bdf0      	pop	{r4, r5, r6, r7, pc}
2405480a:	fa92 f2a2 	rbit	r2, r2
2405480e:	fab2 f282 	clz	r2, r2
24054812:	2301      	movs	r3, #1
24054814:	f002 021f 	and.w	r2, r2, #31
24054818:	4093      	lsls	r3, r2
2405481a:	e78b      	b.n	24054734 <HAL_ADC_ConfigChannel+0x38>
2405481c:	6e23      	ldr	r3, [r4, #96]	; 0x60
2405481e:	0691      	lsls	r1, r2, #26
24054820:	f003 43f8 	and.w	r3, r3, #2080374784	; 0x7c000000
24054824:	ebb3 6f82 	cmp.w	r3, r2, lsl #26
24054828:	d103      	bne.n	24054832 <HAL_ADC_ConfigChannel+0x136>
2405482a:	6e23      	ldr	r3, [r4, #96]	; 0x60
2405482c:	f023 4300 	bic.w	r3, r3, #2147483648	; 0x80000000
24054830:	6623      	str	r3, [r4, #96]	; 0x60
24054832:	6e63      	ldr	r3, [r4, #100]	; 0x64
24054834:	f003 43f8 	and.w	r3, r3, #2080374784	; 0x7c000000
24054838:	4299      	cmp	r1, r3
2405483a:	d103      	bne.n	24054844 <HAL_ADC_ConfigChannel+0x148>
2405483c:	6e63      	ldr	r3, [r4, #100]	; 0x64
2405483e:	f023 4300 	bic.w	r3, r3, #2147483648	; 0x80000000
24054842:	6663      	str	r3, [r4, #100]	; 0x64
24054844:	6ea3      	ldr	r3, [r4, #104]	; 0x68
24054846:	f003 43f8 	and.w	r3, r3, #2080374784	; 0x7c000000
2405484a:	4299      	cmp	r1, r3
2405484c:	d103      	bne.n	24054856 <HAL_ADC_ConfigChannel+0x15a>
2405484e:	6ea3      	ldr	r3, [r4, #104]	; 0x68
24054850:	f023 4300 	bic.w	r3, r3, #2147483648	; 0x80000000
24054854:	66a3      	str	r3, [r4, #104]	; 0x68
24054856:	6ee3      	ldr	r3, [r4, #108]	; 0x6c
24054858:	f003 43f8 	and.w	r3, r3, #2080374784	; 0x7c000000
2405485c:	4299      	cmp	r1, r3
2405485e:	d1c8      	bne.n	240547f2 <HAL_ADC_ConfigChannel+0xf6>
24054860:	6ee3      	ldr	r3, [r4, #108]	; 0x6c
24054862:	f023 4300 	bic.w	r3, r3, #2147483648	; 0x80000000
24054866:	66e3      	str	r3, [r4, #108]	; 0x6c
24054868:	e7c3      	b.n	240547f2 <HAL_ADC_ConfigChannel+0xf6>
2405486a:	68f7      	ldr	r7, [r6, #12]
2405486c:	6833      	ldr	r3, [r6, #0]
2405486e:	f007 0c18 	and.w	ip, r7, #24
24054872:	4a6d      	ldr	r2, [pc, #436]	; (24054a28 <HAL_ADC_ConfigChannel+0x32c>)
24054874:	f8d4 10c0 	ldr.w	r1, [r4, #192]	; 0xc0
24054878:	f3c3 0013 	ubfx	r0, r3, #0, #20
2405487c:	fa22 f20c 	lsr.w	r2, r2, ip
24054880:	ea21 0100 	bic.w	r1, r1, r0
24054884:	401a      	ands	r2, r3
24054886:	430a      	orrs	r2, r1
24054888:	f8c4 20c0 	str.w	r2, [r4, #192]	; 0xc0
2405488c:	4a67      	ldr	r2, [pc, #412]	; (24054a2c <HAL_ADC_ConfigChannel+0x330>)
2405488e:	4297      	cmp	r7, r2
24054890:	d11c      	bne.n	240548cc <HAL_ADC_ConfigChannel+0x1d0>
24054892:	2800      	cmp	r0, #0
24054894:	d14a      	bne.n	2405492c <HAL_ADC_ConfigChannel+0x230>
24054896:	0e9a      	lsrs	r2, r3, #26
24054898:	2101      	movs	r1, #1
2405489a:	3201      	adds	r2, #1
2405489c:	f002 071f 	and.w	r7, r2, #31
240548a0:	0692      	lsls	r2, r2, #26
240548a2:	2f09      	cmp	r7, #9
240548a4:	f002 42f8 	and.w	r2, r2, #2080374784	; 0x7c000000
240548a8:	fa01 f107 	lsl.w	r1, r1, r7
240548ac:	d870      	bhi.n	24054990 <HAL_ADC_ConfigChannel+0x294>
240548ae:	4311      	orrs	r1, r2
240548b0:	2800      	cmp	r0, #0
240548b2:	d157      	bne.n	24054964 <HAL_ADC_ConfigChannel+0x268>
240548b4:	0e9b      	lsrs	r3, r3, #26
240548b6:	3301      	adds	r3, #1
240548b8:	f003 031f 	and.w	r3, r3, #31
240548bc:	eb03 0343 	add.w	r3, r3, r3, lsl #1
240548c0:	051b      	lsls	r3, r3, #20
240548c2:	4319      	orrs	r1, r3
240548c4:	68b2      	ldr	r2, [r6, #8]
240548c6:	4620      	mov	r0, r4
240548c8:	f7ff fd64 	bl	24054394 <LL_ADC_SetChannelSamplingTime>
240548cc:	6836      	ldr	r6, [r6, #0]
240548ce:	2e00      	cmp	r6, #0
240548d0:	da94      	bge.n	240547fc <HAL_ADC_ConfigChannel+0x100>
240548d2:	4a57      	ldr	r2, [pc, #348]	; (24054a30 <HAL_ADC_ConfigChannel+0x334>)
240548d4:	4857      	ldr	r0, [pc, #348]	; (24054a34 <HAL_ADC_ConfigChannel+0x338>)
240548d6:	4958      	ldr	r1, [pc, #352]	; (24054a38 <HAL_ADC_ConfigChannel+0x33c>)
240548d8:	6893      	ldr	r3, [r2, #8]
240548da:	f7ff fd6b 	bl	240543b4 <LL_ADC_IsEnabled>
240548de:	4607      	mov	r7, r0
240548e0:	4608      	mov	r0, r1
240548e2:	f7ff fd67 	bl	240543b4 <LL_ADC_IsEnabled>
240548e6:	4338      	orrs	r0, r7
240548e8:	f040 8090 	bne.w	24054a0c <HAL_ADC_ConfigChannel+0x310>
240548ec:	4f53      	ldr	r7, [pc, #332]	; (24054a3c <HAL_ADC_ConfigChannel+0x340>)
240548ee:	f003 70e0 	and.w	r0, r3, #29360128	; 0x1c00000
240548f2:	42be      	cmp	r6, r7
240548f4:	d166      	bne.n	240549c4 <HAL_ADC_ConfigChannel+0x2c8>
240548f6:	021b      	lsls	r3, r3, #8
240548f8:	d480      	bmi.n	240547fc <HAL_ADC_ConfigChannel+0x100>
240548fa:	428c      	cmp	r4, r1
240548fc:	f47f af7e 	bne.w	240547fc <HAL_ADC_ConfigChannel+0x100>
24054900:	6893      	ldr	r3, [r2, #8]
24054902:	f023 73e0 	bic.w	r3, r3, #29360128	; 0x1c00000
24054906:	4303      	orrs	r3, r0
24054908:	f443 0300 	orr.w	r3, r3, #8388608	; 0x800000
2405490c:	6093      	str	r3, [r2, #8]
2405490e:	4b4c      	ldr	r3, [pc, #304]	; (24054a40 <HAL_ADC_ConfigChannel+0x344>)
24054910:	4a4c      	ldr	r2, [pc, #304]	; (24054a44 <HAL_ADC_ConfigChannel+0x348>)
24054912:	681b      	ldr	r3, [r3, #0]
24054914:	fbb3 f3f2 	udiv	r3, r3, r2
24054918:	3301      	adds	r3, #1
2405491a:	005b      	lsls	r3, r3, #1
2405491c:	9301      	str	r3, [sp, #4]
2405491e:	9b01      	ldr	r3, [sp, #4]
24054920:	2b00      	cmp	r3, #0
24054922:	f43f af6b 	beq.w	240547fc <HAL_ADC_ConfigChannel+0x100>
24054926:	9b01      	ldr	r3, [sp, #4]
24054928:	3b01      	subs	r3, #1
2405492a:	e7f7      	b.n	2405491c <HAL_ADC_ConfigChannel+0x220>
2405492c:	fa93 f2a3 	rbit	r2, r3
24054930:	b132      	cbz	r2, 24054940 <HAL_ADC_ConfigChannel+0x244>
24054932:	fab2 f282 	clz	r2, r2
24054936:	3201      	adds	r2, #1
24054938:	f002 021f 	and.w	r2, r2, #31
2405493c:	2a09      	cmp	r2, #9
2405493e:	d816      	bhi.n	2405496e <HAL_ADC_ConfigChannel+0x272>
24054940:	fa93 f2a3 	rbit	r2, r3
24054944:	fab2 f282 	clz	r2, r2
24054948:	3201      	adds	r2, #1
2405494a:	0692      	lsls	r2, r2, #26
2405494c:	f002 42f8 	and.w	r2, r2, #2080374784	; 0x7c000000
24054950:	fa93 f7a3 	rbit	r7, r3
24054954:	fab7 f787 	clz	r7, r7
24054958:	2101      	movs	r1, #1
2405495a:	3701      	adds	r7, #1
2405495c:	f007 071f 	and.w	r7, r7, #31
24054960:	40b9      	lsls	r1, r7
24054962:	e7a4      	b.n	240548ae <HAL_ADC_ConfigChannel+0x1b2>
24054964:	fa93 f3a3 	rbit	r3, r3
24054968:	fab3 f383 	clz	r3, r3
2405496c:	e7a3      	b.n	240548b6 <HAL_ADC_ConfigChannel+0x1ba>
2405496e:	fa93 f2a3 	rbit	r2, r3
24054972:	fab2 f282 	clz	r2, r2
24054976:	3201      	adds	r2, #1
24054978:	0692      	lsls	r2, r2, #26
2405497a:	f002 42f8 	and.w	r2, r2, #2080374784	; 0x7c000000
2405497e:	fa93 f7a3 	rbit	r7, r3
24054982:	fab7 f787 	clz	r7, r7
24054986:	2101      	movs	r1, #1
24054988:	3701      	adds	r7, #1
2405498a:	f007 071f 	and.w	r7, r7, #31
2405498e:	40b9      	lsls	r1, r7
24054990:	4311      	orrs	r1, r2
24054992:	b950      	cbnz	r0, 240549aa <HAL_ADC_ConfigChannel+0x2ae>
24054994:	0e9b      	lsrs	r3, r3, #26
24054996:	3301      	adds	r3, #1
24054998:	f003 031f 	and.w	r3, r3, #31
2405499c:	eb03 0343 	add.w	r3, r3, r3, lsl #1
240549a0:	3b1e      	subs	r3, #30
240549a2:	051b      	lsls	r3, r3, #20
240549a4:	f043 7300 	orr.w	r3, r3, #33554432	; 0x2000000
240549a8:	e78b      	b.n	240548c2 <HAL_ADC_ConfigChannel+0x1c6>
240549aa:	fa93 f2a3 	rbit	r2, r3
240549ae:	fab2 f282 	clz	r2, r2
240549b2:	2303      	movs	r3, #3
240549b4:	f06f 001d 	mvn.w	r0, #29
240549b8:	3201      	adds	r2, #1
240549ba:	f002 021f 	and.w	r2, r2, #31
240549be:	fb13 0302 	smlabb	r3, r3, r2, r0
240549c2:	e7ee      	b.n	240549a2 <HAL_ADC_ConfigChannel+0x2a6>
240549c4:	4f20      	ldr	r7, [pc, #128]	; (24054a48 <HAL_ADC_ConfigChannel+0x34c>)
240549c6:	42be      	cmp	r6, r7
240549c8:	d10e      	bne.n	240549e8 <HAL_ADC_ConfigChannel+0x2ec>
240549ca:	f013 7380 	ands.w	r3, r3, #16777216	; 0x1000000
240549ce:	f47f af15 	bne.w	240547fc <HAL_ADC_ConfigChannel+0x100>
240549d2:	428c      	cmp	r4, r1
240549d4:	f47f af12 	bne.w	240547fc <HAL_ADC_ConfigChannel+0x100>
240549d8:	6891      	ldr	r1, [r2, #8]
240549da:	f021 71e0 	bic.w	r1, r1, #29360128	; 0x1c00000
240549de:	4301      	orrs	r1, r0
240549e0:	f041 7180 	orr.w	r1, r1, #16777216	; 0x1000000
240549e4:	6091      	str	r1, [r2, #8]
240549e6:	e70a      	b.n	240547fe <HAL_ADC_ConfigChannel+0x102>
240549e8:	4f18      	ldr	r7, [pc, #96]	; (24054a4c <HAL_ADC_ConfigChannel+0x350>)
240549ea:	42be      	cmp	r6, r7
240549ec:	f47f af06 	bne.w	240547fc <HAL_ADC_ConfigChannel+0x100>
240549f0:	f413 0380 	ands.w	r3, r3, #4194304	; 0x400000
240549f4:	f47f af02 	bne.w	240547fc <HAL_ADC_ConfigChannel+0x100>
240549f8:	428c      	cmp	r4, r1
240549fa:	f47f aeff 	bne.w	240547fc <HAL_ADC_ConfigChannel+0x100>
240549fe:	6891      	ldr	r1, [r2, #8]
24054a00:	f021 71e0 	bic.w	r1, r1, #29360128	; 0x1c00000
24054a04:	4301      	orrs	r1, r0
24054a06:	f441 0180 	orr.w	r1, r1, #4194304	; 0x400000
24054a0a:	e7eb      	b.n	240549e4 <HAL_ADC_ConfigChannel+0x2e8>
24054a0c:	6d6b      	ldr	r3, [r5, #84]	; 0x54
24054a0e:	f043 0320 	orr.w	r3, r3, #32
24054a12:	656b      	str	r3, [r5, #84]	; 0x54
24054a14:	2301      	movs	r3, #1
24054a16:	e6f2      	b.n	240547fe <HAL_ADC_ConfigChannel+0x102>
24054a18:	6d6a      	ldr	r2, [r5, #84]	; 0x54
24054a1a:	f042 0220 	orr.w	r2, r2, #32
24054a1e:	656a      	str	r2, [r5, #84]	; 0x54
24054a20:	e6ed      	b.n	240547fe <HAL_ADC_ConfigChannel+0x102>
24054a22:	2302      	movs	r3, #2
24054a24:	e6ee      	b.n	24054804 <HAL_ADC_ConfigChannel+0x108>
24054a26:	bf00      	nop
24054a28:	000fffff 	.word	0x000fffff
24054a2c:	47ff0000 	.word	0x47ff0000
24054a30:	40022300 	.word	0x40022300
24054a34:	40022000 	.word	0x40022000
24054a38:	40022100 	.word	0x40022100
24054a3c:	cb840000 	.word	0xcb840000
24054a40:	200000ac 	.word	0x200000ac
24054a44:	00030d40 	.word	0x00030d40
24054a48:	bac04000 	.word	0xbac04000
24054a4c:	cfb80000 	.word	0xcfb80000

24054a50 <ADC_ConversionStop>:
24054a50:	6803      	ldr	r3, [r0, #0]
24054a52:	b570      	push	{r4, r5, r6, lr}
24054a54:	4604      	mov	r4, r0
24054a56:	4618      	mov	r0, r3
24054a58:	f7ff fcb0 	bl	240543bc <LL_ADC_REG_IsConversionOngoing>
24054a5c:	689a      	ldr	r2, [r3, #8]
24054a5e:	f002 0208 	and.w	r2, r2, #8
24054a62:	4310      	orrs	r0, r2
24054a64:	d101      	bne.n	24054a6a <ADC_ConversionStop+0x1a>
24054a66:	2000      	movs	r0, #0
24054a68:	bd70      	pop	{r4, r5, r6, pc}
24054a6a:	68da      	ldr	r2, [r3, #12]
24054a6c:	0190      	lsls	r0, r2, #6
24054a6e:	d52a      	bpl.n	24054ac6 <ADC_ConversionStop+0x76>
24054a70:	8aa0      	ldrh	r0, [r4, #20]
24054a72:	f240 1201 	movw	r2, #257	; 0x101
24054a76:	4290      	cmp	r0, r2
24054a78:	d125      	bne.n	24054ac6 <ADC_ConversionStop+0x76>
24054a7a:	4a27      	ldr	r2, [pc, #156]	; (24054b18 <ADC_ConversionStop+0xc8>)
24054a7c:	6819      	ldr	r1, [r3, #0]
24054a7e:	0649      	lsls	r1, r1, #25
24054a80:	d515      	bpl.n	24054aae <ADC_ConversionStop+0x5e>
24054a82:	2240      	movs	r2, #64	; 0x40
24054a84:	2101      	movs	r1, #1
24054a86:	601a      	str	r2, [r3, #0]
24054a88:	4618      	mov	r0, r3
24054a8a:	f7ff fc97 	bl	240543bc <LL_ADC_REG_IsConversionOngoing>
24054a8e:	b150      	cbz	r0, 24054aa6 <ADC_ConversionStop+0x56>
24054a90:	689a      	ldr	r2, [r3, #8]
24054a92:	0796      	lsls	r6, r2, #30
24054a94:	d407      	bmi.n	24054aa6 <ADC_ConversionStop+0x56>
24054a96:	689a      	ldr	r2, [r3, #8]
24054a98:	f022 4200 	bic.w	r2, r2, #2147483648	; 0x80000000
24054a9c:	f022 023f 	bic.w	r2, r2, #63	; 0x3f
24054aa0:	f042 0210 	orr.w	r2, r2, #16
24054aa4:	609a      	str	r2, [r3, #8]
24054aa6:	2901      	cmp	r1, #1
24054aa8:	d10f      	bne.n	24054aca <ADC_ConversionStop+0x7a>
24054aaa:	2504      	movs	r5, #4
24054aac:	e021      	b.n	24054af2 <ADC_ConversionStop+0xa2>
24054aae:	3a01      	subs	r2, #1
24054ab0:	d1e4      	bne.n	24054a7c <ADC_ConversionStop+0x2c>
24054ab2:	6d63      	ldr	r3, [r4, #84]	; 0x54
24054ab4:	2001      	movs	r0, #1
24054ab6:	f043 0310 	orr.w	r3, r3, #16
24054aba:	6563      	str	r3, [r4, #84]	; 0x54
24054abc:	6da3      	ldr	r3, [r4, #88]	; 0x58
24054abe:	f043 0301 	orr.w	r3, r3, #1
24054ac2:	65a3      	str	r3, [r4, #88]	; 0x58
24054ac4:	e7d0      	b.n	24054a68 <ADC_ConversionStop+0x18>
24054ac6:	2902      	cmp	r1, #2
24054ac8:	d1de      	bne.n	24054a88 <ADC_ConversionStop+0x38>
24054aca:	689a      	ldr	r2, [r3, #8]
24054acc:	0710      	lsls	r0, r2, #28
24054ace:	d50a      	bpl.n	24054ae6 <ADC_ConversionStop+0x96>
24054ad0:	689a      	ldr	r2, [r3, #8]
24054ad2:	0792      	lsls	r2, r2, #30
24054ad4:	d407      	bmi.n	24054ae6 <ADC_ConversionStop+0x96>
24054ad6:	689a      	ldr	r2, [r3, #8]
24054ad8:	f022 4200 	bic.w	r2, r2, #2147483648	; 0x80000000
24054adc:	f022 023f 	bic.w	r2, r2, #63	; 0x3f
24054ae0:	f042 0220 	orr.w	r2, r2, #32
24054ae4:	609a      	str	r2, [r3, #8]
24054ae6:	2902      	cmp	r1, #2
24054ae8:	d014      	beq.n	24054b14 <ADC_ConversionStop+0xc4>
24054aea:	2903      	cmp	r1, #3
24054aec:	bf14      	ite	ne
24054aee:	2504      	movne	r5, #4
24054af0:	250c      	moveq	r5, #12
24054af2:	f7ff fc37 	bl	24054364 <HAL_GetTick>
24054af6:	4606      	mov	r6, r0
24054af8:	6823      	ldr	r3, [r4, #0]
24054afa:	689b      	ldr	r3, [r3, #8]
24054afc:	422b      	tst	r3, r5
24054afe:	d0b2      	beq.n	24054a66 <ADC_ConversionStop+0x16>
24054b00:	f7ff fc30 	bl	24054364 <HAL_GetTick>
24054b04:	1b80      	subs	r0, r0, r6
24054b06:	2805      	cmp	r0, #5
24054b08:	d9f6      	bls.n	24054af8 <ADC_ConversionStop+0xa8>
24054b0a:	6823      	ldr	r3, [r4, #0]
24054b0c:	689b      	ldr	r3, [r3, #8]
24054b0e:	422b      	tst	r3, r5
24054b10:	d0f2      	beq.n	24054af8 <ADC_ConversionStop+0xa8>
24054b12:	e7ce      	b.n	24054ab2 <ADC_ConversionStop+0x62>
24054b14:	2508      	movs	r5, #8
24054b16:	e7ec      	b.n	24054af2 <ADC_ConversionStop+0xa2>
24054b18:	000cdc01 	.word	0x000cdc01

24054b1c <ADC_Enable>:
24054b1c:	6802      	ldr	r2, [r0, #0]
24054b1e:	b570      	push	{r4, r5, r6, lr}
24054b20:	4604      	mov	r4, r0
24054b22:	4610      	mov	r0, r2
24054b24:	f7ff fc46 	bl	240543b4 <LL_ADC_IsEnabled>
24054b28:	b108      	cbz	r0, 24054b2e <ADC_Enable+0x12>
24054b2a:	2000      	movs	r0, #0
24054b2c:	bd70      	pop	{r4, r5, r6, pc}
24054b2e:	6891      	ldr	r1, [r2, #8]
24054b30:	4b1c      	ldr	r3, [pc, #112]	; (24054ba4 <ADC_Enable+0x88>)
24054b32:	4219      	tst	r1, r3
24054b34:	d009      	beq.n	24054b4a <ADC_Enable+0x2e>
24054b36:	6d63      	ldr	r3, [r4, #84]	; 0x54
24054b38:	2001      	movs	r0, #1
24054b3a:	f043 0310 	orr.w	r3, r3, #16
24054b3e:	6563      	str	r3, [r4, #84]	; 0x54
24054b40:	6da3      	ldr	r3, [r4, #88]	; 0x58
24054b42:	f043 0301 	orr.w	r3, r3, #1
24054b46:	65a3      	str	r3, [r4, #88]	; 0x58
24054b48:	e7f0      	b.n	24054b2c <ADC_Enable+0x10>
24054b4a:	6893      	ldr	r3, [r2, #8]
24054b4c:	f023 4300 	bic.w	r3, r3, #2147483648	; 0x80000000
24054b50:	f023 033f 	bic.w	r3, r3, #63	; 0x3f
24054b54:	f043 0301 	orr.w	r3, r3, #1
24054b58:	6093      	str	r3, [r2, #8]
24054b5a:	f7ff fc03 	bl	24054364 <HAL_GetTick>
24054b5e:	6821      	ldr	r1, [r4, #0]
24054b60:	4a11      	ldr	r2, [pc, #68]	; (24054ba8 <ADC_Enable+0x8c>)
24054b62:	4605      	mov	r5, r0
24054b64:	4b11      	ldr	r3, [pc, #68]	; (24054bac <ADC_Enable+0x90>)
24054b66:	4291      	cmp	r1, r2
24054b68:	689b      	ldr	r3, [r3, #8]
24054b6a:	d101      	bne.n	24054b70 <ADC_Enable+0x54>
24054b6c:	06db      	lsls	r3, r3, #27
24054b6e:	d1dc      	bne.n	24054b2a <ADC_Enable+0xe>
24054b70:	4e0f      	ldr	r6, [pc, #60]	; (24054bb0 <ADC_Enable+0x94>)
24054b72:	e011      	b.n	24054b98 <ADC_Enable+0x7c>
24054b74:	4610      	mov	r0, r2
24054b76:	f7ff fc1d 	bl	240543b4 <LL_ADC_IsEnabled>
24054b7a:	b920      	cbnz	r0, 24054b86 <ADC_Enable+0x6a>
24054b7c:	6893      	ldr	r3, [r2, #8]
24054b7e:	4033      	ands	r3, r6
24054b80:	f043 0301 	orr.w	r3, r3, #1
24054b84:	6093      	str	r3, [r2, #8]
24054b86:	f7ff fbed 	bl	24054364 <HAL_GetTick>
24054b8a:	1b40      	subs	r0, r0, r5
24054b8c:	2802      	cmp	r0, #2
24054b8e:	d903      	bls.n	24054b98 <ADC_Enable+0x7c>
24054b90:	6823      	ldr	r3, [r4, #0]
24054b92:	681b      	ldr	r3, [r3, #0]
24054b94:	07d8      	lsls	r0, r3, #31
24054b96:	d5ce      	bpl.n	24054b36 <ADC_Enable+0x1a>
24054b98:	6822      	ldr	r2, [r4, #0]
24054b9a:	6813      	ldr	r3, [r2, #0]
24054b9c:	07d9      	lsls	r1, r3, #31
24054b9e:	d5e9      	bpl.n	24054b74 <ADC_Enable+0x58>
24054ba0:	e7c3      	b.n	24054b2a <ADC_Enable+0xe>
24054ba2:	bf00      	nop
24054ba4:	8000003f 	.word	0x8000003f
24054ba8:	40022100 	.word	0x40022100
24054bac:	40022300 	.word	0x40022300
24054bb0:	7fffffc0 	.word	0x7fffffc0

24054bb4 <HAL_ADC_Start>:
24054bb4:	4b33      	ldr	r3, [pc, #204]	; (24054c84 <HAL_ADC_Start+0xd0>)
24054bb6:	b570      	push	{r4, r5, r6, lr}
24054bb8:	4604      	mov	r4, r0
24054bba:	6800      	ldr	r0, [r0, #0]
24054bbc:	689e      	ldr	r6, [r3, #8]
24054bbe:	f7ff fbfd 	bl	240543bc <LL_ADC_REG_IsConversionOngoing>
24054bc2:	4605      	mov	r5, r0
24054bc4:	2800      	cmp	r0, #0
24054bc6:	d157      	bne.n	24054c78 <HAL_ADC_Start+0xc4>
24054bc8:	f894 3050 	ldrb.w	r3, [r4, #80]	; 0x50
24054bcc:	2b01      	cmp	r3, #1
24054bce:	d053      	beq.n	24054c78 <HAL_ADC_Start+0xc4>
24054bd0:	2301      	movs	r3, #1
24054bd2:	4620      	mov	r0, r4
24054bd4:	f884 3050 	strb.w	r3, [r4, #80]	; 0x50
24054bd8:	f7ff ffa0 	bl	24054b1c <ADC_Enable>
24054bdc:	2800      	cmp	r0, #0
24054bde:	d148      	bne.n	24054c72 <HAL_ADC_Start+0xbe>
24054be0:	6d63      	ldr	r3, [r4, #84]	; 0x54
24054be2:	f006 011f 	and.w	r1, r6, #31
24054be6:	4a28      	ldr	r2, [pc, #160]	; (24054c88 <HAL_ADC_Start+0xd4>)
24054be8:	f423 6370 	bic.w	r3, r3, #3840	; 0xf00
24054bec:	f023 0301 	bic.w	r3, r3, #1
24054bf0:	f443 7380 	orr.w	r3, r3, #256	; 0x100
24054bf4:	6563      	str	r3, [r4, #84]	; 0x54
24054bf6:	6823      	ldr	r3, [r4, #0]
24054bf8:	4293      	cmp	r3, r2
24054bfa:	d03f      	beq.n	24054c7c <HAL_ADC_Start+0xc8>
24054bfc:	461a      	mov	r2, r3
24054bfe:	6d65      	ldr	r5, [r4, #84]	; 0x54
24054c00:	f425 1580 	bic.w	r5, r5, #1048576	; 0x100000
24054c04:	6565      	str	r5, [r4, #84]	; 0x54
24054c06:	6d65      	ldr	r5, [r4, #84]	; 0x54
24054c08:	f415 5580 	ands.w	r5, r5, #4096	; 0x1000
24054c0c:	d002      	beq.n	24054c14 <HAL_ADC_Start+0x60>
24054c0e:	6da5      	ldr	r5, [r4, #88]	; 0x58
24054c10:	f025 0506 	bic.w	r5, r5, #6
24054c14:	65a5      	str	r5, [r4, #88]	; 0x58
24054c16:	251c      	movs	r5, #28
24054c18:	4293      	cmp	r3, r2
24054c1a:	601d      	str	r5, [r3, #0]
24054c1c:	f04f 0500 	mov.w	r5, #0
24054c20:	f884 5050 	strb.w	r5, [r4, #80]	; 0x50
24054c24:	d005      	beq.n	24054c32 <HAL_ADC_Start+0x7e>
24054c26:	f240 2521 	movw	r5, #545	; 0x221
24054c2a:	fa25 f101 	lsr.w	r1, r5, r1
24054c2e:	07c9      	lsls	r1, r1, #31
24054c30:	d511      	bpl.n	24054c56 <HAL_ADC_Start+0xa2>
24054c32:	68da      	ldr	r2, [r3, #12]
24054c34:	0192      	lsls	r2, r2, #6
24054c36:	d505      	bpl.n	24054c44 <HAL_ADC_Start+0x90>
24054c38:	6d62      	ldr	r2, [r4, #84]	; 0x54
24054c3a:	f422 5240 	bic.w	r2, r2, #12288	; 0x3000
24054c3e:	f442 5280 	orr.w	r2, r2, #4096	; 0x1000
24054c42:	6562      	str	r2, [r4, #84]	; 0x54
24054c44:	689a      	ldr	r2, [r3, #8]
24054c46:	f022 4200 	bic.w	r2, r2, #2147483648	; 0x80000000
24054c4a:	f022 023f 	bic.w	r2, r2, #63	; 0x3f
24054c4e:	f042 0204 	orr.w	r2, r2, #4
24054c52:	609a      	str	r2, [r3, #8]
24054c54:	bd70      	pop	{r4, r5, r6, pc}
24054c56:	6d63      	ldr	r3, [r4, #84]	; 0x54
24054c58:	f443 1380 	orr.w	r3, r3, #1048576	; 0x100000
24054c5c:	6563      	str	r3, [r4, #84]	; 0x54
24054c5e:	68d3      	ldr	r3, [r2, #12]
24054c60:	019b      	lsls	r3, r3, #6
24054c62:	d5f7      	bpl.n	24054c54 <HAL_ADC_Start+0xa0>
24054c64:	6d63      	ldr	r3, [r4, #84]	; 0x54
24054c66:	f423 5340 	bic.w	r3, r3, #12288	; 0x3000
24054c6a:	f443 5380 	orr.w	r3, r3, #4096	; 0x1000
24054c6e:	6563      	str	r3, [r4, #84]	; 0x54
24054c70:	e7f0      	b.n	24054c54 <HAL_ADC_Start+0xa0>
24054c72:	f884 5050 	strb.w	r5, [r4, #80]	; 0x50
24054c76:	e7ed      	b.n	24054c54 <HAL_ADC_Start+0xa0>
24054c78:	2002      	movs	r0, #2
24054c7a:	e7eb      	b.n	24054c54 <HAL_ADC_Start+0xa0>
24054c7c:	4a03      	ldr	r2, [pc, #12]	; (24054c8c <HAL_ADC_Start+0xd8>)
24054c7e:	2900      	cmp	r1, #0
24054c80:	d0bd      	beq.n	24054bfe <HAL_ADC_Start+0x4a>
24054c82:	e7c0      	b.n	24054c06 <HAL_ADC_Start+0x52>
24054c84:	40022300 	.word	0x40022300
24054c88:	40022100 	.word	0x40022100
24054c8c:	40022000 	.word	0x40022000

24054c90 <HAL_ADC_Start_IT>:
24054c90:	4b4e      	ldr	r3, [pc, #312]	; (24054dcc <HAL_ADC_Start_IT+0x13c>)
24054c92:	b570      	push	{r4, r5, r6, lr}
24054c94:	4604      	mov	r4, r0
24054c96:	6800      	ldr	r0, [r0, #0]
24054c98:	689e      	ldr	r6, [r3, #8]
24054c9a:	f7ff fb8f 	bl	240543bc <LL_ADC_REG_IsConversionOngoing>
24054c9e:	4605      	mov	r5, r0
24054ca0:	2800      	cmp	r0, #0
24054ca2:	f040 808d 	bne.w	24054dc0 <HAL_ADC_Start_IT+0x130>
24054ca6:	f894 3050 	ldrb.w	r3, [r4, #80]	; 0x50
24054caa:	2b01      	cmp	r3, #1
24054cac:	f000 8088 	beq.w	24054dc0 <HAL_ADC_Start_IT+0x130>
24054cb0:	2301      	movs	r3, #1
24054cb2:	4620      	mov	r0, r4
24054cb4:	f884 3050 	strb.w	r3, [r4, #80]	; 0x50
24054cb8:	f7ff ff30 	bl	24054b1c <ADC_Enable>
24054cbc:	2800      	cmp	r0, #0
24054cbe:	d17c      	bne.n	24054dba <HAL_ADC_Start_IT+0x12a>
24054cc0:	6d63      	ldr	r3, [r4, #84]	; 0x54
24054cc2:	f006 011f 	and.w	r1, r6, #31
24054cc6:	4a42      	ldr	r2, [pc, #264]	; (24054dd0 <HAL_ADC_Start_IT+0x140>)
24054cc8:	f423 6370 	bic.w	r3, r3, #3840	; 0xf00
24054ccc:	f023 0301 	bic.w	r3, r3, #1
24054cd0:	f443 7380 	orr.w	r3, r3, #256	; 0x100
24054cd4:	6563      	str	r3, [r4, #84]	; 0x54
24054cd6:	6823      	ldr	r3, [r4, #0]
24054cd8:	4293      	cmp	r3, r2
24054cda:	d073      	beq.n	24054dc4 <HAL_ADC_Start_IT+0x134>
24054cdc:	461a      	mov	r2, r3
24054cde:	6d65      	ldr	r5, [r4, #84]	; 0x54
24054ce0:	f425 1580 	bic.w	r5, r5, #1048576	; 0x100000
24054ce4:	6565      	str	r5, [r4, #84]	; 0x54
24054ce6:	6d65      	ldr	r5, [r4, #84]	; 0x54
24054ce8:	f415 5580 	ands.w	r5, r5, #4096	; 0x1000
24054cec:	d002      	beq.n	24054cf4 <HAL_ADC_Start_IT+0x64>
24054cee:	6da5      	ldr	r5, [r4, #88]	; 0x58
24054cf0:	f025 0506 	bic.w	r5, r5, #6
24054cf4:	65a5      	str	r5, [r4, #88]	; 0x58
24054cf6:	251c      	movs	r5, #28
24054cf8:	601d      	str	r5, [r3, #0]
24054cfa:	2500      	movs	r5, #0
24054cfc:	f884 5050 	strb.w	r5, [r4, #80]	; 0x50
24054d00:	685d      	ldr	r5, [r3, #4]
24054d02:	f025 051c 	bic.w	r5, r5, #28
24054d06:	605d      	str	r5, [r3, #4]
24054d08:	6925      	ldr	r5, [r4, #16]
24054d0a:	685e      	ldr	r6, [r3, #4]
24054d0c:	2d08      	cmp	r5, #8
24054d0e:	bf0c      	ite	eq
24054d10:	f046 0608 	orreq.w	r6, r6, #8
24054d14:	f046 0604 	orrne.w	r6, r6, #4
24054d18:	605e      	str	r6, [r3, #4]
24054d1a:	6b26      	ldr	r6, [r4, #48]	; 0x30
24054d1c:	b91e      	cbnz	r6, 24054d26 <HAL_ADC_Start_IT+0x96>
24054d1e:	685e      	ldr	r6, [r3, #4]
24054d20:	f046 0610 	orr.w	r6, r6, #16
24054d24:	605e      	str	r6, [r3, #4]
24054d26:	4293      	cmp	r3, r2
24054d28:	d005      	beq.n	24054d36 <HAL_ADC_Start_IT+0xa6>
24054d2a:	f240 2621 	movw	r6, #545	; 0x221
24054d2e:	fa26 f101 	lsr.w	r1, r6, r1
24054d32:	07ce      	lsls	r6, r1, #31
24054d34:	d522      	bpl.n	24054d7c <HAL_ADC_Start_IT+0xec>
24054d36:	68da      	ldr	r2, [r3, #12]
24054d38:	0191      	lsls	r1, r2, #6
24054d3a:	d50f      	bpl.n	24054d5c <HAL_ADC_Start_IT+0xcc>
24054d3c:	6d62      	ldr	r2, [r4, #84]	; 0x54
24054d3e:	2d08      	cmp	r5, #8
24054d40:	f422 5240 	bic.w	r2, r2, #12288	; 0x3000
24054d44:	f442 5280 	orr.w	r2, r2, #4096	; 0x1000
24054d48:	6562      	str	r2, [r4, #84]	; 0x54
24054d4a:	685a      	ldr	r2, [r3, #4]
24054d4c:	d10f      	bne.n	24054d6e <HAL_ADC_Start_IT+0xde>
24054d4e:	f022 0220 	bic.w	r2, r2, #32
24054d52:	605a      	str	r2, [r3, #4]
24054d54:	685a      	ldr	r2, [r3, #4]
24054d56:	f042 0240 	orr.w	r2, r2, #64	; 0x40
24054d5a:	605a      	str	r2, [r3, #4]
24054d5c:	689a      	ldr	r2, [r3, #8]
24054d5e:	f022 4200 	bic.w	r2, r2, #2147483648	; 0x80000000
24054d62:	f022 023f 	bic.w	r2, r2, #63	; 0x3f
24054d66:	f042 0204 	orr.w	r2, r2, #4
24054d6a:	609a      	str	r2, [r3, #8]
24054d6c:	bd70      	pop	{r4, r5, r6, pc}
24054d6e:	f022 0240 	bic.w	r2, r2, #64	; 0x40
24054d72:	605a      	str	r2, [r3, #4]
24054d74:	685a      	ldr	r2, [r3, #4]
24054d76:	f042 0220 	orr.w	r2, r2, #32
24054d7a:	e7ee      	b.n	24054d5a <HAL_ADC_Start_IT+0xca>
24054d7c:	6d61      	ldr	r1, [r4, #84]	; 0x54
24054d7e:	f441 1180 	orr.w	r1, r1, #1048576	; 0x100000
24054d82:	6561      	str	r1, [r4, #84]	; 0x54
24054d84:	68d2      	ldr	r2, [r2, #12]
24054d86:	0192      	lsls	r2, r2, #6
24054d88:	d5f0      	bpl.n	24054d6c <HAL_ADC_Start_IT+0xdc>
24054d8a:	6d62      	ldr	r2, [r4, #84]	; 0x54
24054d8c:	2d08      	cmp	r5, #8
24054d8e:	f422 5240 	bic.w	r2, r2, #12288	; 0x3000
24054d92:	f442 5280 	orr.w	r2, r2, #4096	; 0x1000
24054d96:	6562      	str	r2, [r4, #84]	; 0x54
24054d98:	685a      	ldr	r2, [r3, #4]
24054d9a:	d107      	bne.n	24054dac <HAL_ADC_Start_IT+0x11c>
24054d9c:	f022 0220 	bic.w	r2, r2, #32
24054da0:	605a      	str	r2, [r3, #4]
24054da2:	685a      	ldr	r2, [r3, #4]
24054da4:	f042 0240 	orr.w	r2, r2, #64	; 0x40
24054da8:	605a      	str	r2, [r3, #4]
24054daa:	e7df      	b.n	24054d6c <HAL_ADC_Start_IT+0xdc>
24054dac:	f022 0240 	bic.w	r2, r2, #64	; 0x40
24054db0:	605a      	str	r2, [r3, #4]
24054db2:	685a      	ldr	r2, [r3, #4]
24054db4:	f042 0220 	orr.w	r2, r2, #32
24054db8:	e7f6      	b.n	24054da8 <HAL_ADC_Start_IT+0x118>
24054dba:	f884 5050 	strb.w	r5, [r4, #80]	; 0x50
24054dbe:	e7d5      	b.n	24054d6c <HAL_ADC_Start_IT+0xdc>
24054dc0:	2002      	movs	r0, #2
24054dc2:	e7d3      	b.n	24054d6c <HAL_ADC_Start_IT+0xdc>
24054dc4:	4a03      	ldr	r2, [pc, #12]	; (24054dd4 <HAL_ADC_Start_IT+0x144>)
24054dc6:	2900      	cmp	r1, #0
24054dc8:	d089      	beq.n	24054cde <HAL_ADC_Start_IT+0x4e>
24054dca:	e78c      	b.n	24054ce6 <HAL_ADC_Start_IT+0x56>
24054dcc:	40022300 	.word	0x40022300
24054dd0:	40022100 	.word	0x40022100
24054dd4:	40022000 	.word	0x40022000

24054dd8 <ADC_Disable>:
24054dd8:	6802      	ldr	r2, [r0, #0]
24054dda:	b538      	push	{r3, r4, r5, lr}
24054ddc:	4604      	mov	r4, r0
24054dde:	4610      	mov	r0, r2
24054de0:	6893      	ldr	r3, [r2, #8]
24054de2:	f7ff fae7 	bl	240543b4 <LL_ADC_IsEnabled>
24054de6:	b908      	cbnz	r0, 24054dec <ADC_Disable+0x14>
24054de8:	2000      	movs	r0, #0
24054dea:	bd38      	pop	{r3, r4, r5, pc}
24054dec:	0799      	lsls	r1, r3, #30
24054dee:	d4fb      	bmi.n	24054de8 <ADC_Disable+0x10>
24054df0:	6893      	ldr	r3, [r2, #8]
24054df2:	f003 030d 	and.w	r3, r3, #13
24054df6:	2b01      	cmp	r3, #1
24054df8:	d119      	bne.n	24054e2e <ADC_Disable+0x56>
24054dfa:	6893      	ldr	r3, [r2, #8]
24054dfc:	f023 4300 	bic.w	r3, r3, #2147483648	; 0x80000000
24054e00:	f023 033f 	bic.w	r3, r3, #63	; 0x3f
24054e04:	f043 0302 	orr.w	r3, r3, #2
24054e08:	6093      	str	r3, [r2, #8]
24054e0a:	2303      	movs	r3, #3
24054e0c:	6013      	str	r3, [r2, #0]
24054e0e:	f7ff faa9 	bl	24054364 <HAL_GetTick>
24054e12:	4605      	mov	r5, r0
24054e14:	6823      	ldr	r3, [r4, #0]
24054e16:	689b      	ldr	r3, [r3, #8]
24054e18:	07db      	lsls	r3, r3, #31
24054e1a:	d5e5      	bpl.n	24054de8 <ADC_Disable+0x10>
24054e1c:	f7ff faa2 	bl	24054364 <HAL_GetTick>
24054e20:	1b40      	subs	r0, r0, r5
24054e22:	2802      	cmp	r0, #2
24054e24:	d9f6      	bls.n	24054e14 <ADC_Disable+0x3c>
24054e26:	6823      	ldr	r3, [r4, #0]
24054e28:	689b      	ldr	r3, [r3, #8]
24054e2a:	07da      	lsls	r2, r3, #31
24054e2c:	d5f2      	bpl.n	24054e14 <ADC_Disable+0x3c>
24054e2e:	6d63      	ldr	r3, [r4, #84]	; 0x54
24054e30:	2001      	movs	r0, #1
24054e32:	f043 0310 	orr.w	r3, r3, #16
24054e36:	6563      	str	r3, [r4, #84]	; 0x54
24054e38:	6da3      	ldr	r3, [r4, #88]	; 0x58
24054e3a:	f043 0301 	orr.w	r3, r3, #1
24054e3e:	65a3      	str	r3, [r4, #88]	; 0x58
24054e40:	e7d3      	b.n	24054dea <ADC_Disable+0x12>

24054e42 <HAL_ADC_Stop_IT>:
24054e42:	b510      	push	{r4, lr}
24054e44:	f890 3050 	ldrb.w	r3, [r0, #80]	; 0x50
24054e48:	4604      	mov	r4, r0
24054e4a:	2b01      	cmp	r3, #1
24054e4c:	d01b      	beq.n	24054e86 <HAL_ADC_Stop_IT+0x44>
24054e4e:	2301      	movs	r3, #1
24054e50:	2103      	movs	r1, #3
24054e52:	f880 3050 	strb.w	r3, [r0, #80]	; 0x50
24054e56:	f7ff fdfb 	bl	24054a50 <ADC_ConversionStop>
24054e5a:	b980      	cbnz	r0, 24054e7e <HAL_ADC_Stop_IT+0x3c>
24054e5c:	6822      	ldr	r2, [r4, #0]
24054e5e:	4620      	mov	r0, r4
24054e60:	6853      	ldr	r3, [r2, #4]
24054e62:	f023 031c 	bic.w	r3, r3, #28
24054e66:	6053      	str	r3, [r2, #4]
24054e68:	f7ff ffb6 	bl	24054dd8 <ADC_Disable>
24054e6c:	b938      	cbnz	r0, 24054e7e <HAL_ADC_Stop_IT+0x3c>
24054e6e:	6d63      	ldr	r3, [r4, #84]	; 0x54
24054e70:	f423 5388 	bic.w	r3, r3, #4352	; 0x1100
24054e74:	f023 0301 	bic.w	r3, r3, #1
24054e78:	f043 0301 	orr.w	r3, r3, #1
24054e7c:	6563      	str	r3, [r4, #84]	; 0x54
24054e7e:	2300      	movs	r3, #0
24054e80:	f884 3050 	strb.w	r3, [r4, #80]	; 0x50
24054e84:	bd10      	pop	{r4, pc}
24054e86:	2002      	movs	r0, #2
24054e88:	e7fc      	b.n	24054e84 <HAL_ADC_Stop_IT+0x42>
	...

24054e8c <ADC_ConfigureBoostMode>:
24054e8c:	b538      	push	{r3, r4, r5, lr}
24054e8e:	4b36      	ldr	r3, [pc, #216]	; (24054f68 <ADC_ConfigureBoostMode+0xdc>)
24054e90:	4604      	mov	r4, r0
24054e92:	4d36      	ldr	r5, [pc, #216]	; (24054f6c <ADC_ConfigureBoostMode+0xe0>)
24054e94:	689b      	ldr	r3, [r3, #8]
24054e96:	f413 3f40 	tst.w	r3, #196608	; 0x30000
24054e9a:	d021      	beq.n	24054ee0 <ADC_ConfigureBoostMode+0x54>
24054e9c:	f003 f964 	bl	24058168 <HAL_RCC_GetHCLKFreq>
24054ea0:	6863      	ldr	r3, [r4, #4]
24054ea2:	f5b3 3f00 	cmp.w	r3, #131072	; 0x20000
24054ea6:	d005      	beq.n	24054eb4 <ADC_ConfigureBoostMode+0x28>
24054ea8:	f5b3 3f40 	cmp.w	r3, #196608	; 0x30000
24054eac:	d006      	beq.n	24054ebc <ADC_ConfigureBoostMode+0x30>
24054eae:	f5b3 3f80 	cmp.w	r3, #65536	; 0x10000
24054eb2:	d104      	bne.n	24054ebe <ADC_ConfigureBoostMode+0x32>
24054eb4:	0c1b      	lsrs	r3, r3, #16
24054eb6:	fbb0 f0f3 	udiv	r0, r0, r3
24054eba:	e000      	b.n	24054ebe <ADC_ConfigureBoostMode+0x32>
24054ebc:	0880      	lsrs	r0, r0, #2
24054ebe:	42a8      	cmp	r0, r5
24054ec0:	6822      	ldr	r2, [r4, #0]
24054ec2:	d94c      	bls.n	24054f5e <ADC_ConfigureBoostMode+0xd2>
24054ec4:	4b2a      	ldr	r3, [pc, #168]	; (24054f70 <ADC_ConfigureBoostMode+0xe4>)
24054ec6:	4298      	cmp	r0, r3
24054ec8:	d93b      	bls.n	24054f42 <ADC_ConfigureBoostMode+0xb6>
24054eca:	4b2a      	ldr	r3, [pc, #168]	; (24054f74 <ADC_ConfigureBoostMode+0xe8>)
24054ecc:	4298      	cmp	r0, r3
24054ece:	6893      	ldr	r3, [r2, #8]
24054ed0:	bf96      	itet	ls
24054ed2:	f423 7340 	bicls.w	r3, r3, #768	; 0x300
24054ed6:	f443 7340 	orrhi.w	r3, r3, #768	; 0x300
24054eda:	f443 7300 	orrls.w	r3, r3, #512	; 0x200
24054ede:	e036      	b.n	24054f4e <ADC_ConfigureBoostMode+0xc2>
24054ee0:	f44f 2000 	mov.w	r0, #524288	; 0x80000
24054ee4:	2100      	movs	r1, #0
24054ee6:	f004 f951 	bl	2405918c <HAL_RCCEx_GetPeriphCLKFreq>
24054eea:	6863      	ldr	r3, [r4, #4]
24054eec:	f5b3 1f10 	cmp.w	r3, #2359296	; 0x240000
24054ef0:	d031      	beq.n	24054f56 <ADC_ConfigureBoostMode+0xca>
24054ef2:	d81d      	bhi.n	24054f30 <ADC_ConfigureBoostMode+0xa4>
24054ef4:	f5b3 1fe0 	cmp.w	r3, #1835008	; 0x1c0000
24054ef8:	d02b      	beq.n	24054f52 <ADC_ConfigureBoostMode+0xc6>
24054efa:	d814      	bhi.n	24054f26 <ADC_ConfigureBoostMode+0x9a>
24054efc:	f5b3 1f80 	cmp.w	r3, #1048576	; 0x100000
24054f00:	d008      	beq.n	24054f14 <ADC_ConfigureBoostMode+0x88>
24054f02:	d80a      	bhi.n	24054f1a <ADC_ConfigureBoostMode+0x8e>
24054f04:	f5b3 2f00 	cmp.w	r3, #524288	; 0x80000
24054f08:	d004      	beq.n	24054f14 <ADC_ConfigureBoostMode+0x88>
24054f0a:	f423 2200 	bic.w	r2, r3, #524288	; 0x80000
24054f0e:	f5b2 2f80 	cmp.w	r2, #262144	; 0x40000
24054f12:	d1d4      	bne.n	24054ebe <ADC_ConfigureBoostMode+0x32>
24054f14:	0c9b      	lsrs	r3, r3, #18
24054f16:	005b      	lsls	r3, r3, #1
24054f18:	e7cd      	b.n	24054eb6 <ADC_ConfigureBoostMode+0x2a>
24054f1a:	f5b3 1fa0 	cmp.w	r3, #1310720	; 0x140000
24054f1e:	d0f9      	beq.n	24054f14 <ADC_ConfigureBoostMode+0x88>
24054f20:	f5b3 1fc0 	cmp.w	r3, #1572864	; 0x180000
24054f24:	e7f5      	b.n	24054f12 <ADC_ConfigureBoostMode+0x86>
24054f26:	f5b3 1f00 	cmp.w	r3, #2097152	; 0x200000
24054f2a:	d1c8      	bne.n	24054ebe <ADC_ConfigureBoostMode+0x32>
24054f2c:	0940      	lsrs	r0, r0, #5
24054f2e:	e7c6      	b.n	24054ebe <ADC_ConfigureBoostMode+0x32>
24054f30:	f5b3 1f20 	cmp.w	r3, #2621440	; 0x280000
24054f34:	d011      	beq.n	24054f5a <ADC_ConfigureBoostMode+0xce>
24054f36:	f5b3 1f30 	cmp.w	r3, #2883584	; 0x2c0000
24054f3a:	d1c0      	bne.n	24054ebe <ADC_ConfigureBoostMode+0x32>
24054f3c:	ebb5 2f10 	cmp.w	r5, r0, lsr #8
24054f40:	d20d      	bcs.n	24054f5e <ADC_ConfigureBoostMode+0xd2>
24054f42:	6822      	ldr	r2, [r4, #0]
24054f44:	6893      	ldr	r3, [r2, #8]
24054f46:	f423 7340 	bic.w	r3, r3, #768	; 0x300
24054f4a:	f443 7380 	orr.w	r3, r3, #256	; 0x100
24054f4e:	6093      	str	r3, [r2, #8]
24054f50:	bd38      	pop	{r3, r4, r5, pc}
24054f52:	0900      	lsrs	r0, r0, #4
24054f54:	e7b3      	b.n	24054ebe <ADC_ConfigureBoostMode+0x32>
24054f56:	0980      	lsrs	r0, r0, #6
24054f58:	e7b1      	b.n	24054ebe <ADC_ConfigureBoostMode+0x32>
24054f5a:	09c0      	lsrs	r0, r0, #7
24054f5c:	e7af      	b.n	24054ebe <ADC_ConfigureBoostMode+0x32>
24054f5e:	6822      	ldr	r2, [r4, #0]
24054f60:	6893      	ldr	r3, [r2, #8]
24054f62:	f423 7340 	bic.w	r3, r3, #768	; 0x300
24054f66:	e7f2      	b.n	24054f4e <ADC_ConfigureBoostMode+0xc2>
24054f68:	40022300 	.word	0x40022300
24054f6c:	00bebc21 	.word	0x00bebc21
24054f70:	017d7841 	.word	0x017d7841
24054f74:	02faf081 	.word	0x02faf081

24054f78 <HAL_ADC_Init>:
24054f78:	2300      	movs	r3, #0
24054f7a:	b573      	push	{r0, r1, r4, r5, r6, lr}
24054f7c:	4604      	mov	r4, r0
24054f7e:	9301      	str	r3, [sp, #4]
24054f80:	2800      	cmp	r0, #0
24054f82:	f000 80c9 	beq.w	24055118 <HAL_ADC_Init+0x1a0>
24054f86:	6d45      	ldr	r5, [r0, #84]	; 0x54
24054f88:	b925      	cbnz	r5, 24054f94 <HAL_ADC_Init+0x1c>
24054f8a:	f7fe fcf3 	bl	24053974 <HAL_ADC_MspInit>
24054f8e:	65a5      	str	r5, [r4, #88]	; 0x58
24054f90:	f884 5050 	strb.w	r5, [r4, #80]	; 0x50
24054f94:	6823      	ldr	r3, [r4, #0]
24054f96:	689a      	ldr	r2, [r3, #8]
24054f98:	0090      	lsls	r0, r2, #2
24054f9a:	d505      	bpl.n	24054fa8 <HAL_ADC_Init+0x30>
24054f9c:	689a      	ldr	r2, [r3, #8]
24054f9e:	f022 4220 	bic.w	r2, r2, #2684354560	; 0xa0000000
24054fa2:	f022 023f 	bic.w	r2, r2, #63	; 0x3f
24054fa6:	609a      	str	r2, [r3, #8]
24054fa8:	689a      	ldr	r2, [r3, #8]
24054faa:	00d1      	lsls	r1, r2, #3
24054fac:	f140 8090 	bpl.w	240550d0 <HAL_ADC_Init+0x158>
24054fb0:	689a      	ldr	r2, [r3, #8]
24054fb2:	00d2      	lsls	r2, r2, #3
24054fb4:	f100 80a2 	bmi.w	240550fc <HAL_ADC_Init+0x184>
24054fb8:	6d62      	ldr	r2, [r4, #84]	; 0x54
24054fba:	2501      	movs	r5, #1
24054fbc:	f042 0210 	orr.w	r2, r2, #16
24054fc0:	6562      	str	r2, [r4, #84]	; 0x54
24054fc2:	6da2      	ldr	r2, [r4, #88]	; 0x58
24054fc4:	f042 0201 	orr.w	r2, r2, #1
24054fc8:	65a2      	str	r2, [r4, #88]	; 0x58
24054fca:	4618      	mov	r0, r3
24054fcc:	f7ff f9f6 	bl	240543bc <LL_ADC_REG_IsConversionOngoing>
24054fd0:	6d62      	ldr	r2, [r4, #84]	; 0x54
24054fd2:	f002 0210 	and.w	r2, r2, #16
24054fd6:	4310      	orrs	r0, r2
24054fd8:	f040 809a 	bne.w	24055110 <HAL_ADC_Init+0x198>
24054fdc:	6d62      	ldr	r2, [r4, #84]	; 0x54
24054fde:	4618      	mov	r0, r3
24054fe0:	f422 7281 	bic.w	r2, r2, #258	; 0x102
24054fe4:	f042 0202 	orr.w	r2, r2, #2
24054fe8:	6562      	str	r2, [r4, #84]	; 0x54
24054fea:	f7ff f9e3 	bl	240543b4 <LL_ADC_IsEnabled>
24054fee:	b978      	cbnz	r0, 24055010 <HAL_ADC_Init+0x98>
24054ff0:	484a      	ldr	r0, [pc, #296]	; (2405511c <HAL_ADC_Init+0x1a4>)
24054ff2:	f7ff f9df 	bl	240543b4 <LL_ADC_IsEnabled>
24054ff6:	4602      	mov	r2, r0
24054ff8:	4849      	ldr	r0, [pc, #292]	; (24055120 <HAL_ADC_Init+0x1a8>)
24054ffa:	f7ff f9db 	bl	240543b4 <LL_ADC_IsEnabled>
24054ffe:	4310      	orrs	r0, r2
24055000:	d106      	bne.n	24055010 <HAL_ADC_Init+0x98>
24055002:	4948      	ldr	r1, [pc, #288]	; (24055124 <HAL_ADC_Init+0x1ac>)
24055004:	6860      	ldr	r0, [r4, #4]
24055006:	688a      	ldr	r2, [r1, #8]
24055008:	f422 127c 	bic.w	r2, r2, #4128768	; 0x3f0000
2405500c:	4302      	orrs	r2, r0
2405500e:	608a      	str	r2, [r1, #8]
24055010:	68a0      	ldr	r0, [r4, #8]
24055012:	6b22      	ldr	r2, [r4, #48]	; 0x30
24055014:	7f21      	ldrb	r1, [r4, #28]
24055016:	4302      	orrs	r2, r0
24055018:	7d60      	ldrb	r0, [r4, #21]
2405501a:	2901      	cmp	r1, #1
2405501c:	ea42 3240 	orr.w	r2, r2, r0, lsl #13
24055020:	ea42 4201 	orr.w	r2, r2, r1, lsl #16
24055024:	bf02      	ittt	eq
24055026:	6a21      	ldreq	r1, [r4, #32]
24055028:	f101 31ff 	addeq.w	r1, r1, #4294967295
2405502c:	ea42 4241 	orreq.w	r2, r2, r1, lsl #17
24055030:	6a61      	ldr	r1, [r4, #36]	; 0x24
24055032:	b121      	cbz	r1, 2405503e <HAL_ADC_Init+0xc6>
24055034:	f401 7178 	and.w	r1, r1, #992	; 0x3e0
24055038:	6aa0      	ldr	r0, [r4, #40]	; 0x28
2405503a:	4301      	orrs	r1, r0
2405503c:	430a      	orrs	r2, r1
2405503e:	68d8      	ldr	r0, [r3, #12]
24055040:	4939      	ldr	r1, [pc, #228]	; (24055128 <HAL_ADC_Init+0x1b0>)
24055042:	4001      	ands	r1, r0
24055044:	4618      	mov	r0, r3
24055046:	4311      	orrs	r1, r2
24055048:	60d9      	str	r1, [r3, #12]
2405504a:	f7ff f9b7 	bl	240543bc <LL_ADC_REG_IsConversionOngoing>
2405504e:	689a      	ldr	r2, [r3, #8]
24055050:	f002 0208 	and.w	r2, r2, #8
24055054:	4310      	orrs	r0, r2
24055056:	d127      	bne.n	240550a8 <HAL_ADC_Init+0x130>
24055058:	68da      	ldr	r2, [r3, #12]
2405505a:	7d21      	ldrb	r1, [r4, #20]
2405505c:	f422 4280 	bic.w	r2, r2, #16384	; 0x4000
24055060:	f022 0203 	bic.w	r2, r2, #3
24055064:	ea42 3281 	orr.w	r2, r2, r1, lsl #14
24055068:	6ae1      	ldr	r1, [r4, #44]	; 0x2c
2405506a:	430a      	orrs	r2, r1
2405506c:	60da      	str	r2, [r3, #12]
2405506e:	f894 2038 	ldrb.w	r2, [r4, #56]	; 0x38
24055072:	2a01      	cmp	r2, #1
24055074:	d144      	bne.n	24055100 <HAL_ADC_Init+0x188>
24055076:	6be2      	ldr	r2, [r4, #60]	; 0x3c
24055078:	6918      	ldr	r0, [r3, #16]
2405507a:	1e51      	subs	r1, r2, #1
2405507c:	e9d4 2610 	ldrd	r2, r6, [r4, #64]	; 0x40
24055080:	4332      	orrs	r2, r6
24055082:	ea42 4201 	orr.w	r2, r2, r1, lsl #16
24055086:	6ca1      	ldr	r1, [r4, #72]	; 0x48
24055088:	430a      	orrs	r2, r1
2405508a:	4928      	ldr	r1, [pc, #160]	; (2405512c <HAL_ADC_Init+0x1b4>)
2405508c:	4001      	ands	r1, r0
2405508e:	430a      	orrs	r2, r1
24055090:	f042 0201 	orr.w	r2, r2, #1
24055094:	611a      	str	r2, [r3, #16]
24055096:	4620      	mov	r0, r4
24055098:	691a      	ldr	r2, [r3, #16]
2405509a:	6b61      	ldr	r1, [r4, #52]	; 0x34
2405509c:	f022 4270 	bic.w	r2, r2, #4026531840	; 0xf0000000
240550a0:	430a      	orrs	r2, r1
240550a2:	611a      	str	r2, [r3, #16]
240550a4:	f7ff fef2 	bl	24054e8c <ADC_ConfigureBoostMode>
240550a8:	68e3      	ldr	r3, [r4, #12]
240550aa:	6822      	ldr	r2, [r4, #0]
240550ac:	2b01      	cmp	r3, #1
240550ae:	d12b      	bne.n	24055108 <HAL_ADC_Init+0x190>
240550b0:	6b11      	ldr	r1, [r2, #48]	; 0x30
240550b2:	69a3      	ldr	r3, [r4, #24]
240550b4:	f021 010f 	bic.w	r1, r1, #15
240550b8:	3b01      	subs	r3, #1
240550ba:	430b      	orrs	r3, r1
240550bc:	6313      	str	r3, [r2, #48]	; 0x30
240550be:	6d63      	ldr	r3, [r4, #84]	; 0x54
240550c0:	f023 0303 	bic.w	r3, r3, #3
240550c4:	f043 0301 	orr.w	r3, r3, #1
240550c8:	6563      	str	r3, [r4, #84]	; 0x54
240550ca:	4628      	mov	r0, r5
240550cc:	b002      	add	sp, #8
240550ce:	bd70      	pop	{r4, r5, r6, pc}
240550d0:	689a      	ldr	r2, [r3, #8]
240550d2:	4917      	ldr	r1, [pc, #92]	; (24055130 <HAL_ADC_Init+0x1b8>)
240550d4:	f022 4210 	bic.w	r2, r2, #2415919104	; 0x90000000
240550d8:	f022 023f 	bic.w	r2, r2, #63	; 0x3f
240550dc:	f042 5280 	orr.w	r2, r2, #268435456	; 0x10000000
240550e0:	609a      	str	r2, [r3, #8]
240550e2:	4a14      	ldr	r2, [pc, #80]	; (24055134 <HAL_ADC_Init+0x1bc>)
240550e4:	6812      	ldr	r2, [r2, #0]
240550e6:	fbb2 f2f1 	udiv	r2, r2, r1
240550ea:	3201      	adds	r2, #1
240550ec:	9201      	str	r2, [sp, #4]
240550ee:	9a01      	ldr	r2, [sp, #4]
240550f0:	2a00      	cmp	r2, #0
240550f2:	f43f af5d 	beq.w	24054fb0 <HAL_ADC_Init+0x38>
240550f6:	9a01      	ldr	r2, [sp, #4]
240550f8:	3a01      	subs	r2, #1
240550fa:	e7f7      	b.n	240550ec <HAL_ADC_Init+0x174>
240550fc:	2500      	movs	r5, #0
240550fe:	e764      	b.n	24054fca <HAL_ADC_Init+0x52>
24055100:	691a      	ldr	r2, [r3, #16]
24055102:	f022 0201 	bic.w	r2, r2, #1
24055106:	e7c5      	b.n	24055094 <HAL_ADC_Init+0x11c>
24055108:	6b13      	ldr	r3, [r2, #48]	; 0x30
2405510a:	f023 030f 	bic.w	r3, r3, #15
2405510e:	e7d5      	b.n	240550bc <HAL_ADC_Init+0x144>
24055110:	6d63      	ldr	r3, [r4, #84]	; 0x54
24055112:	f043 0310 	orr.w	r3, r3, #16
24055116:	6563      	str	r3, [r4, #84]	; 0x54
24055118:	2501      	movs	r5, #1
2405511a:	e7d6      	b.n	240550ca <HAL_ADC_Init+0x152>
2405511c:	40022000 	.word	0x40022000
24055120:	40022100 	.word	0x40022100
24055124:	40022300 	.word	0x40022300
24055128:	fff0c003 	.word	0xfff0c003
2405512c:	fc00f81e 	.word	0xfc00f81e
24055130:	00030d40 	.word	0x00030d40
24055134:	200000ac 	.word	0x200000ac

24055138 <LL_ADC_IsEnabled>:
24055138:	6880      	ldr	r0, [r0, #8]
2405513a:	f000 0001 	and.w	r0, r0, #1
2405513e:	4770      	bx	lr

24055140 <LL_ADC_REG_IsConversionOngoing>:
24055140:	6880      	ldr	r0, [r0, #8]
24055142:	f3c0 0080 	ubfx	r0, r0, #2, #1
24055146:	4770      	bx	lr

24055148 <HAL_ADCEx_InjectedConvCpltCallback>:
24055148:	4770      	bx	lr

2405514a <HAL_ADCEx_InjectedQueueOverflowCallback>:
2405514a:	4770      	bx	lr

2405514c <HAL_ADCEx_LevelOutOfWindow2Callback>:
2405514c:	4770      	bx	lr

2405514e <HAL_ADCEx_LevelOutOfWindow3Callback>:
2405514e:	4770      	bx	lr

24055150 <HAL_ADCEx_EndOfSamplingCallback>:
24055150:	4770      	bx	lr
	...

24055154 <HAL_ADCEx_MultiModeConfigChannel>:
24055154:	b570      	push	{r4, r5, r6, lr}
24055156:	f890 3050 	ldrb.w	r3, [r0, #80]	; 0x50
2405515a:	b09a      	sub	sp, #104	; 0x68
2405515c:	4602      	mov	r2, r0
2405515e:	680d      	ldr	r5, [r1, #0]
24055160:	2b01      	cmp	r3, #1
24055162:	d052      	beq.n	2405520a <HAL_ADCEx_MultiModeConfigChannel+0xb6>
24055164:	2301      	movs	r3, #1
24055166:	4c2a      	ldr	r4, [pc, #168]	; (24055210 <HAL_ADCEx_MultiModeConfigChannel+0xbc>)
24055168:	f880 3050 	strb.w	r3, [r0, #80]	; 0x50
2405516c:	2000      	movs	r0, #0
2405516e:	6816      	ldr	r6, [r2, #0]
24055170:	9016      	str	r0, [sp, #88]	; 0x58
24055172:	42a6      	cmp	r6, r4
24055174:	9017      	str	r0, [sp, #92]	; 0x5c
24055176:	d10d      	bne.n	24055194 <HAL_ADCEx_MultiModeConfigChannel+0x40>
24055178:	4826      	ldr	r0, [pc, #152]	; (24055214 <HAL_ADCEx_MultiModeConfigChannel+0xc0>)
2405517a:	f7ff ffe1 	bl	24055140 <LL_ADC_REG_IsConversionOngoing>
2405517e:	4604      	mov	r4, r0
24055180:	4630      	mov	r0, r6
24055182:	f7ff ffdd 	bl	24055140 <LL_ADC_REG_IsConversionOngoing>
24055186:	4320      	orrs	r0, r4
24055188:	d00d      	beq.n	240551a6 <HAL_ADCEx_MultiModeConfigChannel+0x52>
2405518a:	6d51      	ldr	r1, [r2, #84]	; 0x54
2405518c:	f041 0120 	orr.w	r1, r1, #32
24055190:	6551      	str	r1, [r2, #84]	; 0x54
24055192:	e027      	b.n	240551e4 <HAL_ADCEx_MultiModeConfigChannel+0x90>
24055194:	6d51      	ldr	r1, [r2, #84]	; 0x54
24055196:	f882 0050 	strb.w	r0, [r2, #80]	; 0x50
2405519a:	4618      	mov	r0, r3
2405519c:	f041 0120 	orr.w	r1, r1, #32
240551a0:	6551      	str	r1, [r2, #84]	; 0x54
240551a2:	b01a      	add	sp, #104	; 0x68
240551a4:	bd70      	pop	{r4, r5, r6, pc}
240551a6:	4c1c      	ldr	r4, [pc, #112]	; (24055218 <HAL_ADCEx_MultiModeConfigChannel+0xc4>)
240551a8:	68a3      	ldr	r3, [r4, #8]
240551aa:	f423 4340 	bic.w	r3, r3, #49152	; 0xc000
240551ae:	b1dd      	cbz	r5, 240551e8 <HAL_ADCEx_MultiModeConfigChannel+0x94>
240551b0:	6848      	ldr	r0, [r1, #4]
240551b2:	4303      	orrs	r3, r0
240551b4:	4630      	mov	r0, r6
240551b6:	60a3      	str	r3, [r4, #8]
240551b8:	f7ff ffbe 	bl	24055138 <LL_ADC_IsEnabled>
240551bc:	4603      	mov	r3, r0
240551be:	4815      	ldr	r0, [pc, #84]	; (24055214 <HAL_ADCEx_MultiModeConfigChannel+0xc0>)
240551c0:	f7ff ffba 	bl	24055138 <LL_ADC_IsEnabled>
240551c4:	4303      	orrs	r3, r0
240551c6:	d004      	beq.n	240551d2 <HAL_ADCEx_MultiModeConfigChannel+0x7e>
240551c8:	2000      	movs	r0, #0
240551ca:	2300      	movs	r3, #0
240551cc:	f882 3050 	strb.w	r3, [r2, #80]	; 0x50
240551d0:	e7e7      	b.n	240551a2 <HAL_ADCEx_MultiModeConfigChannel+0x4e>
240551d2:	6889      	ldr	r1, [r1, #8]
240551d4:	68a0      	ldr	r0, [r4, #8]
240551d6:	430d      	orrs	r5, r1
240551d8:	f420 6171 	bic.w	r1, r0, #3856	; 0xf10
240551dc:	f021 010f 	bic.w	r1, r1, #15
240551e0:	430d      	orrs	r5, r1
240551e2:	60a5      	str	r5, [r4, #8]
240551e4:	4618      	mov	r0, r3
240551e6:	e7f0      	b.n	240551ca <HAL_ADCEx_MultiModeConfigChannel+0x76>
240551e8:	60a3      	str	r3, [r4, #8]
240551ea:	4630      	mov	r0, r6
240551ec:	f7ff ffa4 	bl	24055138 <LL_ADC_IsEnabled>
240551f0:	4603      	mov	r3, r0
240551f2:	4808      	ldr	r0, [pc, #32]	; (24055214 <HAL_ADCEx_MultiModeConfigChannel+0xc0>)
240551f4:	f7ff ffa0 	bl	24055138 <LL_ADC_IsEnabled>
240551f8:	4303      	orrs	r3, r0
240551fa:	d1e5      	bne.n	240551c8 <HAL_ADCEx_MultiModeConfigChannel+0x74>
240551fc:	68a1      	ldr	r1, [r4, #8]
240551fe:	f421 6171 	bic.w	r1, r1, #3856	; 0xf10
24055202:	f021 010f 	bic.w	r1, r1, #15
24055206:	60a1      	str	r1, [r4, #8]
24055208:	e7ec      	b.n	240551e4 <HAL_ADCEx_MultiModeConfigChannel+0x90>
2405520a:	2002      	movs	r0, #2
2405520c:	e7c9      	b.n	240551a2 <HAL_ADCEx_MultiModeConfigChannel+0x4e>
2405520e:	bf00      	nop
24055210:	40022000 	.word	0x40022000
24055214:	40022100 	.word	0x40022100
24055218:	40022300 	.word	0x40022300

2405521c <HAL_NVIC_SetPriorityGrouping>:
2405521c:	4907      	ldr	r1, [pc, #28]	; (2405523c <HAL_NVIC_SetPriorityGrouping+0x20>)
2405521e:	0203      	lsls	r3, r0, #8
24055220:	68ca      	ldr	r2, [r1, #12]
24055222:	f403 63e0 	and.w	r3, r3, #1792	; 0x700
24055226:	f422 62e0 	bic.w	r2, r2, #1792	; 0x700
2405522a:	0412      	lsls	r2, r2, #16
2405522c:	0c12      	lsrs	r2, r2, #16
2405522e:	4313      	orrs	r3, r2
24055230:	f043 63bf 	orr.w	r3, r3, #100139008	; 0x5f80000
24055234:	f443 3300 	orr.w	r3, r3, #131072	; 0x20000
24055238:	60cb      	str	r3, [r1, #12]
2405523a:	4770      	bx	lr
2405523c:	e000ed00 	.word	0xe000ed00

24055240 <HAL_NVIC_SetPriority>:
24055240:	4b16      	ldr	r3, [pc, #88]	; (2405529c <HAL_NVIC_SetPriority+0x5c>)
24055242:	b530      	push	{r4, r5, lr}
24055244:	68dc      	ldr	r4, [r3, #12]
24055246:	f3c4 2402 	ubfx	r4, r4, #8, #3
2405524a:	f1c4 0307 	rsb	r3, r4, #7
2405524e:	1d25      	adds	r5, r4, #4
24055250:	2b04      	cmp	r3, #4
24055252:	bf28      	it	cs
24055254:	2304      	movcs	r3, #4
24055256:	2d06      	cmp	r5, #6
24055258:	f04f 35ff 	mov.w	r5, #4294967295
2405525c:	bf8c      	ite	hi
2405525e:	3c03      	subhi	r4, #3
24055260:	2400      	movls	r4, #0
24055262:	fa05 f303 	lsl.w	r3, r5, r3
24055266:	2800      	cmp	r0, #0
24055268:	fa05 f504 	lsl.w	r5, r5, r4
2405526c:	ea21 0303 	bic.w	r3, r1, r3
24055270:	ea22 0205 	bic.w	r2, r2, r5
24055274:	fa03 f304 	lsl.w	r3, r3, r4
24055278:	ea43 0302 	orr.w	r3, r3, r2
2405527c:	ea4f 1303 	mov.w	r3, r3, lsl #4
24055280:	b2db      	uxtb	r3, r3
24055282:	db06      	blt.n	24055292 <HAL_NVIC_SetPriority+0x52>
24055284:	f100 4060 	add.w	r0, r0, #3758096384	; 0xe0000000
24055288:	f500 4061 	add.w	r0, r0, #57600	; 0xe100
2405528c:	f880 3300 	strb.w	r3, [r0, #768]	; 0x300
24055290:	bd30      	pop	{r4, r5, pc}
24055292:	f000 000f 	and.w	r0, r0, #15
24055296:	4a02      	ldr	r2, [pc, #8]	; (240552a0 <HAL_NVIC_SetPriority+0x60>)
24055298:	5413      	strb	r3, [r2, r0]
2405529a:	e7f9      	b.n	24055290 <HAL_NVIC_SetPriority+0x50>
2405529c:	e000ed00 	.word	0xe000ed00
240552a0:	e000ed14 	.word	0xe000ed14

240552a4 <HAL_NVIC_EnableIRQ>:
240552a4:	2800      	cmp	r0, #0
240552a6:	db07      	blt.n	240552b8 <HAL_NVIC_EnableIRQ+0x14>
240552a8:	2301      	movs	r3, #1
240552aa:	0941      	lsrs	r1, r0, #5
240552ac:	f000 001f 	and.w	r0, r0, #31
240552b0:	4a02      	ldr	r2, [pc, #8]	; (240552bc <HAL_NVIC_EnableIRQ+0x18>)
240552b2:	4083      	lsls	r3, r0
240552b4:	f842 3021 	str.w	r3, [r2, r1, lsl #2]
240552b8:	4770      	bx	lr
240552ba:	bf00      	nop
240552bc:	e000e100 	.word	0xe000e100

240552c0 <HAL_NVIC_SystemReset>:
240552c0:	f3bf 8f4f 	dsb	sy
240552c4:	4905      	ldr	r1, [pc, #20]	; (240552dc <HAL_NVIC_SystemReset+0x1c>)
240552c6:	4b06      	ldr	r3, [pc, #24]	; (240552e0 <HAL_NVIC_SystemReset+0x20>)
240552c8:	68ca      	ldr	r2, [r1, #12]
240552ca:	f402 62e0 	and.w	r2, r2, #1792	; 0x700
240552ce:	4313      	orrs	r3, r2
240552d0:	60cb      	str	r3, [r1, #12]
240552d2:	f3bf 8f4f 	dsb	sy
240552d6:	bf00      	nop
240552d8:	e7fd      	b.n	240552d6 <HAL_NVIC_SystemReset+0x16>
240552da:	bf00      	nop
240552dc:	e000ed00 	.word	0xe000ed00
240552e0:	05fa0004 	.word	0x05fa0004

240552e4 <HAL_SYSTICK_Config>:
240552e4:	3801      	subs	r0, #1
240552e6:	f1b0 7f80 	cmp.w	r0, #16777216	; 0x1000000
240552ea:	d20b      	bcs.n	24055304 <HAL_SYSTICK_Config+0x20>
240552ec:	f04f 23e0 	mov.w	r3, #3758153728	; 0xe000e000
240552f0:	4a05      	ldr	r2, [pc, #20]	; (24055308 <HAL_SYSTICK_Config+0x24>)
240552f2:	21f0      	movs	r1, #240	; 0xf0
240552f4:	6158      	str	r0, [r3, #20]
240552f6:	2000      	movs	r0, #0
240552f8:	f882 1023 	strb.w	r1, [r2, #35]	; 0x23
240552fc:	2207      	movs	r2, #7
240552fe:	6198      	str	r0, [r3, #24]
24055300:	611a      	str	r2, [r3, #16]
24055302:	4770      	bx	lr
24055304:	2001      	movs	r0, #1
24055306:	4770      	bx	lr
24055308:	e000ed00 	.word	0xe000ed00

2405530c <HAL_DAC_Init>:
2405530c:	b510      	push	{r4, lr}
2405530e:	4604      	mov	r4, r0
24055310:	b168      	cbz	r0, 2405532e <HAL_DAC_Init+0x22>
24055312:	7903      	ldrb	r3, [r0, #4]
24055314:	f003 02ff 	and.w	r2, r3, #255	; 0xff
24055318:	b913      	cbnz	r3, 24055320 <HAL_DAC_Init+0x14>
2405531a:	7142      	strb	r2, [r0, #5]
2405531c:	f7fe fb68 	bl	240539f0 <HAL_DAC_MspInit>
24055320:	2302      	movs	r3, #2
24055322:	2000      	movs	r0, #0
24055324:	7123      	strb	r3, [r4, #4]
24055326:	2301      	movs	r3, #1
24055328:	6120      	str	r0, [r4, #16]
2405532a:	7123      	strb	r3, [r4, #4]
2405532c:	bd10      	pop	{r4, pc}
2405532e:	2001      	movs	r0, #1
24055330:	e7fc      	b.n	2405532c <HAL_DAC_Init+0x20>

24055332 <HAL_DAC_Start>:
24055332:	b570      	push	{r4, r5, r6, lr}
24055334:	7943      	ldrb	r3, [r0, #5]
24055336:	2b01      	cmp	r3, #1
24055338:	f04f 0302 	mov.w	r3, #2
2405533c:	d016      	beq.n	2405536c <HAL_DAC_Start+0x3a>
2405533e:	6802      	ldr	r2, [r0, #0]
24055340:	f001 0510 	and.w	r5, r1, #16
24055344:	2401      	movs	r4, #1
24055346:	7103      	strb	r3, [r0, #4]
24055348:	6816      	ldr	r6, [r2, #0]
2405534a:	40ac      	lsls	r4, r5
2405534c:	4334      	orrs	r4, r6
2405534e:	6014      	str	r4, [r2, #0]
24055350:	b971      	cbnz	r1, 24055370 <HAL_DAC_Start+0x3e>
24055352:	6813      	ldr	r3, [r2, #0]
24055354:	f003 033e 	and.w	r3, r3, #62	; 0x3e
24055358:	2b02      	cmp	r3, #2
2405535a:	d103      	bne.n	24055364 <HAL_DAC_Start+0x32>
2405535c:	6853      	ldr	r3, [r2, #4]
2405535e:	f043 0301 	orr.w	r3, r3, #1
24055362:	6053      	str	r3, [r2, #4]
24055364:	2301      	movs	r3, #1
24055366:	7103      	strb	r3, [r0, #4]
24055368:	2300      	movs	r3, #0
2405536a:	7143      	strb	r3, [r0, #5]
2405536c:	4618      	mov	r0, r3
2405536e:	bd70      	pop	{r4, r5, r6, pc}
24055370:	6811      	ldr	r1, [r2, #0]
24055372:	40ab      	lsls	r3, r5
24055374:	f401 1178 	and.w	r1, r1, #4063232	; 0x3e0000
24055378:	4299      	cmp	r1, r3
2405537a:	d1f3      	bne.n	24055364 <HAL_DAC_Start+0x32>
2405537c:	6853      	ldr	r3, [r2, #4]
2405537e:	f043 0302 	orr.w	r3, r3, #2
24055382:	e7ee      	b.n	24055362 <HAL_DAC_Start+0x30>

24055384 <HAL_DAC_SetValue>:
24055384:	b513      	push	{r0, r1, r4, lr}
24055386:	2400      	movs	r4, #0
24055388:	6800      	ldr	r0, [r0, #0]
2405538a:	9401      	str	r4, [sp, #4]
2405538c:	9001      	str	r0, [sp, #4]
2405538e:	b941      	cbnz	r1, 240553a2 <HAL_DAC_SetValue+0x1e>
24055390:	9901      	ldr	r1, [sp, #4]
24055392:	3108      	adds	r1, #8
24055394:	440a      	add	r2, r1
24055396:	2000      	movs	r0, #0
24055398:	9201      	str	r2, [sp, #4]
2405539a:	9a01      	ldr	r2, [sp, #4]
2405539c:	6013      	str	r3, [r2, #0]
2405539e:	b002      	add	sp, #8
240553a0:	bd10      	pop	{r4, pc}
240553a2:	9901      	ldr	r1, [sp, #4]
240553a4:	3114      	adds	r1, #20
240553a6:	e7f5      	b.n	24055394 <HAL_DAC_SetValue+0x10>

240553a8 <HAL_DAC_ConfigChannel>:
240553a8:	e92d 41f0 	stmdb	sp!, {r4, r5, r6, r7, r8, lr}
240553ac:	4616      	mov	r6, r2
240553ae:	7942      	ldrb	r2, [r0, #5]
240553b0:	4604      	mov	r4, r0
240553b2:	460d      	mov	r5, r1
240553b4:	2a01      	cmp	r2, #1
240553b6:	680b      	ldr	r3, [r1, #0]
240553b8:	f04f 0002 	mov.w	r0, #2
240553bc:	d07c      	beq.n	240554b8 <HAL_DAC_ConfigChannel+0x110>
240553be:	2201      	movs	r2, #1
240553c0:	2b04      	cmp	r3, #4
240553c2:	7120      	strb	r0, [r4, #4]
240553c4:	7162      	strb	r2, [r4, #5]
240553c6:	d127      	bne.n	24055418 <HAL_DAC_ConfigChannel+0x70>
240553c8:	f7fe ffcc 	bl	24054364 <HAL_GetTick>
240553cc:	4607      	mov	r7, r0
240553ce:	2e00      	cmp	r6, #0
240553d0:	d17d      	bne.n	240554ce <HAL_DAC_ConfigChannel+0x126>
240553d2:	f8df 8118 	ldr.w	r8, [pc, #280]	; 240554ec <HAL_DAC_ConfigChannel+0x144>
240553d6:	6823      	ldr	r3, [r4, #0]
240553d8:	6b5b      	ldr	r3, [r3, #52]	; 0x34
240553da:	ea13 0f08 	tst.w	r3, r8
240553de:	d15b      	bne.n	24055498 <HAL_DAC_ConfigChannel+0xf0>
240553e0:	2001      	movs	r0, #1
240553e2:	f7fe ffc5 	bl	24054370 <HAL_Delay>
240553e6:	6823      	ldr	r3, [r4, #0]
240553e8:	69aa      	ldr	r2, [r5, #24]
240553ea:	641a      	str	r2, [r3, #64]	; 0x40
240553ec:	6822      	ldr	r2, [r4, #0]
240553ee:	f006 0110 	and.w	r1, r6, #16
240553f2:	f240 30ff 	movw	r0, #1023	; 0x3ff
240553f6:	6c93      	ldr	r3, [r2, #72]	; 0x48
240553f8:	4088      	lsls	r0, r1
240553fa:	ea23 0300 	bic.w	r3, r3, r0
240553fe:	69e8      	ldr	r0, [r5, #28]
24055400:	4088      	lsls	r0, r1
24055402:	4303      	orrs	r3, r0
24055404:	20ff      	movs	r0, #255	; 0xff
24055406:	6493      	str	r3, [r2, #72]	; 0x48
24055408:	4088      	lsls	r0, r1
2405540a:	6cd3      	ldr	r3, [r2, #76]	; 0x4c
2405540c:	ea23 0300 	bic.w	r3, r3, r0
24055410:	6a28      	ldr	r0, [r5, #32]
24055412:	4088      	lsls	r0, r1
24055414:	4303      	orrs	r3, r0
24055416:	64d3      	str	r3, [r2, #76]	; 0x4c
24055418:	6929      	ldr	r1, [r5, #16]
2405541a:	f006 0210 	and.w	r2, r6, #16
2405541e:	6823      	ldr	r3, [r4, #0]
24055420:	2901      	cmp	r1, #1
24055422:	d108      	bne.n	24055436 <HAL_DAC_ConfigChannel+0x8e>
24055424:	211f      	movs	r1, #31
24055426:	6b98      	ldr	r0, [r3, #56]	; 0x38
24055428:	4091      	lsls	r1, r2
2405542a:	ea20 0001 	bic.w	r0, r0, r1
2405542e:	6969      	ldr	r1, [r5, #20]
24055430:	4091      	lsls	r1, r2
24055432:	4301      	orrs	r1, r0
24055434:	6399      	str	r1, [r3, #56]	; 0x38
24055436:	2107      	movs	r1, #7
24055438:	6bde      	ldr	r6, [r3, #60]	; 0x3c
2405543a:	4091      	lsls	r1, r2
2405543c:	ea26 0601 	bic.w	r6, r6, r1
24055440:	e9d5 1002 	ldrd	r1, r0, [r5, #8]
24055444:	2801      	cmp	r0, #1
24055446:	d04d      	beq.n	240554e4 <HAL_DAC_ConfigChannel+0x13c>
24055448:	2802      	cmp	r0, #2
2405544a:	d04d      	beq.n	240554e8 <HAL_DAC_ConfigChannel+0x140>
2405544c:	fab1 f081 	clz	r0, r1
24055450:	0940      	lsrs	r0, r0, #5
24055452:	682f      	ldr	r7, [r5, #0]
24055454:	4339      	orrs	r1, r7
24055456:	4301      	orrs	r1, r0
24055458:	f44f 4080 	mov.w	r0, #16384	; 0x4000
2405545c:	4091      	lsls	r1, r2
2405545e:	4090      	lsls	r0, r2
24055460:	4331      	orrs	r1, r6
24055462:	63d9      	str	r1, [r3, #60]	; 0x3c
24055464:	6819      	ldr	r1, [r3, #0]
24055466:	ea21 0100 	bic.w	r1, r1, r0
2405546a:	6019      	str	r1, [r3, #0]
2405546c:	f640 71fe 	movw	r1, #4094	; 0xffe
24055470:	6818      	ldr	r0, [r3, #0]
24055472:	4091      	lsls	r1, r2
24055474:	ea20 0001 	bic.w	r0, r0, r1
24055478:	6869      	ldr	r1, [r5, #4]
2405547a:	4091      	lsls	r1, r2
2405547c:	4301      	orrs	r1, r0
2405547e:	20c0      	movs	r0, #192	; 0xc0
24055480:	6019      	str	r1, [r3, #0]
24055482:	fa00 f202 	lsl.w	r2, r0, r2
24055486:	6819      	ldr	r1, [r3, #0]
24055488:	2000      	movs	r0, #0
2405548a:	ea21 0202 	bic.w	r2, r1, r2
2405548e:	601a      	str	r2, [r3, #0]
24055490:	2301      	movs	r3, #1
24055492:	7160      	strb	r0, [r4, #5]
24055494:	7123      	strb	r3, [r4, #4]
24055496:	e00f      	b.n	240554b8 <HAL_DAC_ConfigChannel+0x110>
24055498:	f7fe ff64 	bl	24054364 <HAL_GetTick>
2405549c:	1bc0      	subs	r0, r0, r7
2405549e:	2801      	cmp	r0, #1
240554a0:	d999      	bls.n	240553d6 <HAL_DAC_ConfigChannel+0x2e>
240554a2:	6823      	ldr	r3, [r4, #0]
240554a4:	6b5b      	ldr	r3, [r3, #52]	; 0x34
240554a6:	ea13 0f08 	tst.w	r3, r8
240554aa:	d094      	beq.n	240553d6 <HAL_DAC_ConfigChannel+0x2e>
240554ac:	6923      	ldr	r3, [r4, #16]
240554ae:	2003      	movs	r0, #3
240554b0:	f043 0308 	orr.w	r3, r3, #8
240554b4:	6123      	str	r3, [r4, #16]
240554b6:	7120      	strb	r0, [r4, #4]
240554b8:	e8bd 81f0 	ldmia.w	sp!, {r4, r5, r6, r7, r8, pc}
240554bc:	f7fe ff52 	bl	24054364 <HAL_GetTick>
240554c0:	1bc0      	subs	r0, r0, r7
240554c2:	2801      	cmp	r0, #1
240554c4:	d903      	bls.n	240554ce <HAL_DAC_ConfigChannel+0x126>
240554c6:	6823      	ldr	r3, [r4, #0]
240554c8:	6b5b      	ldr	r3, [r3, #52]	; 0x34
240554ca:	2b00      	cmp	r3, #0
240554cc:	dbee      	blt.n	240554ac <HAL_DAC_ConfigChannel+0x104>
240554ce:	6823      	ldr	r3, [r4, #0]
240554d0:	6b5b      	ldr	r3, [r3, #52]	; 0x34
240554d2:	2b00      	cmp	r3, #0
240554d4:	dbf2      	blt.n	240554bc <HAL_DAC_ConfigChannel+0x114>
240554d6:	2001      	movs	r0, #1
240554d8:	f7fe ff4a 	bl	24054370 <HAL_Delay>
240554dc:	6823      	ldr	r3, [r4, #0]
240554de:	69aa      	ldr	r2, [r5, #24]
240554e0:	645a      	str	r2, [r3, #68]	; 0x44
240554e2:	e783      	b.n	240553ec <HAL_DAC_ConfigChannel+0x44>
240554e4:	2000      	movs	r0, #0
240554e6:	e7b4      	b.n	24055452 <HAL_DAC_ConfigChannel+0xaa>
240554e8:	2001      	movs	r0, #1
240554ea:	e7b2      	b.n	24055452 <HAL_DAC_ConfigChannel+0xaa>
240554ec:	20008000 	.word	0x20008000

240554f0 <DMA_SetConfig>:
240554f0:	b5f0      	push	{r4, r5, r6, r7, lr}
240554f2:	f8df c1b0 	ldr.w	ip, [pc, #432]	; 240556a4 <DMA_SetConfig+0x1b4>
240554f6:	6804      	ldr	r4, [r0, #0]
240554f8:	6d87      	ldr	r7, [r0, #88]	; 0x58
240554fa:	4564      	cmp	r4, ip
240554fc:	d04f      	beq.n	2405559e <DMA_SetConfig+0xae>
240554fe:	4d65      	ldr	r5, [pc, #404]	; (24055694 <DMA_SetConfig+0x1a4>)
24055500:	42ac      	cmp	r4, r5
24055502:	d04c      	beq.n	2405559e <DMA_SetConfig+0xae>
24055504:	3518      	adds	r5, #24
24055506:	42ac      	cmp	r4, r5
24055508:	d049      	beq.n	2405559e <DMA_SetConfig+0xae>
2405550a:	3518      	adds	r5, #24
2405550c:	42ac      	cmp	r4, r5
2405550e:	d046      	beq.n	2405559e <DMA_SetConfig+0xae>
24055510:	3518      	adds	r5, #24
24055512:	42ac      	cmp	r4, r5
24055514:	d043      	beq.n	2405559e <DMA_SetConfig+0xae>
24055516:	3518      	adds	r5, #24
24055518:	42ac      	cmp	r4, r5
2405551a:	d040      	beq.n	2405559e <DMA_SetConfig+0xae>
2405551c:	3518      	adds	r5, #24
2405551e:	42ac      	cmp	r4, r5
24055520:	d03d      	beq.n	2405559e <DMA_SetConfig+0xae>
24055522:	3518      	adds	r5, #24
24055524:	42ac      	cmp	r4, r5
24055526:	d03a      	beq.n	2405559e <DMA_SetConfig+0xae>
24055528:	f505 7556 	add.w	r5, r5, #856	; 0x358
2405552c:	42ac      	cmp	r4, r5
2405552e:	d036      	beq.n	2405559e <DMA_SetConfig+0xae>
24055530:	3518      	adds	r5, #24
24055532:	42ac      	cmp	r4, r5
24055534:	d033      	beq.n	2405559e <DMA_SetConfig+0xae>
24055536:	3518      	adds	r5, #24
24055538:	42ac      	cmp	r4, r5
2405553a:	d030      	beq.n	2405559e <DMA_SetConfig+0xae>
2405553c:	3518      	adds	r5, #24
2405553e:	42ac      	cmp	r4, r5
24055540:	d02d      	beq.n	2405559e <DMA_SetConfig+0xae>
24055542:	3518      	adds	r5, #24
24055544:	42ac      	cmp	r4, r5
24055546:	d02a      	beq.n	2405559e <DMA_SetConfig+0xae>
24055548:	3518      	adds	r5, #24
2405554a:	42ac      	cmp	r4, r5
2405554c:	d027      	beq.n	2405559e <DMA_SetConfig+0xae>
2405554e:	3518      	adds	r5, #24
24055550:	42ac      	cmp	r4, r5
24055552:	d024      	beq.n	2405559e <DMA_SetConfig+0xae>
24055554:	3518      	adds	r5, #24
24055556:	42ac      	cmp	r4, r5
24055558:	d021      	beq.n	2405559e <DMA_SetConfig+0xae>
2405555a:	4d4f      	ldr	r5, [pc, #316]	; (24055698 <DMA_SetConfig+0x1a8>)
2405555c:	42ac      	cmp	r4, r5
2405555e:	d01e      	beq.n	2405559e <DMA_SetConfig+0xae>
24055560:	3514      	adds	r5, #20
24055562:	42ac      	cmp	r4, r5
24055564:	d01b      	beq.n	2405559e <DMA_SetConfig+0xae>
24055566:	3514      	adds	r5, #20
24055568:	42ac      	cmp	r4, r5
2405556a:	d018      	beq.n	2405559e <DMA_SetConfig+0xae>
2405556c:	3514      	adds	r5, #20
2405556e:	42ac      	cmp	r4, r5
24055570:	d015      	beq.n	2405559e <DMA_SetConfig+0xae>
24055572:	3514      	adds	r5, #20
24055574:	42ac      	cmp	r4, r5
24055576:	d012      	beq.n	2405559e <DMA_SetConfig+0xae>
24055578:	3514      	adds	r5, #20
2405557a:	42ac      	cmp	r4, r5
2405557c:	d00f      	beq.n	2405559e <DMA_SetConfig+0xae>
2405557e:	3514      	adds	r5, #20
24055580:	42ac      	cmp	r4, r5
24055582:	d00c      	beq.n	2405559e <DMA_SetConfig+0xae>
24055584:	3514      	adds	r5, #20
24055586:	42ac      	cmp	r4, r5
24055588:	d009      	beq.n	2405559e <DMA_SetConfig+0xae>
2405558a:	4d44      	ldr	r5, [pc, #272]	; (2405569c <DMA_SetConfig+0x1ac>)
2405558c:	42ac      	cmp	r4, r5
2405558e:	d14f      	bne.n	24055630 <DMA_SetConfig+0x140>
24055590:	6dc5      	ldr	r5, [r0, #92]	; 0x5c
24055592:	f005 061f 	and.w	r6, r5, #31
24055596:	2501      	movs	r5, #1
24055598:	40b5      	lsls	r5, r6
2405559a:	607d      	str	r5, [r7, #4]
2405559c:	e041      	b.n	24055622 <DMA_SetConfig+0x132>
2405559e:	e9d0 5619 	ldrd	r5, r6, [r0, #100]	; 0x64
240555a2:	606e      	str	r6, [r5, #4]
240555a4:	6ec5      	ldr	r5, [r0, #108]	; 0x6c
240555a6:	b115      	cbz	r5, 240555ae <DMA_SetConfig+0xbe>
240555a8:	e9d0 561c 	ldrd	r5, r6, [r0, #112]	; 0x70
240555ac:	606e      	str	r6, [r5, #4]
240555ae:	4564      	cmp	r4, ip
240555b0:	d02d      	beq.n	2405560e <DMA_SetConfig+0x11e>
240555b2:	4d38      	ldr	r5, [pc, #224]	; (24055694 <DMA_SetConfig+0x1a4>)
240555b4:	42ac      	cmp	r4, r5
240555b6:	d02a      	beq.n	2405560e <DMA_SetConfig+0x11e>
240555b8:	3518      	adds	r5, #24
240555ba:	42ac      	cmp	r4, r5
240555bc:	d027      	beq.n	2405560e <DMA_SetConfig+0x11e>
240555be:	3518      	adds	r5, #24
240555c0:	42ac      	cmp	r4, r5
240555c2:	d024      	beq.n	2405560e <DMA_SetConfig+0x11e>
240555c4:	3518      	adds	r5, #24
240555c6:	42ac      	cmp	r4, r5
240555c8:	d021      	beq.n	2405560e <DMA_SetConfig+0x11e>
240555ca:	3518      	adds	r5, #24
240555cc:	42ac      	cmp	r4, r5
240555ce:	d01e      	beq.n	2405560e <DMA_SetConfig+0x11e>
240555d0:	3518      	adds	r5, #24
240555d2:	42ac      	cmp	r4, r5
240555d4:	d01b      	beq.n	2405560e <DMA_SetConfig+0x11e>
240555d6:	3518      	adds	r5, #24
240555d8:	42ac      	cmp	r4, r5
240555da:	d018      	beq.n	2405560e <DMA_SetConfig+0x11e>
240555dc:	f505 7556 	add.w	r5, r5, #856	; 0x358
240555e0:	42ac      	cmp	r4, r5
240555e2:	d014      	beq.n	2405560e <DMA_SetConfig+0x11e>
240555e4:	3518      	adds	r5, #24
240555e6:	42ac      	cmp	r4, r5
240555e8:	d011      	beq.n	2405560e <DMA_SetConfig+0x11e>
240555ea:	3518      	adds	r5, #24
240555ec:	42ac      	cmp	r4, r5
240555ee:	d00e      	beq.n	2405560e <DMA_SetConfig+0x11e>
240555f0:	3518      	adds	r5, #24
240555f2:	42ac      	cmp	r4, r5
240555f4:	d00b      	beq.n	2405560e <DMA_SetConfig+0x11e>
240555f6:	3518      	adds	r5, #24
240555f8:	42ac      	cmp	r4, r5
240555fa:	d008      	beq.n	2405560e <DMA_SetConfig+0x11e>
240555fc:	3518      	adds	r5, #24
240555fe:	42ac      	cmp	r4, r5
24055600:	d005      	beq.n	2405560e <DMA_SetConfig+0x11e>
24055602:	3518      	adds	r5, #24
24055604:	42ac      	cmp	r4, r5
24055606:	d002      	beq.n	2405560e <DMA_SetConfig+0x11e>
24055608:	3518      	adds	r5, #24
2405560a:	42ac      	cmp	r4, r5
2405560c:	d1bd      	bne.n	2405558a <DMA_SetConfig+0x9a>
2405560e:	6dc5      	ldr	r5, [r0, #92]	; 0x5c
24055610:	f005 061f 	and.w	r6, r5, #31
24055614:	253f      	movs	r5, #63	; 0x3f
24055616:	40b5      	lsls	r5, r6
24055618:	60bd      	str	r5, [r7, #8]
2405561a:	6825      	ldr	r5, [r4, #0]
2405561c:	f425 2580 	bic.w	r5, r5, #262144	; 0x40000
24055620:	6025      	str	r5, [r4, #0]
24055622:	6063      	str	r3, [r4, #4]
24055624:	6883      	ldr	r3, [r0, #8]
24055626:	2b40      	cmp	r3, #64	; 0x40
24055628:	d130      	bne.n	2405568c <DMA_SetConfig+0x19c>
2405562a:	60a2      	str	r2, [r4, #8]
2405562c:	60e1      	str	r1, [r4, #12]
2405562e:	e02c      	b.n	2405568a <DMA_SetConfig+0x19a>
24055630:	4d1b      	ldr	r5, [pc, #108]	; (240556a0 <DMA_SetConfig+0x1b0>)
24055632:	42ac      	cmp	r4, r5
24055634:	d0ac      	beq.n	24055590 <DMA_SetConfig+0xa0>
24055636:	3514      	adds	r5, #20
24055638:	42ac      	cmp	r4, r5
2405563a:	d0a9      	beq.n	24055590 <DMA_SetConfig+0xa0>
2405563c:	3514      	adds	r5, #20
2405563e:	42ac      	cmp	r4, r5
24055640:	d0a6      	beq.n	24055590 <DMA_SetConfig+0xa0>
24055642:	3514      	adds	r5, #20
24055644:	42ac      	cmp	r4, r5
24055646:	d0a3      	beq.n	24055590 <DMA_SetConfig+0xa0>
24055648:	3514      	adds	r5, #20
2405564a:	42ac      	cmp	r4, r5
2405564c:	d0a0      	beq.n	24055590 <DMA_SetConfig+0xa0>
2405564e:	3514      	adds	r5, #20
24055650:	42ac      	cmp	r4, r5
24055652:	d09d      	beq.n	24055590 <DMA_SetConfig+0xa0>
24055654:	3514      	adds	r5, #20
24055656:	42ac      	cmp	r4, r5
24055658:	d09a      	beq.n	24055590 <DMA_SetConfig+0xa0>
2405565a:	4d0f      	ldr	r5, [pc, #60]	; (24055698 <DMA_SetConfig+0x1a8>)
2405565c:	42ac      	cmp	r4, r5
2405565e:	d097      	beq.n	24055590 <DMA_SetConfig+0xa0>
24055660:	3514      	adds	r5, #20
24055662:	42ac      	cmp	r4, r5
24055664:	d094      	beq.n	24055590 <DMA_SetConfig+0xa0>
24055666:	3514      	adds	r5, #20
24055668:	42ac      	cmp	r4, r5
2405566a:	d091      	beq.n	24055590 <DMA_SetConfig+0xa0>
2405566c:	3514      	adds	r5, #20
2405566e:	42ac      	cmp	r4, r5
24055670:	d08e      	beq.n	24055590 <DMA_SetConfig+0xa0>
24055672:	3514      	adds	r5, #20
24055674:	42ac      	cmp	r4, r5
24055676:	d08b      	beq.n	24055590 <DMA_SetConfig+0xa0>
24055678:	3514      	adds	r5, #20
2405567a:	42ac      	cmp	r4, r5
2405567c:	d088      	beq.n	24055590 <DMA_SetConfig+0xa0>
2405567e:	3514      	adds	r5, #20
24055680:	42ac      	cmp	r4, r5
24055682:	d085      	beq.n	24055590 <DMA_SetConfig+0xa0>
24055684:	3514      	adds	r5, #20
24055686:	42ac      	cmp	r4, r5
24055688:	d082      	beq.n	24055590 <DMA_SetConfig+0xa0>
2405568a:	bdf0      	pop	{r4, r5, r6, r7, pc}
2405568c:	60a1      	str	r1, [r4, #8]
2405568e:	60e2      	str	r2, [r4, #12]
24055690:	e7fb      	b.n	2405568a <DMA_SetConfig+0x19a>
24055692:	bf00      	nop
24055694:	40020028 	.word	0x40020028
24055698:	58025408 	.word	0x58025408
2405569c:	48022c08 	.word	0x48022c08
240556a0:	48022c1c 	.word	0x48022c1c
240556a4:	40020010 	.word	0x40020010

240556a8 <DMA_CalcBaseAndBitshift>:
240556a8:	6803      	ldr	r3, [r0, #0]
240556aa:	4a23      	ldr	r2, [pc, #140]	; (24055738 <DMA_CalcBaseAndBitshift+0x90>)
240556ac:	4293      	cmp	r3, r2
240556ae:	b510      	push	{r4, lr}
240556b0:	d032      	beq.n	24055718 <DMA_CalcBaseAndBitshift+0x70>
240556b2:	3218      	adds	r2, #24
240556b4:	4293      	cmp	r3, r2
240556b6:	d02f      	beq.n	24055718 <DMA_CalcBaseAndBitshift+0x70>
240556b8:	3218      	adds	r2, #24
240556ba:	4293      	cmp	r3, r2
240556bc:	d02c      	beq.n	24055718 <DMA_CalcBaseAndBitshift+0x70>
240556be:	3218      	adds	r2, #24
240556c0:	4293      	cmp	r3, r2
240556c2:	d029      	beq.n	24055718 <DMA_CalcBaseAndBitshift+0x70>
240556c4:	3218      	adds	r2, #24
240556c6:	4293      	cmp	r3, r2
240556c8:	d026      	beq.n	24055718 <DMA_CalcBaseAndBitshift+0x70>
240556ca:	3218      	adds	r2, #24
240556cc:	4293      	cmp	r3, r2
240556ce:	d023      	beq.n	24055718 <DMA_CalcBaseAndBitshift+0x70>
240556d0:	3218      	adds	r2, #24
240556d2:	4293      	cmp	r3, r2
240556d4:	d020      	beq.n	24055718 <DMA_CalcBaseAndBitshift+0x70>
240556d6:	3218      	adds	r2, #24
240556d8:	4293      	cmp	r3, r2
240556da:	d01d      	beq.n	24055718 <DMA_CalcBaseAndBitshift+0x70>
240556dc:	f502 7256 	add.w	r2, r2, #856	; 0x358
240556e0:	4293      	cmp	r3, r2
240556e2:	d019      	beq.n	24055718 <DMA_CalcBaseAndBitshift+0x70>
240556e4:	3218      	adds	r2, #24
240556e6:	4293      	cmp	r3, r2
240556e8:	d016      	beq.n	24055718 <DMA_CalcBaseAndBitshift+0x70>
240556ea:	3218      	adds	r2, #24
240556ec:	4293      	cmp	r3, r2
240556ee:	d013      	beq.n	24055718 <DMA_CalcBaseAndBitshift+0x70>
240556f0:	3218      	adds	r2, #24
240556f2:	4293      	cmp	r3, r2
240556f4:	d010      	beq.n	24055718 <DMA_CalcBaseAndBitshift+0x70>
240556f6:	3218      	adds	r2, #24
240556f8:	4293      	cmp	r3, r2
240556fa:	d00d      	beq.n	24055718 <DMA_CalcBaseAndBitshift+0x70>
240556fc:	3218      	adds	r2, #24
240556fe:	4293      	cmp	r3, r2
24055700:	d00a      	beq.n	24055718 <DMA_CalcBaseAndBitshift+0x70>
24055702:	3218      	adds	r2, #24
24055704:	4293      	cmp	r3, r2
24055706:	d007      	beq.n	24055718 <DMA_CalcBaseAndBitshift+0x70>
24055708:	3218      	adds	r2, #24
2405570a:	4293      	cmp	r3, r2
2405570c:	d004      	beq.n	24055718 <DMA_CalcBaseAndBitshift+0x70>
2405570e:	f023 03ff 	bic.w	r3, r3, #255	; 0xff
24055712:	6583      	str	r3, [r0, #88]	; 0x58
24055714:	4618      	mov	r0, r3
24055716:	bd10      	pop	{r4, pc}
24055718:	b2da      	uxtb	r2, r3
2405571a:	2118      	movs	r1, #24
2405571c:	4c07      	ldr	r4, [pc, #28]	; (2405573c <DMA_CalcBaseAndBitshift+0x94>)
2405571e:	f423 737f 	bic.w	r3, r3, #1020	; 0x3fc
24055722:	3a10      	subs	r2, #16
24055724:	f023 0303 	bic.w	r3, r3, #3
24055728:	2a5f      	cmp	r2, #95	; 0x5f
2405572a:	fbb2 f1f1 	udiv	r1, r2, r1
2405572e:	5c61      	ldrb	r1, [r4, r1]
24055730:	bf88      	it	hi
24055732:	3304      	addhi	r3, #4
24055734:	65c1      	str	r1, [r0, #92]	; 0x5c
24055736:	e7ec      	b.n	24055712 <DMA_CalcBaseAndBitshift+0x6a>
24055738:	40020010 	.word	0x40020010
2405573c:	24060132 	.word	0x24060132

24055740 <DMA_CalcDMAMUXChannelBaseAndMask>:
24055740:	6802      	ldr	r2, [r0, #0]
24055742:	4921      	ldr	r1, [pc, #132]	; (240557c8 <DMA_CalcDMAMUXChannelBaseAndMask+0x88>)
24055744:	b2d3      	uxtb	r3, r2
24055746:	428a      	cmp	r2, r1
24055748:	d028      	beq.n	2405579c <DMA_CalcDMAMUXChannelBaseAndMask+0x5c>
2405574a:	3114      	adds	r1, #20
2405574c:	428a      	cmp	r2, r1
2405574e:	d025      	beq.n	2405579c <DMA_CalcDMAMUXChannelBaseAndMask+0x5c>
24055750:	3114      	adds	r1, #20
24055752:	428a      	cmp	r2, r1
24055754:	d022      	beq.n	2405579c <DMA_CalcDMAMUXChannelBaseAndMask+0x5c>
24055756:	3114      	adds	r1, #20
24055758:	428a      	cmp	r2, r1
2405575a:	d01f      	beq.n	2405579c <DMA_CalcDMAMUXChannelBaseAndMask+0x5c>
2405575c:	3114      	adds	r1, #20
2405575e:	428a      	cmp	r2, r1
24055760:	d01c      	beq.n	2405579c <DMA_CalcDMAMUXChannelBaseAndMask+0x5c>
24055762:	3114      	adds	r1, #20
24055764:	428a      	cmp	r2, r1
24055766:	d019      	beq.n	2405579c <DMA_CalcDMAMUXChannelBaseAndMask+0x5c>
24055768:	3114      	adds	r1, #20
2405576a:	428a      	cmp	r2, r1
2405576c:	d016      	beq.n	2405579c <DMA_CalcDMAMUXChannelBaseAndMask+0x5c>
2405576e:	3114      	adds	r1, #20
24055770:	428a      	cmp	r2, r1
24055772:	d013      	beq.n	2405579c <DMA_CalcDMAMUXChannelBaseAndMask+0x5c>
24055774:	2118      	movs	r1, #24
24055776:	3b10      	subs	r3, #16
24055778:	fbb3 f3f1 	udiv	r3, r3, r1
2405577c:	4913      	ldr	r1, [pc, #76]	; (240557cc <DMA_CalcDMAMUXChannelBaseAndMask+0x8c>)
2405577e:	4411      	add	r1, r2
24055780:	29a8      	cmp	r1, #168	; 0xa8
24055782:	d91e      	bls.n	240557c2 <DMA_CalcDMAMUXChannelBaseAndMask+0x82>
24055784:	f103 5280 	add.w	r2, r3, #268435456	; 0x10000000
24055788:	2101      	movs	r1, #1
2405578a:	f003 031f 	and.w	r3, r3, #31
2405578e:	f502 4202 	add.w	r2, r2, #33280	; 0x8200
24055792:	fa01 f303 	lsl.w	r3, r1, r3
24055796:	490e      	ldr	r1, [pc, #56]	; (240557d0 <DMA_CalcDMAMUXChannelBaseAndMask+0x90>)
24055798:	0092      	lsls	r2, r2, #2
2405579a:	e00e      	b.n	240557ba <DMA_CalcDMAMUXChannelBaseAndMask+0x7a>
2405579c:	2214      	movs	r2, #20
2405579e:	3b08      	subs	r3, #8
240557a0:	2101      	movs	r1, #1
240557a2:	fbb3 f3f2 	udiv	r3, r3, r2
240557a6:	f103 52b0 	add.w	r2, r3, #369098752	; 0x16000000
240557aa:	f003 031f 	and.w	r3, r3, #31
240557ae:	f502 4216 	add.w	r2, r2, #38400	; 0x9600
240557b2:	fa01 f303 	lsl.w	r3, r1, r3
240557b6:	4907      	ldr	r1, [pc, #28]	; (240557d4 <DMA_CalcDMAMUXChannelBaseAndMask+0x94>)
240557b8:	0092      	lsls	r2, r2, #2
240557ba:	6683      	str	r3, [r0, #104]	; 0x68
240557bc:	e9c0 2118 	strd	r2, r1, [r0, #96]	; 0x60
240557c0:	4770      	bx	lr
240557c2:	3308      	adds	r3, #8
240557c4:	e7de      	b.n	24055784 <DMA_CalcDMAMUXChannelBaseAndMask+0x44>
240557c6:	bf00      	nop
240557c8:	58025408 	.word	0x58025408
240557cc:	bffdfbf0 	.word	0xbffdfbf0
240557d0:	40020880 	.word	0x40020880
240557d4:	58025880 	.word	0x58025880

240557d8 <DMA_CalcDMAMUXRequestGenBaseAndMask>:
240557d8:	7902      	ldrb	r2, [r0, #4]
240557da:	1e51      	subs	r1, r2, #1
240557dc:	2907      	cmp	r1, #7
240557de:	b510      	push	{r4, lr}
240557e0:	d821      	bhi.n	24055826 <DMA_CalcDMAMUXRequestGenBaseAndMask+0x4e>
240557e2:	6803      	ldr	r3, [r0, #0]
240557e4:	4c13      	ldr	r4, [pc, #76]	; (24055834 <DMA_CalcDMAMUXRequestGenBaseAndMask+0x5c>)
240557e6:	42a3      	cmp	r3, r4
240557e8:	d01e      	beq.n	24055828 <DMA_CalcDMAMUXRequestGenBaseAndMask+0x50>
240557ea:	3414      	adds	r4, #20
240557ec:	42a3      	cmp	r3, r4
240557ee:	d01b      	beq.n	24055828 <DMA_CalcDMAMUXRequestGenBaseAndMask+0x50>
240557f0:	3414      	adds	r4, #20
240557f2:	42a3      	cmp	r3, r4
240557f4:	d018      	beq.n	24055828 <DMA_CalcDMAMUXRequestGenBaseAndMask+0x50>
240557f6:	3414      	adds	r4, #20
240557f8:	42a3      	cmp	r3, r4
240557fa:	d015      	beq.n	24055828 <DMA_CalcDMAMUXRequestGenBaseAndMask+0x50>
240557fc:	3414      	adds	r4, #20
240557fe:	42a3      	cmp	r3, r4
24055800:	d012      	beq.n	24055828 <DMA_CalcDMAMUXRequestGenBaseAndMask+0x50>
24055802:	3414      	adds	r4, #20
24055804:	42a3      	cmp	r3, r4
24055806:	d00f      	beq.n	24055828 <DMA_CalcDMAMUXRequestGenBaseAndMask+0x50>
24055808:	3414      	adds	r4, #20
2405580a:	42a3      	cmp	r3, r4
2405580c:	d00c      	beq.n	24055828 <DMA_CalcDMAMUXRequestGenBaseAndMask+0x50>
2405580e:	3414      	adds	r4, #20
24055810:	42a3      	cmp	r3, r4
24055812:	d009      	beq.n	24055828 <DMA_CalcDMAMUXRequestGenBaseAndMask+0x50>
24055814:	4b08      	ldr	r3, [pc, #32]	; (24055838 <DMA_CalcDMAMUXRequestGenBaseAndMask+0x60>)
24055816:	4413      	add	r3, r2
24055818:	4a08      	ldr	r2, [pc, #32]	; (2405583c <DMA_CalcDMAMUXRequestGenBaseAndMask+0x64>)
2405581a:	009b      	lsls	r3, r3, #2
2405581c:	e9c0 321b 	strd	r3, r2, [r0, #108]	; 0x6c
24055820:	2301      	movs	r3, #1
24055822:	408b      	lsls	r3, r1
24055824:	6743      	str	r3, [r0, #116]	; 0x74
24055826:	bd10      	pop	{r4, pc}
24055828:	4b05      	ldr	r3, [pc, #20]	; (24055840 <DMA_CalcDMAMUXRequestGenBaseAndMask+0x68>)
2405582a:	4413      	add	r3, r2
2405582c:	4a05      	ldr	r2, [pc, #20]	; (24055844 <DMA_CalcDMAMUXRequestGenBaseAndMask+0x6c>)
2405582e:	009b      	lsls	r3, r3, #2
24055830:	e7f4      	b.n	2405581c <DMA_CalcDMAMUXRequestGenBaseAndMask+0x44>
24055832:	bf00      	nop
24055834:	58025408 	.word	0x58025408
24055838:	1000823f 	.word	0x1000823f
2405583c:	40020940 	.word	0x40020940
24055840:	1600963f 	.word	0x1600963f
24055844:	58025940 	.word	0x58025940

24055848 <HAL_DMA_Init>:
24055848:	b5f8      	push	{r3, r4, r5, r6, r7, lr}
2405584a:	4604      	mov	r4, r0
2405584c:	f7fe fd8a 	bl	24054364 <HAL_GetTick>
24055850:	4606      	mov	r6, r0
24055852:	2c00      	cmp	r4, #0
24055854:	f000 80c5 	beq.w	240559e2 <HAL_DMA_Init+0x19a>
24055858:	6823      	ldr	r3, [r4, #0]
2405585a:	4d73      	ldr	r5, [pc, #460]	; (24055a28 <HAL_DMA_Init+0x1e0>)
2405585c:	42ab      	cmp	r3, r5
2405585e:	d06a      	beq.n	24055936 <HAL_DMA_Init+0xee>
24055860:	4a72      	ldr	r2, [pc, #456]	; (24055a2c <HAL_DMA_Init+0x1e4>)
24055862:	4293      	cmp	r3, r2
24055864:	d067      	beq.n	24055936 <HAL_DMA_Init+0xee>
24055866:	3218      	adds	r2, #24
24055868:	4293      	cmp	r3, r2
2405586a:	d064      	beq.n	24055936 <HAL_DMA_Init+0xee>
2405586c:	3218      	adds	r2, #24
2405586e:	4293      	cmp	r3, r2
24055870:	d061      	beq.n	24055936 <HAL_DMA_Init+0xee>
24055872:	3218      	adds	r2, #24
24055874:	4293      	cmp	r3, r2
24055876:	d05e      	beq.n	24055936 <HAL_DMA_Init+0xee>
24055878:	3218      	adds	r2, #24
2405587a:	4293      	cmp	r3, r2
2405587c:	d05b      	beq.n	24055936 <HAL_DMA_Init+0xee>
2405587e:	3218      	adds	r2, #24
24055880:	4293      	cmp	r3, r2
24055882:	d058      	beq.n	24055936 <HAL_DMA_Init+0xee>
24055884:	3218      	adds	r2, #24
24055886:	4293      	cmp	r3, r2
24055888:	d055      	beq.n	24055936 <HAL_DMA_Init+0xee>
2405588a:	f502 7256 	add.w	r2, r2, #856	; 0x358
2405588e:	4293      	cmp	r3, r2
24055890:	d051      	beq.n	24055936 <HAL_DMA_Init+0xee>
24055892:	3218      	adds	r2, #24
24055894:	4293      	cmp	r3, r2
24055896:	d04e      	beq.n	24055936 <HAL_DMA_Init+0xee>
24055898:	3218      	adds	r2, #24
2405589a:	4293      	cmp	r3, r2
2405589c:	d04b      	beq.n	24055936 <HAL_DMA_Init+0xee>
2405589e:	3218      	adds	r2, #24
240558a0:	4293      	cmp	r3, r2
240558a2:	d048      	beq.n	24055936 <HAL_DMA_Init+0xee>
240558a4:	3218      	adds	r2, #24
240558a6:	4293      	cmp	r3, r2
240558a8:	d045      	beq.n	24055936 <HAL_DMA_Init+0xee>
240558aa:	3218      	adds	r2, #24
240558ac:	4293      	cmp	r3, r2
240558ae:	d042      	beq.n	24055936 <HAL_DMA_Init+0xee>
240558b0:	3218      	adds	r2, #24
240558b2:	4293      	cmp	r3, r2
240558b4:	d03f      	beq.n	24055936 <HAL_DMA_Init+0xee>
240558b6:	3218      	adds	r2, #24
240558b8:	4293      	cmp	r3, r2
240558ba:	d03c      	beq.n	24055936 <HAL_DMA_Init+0xee>
240558bc:	4a5c      	ldr	r2, [pc, #368]	; (24055a30 <HAL_DMA_Init+0x1e8>)
240558be:	4293      	cmp	r3, r2
240558c0:	f040 8135 	bne.w	24055b2e <HAL_DMA_Init+0x2e6>
240558c4:	2202      	movs	r2, #2
240558c6:	68a1      	ldr	r1, [r4, #8]
240558c8:	f884 2035 	strb.w	r2, [r4, #53]	; 0x35
240558cc:	2200      	movs	r2, #0
240558ce:	2940      	cmp	r1, #64	; 0x40
240558d0:	f884 2034 	strb.w	r2, [r4, #52]	; 0x34
240558d4:	6818      	ldr	r0, [r3, #0]
240558d6:	f420 30ff 	bic.w	r0, r0, #130560	; 0x1fe00
240558da:	f420 70f8 	bic.w	r0, r0, #496	; 0x1f0
240558de:	f000 8164 	beq.w	24055baa <HAL_DMA_Init+0x362>
240558e2:	f1a1 0280 	sub.w	r2, r1, #128	; 0x80
240558e6:	4251      	negs	r1, r2
240558e8:	4151      	adcs	r1, r2
240558ea:	0389      	lsls	r1, r1, #14
240558ec:	e9d4 6203 	ldrd	r6, r2, [r4, #12]
240558f0:	08d2      	lsrs	r2, r2, #3
240558f2:	ea42 02d6 	orr.w	r2, r2, r6, lsr #3
240558f6:	6966      	ldr	r6, [r4, #20]
240558f8:	ea42 02d6 	orr.w	r2, r2, r6, lsr #3
240558fc:	69a6      	ldr	r6, [r4, #24]
240558fe:	ea42 02d6 	orr.w	r2, r2, r6, lsr #3
24055902:	69e6      	ldr	r6, [r4, #28]
24055904:	ea42 02d6 	orr.w	r2, r2, r6, lsr #3
24055908:	6a26      	ldr	r6, [r4, #32]
2405590a:	ea42 1216 	orr.w	r2, r2, r6, lsr #4
2405590e:	4302      	orrs	r2, r0
24055910:	4620      	mov	r0, r4
24055912:	4311      	orrs	r1, r2
24055914:	4a47      	ldr	r2, [pc, #284]	; (24055a34 <HAL_DMA_Init+0x1ec>)
24055916:	6019      	str	r1, [r3, #0]
24055918:	441a      	add	r2, r3
2405591a:	2314      	movs	r3, #20
2405591c:	fbb2 f2f3 	udiv	r2, r2, r3
24055920:	0092      	lsls	r2, r2, #2
24055922:	65e2      	str	r2, [r4, #92]	; 0x5c
24055924:	f7ff fec0 	bl	240556a8 <DMA_CalcBaseAndBitshift>
24055928:	6de3      	ldr	r3, [r4, #92]	; 0x5c
2405592a:	f003 021f 	and.w	r2, r3, #31
2405592e:	2301      	movs	r3, #1
24055930:	4093      	lsls	r3, r2
24055932:	6043      	str	r3, [r0, #4]
24055934:	e092      	b.n	24055a5c <HAL_DMA_Init+0x214>
24055936:	2202      	movs	r2, #2
24055938:	f884 2035 	strb.w	r2, [r4, #53]	; 0x35
2405593c:	2200      	movs	r2, #0
2405593e:	f884 2034 	strb.w	r2, [r4, #52]	; 0x34
24055942:	681a      	ldr	r2, [r3, #0]
24055944:	f022 0201 	bic.w	r2, r2, #1
24055948:	601a      	str	r2, [r3, #0]
2405594a:	6821      	ldr	r1, [r4, #0]
2405594c:	680b      	ldr	r3, [r1, #0]
2405594e:	07db      	lsls	r3, r3, #31
24055950:	d43d      	bmi.n	240559ce <HAL_DMA_Init+0x186>
24055952:	680b      	ldr	r3, [r1, #0]
24055954:	4a38      	ldr	r2, [pc, #224]	; (24055a38 <HAL_DMA_Init+0x1f0>)
24055956:	69a0      	ldr	r0, [r4, #24]
24055958:	401a      	ands	r2, r3
2405595a:	e9d4 3602 	ldrd	r3, r6, [r4, #8]
2405595e:	4333      	orrs	r3, r6
24055960:	6926      	ldr	r6, [r4, #16]
24055962:	4333      	orrs	r3, r6
24055964:	6966      	ldr	r6, [r4, #20]
24055966:	4333      	orrs	r3, r6
24055968:	69e6      	ldr	r6, [r4, #28]
2405596a:	4303      	orrs	r3, r0
2405596c:	4333      	orrs	r3, r6
2405596e:	6a26      	ldr	r6, [r4, #32]
24055970:	4333      	orrs	r3, r6
24055972:	6a66      	ldr	r6, [r4, #36]	; 0x24
24055974:	2e04      	cmp	r6, #4
24055976:	ea43 0302 	orr.w	r3, r3, r2
2405597a:	bf02      	ittt	eq
2405597c:	e9d4 270b 	ldrdeq	r2, r7, [r4, #44]	; 0x2c
24055980:	433a      	orreq	r2, r7
24055982:	4313      	orreq	r3, r2
24055984:	6862      	ldr	r2, [r4, #4]
24055986:	f1a2 0729 	sub.w	r7, r2, #41	; 0x29
2405598a:	2f05      	cmp	r7, #5
2405598c:	d92e      	bls.n	240559ec <HAL_DMA_Init+0x1a4>
2405598e:	2a52      	cmp	r2, #82	; 0x52
24055990:	d829      	bhi.n	240559e6 <HAL_DMA_Init+0x19e>
24055992:	2a3e      	cmp	r2, #62	; 0x3e
24055994:	d905      	bls.n	240559a2 <HAL_DMA_Init+0x15a>
24055996:	4f29      	ldr	r7, [pc, #164]	; (24055a3c <HAL_DMA_Init+0x1f4>)
24055998:	3a3f      	subs	r2, #63	; 0x3f
2405599a:	fa27 f202 	lsr.w	r2, r7, r2
2405599e:	07d7      	lsls	r7, r2, #31
240559a0:	d424      	bmi.n	240559ec <HAL_DMA_Init+0x1a4>
240559a2:	600b      	str	r3, [r1, #0]
240559a4:	2e04      	cmp	r6, #4
240559a6:	694b      	ldr	r3, [r1, #20]
240559a8:	f023 0307 	bic.w	r3, r3, #7
240559ac:	ea43 0306 	orr.w	r3, r3, r6
240559b0:	d14a      	bne.n	24055a48 <HAL_DMA_Init+0x200>
240559b2:	6aa2      	ldr	r2, [r4, #40]	; 0x28
240559b4:	6ae6      	ldr	r6, [r4, #44]	; 0x2c
240559b6:	4313      	orrs	r3, r2
240559b8:	2e00      	cmp	r6, #0
240559ba:	d045      	beq.n	24055a48 <HAL_DMA_Init+0x200>
240559bc:	b9c8      	cbnz	r0, 240559f2 <HAL_DMA_Init+0x1aa>
240559be:	2a01      	cmp	r2, #1
240559c0:	d028      	beq.n	24055a14 <HAL_DMA_Init+0x1cc>
240559c2:	f032 0202 	bics.w	r2, r2, #2
240559c6:	d13f      	bne.n	24055a48 <HAL_DMA_Init+0x200>
240559c8:	01f0      	lsls	r0, r6, #7
240559ca:	d53d      	bpl.n	24055a48 <HAL_DMA_Init+0x200>
240559cc:	e025      	b.n	24055a1a <HAL_DMA_Init+0x1d2>
240559ce:	f7fe fcc9 	bl	24054364 <HAL_GetTick>
240559d2:	1b80      	subs	r0, r0, r6
240559d4:	2805      	cmp	r0, #5
240559d6:	d9b8      	bls.n	2405594a <HAL_DMA_Init+0x102>
240559d8:	2320      	movs	r3, #32
240559da:	6563      	str	r3, [r4, #84]	; 0x54
240559dc:	2303      	movs	r3, #3
240559de:	f884 3035 	strb.w	r3, [r4, #53]	; 0x35
240559e2:	2001      	movs	r0, #1
240559e4:	e01e      	b.n	24055a24 <HAL_DMA_Init+0x1dc>
240559e6:	3a74      	subs	r2, #116	; 0x74
240559e8:	2a03      	cmp	r2, #3
240559ea:	d8da      	bhi.n	240559a2 <HAL_DMA_Init+0x15a>
240559ec:	f443 1380 	orr.w	r3, r3, #1048576	; 0x100000
240559f0:	e7d7      	b.n	240559a2 <HAL_DMA_Init+0x15a>
240559f2:	f5b0 5f00 	cmp.w	r0, #8192	; 0x2000
240559f6:	d123      	bne.n	24055a40 <HAL_DMA_Init+0x1f8>
240559f8:	2a03      	cmp	r2, #3
240559fa:	d825      	bhi.n	24055a48 <HAL_DMA_Init+0x200>
240559fc:	a001      	add	r0, pc, #4	; (adr r0, 24055a04 <HAL_DMA_Init+0x1bc>)
240559fe:	f850 f022 	ldr.w	pc, [r0, r2, lsl #2]
24055a02:	bf00      	nop
24055a04:	24055a1b 	.word	0x24055a1b
24055a08:	240559c9 	.word	0x240559c9
24055a0c:	24055a1b 	.word	0x24055a1b
24055a10:	24055a15 	.word	0x24055a15
24055a14:	f1b6 7fc0 	cmp.w	r6, #25165824	; 0x1800000
24055a18:	d116      	bne.n	24055a48 <HAL_DMA_Init+0x200>
24055a1a:	2340      	movs	r3, #64	; 0x40
24055a1c:	2001      	movs	r0, #1
24055a1e:	6563      	str	r3, [r4, #84]	; 0x54
24055a20:	f884 0035 	strb.w	r0, [r4, #53]	; 0x35
24055a24:	bdf8      	pop	{r3, r4, r5, r6, r7, pc}
24055a26:	bf00      	nop
24055a28:	40020010 	.word	0x40020010
24055a2c:	40020028 	.word	0x40020028
24055a30:	48022c08 	.word	0x48022c08
24055a34:	a7fdabf8 	.word	0xa7fdabf8
24055a38:	fe10803f 	.word	0xfe10803f
24055a3c:	000f030f 	.word	0x000f030f
24055a40:	2a02      	cmp	r2, #2
24055a42:	d9ea      	bls.n	24055a1a <HAL_DMA_Init+0x1d2>
24055a44:	2a03      	cmp	r2, #3
24055a46:	d0bf      	beq.n	240559c8 <HAL_DMA_Init+0x180>
24055a48:	614b      	str	r3, [r1, #20]
24055a4a:	4620      	mov	r0, r4
24055a4c:	f7ff fe2c 	bl	240556a8 <DMA_CalcBaseAndBitshift>
24055a50:	6de3      	ldr	r3, [r4, #92]	; 0x5c
24055a52:	f003 021f 	and.w	r2, r3, #31
24055a56:	233f      	movs	r3, #63	; 0x3f
24055a58:	4093      	lsls	r3, r2
24055a5a:	6083      	str	r3, [r0, #8]
24055a5c:	6823      	ldr	r3, [r4, #0]
24055a5e:	42ab      	cmp	r3, r5
24055a60:	d045      	beq.n	24055aee <HAL_DMA_Init+0x2a6>
24055a62:	4a55      	ldr	r2, [pc, #340]	; (24055bb8 <HAL_DMA_Init+0x370>)
24055a64:	4293      	cmp	r3, r2
24055a66:	d042      	beq.n	24055aee <HAL_DMA_Init+0x2a6>
24055a68:	3218      	adds	r2, #24
24055a6a:	4293      	cmp	r3, r2
24055a6c:	d03f      	beq.n	24055aee <HAL_DMA_Init+0x2a6>
24055a6e:	3218      	adds	r2, #24
24055a70:	4293      	cmp	r3, r2
24055a72:	d03c      	beq.n	24055aee <HAL_DMA_Init+0x2a6>
24055a74:	3218      	adds	r2, #24
24055a76:	4293      	cmp	r3, r2
24055a78:	d039      	beq.n	24055aee <HAL_DMA_Init+0x2a6>
24055a7a:	3218      	adds	r2, #24
24055a7c:	4293      	cmp	r3, r2
24055a7e:	d036      	beq.n	24055aee <HAL_DMA_Init+0x2a6>
24055a80:	3218      	adds	r2, #24
24055a82:	4293      	cmp	r3, r2
24055a84:	d033      	beq.n	24055aee <HAL_DMA_Init+0x2a6>
24055a86:	3218      	adds	r2, #24
24055a88:	4293      	cmp	r3, r2
24055a8a:	d030      	beq.n	24055aee <HAL_DMA_Init+0x2a6>
24055a8c:	f502 7256 	add.w	r2, r2, #856	; 0x358
24055a90:	4293      	cmp	r3, r2
24055a92:	d02c      	beq.n	24055aee <HAL_DMA_Init+0x2a6>
24055a94:	3218      	adds	r2, #24
24055a96:	4293      	cmp	r3, r2
24055a98:	d029      	beq.n	24055aee <HAL_DMA_Init+0x2a6>
24055a9a:	3218      	adds	r2, #24
24055a9c:	4293      	cmp	r3, r2
24055a9e:	d026      	beq.n	24055aee <HAL_DMA_Init+0x2a6>
24055aa0:	3218      	adds	r2, #24
24055aa2:	4293      	cmp	r3, r2
24055aa4:	d023      	beq.n	24055aee <HAL_DMA_Init+0x2a6>
24055aa6:	3218      	adds	r2, #24
24055aa8:	4293      	cmp	r3, r2
24055aaa:	d020      	beq.n	24055aee <HAL_DMA_Init+0x2a6>
24055aac:	3218      	adds	r2, #24
24055aae:	4293      	cmp	r3, r2
24055ab0:	d01d      	beq.n	24055aee <HAL_DMA_Init+0x2a6>
24055ab2:	3218      	adds	r2, #24
24055ab4:	4293      	cmp	r3, r2
24055ab6:	d01a      	beq.n	24055aee <HAL_DMA_Init+0x2a6>
24055ab8:	3218      	adds	r2, #24
24055aba:	4293      	cmp	r3, r2
24055abc:	d017      	beq.n	24055aee <HAL_DMA_Init+0x2a6>
24055abe:	4a3f      	ldr	r2, [pc, #252]	; (24055bbc <HAL_DMA_Init+0x374>)
24055ac0:	4293      	cmp	r3, r2
24055ac2:	d014      	beq.n	24055aee <HAL_DMA_Init+0x2a6>
24055ac4:	3214      	adds	r2, #20
24055ac6:	4293      	cmp	r3, r2
24055ac8:	d011      	beq.n	24055aee <HAL_DMA_Init+0x2a6>
24055aca:	3214      	adds	r2, #20
24055acc:	4293      	cmp	r3, r2
24055ace:	d00e      	beq.n	24055aee <HAL_DMA_Init+0x2a6>
24055ad0:	3214      	adds	r2, #20
24055ad2:	4293      	cmp	r3, r2
24055ad4:	d00b      	beq.n	24055aee <HAL_DMA_Init+0x2a6>
24055ad6:	3214      	adds	r2, #20
24055ad8:	4293      	cmp	r3, r2
24055ada:	d008      	beq.n	24055aee <HAL_DMA_Init+0x2a6>
24055adc:	3214      	adds	r2, #20
24055ade:	4293      	cmp	r3, r2
24055ae0:	d005      	beq.n	24055aee <HAL_DMA_Init+0x2a6>
24055ae2:	3214      	adds	r2, #20
24055ae4:	4293      	cmp	r3, r2
24055ae6:	d002      	beq.n	24055aee <HAL_DMA_Init+0x2a6>
24055ae8:	3214      	adds	r2, #20
24055aea:	4293      	cmp	r3, r2
24055aec:	d119      	bne.n	24055b22 <HAL_DMA_Init+0x2da>
24055aee:	4620      	mov	r0, r4
24055af0:	2500      	movs	r5, #0
24055af2:	f7ff fe25 	bl	24055740 <DMA_CalcDMAMUXChannelBaseAndMask>
24055af6:	68a3      	ldr	r3, [r4, #8]
24055af8:	6e22      	ldr	r2, [r4, #96]	; 0x60
24055afa:	2b80      	cmp	r3, #128	; 0x80
24055afc:	bf04      	itt	eq
24055afe:	2300      	moveq	r3, #0
24055b00:	6063      	streq	r3, [r4, #4]
24055b02:	6863      	ldr	r3, [r4, #4]
24055b04:	b2d9      	uxtb	r1, r3
24055b06:	3b01      	subs	r3, #1
24055b08:	6011      	str	r1, [r2, #0]
24055b0a:	2b07      	cmp	r3, #7
24055b0c:	e9d4 2119 	ldrd	r2, r1, [r4, #100]	; 0x64
24055b10:	6051      	str	r1, [r2, #4]
24055b12:	d84c      	bhi.n	24055bae <HAL_DMA_Init+0x366>
24055b14:	f7ff fe60 	bl	240557d8 <DMA_CalcDMAMUXRequestGenBaseAndMask>
24055b18:	6ee3      	ldr	r3, [r4, #108]	; 0x6c
24055b1a:	601d      	str	r5, [r3, #0]
24055b1c:	e9d4 321c 	ldrd	r3, r2, [r4, #112]	; 0x70
24055b20:	605a      	str	r2, [r3, #4]
24055b22:	2000      	movs	r0, #0
24055b24:	2301      	movs	r3, #1
24055b26:	6560      	str	r0, [r4, #84]	; 0x54
24055b28:	f884 3035 	strb.w	r3, [r4, #53]	; 0x35
24055b2c:	e77a      	b.n	24055a24 <HAL_DMA_Init+0x1dc>
24055b2e:	4a24      	ldr	r2, [pc, #144]	; (24055bc0 <HAL_DMA_Init+0x378>)
24055b30:	4293      	cmp	r3, r2
24055b32:	f43f aec7 	beq.w	240558c4 <HAL_DMA_Init+0x7c>
24055b36:	3214      	adds	r2, #20
24055b38:	4293      	cmp	r3, r2
24055b3a:	f43f aec3 	beq.w	240558c4 <HAL_DMA_Init+0x7c>
24055b3e:	3214      	adds	r2, #20
24055b40:	4293      	cmp	r3, r2
24055b42:	f43f aebf 	beq.w	240558c4 <HAL_DMA_Init+0x7c>
24055b46:	3214      	adds	r2, #20
24055b48:	4293      	cmp	r3, r2
24055b4a:	f43f aebb 	beq.w	240558c4 <HAL_DMA_Init+0x7c>
24055b4e:	3214      	adds	r2, #20
24055b50:	4293      	cmp	r3, r2
24055b52:	f43f aeb7 	beq.w	240558c4 <HAL_DMA_Init+0x7c>
24055b56:	3214      	adds	r2, #20
24055b58:	4293      	cmp	r3, r2
24055b5a:	f43f aeb3 	beq.w	240558c4 <HAL_DMA_Init+0x7c>
24055b5e:	3214      	adds	r2, #20
24055b60:	4293      	cmp	r3, r2
24055b62:	f43f aeaf 	beq.w	240558c4 <HAL_DMA_Init+0x7c>
24055b66:	4a15      	ldr	r2, [pc, #84]	; (24055bbc <HAL_DMA_Init+0x374>)
24055b68:	4293      	cmp	r3, r2
24055b6a:	f43f aeab 	beq.w	240558c4 <HAL_DMA_Init+0x7c>
24055b6e:	3214      	adds	r2, #20
24055b70:	4293      	cmp	r3, r2
24055b72:	f43f aea7 	beq.w	240558c4 <HAL_DMA_Init+0x7c>
24055b76:	3214      	adds	r2, #20
24055b78:	4293      	cmp	r3, r2
24055b7a:	f43f aea3 	beq.w	240558c4 <HAL_DMA_Init+0x7c>
24055b7e:	3214      	adds	r2, #20
24055b80:	4293      	cmp	r3, r2
24055b82:	f43f ae9f 	beq.w	240558c4 <HAL_DMA_Init+0x7c>
24055b86:	3214      	adds	r2, #20
24055b88:	4293      	cmp	r3, r2
24055b8a:	f43f ae9b 	beq.w	240558c4 <HAL_DMA_Init+0x7c>
24055b8e:	3214      	adds	r2, #20
24055b90:	4293      	cmp	r3, r2
24055b92:	f43f ae97 	beq.w	240558c4 <HAL_DMA_Init+0x7c>
24055b96:	3214      	adds	r2, #20
24055b98:	4293      	cmp	r3, r2
24055b9a:	f43f ae93 	beq.w	240558c4 <HAL_DMA_Init+0x7c>
24055b9e:	3214      	adds	r2, #20
24055ba0:	4293      	cmp	r3, r2
24055ba2:	f43f ae8f 	beq.w	240558c4 <HAL_DMA_Init+0x7c>
24055ba6:	2340      	movs	r3, #64	; 0x40
24055ba8:	e717      	b.n	240559da <HAL_DMA_Init+0x192>
24055baa:	2110      	movs	r1, #16
24055bac:	e69e      	b.n	240558ec <HAL_DMA_Init+0xa4>
24055bae:	e9c4 551b 	strd	r5, r5, [r4, #108]	; 0x6c
24055bb2:	6765      	str	r5, [r4, #116]	; 0x74
24055bb4:	e7b5      	b.n	24055b22 <HAL_DMA_Init+0x2da>
24055bb6:	bf00      	nop
24055bb8:	40020028 	.word	0x40020028
24055bbc:	58025408 	.word	0x58025408
24055bc0:	48022c1c 	.word	0x48022c1c

24055bc4 <HAL_DMA_Start_IT>:
24055bc4:	b570      	push	{r4, r5, r6, lr}
24055bc6:	2800      	cmp	r0, #0
24055bc8:	f000 810a 	beq.w	24055de0 <HAL_DMA_Start_IT+0x21c>
24055bcc:	f890 4034 	ldrb.w	r4, [r0, #52]	; 0x34
24055bd0:	2c01      	cmp	r4, #1
24055bd2:	f000 8107 	beq.w	24055de4 <HAL_DMA_Start_IT+0x220>
24055bd6:	2401      	movs	r4, #1
24055bd8:	f890 5035 	ldrb.w	r5, [r0, #53]	; 0x35
24055bdc:	42a5      	cmp	r5, r4
24055bde:	f880 4034 	strb.w	r4, [r0, #52]	; 0x34
24055be2:	f04f 0500 	mov.w	r5, #0
24055be6:	f040 80f6 	bne.w	24055dd6 <HAL_DMA_Start_IT+0x212>
24055bea:	2402      	movs	r4, #2
24055bec:	f880 4035 	strb.w	r4, [r0, #53]	; 0x35
24055bf0:	6804      	ldr	r4, [r0, #0]
24055bf2:	6545      	str	r5, [r0, #84]	; 0x54
24055bf4:	4d7c      	ldr	r5, [pc, #496]	; (24055de8 <HAL_DMA_Start_IT+0x224>)
24055bf6:	42ac      	cmp	r4, r5
24055bf8:	d01e      	beq.n	24055c38 <HAL_DMA_Start_IT+0x74>
24055bfa:	4e7c      	ldr	r6, [pc, #496]	; (24055dec <HAL_DMA_Start_IT+0x228>)
24055bfc:	42b4      	cmp	r4, r6
24055bfe:	d01b      	beq.n	24055c38 <HAL_DMA_Start_IT+0x74>
24055c00:	3618      	adds	r6, #24
24055c02:	42b4      	cmp	r4, r6
24055c04:	d018      	beq.n	24055c38 <HAL_DMA_Start_IT+0x74>
24055c06:	3618      	adds	r6, #24
24055c08:	42b4      	cmp	r4, r6
24055c0a:	d015      	beq.n	24055c38 <HAL_DMA_Start_IT+0x74>
24055c0c:	3618      	adds	r6, #24
24055c0e:	42b4      	cmp	r4, r6
24055c10:	d012      	beq.n	24055c38 <HAL_DMA_Start_IT+0x74>
24055c12:	3618      	adds	r6, #24
24055c14:	42b4      	cmp	r4, r6
24055c16:	d00f      	beq.n	24055c38 <HAL_DMA_Start_IT+0x74>
24055c18:	3618      	adds	r6, #24
24055c1a:	42b4      	cmp	r4, r6
24055c1c:	d00c      	beq.n	24055c38 <HAL_DMA_Start_IT+0x74>
24055c1e:	3618      	adds	r6, #24
24055c20:	42b4      	cmp	r4, r6
24055c22:	d009      	beq.n	24055c38 <HAL_DMA_Start_IT+0x74>
24055c24:	f506 7656 	add.w	r6, r6, #856	; 0x358
24055c28:	42b4      	cmp	r4, r6
24055c2a:	d005      	beq.n	24055c38 <HAL_DMA_Start_IT+0x74>
24055c2c:	3618      	adds	r6, #24
24055c2e:	42b4      	cmp	r4, r6
24055c30:	d002      	beq.n	24055c38 <HAL_DMA_Start_IT+0x74>
24055c32:	3618      	adds	r6, #24
24055c34:	42b4      	cmp	r4, r6
24055c36:	d0ff      	beq.n	24055c38 <HAL_DMA_Start_IT+0x74>
24055c38:	6826      	ldr	r6, [r4, #0]
24055c3a:	f026 0601 	bic.w	r6, r6, #1
24055c3e:	6026      	str	r6, [r4, #0]
24055c40:	f7ff fc56 	bl	240554f0 <DMA_SetConfig>
24055c44:	42ac      	cmp	r4, r5
24055c46:	6c02      	ldr	r2, [r0, #64]	; 0x40
24055c48:	d053      	beq.n	24055cf2 <HAL_DMA_Start_IT+0x12e>
24055c4a:	4b68      	ldr	r3, [pc, #416]	; (24055dec <HAL_DMA_Start_IT+0x228>)
24055c4c:	429c      	cmp	r4, r3
24055c4e:	d050      	beq.n	24055cf2 <HAL_DMA_Start_IT+0x12e>
24055c50:	3318      	adds	r3, #24
24055c52:	429c      	cmp	r4, r3
24055c54:	d04d      	beq.n	24055cf2 <HAL_DMA_Start_IT+0x12e>
24055c56:	3318      	adds	r3, #24
24055c58:	429c      	cmp	r4, r3
24055c5a:	d04a      	beq.n	24055cf2 <HAL_DMA_Start_IT+0x12e>
24055c5c:	3318      	adds	r3, #24
24055c5e:	429c      	cmp	r4, r3
24055c60:	d047      	beq.n	24055cf2 <HAL_DMA_Start_IT+0x12e>
24055c62:	3318      	adds	r3, #24
24055c64:	429c      	cmp	r4, r3
24055c66:	d044      	beq.n	24055cf2 <HAL_DMA_Start_IT+0x12e>
24055c68:	3318      	adds	r3, #24
24055c6a:	429c      	cmp	r4, r3
24055c6c:	d041      	beq.n	24055cf2 <HAL_DMA_Start_IT+0x12e>
24055c6e:	3318      	adds	r3, #24
24055c70:	429c      	cmp	r4, r3
24055c72:	d03e      	beq.n	24055cf2 <HAL_DMA_Start_IT+0x12e>
24055c74:	f503 7356 	add.w	r3, r3, #856	; 0x358
24055c78:	429c      	cmp	r4, r3
24055c7a:	d03a      	beq.n	24055cf2 <HAL_DMA_Start_IT+0x12e>
24055c7c:	3318      	adds	r3, #24
24055c7e:	429c      	cmp	r4, r3
24055c80:	d037      	beq.n	24055cf2 <HAL_DMA_Start_IT+0x12e>
24055c82:	3318      	adds	r3, #24
24055c84:	429c      	cmp	r4, r3
24055c86:	d034      	beq.n	24055cf2 <HAL_DMA_Start_IT+0x12e>
24055c88:	3318      	adds	r3, #24
24055c8a:	429c      	cmp	r4, r3
24055c8c:	d031      	beq.n	24055cf2 <HAL_DMA_Start_IT+0x12e>
24055c8e:	3318      	adds	r3, #24
24055c90:	429c      	cmp	r4, r3
24055c92:	d02e      	beq.n	24055cf2 <HAL_DMA_Start_IT+0x12e>
24055c94:	3318      	adds	r3, #24
24055c96:	429c      	cmp	r4, r3
24055c98:	d02b      	beq.n	24055cf2 <HAL_DMA_Start_IT+0x12e>
24055c9a:	3318      	adds	r3, #24
24055c9c:	429c      	cmp	r4, r3
24055c9e:	d028      	beq.n	24055cf2 <HAL_DMA_Start_IT+0x12e>
24055ca0:	3318      	adds	r3, #24
24055ca2:	429c      	cmp	r4, r3
24055ca4:	d025      	beq.n	24055cf2 <HAL_DMA_Start_IT+0x12e>
24055ca6:	6823      	ldr	r3, [r4, #0]
24055ca8:	f023 030e 	bic.w	r3, r3, #14
24055cac:	f043 030a 	orr.w	r3, r3, #10
24055cb0:	6023      	str	r3, [r4, #0]
24055cb2:	2a00      	cmp	r2, #0
24055cb4:	d156      	bne.n	24055d64 <HAL_DMA_Start_IT+0x1a0>
24055cb6:	4b4e      	ldr	r3, [pc, #312]	; (24055df0 <HAL_DMA_Start_IT+0x22c>)
24055cb8:	429c      	cmp	r4, r3
24055cba:	d027      	beq.n	24055d0c <HAL_DMA_Start_IT+0x148>
24055cbc:	4b4d      	ldr	r3, [pc, #308]	; (24055df4 <HAL_DMA_Start_IT+0x230>)
24055cbe:	429c      	cmp	r4, r3
24055cc0:	d024      	beq.n	24055d0c <HAL_DMA_Start_IT+0x148>
24055cc2:	3314      	adds	r3, #20
24055cc4:	429c      	cmp	r4, r3
24055cc6:	d021      	beq.n	24055d0c <HAL_DMA_Start_IT+0x148>
24055cc8:	3314      	adds	r3, #20
24055cca:	429c      	cmp	r4, r3
24055ccc:	d01e      	beq.n	24055d0c <HAL_DMA_Start_IT+0x148>
24055cce:	3314      	adds	r3, #20
24055cd0:	429c      	cmp	r4, r3
24055cd2:	d01b      	beq.n	24055d0c <HAL_DMA_Start_IT+0x148>
24055cd4:	3314      	adds	r3, #20
24055cd6:	429c      	cmp	r4, r3
24055cd8:	d018      	beq.n	24055d0c <HAL_DMA_Start_IT+0x148>
24055cda:	3314      	adds	r3, #20
24055cdc:	429c      	cmp	r4, r3
24055cde:	d015      	beq.n	24055d0c <HAL_DMA_Start_IT+0x148>
24055ce0:	3314      	adds	r3, #20
24055ce2:	429c      	cmp	r4, r3
24055ce4:	d012      	beq.n	24055d0c <HAL_DMA_Start_IT+0x148>
24055ce6:	6823      	ldr	r3, [r4, #0]
24055ce8:	2000      	movs	r0, #0
24055cea:	f043 0301 	orr.w	r3, r3, #1
24055cee:	6023      	str	r3, [r4, #0]
24055cf0:	bd70      	pop	{r4, r5, r6, pc}
24055cf2:	6823      	ldr	r3, [r4, #0]
24055cf4:	f023 031e 	bic.w	r3, r3, #30
24055cf8:	f043 0316 	orr.w	r3, r3, #22
24055cfc:	6023      	str	r3, [r4, #0]
24055cfe:	b11a      	cbz	r2, 24055d08 <HAL_DMA_Start_IT+0x144>
24055d00:	6823      	ldr	r3, [r4, #0]
24055d02:	f043 0308 	orr.w	r3, r3, #8
24055d06:	6023      	str	r3, [r4, #0]
24055d08:	42ac      	cmp	r4, r5
24055d0a:	d130      	bne.n	24055d6e <HAL_DMA_Start_IT+0x1aa>
24055d0c:	6e03      	ldr	r3, [r0, #96]	; 0x60
24055d0e:	681a      	ldr	r2, [r3, #0]
24055d10:	03d2      	lsls	r2, r2, #15
24055d12:	d45b      	bmi.n	24055dcc <HAL_DMA_Start_IT+0x208>
24055d14:	6ec3      	ldr	r3, [r0, #108]	; 0x6c
24055d16:	b11b      	cbz	r3, 24055d20 <HAL_DMA_Start_IT+0x15c>
24055d18:	681a      	ldr	r2, [r3, #0]
24055d1a:	f442 7280 	orr.w	r2, r2, #256	; 0x100
24055d1e:	601a      	str	r2, [r3, #0]
24055d20:	42ac      	cmp	r4, r5
24055d22:	d0e0      	beq.n	24055ce6 <HAL_DMA_Start_IT+0x122>
24055d24:	4b31      	ldr	r3, [pc, #196]	; (24055dec <HAL_DMA_Start_IT+0x228>)
24055d26:	429c      	cmp	r4, r3
24055d28:	d0dd      	beq.n	24055ce6 <HAL_DMA_Start_IT+0x122>
24055d2a:	3318      	adds	r3, #24
24055d2c:	429c      	cmp	r4, r3
24055d2e:	d0da      	beq.n	24055ce6 <HAL_DMA_Start_IT+0x122>
24055d30:	3318      	adds	r3, #24
24055d32:	429c      	cmp	r4, r3
24055d34:	d0d7      	beq.n	24055ce6 <HAL_DMA_Start_IT+0x122>
24055d36:	3318      	adds	r3, #24
24055d38:	429c      	cmp	r4, r3
24055d3a:	d0d4      	beq.n	24055ce6 <HAL_DMA_Start_IT+0x122>
24055d3c:	3318      	adds	r3, #24
24055d3e:	429c      	cmp	r4, r3
24055d40:	d0d1      	beq.n	24055ce6 <HAL_DMA_Start_IT+0x122>
24055d42:	3318      	adds	r3, #24
24055d44:	429c      	cmp	r4, r3
24055d46:	d0ce      	beq.n	24055ce6 <HAL_DMA_Start_IT+0x122>
24055d48:	3318      	adds	r3, #24
24055d4a:	429c      	cmp	r4, r3
24055d4c:	d0cb      	beq.n	24055ce6 <HAL_DMA_Start_IT+0x122>
24055d4e:	f503 7356 	add.w	r3, r3, #856	; 0x358
24055d52:	429c      	cmp	r4, r3
24055d54:	d0c7      	beq.n	24055ce6 <HAL_DMA_Start_IT+0x122>
24055d56:	3318      	adds	r3, #24
24055d58:	429c      	cmp	r4, r3
24055d5a:	d0c4      	beq.n	24055ce6 <HAL_DMA_Start_IT+0x122>
24055d5c:	3318      	adds	r3, #24
24055d5e:	429c      	cmp	r4, r3
24055d60:	d0c1      	beq.n	24055ce6 <HAL_DMA_Start_IT+0x122>
24055d62:	e7c0      	b.n	24055ce6 <HAL_DMA_Start_IT+0x122>
24055d64:	6823      	ldr	r3, [r4, #0]
24055d66:	f043 0304 	orr.w	r3, r3, #4
24055d6a:	6023      	str	r3, [r4, #0]
24055d6c:	e7a3      	b.n	24055cb6 <HAL_DMA_Start_IT+0xf2>
24055d6e:	4b1f      	ldr	r3, [pc, #124]	; (24055dec <HAL_DMA_Start_IT+0x228>)
24055d70:	429c      	cmp	r4, r3
24055d72:	d0cb      	beq.n	24055d0c <HAL_DMA_Start_IT+0x148>
24055d74:	3318      	adds	r3, #24
24055d76:	429c      	cmp	r4, r3
24055d78:	d0c8      	beq.n	24055d0c <HAL_DMA_Start_IT+0x148>
24055d7a:	3318      	adds	r3, #24
24055d7c:	429c      	cmp	r4, r3
24055d7e:	d0c5      	beq.n	24055d0c <HAL_DMA_Start_IT+0x148>
24055d80:	3318      	adds	r3, #24
24055d82:	429c      	cmp	r4, r3
24055d84:	d0c2      	beq.n	24055d0c <HAL_DMA_Start_IT+0x148>
24055d86:	3318      	adds	r3, #24
24055d88:	429c      	cmp	r4, r3
24055d8a:	d0bf      	beq.n	24055d0c <HAL_DMA_Start_IT+0x148>
24055d8c:	3318      	adds	r3, #24
24055d8e:	429c      	cmp	r4, r3
24055d90:	d0bc      	beq.n	24055d0c <HAL_DMA_Start_IT+0x148>
24055d92:	3318      	adds	r3, #24
24055d94:	429c      	cmp	r4, r3
24055d96:	d0b9      	beq.n	24055d0c <HAL_DMA_Start_IT+0x148>
24055d98:	f503 7356 	add.w	r3, r3, #856	; 0x358
24055d9c:	429c      	cmp	r4, r3
24055d9e:	d0b5      	beq.n	24055d0c <HAL_DMA_Start_IT+0x148>
24055da0:	3318      	adds	r3, #24
24055da2:	429c      	cmp	r4, r3
24055da4:	d0b2      	beq.n	24055d0c <HAL_DMA_Start_IT+0x148>
24055da6:	3318      	adds	r3, #24
24055da8:	429c      	cmp	r4, r3
24055daa:	d0af      	beq.n	24055d0c <HAL_DMA_Start_IT+0x148>
24055dac:	3318      	adds	r3, #24
24055dae:	429c      	cmp	r4, r3
24055db0:	d0ac      	beq.n	24055d0c <HAL_DMA_Start_IT+0x148>
24055db2:	3318      	adds	r3, #24
24055db4:	429c      	cmp	r4, r3
24055db6:	d0a9      	beq.n	24055d0c <HAL_DMA_Start_IT+0x148>
24055db8:	3318      	adds	r3, #24
24055dba:	429c      	cmp	r4, r3
24055dbc:	d0a6      	beq.n	24055d0c <HAL_DMA_Start_IT+0x148>
24055dbe:	3318      	adds	r3, #24
24055dc0:	429c      	cmp	r4, r3
24055dc2:	d0a3      	beq.n	24055d0c <HAL_DMA_Start_IT+0x148>
24055dc4:	3318      	adds	r3, #24
24055dc6:	429c      	cmp	r4, r3
24055dc8:	d0a0      	beq.n	24055d0c <HAL_DMA_Start_IT+0x148>
24055dca:	e774      	b.n	24055cb6 <HAL_DMA_Start_IT+0xf2>
24055dcc:	681a      	ldr	r2, [r3, #0]
24055dce:	f442 7280 	orr.w	r2, r2, #256	; 0x100
24055dd2:	601a      	str	r2, [r3, #0]
24055dd4:	e79e      	b.n	24055d14 <HAL_DMA_Start_IT+0x150>
24055dd6:	f44f 6300 	mov.w	r3, #2048	; 0x800
24055dda:	f880 5034 	strb.w	r5, [r0, #52]	; 0x34
24055dde:	6543      	str	r3, [r0, #84]	; 0x54
24055de0:	2001      	movs	r0, #1
24055de2:	e785      	b.n	24055cf0 <HAL_DMA_Start_IT+0x12c>
24055de4:	2002      	movs	r0, #2
24055de6:	e783      	b.n	24055cf0 <HAL_DMA_Start_IT+0x12c>
24055de8:	40020010 	.word	0x40020010
24055dec:	40020028 	.word	0x40020028
24055df0:	58025408 	.word	0x58025408
24055df4:	5802541c 	.word	0x5802541c

24055df8 <HAL_DMA_Abort>:
24055df8:	b5f8      	push	{r3, r4, r5, r6, r7, lr}
24055dfa:	4605      	mov	r5, r0
24055dfc:	f7fe fab2 	bl	24054364 <HAL_GetTick>
24055e00:	4607      	mov	r7, r0
24055e02:	b145      	cbz	r5, 24055e16 <HAL_DMA_Abort+0x1e>
24055e04:	f895 3035 	ldrb.w	r3, [r5, #53]	; 0x35
24055e08:	2b02      	cmp	r3, #2
24055e0a:	d006      	beq.n	24055e1a <HAL_DMA_Abort+0x22>
24055e0c:	2380      	movs	r3, #128	; 0x80
24055e0e:	656b      	str	r3, [r5, #84]	; 0x54
24055e10:	2300      	movs	r3, #0
24055e12:	f885 3034 	strb.w	r3, [r5, #52]	; 0x34
24055e16:	2001      	movs	r0, #1
24055e18:	e153      	b.n	240560c2 <HAL_DMA_Abort+0x2ca>
24055e1a:	682c      	ldr	r4, [r5, #0]
24055e1c:	4ea9      	ldr	r6, [pc, #676]	; (240560c4 <HAL_DMA_Abort+0x2cc>)
24055e1e:	42b4      	cmp	r4, r6
24055e20:	d04a      	beq.n	24055eb8 <HAL_DMA_Abort+0xc0>
24055e22:	4ba9      	ldr	r3, [pc, #676]	; (240560c8 <HAL_DMA_Abort+0x2d0>)
24055e24:	429c      	cmp	r4, r3
24055e26:	d047      	beq.n	24055eb8 <HAL_DMA_Abort+0xc0>
24055e28:	3318      	adds	r3, #24
24055e2a:	429c      	cmp	r4, r3
24055e2c:	d044      	beq.n	24055eb8 <HAL_DMA_Abort+0xc0>
24055e2e:	3318      	adds	r3, #24
24055e30:	429c      	cmp	r4, r3
24055e32:	d041      	beq.n	24055eb8 <HAL_DMA_Abort+0xc0>
24055e34:	3318      	adds	r3, #24
24055e36:	429c      	cmp	r4, r3
24055e38:	d03e      	beq.n	24055eb8 <HAL_DMA_Abort+0xc0>
24055e3a:	3318      	adds	r3, #24
24055e3c:	429c      	cmp	r4, r3
24055e3e:	d03b      	beq.n	24055eb8 <HAL_DMA_Abort+0xc0>
24055e40:	3318      	adds	r3, #24
24055e42:	429c      	cmp	r4, r3
24055e44:	d038      	beq.n	24055eb8 <HAL_DMA_Abort+0xc0>
24055e46:	3318      	adds	r3, #24
24055e48:	429c      	cmp	r4, r3
24055e4a:	d035      	beq.n	24055eb8 <HAL_DMA_Abort+0xc0>
24055e4c:	f503 7356 	add.w	r3, r3, #856	; 0x358
24055e50:	429c      	cmp	r4, r3
24055e52:	d031      	beq.n	24055eb8 <HAL_DMA_Abort+0xc0>
24055e54:	3318      	adds	r3, #24
24055e56:	429c      	cmp	r4, r3
24055e58:	d02e      	beq.n	24055eb8 <HAL_DMA_Abort+0xc0>
24055e5a:	3318      	adds	r3, #24
24055e5c:	429c      	cmp	r4, r3
24055e5e:	d02b      	beq.n	24055eb8 <HAL_DMA_Abort+0xc0>
24055e60:	3318      	adds	r3, #24
24055e62:	429c      	cmp	r4, r3
24055e64:	d028      	beq.n	24055eb8 <HAL_DMA_Abort+0xc0>
24055e66:	3318      	adds	r3, #24
24055e68:	429c      	cmp	r4, r3
24055e6a:	d025      	beq.n	24055eb8 <HAL_DMA_Abort+0xc0>
24055e6c:	3318      	adds	r3, #24
24055e6e:	429c      	cmp	r4, r3
24055e70:	d022      	beq.n	24055eb8 <HAL_DMA_Abort+0xc0>
24055e72:	3318      	adds	r3, #24
24055e74:	429c      	cmp	r4, r3
24055e76:	d01f      	beq.n	24055eb8 <HAL_DMA_Abort+0xc0>
24055e78:	3318      	adds	r3, #24
24055e7a:	429c      	cmp	r4, r3
24055e7c:	d01c      	beq.n	24055eb8 <HAL_DMA_Abort+0xc0>
24055e7e:	6823      	ldr	r3, [r4, #0]
24055e80:	f023 030e 	bic.w	r3, r3, #14
24055e84:	6023      	str	r3, [r4, #0]
24055e86:	4b91      	ldr	r3, [pc, #580]	; (240560cc <HAL_DMA_Abort+0x2d4>)
24055e88:	429c      	cmp	r4, r3
24055e8a:	d01f      	beq.n	24055ecc <HAL_DMA_Abort+0xd4>
24055e8c:	3314      	adds	r3, #20
24055e8e:	429c      	cmp	r4, r3
24055e90:	d01c      	beq.n	24055ecc <HAL_DMA_Abort+0xd4>
24055e92:	3314      	adds	r3, #20
24055e94:	429c      	cmp	r4, r3
24055e96:	d019      	beq.n	24055ecc <HAL_DMA_Abort+0xd4>
24055e98:	3314      	adds	r3, #20
24055e9a:	429c      	cmp	r4, r3
24055e9c:	d016      	beq.n	24055ecc <HAL_DMA_Abort+0xd4>
24055e9e:	3314      	adds	r3, #20
24055ea0:	429c      	cmp	r4, r3
24055ea2:	d013      	beq.n	24055ecc <HAL_DMA_Abort+0xd4>
24055ea4:	3314      	adds	r3, #20
24055ea6:	429c      	cmp	r4, r3
24055ea8:	d010      	beq.n	24055ecc <HAL_DMA_Abort+0xd4>
24055eaa:	3314      	adds	r3, #20
24055eac:	429c      	cmp	r4, r3
24055eae:	d00d      	beq.n	24055ecc <HAL_DMA_Abort+0xd4>
24055eb0:	3314      	adds	r3, #20
24055eb2:	429c      	cmp	r4, r3
24055eb4:	d112      	bne.n	24055edc <HAL_DMA_Abort+0xe4>
24055eb6:	e009      	b.n	24055ecc <HAL_DMA_Abort+0xd4>
24055eb8:	6823      	ldr	r3, [r4, #0]
24055eba:	42b4      	cmp	r4, r6
24055ebc:	f023 031e 	bic.w	r3, r3, #30
24055ec0:	6023      	str	r3, [r4, #0]
24055ec2:	6963      	ldr	r3, [r4, #20]
24055ec4:	f023 0380 	bic.w	r3, r3, #128	; 0x80
24055ec8:	6163      	str	r3, [r4, #20]
24055eca:	d176      	bne.n	24055fba <HAL_DMA_Abort+0x1c2>
24055ecc:	6e2a      	ldr	r2, [r5, #96]	; 0x60
24055ece:	42b4      	cmp	r4, r6
24055ed0:	6813      	ldr	r3, [r2, #0]
24055ed2:	f423 7380 	bic.w	r3, r3, #256	; 0x100
24055ed6:	6013      	str	r3, [r2, #0]
24055ed8:	f040 80ab 	bne.w	24056032 <HAL_DMA_Abort+0x23a>
24055edc:	6823      	ldr	r3, [r4, #0]
24055ede:	f023 0301 	bic.w	r3, r3, #1
24055ee2:	6023      	str	r3, [r4, #0]
24055ee4:	6823      	ldr	r3, [r4, #0]
24055ee6:	07db      	lsls	r3, r3, #31
24055ee8:	f100 80cd 	bmi.w	24056086 <HAL_DMA_Abort+0x28e>
24055eec:	682b      	ldr	r3, [r5, #0]
24055eee:	6dea      	ldr	r2, [r5, #92]	; 0x5c
24055ef0:	42b3      	cmp	r3, r6
24055ef2:	6da8      	ldr	r0, [r5, #88]	; 0x58
24055ef4:	f002 021f 	and.w	r2, r2, #31
24055ef8:	f000 80d1 	beq.w	2405609e <HAL_DMA_Abort+0x2a6>
24055efc:	4972      	ldr	r1, [pc, #456]	; (240560c8 <HAL_DMA_Abort+0x2d0>)
24055efe:	428b      	cmp	r3, r1
24055f00:	f000 80cd 	beq.w	2405609e <HAL_DMA_Abort+0x2a6>
24055f04:	3118      	adds	r1, #24
24055f06:	428b      	cmp	r3, r1
24055f08:	f000 80c9 	beq.w	2405609e <HAL_DMA_Abort+0x2a6>
24055f0c:	3118      	adds	r1, #24
24055f0e:	428b      	cmp	r3, r1
24055f10:	f000 80c5 	beq.w	2405609e <HAL_DMA_Abort+0x2a6>
24055f14:	3118      	adds	r1, #24
24055f16:	428b      	cmp	r3, r1
24055f18:	f000 80c1 	beq.w	2405609e <HAL_DMA_Abort+0x2a6>
24055f1c:	3118      	adds	r1, #24
24055f1e:	428b      	cmp	r3, r1
24055f20:	f000 80bd 	beq.w	2405609e <HAL_DMA_Abort+0x2a6>
24055f24:	3118      	adds	r1, #24
24055f26:	428b      	cmp	r3, r1
24055f28:	f000 80b9 	beq.w	2405609e <HAL_DMA_Abort+0x2a6>
24055f2c:	3118      	adds	r1, #24
24055f2e:	428b      	cmp	r3, r1
24055f30:	f000 80b5 	beq.w	2405609e <HAL_DMA_Abort+0x2a6>
24055f34:	f501 7156 	add.w	r1, r1, #856	; 0x358
24055f38:	428b      	cmp	r3, r1
24055f3a:	f000 80b0 	beq.w	2405609e <HAL_DMA_Abort+0x2a6>
24055f3e:	3118      	adds	r1, #24
24055f40:	428b      	cmp	r3, r1
24055f42:	f000 80ac 	beq.w	2405609e <HAL_DMA_Abort+0x2a6>
24055f46:	3118      	adds	r1, #24
24055f48:	428b      	cmp	r3, r1
24055f4a:	f000 80a8 	beq.w	2405609e <HAL_DMA_Abort+0x2a6>
24055f4e:	3118      	adds	r1, #24
24055f50:	428b      	cmp	r3, r1
24055f52:	f000 80a4 	beq.w	2405609e <HAL_DMA_Abort+0x2a6>
24055f56:	3118      	adds	r1, #24
24055f58:	428b      	cmp	r3, r1
24055f5a:	f000 80a0 	beq.w	2405609e <HAL_DMA_Abort+0x2a6>
24055f5e:	3118      	adds	r1, #24
24055f60:	428b      	cmp	r3, r1
24055f62:	f000 809c 	beq.w	2405609e <HAL_DMA_Abort+0x2a6>
24055f66:	3118      	adds	r1, #24
24055f68:	428b      	cmp	r3, r1
24055f6a:	f000 8098 	beq.w	2405609e <HAL_DMA_Abort+0x2a6>
24055f6e:	3118      	adds	r1, #24
24055f70:	428b      	cmp	r3, r1
24055f72:	f000 8094 	beq.w	2405609e <HAL_DMA_Abort+0x2a6>
24055f76:	2101      	movs	r1, #1
24055f78:	fa01 f202 	lsl.w	r2, r1, r2
24055f7c:	6042      	str	r2, [r0, #4]
24055f7e:	4a53      	ldr	r2, [pc, #332]	; (240560cc <HAL_DMA_Abort+0x2d4>)
24055f80:	4293      	cmp	r3, r2
24055f82:	f000 8092 	beq.w	240560aa <HAL_DMA_Abort+0x2b2>
24055f86:	3214      	adds	r2, #20
24055f88:	4293      	cmp	r3, r2
24055f8a:	f000 808e 	beq.w	240560aa <HAL_DMA_Abort+0x2b2>
24055f8e:	3214      	adds	r2, #20
24055f90:	4293      	cmp	r3, r2
24055f92:	f000 808a 	beq.w	240560aa <HAL_DMA_Abort+0x2b2>
24055f96:	3214      	adds	r2, #20
24055f98:	4293      	cmp	r3, r2
24055f9a:	f000 8086 	beq.w	240560aa <HAL_DMA_Abort+0x2b2>
24055f9e:	3214      	adds	r2, #20
24055fa0:	4293      	cmp	r3, r2
24055fa2:	f000 8082 	beq.w	240560aa <HAL_DMA_Abort+0x2b2>
24055fa6:	3214      	adds	r2, #20
24055fa8:	4293      	cmp	r3, r2
24055faa:	d07e      	beq.n	240560aa <HAL_DMA_Abort+0x2b2>
24055fac:	3214      	adds	r2, #20
24055fae:	4293      	cmp	r3, r2
24055fb0:	d07b      	beq.n	240560aa <HAL_DMA_Abort+0x2b2>
24055fb2:	3214      	adds	r2, #20
24055fb4:	4293      	cmp	r3, r2
24055fb6:	d17e      	bne.n	240560b6 <HAL_DMA_Abort+0x2be>
24055fb8:	e077      	b.n	240560aa <HAL_DMA_Abort+0x2b2>
24055fba:	4b43      	ldr	r3, [pc, #268]	; (240560c8 <HAL_DMA_Abort+0x2d0>)
24055fbc:	429c      	cmp	r4, r3
24055fbe:	d085      	beq.n	24055ecc <HAL_DMA_Abort+0xd4>
24055fc0:	3318      	adds	r3, #24
24055fc2:	429c      	cmp	r4, r3
24055fc4:	d082      	beq.n	24055ecc <HAL_DMA_Abort+0xd4>
24055fc6:	3318      	adds	r3, #24
24055fc8:	429c      	cmp	r4, r3
24055fca:	f43f af7f 	beq.w	24055ecc <HAL_DMA_Abort+0xd4>
24055fce:	3318      	adds	r3, #24
24055fd0:	429c      	cmp	r4, r3
24055fd2:	f43f af7b 	beq.w	24055ecc <HAL_DMA_Abort+0xd4>
24055fd6:	3318      	adds	r3, #24
24055fd8:	429c      	cmp	r4, r3
24055fda:	f43f af77 	beq.w	24055ecc <HAL_DMA_Abort+0xd4>
24055fde:	3318      	adds	r3, #24
24055fe0:	429c      	cmp	r4, r3
24055fe2:	f43f af73 	beq.w	24055ecc <HAL_DMA_Abort+0xd4>
24055fe6:	3318      	adds	r3, #24
24055fe8:	429c      	cmp	r4, r3
24055fea:	f43f af6f 	beq.w	24055ecc <HAL_DMA_Abort+0xd4>
24055fee:	f503 7356 	add.w	r3, r3, #856	; 0x358
24055ff2:	429c      	cmp	r4, r3
24055ff4:	f43f af6a 	beq.w	24055ecc <HAL_DMA_Abort+0xd4>
24055ff8:	3318      	adds	r3, #24
24055ffa:	429c      	cmp	r4, r3
24055ffc:	f43f af66 	beq.w	24055ecc <HAL_DMA_Abort+0xd4>
24056000:	3318      	adds	r3, #24
24056002:	429c      	cmp	r4, r3
24056004:	f43f af62 	beq.w	24055ecc <HAL_DMA_Abort+0xd4>
24056008:	3318      	adds	r3, #24
2405600a:	429c      	cmp	r4, r3
2405600c:	f43f af5e 	beq.w	24055ecc <HAL_DMA_Abort+0xd4>
24056010:	3318      	adds	r3, #24
24056012:	429c      	cmp	r4, r3
24056014:	f43f af5a 	beq.w	24055ecc <HAL_DMA_Abort+0xd4>
24056018:	3318      	adds	r3, #24
2405601a:	429c      	cmp	r4, r3
2405601c:	f43f af56 	beq.w	24055ecc <HAL_DMA_Abort+0xd4>
24056020:	3318      	adds	r3, #24
24056022:	429c      	cmp	r4, r3
24056024:	f43f af52 	beq.w	24055ecc <HAL_DMA_Abort+0xd4>
24056028:	3318      	adds	r3, #24
2405602a:	429c      	cmp	r4, r3
2405602c:	f43f af4e 	beq.w	24055ecc <HAL_DMA_Abort+0xd4>
24056030:	e729      	b.n	24055e86 <HAL_DMA_Abort+0x8e>
24056032:	4b25      	ldr	r3, [pc, #148]	; (240560c8 <HAL_DMA_Abort+0x2d0>)
24056034:	429c      	cmp	r4, r3
24056036:	f43f af51 	beq.w	24055edc <HAL_DMA_Abort+0xe4>
2405603a:	3318      	adds	r3, #24
2405603c:	429c      	cmp	r4, r3
2405603e:	f43f af4d 	beq.w	24055edc <HAL_DMA_Abort+0xe4>
24056042:	3318      	adds	r3, #24
24056044:	429c      	cmp	r4, r3
24056046:	f43f af49 	beq.w	24055edc <HAL_DMA_Abort+0xe4>
2405604a:	3318      	adds	r3, #24
2405604c:	429c      	cmp	r4, r3
2405604e:	f43f af45 	beq.w	24055edc <HAL_DMA_Abort+0xe4>
24056052:	3318      	adds	r3, #24
24056054:	429c      	cmp	r4, r3
24056056:	f43f af41 	beq.w	24055edc <HAL_DMA_Abort+0xe4>
2405605a:	3318      	adds	r3, #24
2405605c:	429c      	cmp	r4, r3
2405605e:	f43f af3d 	beq.w	24055edc <HAL_DMA_Abort+0xe4>
24056062:	3318      	adds	r3, #24
24056064:	429c      	cmp	r4, r3
24056066:	f43f af39 	beq.w	24055edc <HAL_DMA_Abort+0xe4>
2405606a:	f503 7356 	add.w	r3, r3, #856	; 0x358
2405606e:	429c      	cmp	r4, r3
24056070:	f43f af34 	beq.w	24055edc <HAL_DMA_Abort+0xe4>
24056074:	3318      	adds	r3, #24
24056076:	429c      	cmp	r4, r3
24056078:	f43f af30 	beq.w	24055edc <HAL_DMA_Abort+0xe4>
2405607c:	3318      	adds	r3, #24
2405607e:	429c      	cmp	r4, r3
24056080:	f43f af2c 	beq.w	24055edc <HAL_DMA_Abort+0xe4>
24056084:	e72a      	b.n	24055edc <HAL_DMA_Abort+0xe4>
24056086:	f7fe f96d 	bl	24054364 <HAL_GetTick>
2405608a:	1bc0      	subs	r0, r0, r7
2405608c:	2805      	cmp	r0, #5
2405608e:	f67f af29 	bls.w	24055ee4 <HAL_DMA_Abort+0xec>
24056092:	2320      	movs	r3, #32
24056094:	656b      	str	r3, [r5, #84]	; 0x54
24056096:	2303      	movs	r3, #3
24056098:	f885 3035 	strb.w	r3, [r5, #53]	; 0x35
2405609c:	e6b8      	b.n	24055e10 <HAL_DMA_Abort+0x18>
2405609e:	213f      	movs	r1, #63	; 0x3f
240560a0:	42b3      	cmp	r3, r6
240560a2:	fa01 f202 	lsl.w	r2, r1, r2
240560a6:	6082      	str	r2, [r0, #8]
240560a8:	d112      	bne.n	240560d0 <HAL_DMA_Abort+0x2d8>
240560aa:	e9d5 3219 	ldrd	r3, r2, [r5, #100]	; 0x64
240560ae:	605a      	str	r2, [r3, #4]
240560b0:	6eeb      	ldr	r3, [r5, #108]	; 0x6c
240560b2:	2b00      	cmp	r3, #0
240560b4:	d13b      	bne.n	2405612e <HAL_DMA_Abort+0x336>
240560b6:	2301      	movs	r3, #1
240560b8:	2000      	movs	r0, #0
240560ba:	f885 3035 	strb.w	r3, [r5, #53]	; 0x35
240560be:	f885 0034 	strb.w	r0, [r5, #52]	; 0x34
240560c2:	bdf8      	pop	{r3, r4, r5, r6, r7, pc}
240560c4:	40020010 	.word	0x40020010
240560c8:	40020028 	.word	0x40020028
240560cc:	58025408 	.word	0x58025408
240560d0:	4a1b      	ldr	r2, [pc, #108]	; (24056140 <HAL_DMA_Abort+0x348>)
240560d2:	4293      	cmp	r3, r2
240560d4:	d0e9      	beq.n	240560aa <HAL_DMA_Abort+0x2b2>
240560d6:	3218      	adds	r2, #24
240560d8:	4293      	cmp	r3, r2
240560da:	d0e6      	beq.n	240560aa <HAL_DMA_Abort+0x2b2>
240560dc:	3218      	adds	r2, #24
240560de:	4293      	cmp	r3, r2
240560e0:	d0e3      	beq.n	240560aa <HAL_DMA_Abort+0x2b2>
240560e2:	3218      	adds	r2, #24
240560e4:	4293      	cmp	r3, r2
240560e6:	d0e0      	beq.n	240560aa <HAL_DMA_Abort+0x2b2>
240560e8:	3218      	adds	r2, #24
240560ea:	4293      	cmp	r3, r2
240560ec:	d0dd      	beq.n	240560aa <HAL_DMA_Abort+0x2b2>
240560ee:	3218      	adds	r2, #24
240560f0:	4293      	cmp	r3, r2
240560f2:	d0da      	beq.n	240560aa <HAL_DMA_Abort+0x2b2>
240560f4:	3218      	adds	r2, #24
240560f6:	4293      	cmp	r3, r2
240560f8:	d0d7      	beq.n	240560aa <HAL_DMA_Abort+0x2b2>
240560fa:	f502 7256 	add.w	r2, r2, #856	; 0x358
240560fe:	4293      	cmp	r3, r2
24056100:	d0d3      	beq.n	240560aa <HAL_DMA_Abort+0x2b2>
24056102:	3218      	adds	r2, #24
24056104:	4293      	cmp	r3, r2
24056106:	d0d0      	beq.n	240560aa <HAL_DMA_Abort+0x2b2>
24056108:	3218      	adds	r2, #24
2405610a:	4293      	cmp	r3, r2
2405610c:	d0cd      	beq.n	240560aa <HAL_DMA_Abort+0x2b2>
2405610e:	3218      	adds	r2, #24
24056110:	4293      	cmp	r3, r2
24056112:	d0ca      	beq.n	240560aa <HAL_DMA_Abort+0x2b2>
24056114:	3218      	adds	r2, #24
24056116:	4293      	cmp	r3, r2
24056118:	d0c7      	beq.n	240560aa <HAL_DMA_Abort+0x2b2>
2405611a:	3218      	adds	r2, #24
2405611c:	4293      	cmp	r3, r2
2405611e:	d0c4      	beq.n	240560aa <HAL_DMA_Abort+0x2b2>
24056120:	3218      	adds	r2, #24
24056122:	4293      	cmp	r3, r2
24056124:	d0c1      	beq.n	240560aa <HAL_DMA_Abort+0x2b2>
24056126:	3218      	adds	r2, #24
24056128:	4293      	cmp	r3, r2
2405612a:	d0be      	beq.n	240560aa <HAL_DMA_Abort+0x2b2>
2405612c:	e727      	b.n	24055f7e <HAL_DMA_Abort+0x186>
2405612e:	681a      	ldr	r2, [r3, #0]
24056130:	f422 7280 	bic.w	r2, r2, #256	; 0x100
24056134:	601a      	str	r2, [r3, #0]
24056136:	e9d5 321c 	ldrd	r3, r2, [r5, #112]	; 0x70
2405613a:	605a      	str	r2, [r3, #4]
2405613c:	e7bb      	b.n	240560b6 <HAL_DMA_Abort+0x2be>
2405613e:	bf00      	nop
24056140:	40020028 	.word	0x40020028

24056144 <HAL_DMA_Abort_IT>:
24056144:	b510      	push	{r4, lr}
24056146:	b128      	cbz	r0, 24056154 <HAL_DMA_Abort_IT+0x10>
24056148:	f890 3035 	ldrb.w	r3, [r0, #53]	; 0x35
2405614c:	2b02      	cmp	r3, #2
2405614e:	d003      	beq.n	24056158 <HAL_DMA_Abort_IT+0x14>
24056150:	2380      	movs	r3, #128	; 0x80
24056152:	6543      	str	r3, [r0, #84]	; 0x54
24056154:	2001      	movs	r0, #1
24056156:	e05d      	b.n	24056214 <HAL_DMA_Abort_IT+0xd0>
24056158:	6803      	ldr	r3, [r0, #0]
2405615a:	4a3f      	ldr	r2, [pc, #252]	; (24056258 <HAL_DMA_Abort_IT+0x114>)
2405615c:	4293      	cmp	r3, r2
2405615e:	d051      	beq.n	24056204 <HAL_DMA_Abort_IT+0xc0>
24056160:	3218      	adds	r2, #24
24056162:	4293      	cmp	r3, r2
24056164:	d04e      	beq.n	24056204 <HAL_DMA_Abort_IT+0xc0>
24056166:	3218      	adds	r2, #24
24056168:	4293      	cmp	r3, r2
2405616a:	d04b      	beq.n	24056204 <HAL_DMA_Abort_IT+0xc0>
2405616c:	3218      	adds	r2, #24
2405616e:	4293      	cmp	r3, r2
24056170:	d048      	beq.n	24056204 <HAL_DMA_Abort_IT+0xc0>
24056172:	3218      	adds	r2, #24
24056174:	4293      	cmp	r3, r2
24056176:	d045      	beq.n	24056204 <HAL_DMA_Abort_IT+0xc0>
24056178:	3218      	adds	r2, #24
2405617a:	4293      	cmp	r3, r2
2405617c:	d042      	beq.n	24056204 <HAL_DMA_Abort_IT+0xc0>
2405617e:	3218      	adds	r2, #24
24056180:	4293      	cmp	r3, r2
24056182:	d03f      	beq.n	24056204 <HAL_DMA_Abort_IT+0xc0>
24056184:	3218      	adds	r2, #24
24056186:	4293      	cmp	r3, r2
24056188:	d03c      	beq.n	24056204 <HAL_DMA_Abort_IT+0xc0>
2405618a:	f502 7256 	add.w	r2, r2, #856	; 0x358
2405618e:	4293      	cmp	r3, r2
24056190:	d038      	beq.n	24056204 <HAL_DMA_Abort_IT+0xc0>
24056192:	3218      	adds	r2, #24
24056194:	4293      	cmp	r3, r2
24056196:	d035      	beq.n	24056204 <HAL_DMA_Abort_IT+0xc0>
24056198:	3218      	adds	r2, #24
2405619a:	4293      	cmp	r3, r2
2405619c:	d032      	beq.n	24056204 <HAL_DMA_Abort_IT+0xc0>
2405619e:	3218      	adds	r2, #24
240561a0:	4293      	cmp	r3, r2
240561a2:	d02f      	beq.n	24056204 <HAL_DMA_Abort_IT+0xc0>
240561a4:	3218      	adds	r2, #24
240561a6:	4293      	cmp	r3, r2
240561a8:	d02c      	beq.n	24056204 <HAL_DMA_Abort_IT+0xc0>
240561aa:	3218      	adds	r2, #24
240561ac:	4293      	cmp	r3, r2
240561ae:	d029      	beq.n	24056204 <HAL_DMA_Abort_IT+0xc0>
240561b0:	3218      	adds	r2, #24
240561b2:	4293      	cmp	r3, r2
240561b4:	d026      	beq.n	24056204 <HAL_DMA_Abort_IT+0xc0>
240561b6:	3218      	adds	r2, #24
240561b8:	4293      	cmp	r3, r2
240561ba:	d023      	beq.n	24056204 <HAL_DMA_Abort_IT+0xc0>
240561bc:	681a      	ldr	r2, [r3, #0]
240561be:	f022 020e 	bic.w	r2, r2, #14
240561c2:	601a      	str	r2, [r3, #0]
240561c4:	681a      	ldr	r2, [r3, #0]
240561c6:	f022 0201 	bic.w	r2, r2, #1
240561ca:	601a      	str	r2, [r3, #0]
240561cc:	4a23      	ldr	r2, [pc, #140]	; (2405625c <HAL_DMA_Abort_IT+0x118>)
240561ce:	4293      	cmp	r3, r2
240561d0:	d121      	bne.n	24056216 <HAL_DMA_Abort_IT+0xd2>
240561d2:	6e02      	ldr	r2, [r0, #96]	; 0x60
240561d4:	6813      	ldr	r3, [r2, #0]
240561d6:	f423 7380 	bic.w	r3, r3, #256	; 0x100
240561da:	6013      	str	r3, [r2, #0]
240561dc:	e9d0 1316 	ldrd	r1, r3, [r0, #88]	; 0x58
240561e0:	f003 021f 	and.w	r2, r3, #31
240561e4:	2301      	movs	r3, #1
240561e6:	4093      	lsls	r3, r2
240561e8:	604b      	str	r3, [r1, #4]
240561ea:	e9d0 3219 	ldrd	r3, r2, [r0, #100]	; 0x64
240561ee:	605a      	str	r2, [r3, #4]
240561f0:	6ec3      	ldr	r3, [r0, #108]	; 0x6c
240561f2:	b32b      	cbz	r3, 24056240 <HAL_DMA_Abort_IT+0xfc>
240561f4:	681a      	ldr	r2, [r3, #0]
240561f6:	f422 7280 	bic.w	r2, r2, #256	; 0x100
240561fa:	601a      	str	r2, [r3, #0]
240561fc:	e9d0 321c 	ldrd	r3, r2, [r0, #112]	; 0x70
24056200:	605a      	str	r2, [r3, #4]
24056202:	e01d      	b.n	24056240 <HAL_DMA_Abort_IT+0xfc>
24056204:	2204      	movs	r2, #4
24056206:	f880 2035 	strb.w	r2, [r0, #53]	; 0x35
2405620a:	681a      	ldr	r2, [r3, #0]
2405620c:	f022 0201 	bic.w	r2, r2, #1
24056210:	601a      	str	r2, [r3, #0]
24056212:	2000      	movs	r0, #0
24056214:	bd10      	pop	{r4, pc}
24056216:	4a12      	ldr	r2, [pc, #72]	; (24056260 <HAL_DMA_Abort_IT+0x11c>)
24056218:	4293      	cmp	r3, r2
2405621a:	d0da      	beq.n	240561d2 <HAL_DMA_Abort_IT+0x8e>
2405621c:	3214      	adds	r2, #20
2405621e:	4293      	cmp	r3, r2
24056220:	d0d7      	beq.n	240561d2 <HAL_DMA_Abort_IT+0x8e>
24056222:	3214      	adds	r2, #20
24056224:	4293      	cmp	r3, r2
24056226:	d0d4      	beq.n	240561d2 <HAL_DMA_Abort_IT+0x8e>
24056228:	3214      	adds	r2, #20
2405622a:	4293      	cmp	r3, r2
2405622c:	d0d1      	beq.n	240561d2 <HAL_DMA_Abort_IT+0x8e>
2405622e:	3214      	adds	r2, #20
24056230:	4293      	cmp	r3, r2
24056232:	d0ce      	beq.n	240561d2 <HAL_DMA_Abort_IT+0x8e>
24056234:	3214      	adds	r2, #20
24056236:	4293      	cmp	r3, r2
24056238:	d0cb      	beq.n	240561d2 <HAL_DMA_Abort_IT+0x8e>
2405623a:	3214      	adds	r2, #20
2405623c:	4293      	cmp	r3, r2
2405623e:	d0c8      	beq.n	240561d2 <HAL_DMA_Abort_IT+0x8e>
24056240:	2301      	movs	r3, #1
24056242:	2400      	movs	r4, #0
24056244:	f880 3035 	strb.w	r3, [r0, #53]	; 0x35
24056248:	6d03      	ldr	r3, [r0, #80]	; 0x50
2405624a:	f880 4034 	strb.w	r4, [r0, #52]	; 0x34
2405624e:	b10b      	cbz	r3, 24056254 <HAL_DMA_Abort_IT+0x110>
24056250:	4798      	blx	r3
24056252:	e7de      	b.n	24056212 <HAL_DMA_Abort_IT+0xce>
24056254:	4618      	mov	r0, r3
24056256:	e7dd      	b.n	24056214 <HAL_DMA_Abort_IT+0xd0>
24056258:	40020010 	.word	0x40020010
2405625c:	58025408 	.word	0x58025408
24056260:	5802541c 	.word	0x5802541c

24056264 <HAL_DMA_IRQHandler>:
24056264:	2300      	movs	r3, #0
24056266:	e92d 41f3 	stmdb	sp!, {r0, r1, r4, r5, r6, r7, r8, lr}
2405626a:	9301      	str	r3, [sp, #4]
2405626c:	4604      	mov	r4, r0
2405626e:	4b84      	ldr	r3, [pc, #528]	; (24056480 <HAL_DMA_IRQHandler+0x21c>)
24056270:	4f84      	ldr	r7, [pc, #528]	; (24056484 <HAL_DMA_IRQHandler+0x220>)
24056272:	681e      	ldr	r6, [r3, #0]
24056274:	6803      	ldr	r3, [r0, #0]
24056276:	6d85      	ldr	r5, [r0, #88]	; 0x58
24056278:	42bb      	cmp	r3, r7
2405627a:	f8d5 8000 	ldr.w	r8, [r5]
2405627e:	f8d5 c000 	ldr.w	ip, [r5]
24056282:	d047      	beq.n	24056314 <HAL_DMA_IRQHandler+0xb0>
24056284:	4a80      	ldr	r2, [pc, #512]	; (24056488 <HAL_DMA_IRQHandler+0x224>)
24056286:	4293      	cmp	r3, r2
24056288:	d044      	beq.n	24056314 <HAL_DMA_IRQHandler+0xb0>
2405628a:	3218      	adds	r2, #24
2405628c:	4293      	cmp	r3, r2
2405628e:	d041      	beq.n	24056314 <HAL_DMA_IRQHandler+0xb0>
24056290:	3218      	adds	r2, #24
24056292:	4293      	cmp	r3, r2
24056294:	d03e      	beq.n	24056314 <HAL_DMA_IRQHandler+0xb0>
24056296:	3218      	adds	r2, #24
24056298:	4293      	cmp	r3, r2
2405629a:	d03b      	beq.n	24056314 <HAL_DMA_IRQHandler+0xb0>
2405629c:	3218      	adds	r2, #24
2405629e:	4293      	cmp	r3, r2
240562a0:	d038      	beq.n	24056314 <HAL_DMA_IRQHandler+0xb0>
240562a2:	3218      	adds	r2, #24
240562a4:	4293      	cmp	r3, r2
240562a6:	d035      	beq.n	24056314 <HAL_DMA_IRQHandler+0xb0>
240562a8:	3218      	adds	r2, #24
240562aa:	4293      	cmp	r3, r2
240562ac:	d032      	beq.n	24056314 <HAL_DMA_IRQHandler+0xb0>
240562ae:	f502 7256 	add.w	r2, r2, #856	; 0x358
240562b2:	4293      	cmp	r3, r2
240562b4:	d02e      	beq.n	24056314 <HAL_DMA_IRQHandler+0xb0>
240562b6:	3218      	adds	r2, #24
240562b8:	4293      	cmp	r3, r2
240562ba:	d02b      	beq.n	24056314 <HAL_DMA_IRQHandler+0xb0>
240562bc:	3218      	adds	r2, #24
240562be:	4293      	cmp	r3, r2
240562c0:	d028      	beq.n	24056314 <HAL_DMA_IRQHandler+0xb0>
240562c2:	3218      	adds	r2, #24
240562c4:	4293      	cmp	r3, r2
240562c6:	d025      	beq.n	24056314 <HAL_DMA_IRQHandler+0xb0>
240562c8:	3218      	adds	r2, #24
240562ca:	4293      	cmp	r3, r2
240562cc:	d022      	beq.n	24056314 <HAL_DMA_IRQHandler+0xb0>
240562ce:	3218      	adds	r2, #24
240562d0:	4293      	cmp	r3, r2
240562d2:	d01f      	beq.n	24056314 <HAL_DMA_IRQHandler+0xb0>
240562d4:	3218      	adds	r2, #24
240562d6:	4293      	cmp	r3, r2
240562d8:	d01c      	beq.n	24056314 <HAL_DMA_IRQHandler+0xb0>
240562da:	3218      	adds	r2, #24
240562dc:	4293      	cmp	r3, r2
240562de:	d019      	beq.n	24056314 <HAL_DMA_IRQHandler+0xb0>
240562e0:	4a6a      	ldr	r2, [pc, #424]	; (2405648c <HAL_DMA_IRQHandler+0x228>)
240562e2:	4293      	cmp	r3, r2
240562e4:	f040 8135 	bne.w	24056552 <HAL_DMA_IRQHandler+0x2ee>
240562e8:	6de1      	ldr	r1, [r4, #92]	; 0x5c
240562ea:	2004      	movs	r0, #4
240562ec:	681a      	ldr	r2, [r3, #0]
240562ee:	f001 011f 	and.w	r1, r1, #31
240562f2:	4088      	lsls	r0, r1
240562f4:	ea10 0f0c 	tst.w	r0, ip
240562f8:	f000 8172 	beq.w	240565e0 <HAL_DMA_IRQHandler+0x37c>
240562fc:	0756      	lsls	r6, r2, #29
240562fe:	f140 816f 	bpl.w	240565e0 <HAL_DMA_IRQHandler+0x37c>
24056302:	0411      	lsls	r1, r2, #16
24056304:	6068      	str	r0, [r5, #4]
24056306:	f140 8163 	bpl.w	240565d0 <HAL_DMA_IRQHandler+0x36c>
2405630a:	03d3      	lsls	r3, r2, #15
2405630c:	f100 8166 	bmi.w	240565dc <HAL_DMA_IRQHandler+0x378>
24056310:	6ca3      	ldr	r3, [r4, #72]	; 0x48
24056312:	e0a0      	b.n	24056456 <HAL_DMA_IRQHandler+0x1f2>
24056314:	6de2      	ldr	r2, [r4, #92]	; 0x5c
24056316:	2108      	movs	r1, #8
24056318:	f002 021f 	and.w	r2, r2, #31
2405631c:	4091      	lsls	r1, r2
2405631e:	ea11 0f08 	tst.w	r1, r8
24056322:	d00b      	beq.n	2405633c <HAL_DMA_IRQHandler+0xd8>
24056324:	6818      	ldr	r0, [r3, #0]
24056326:	0740      	lsls	r0, r0, #29
24056328:	d508      	bpl.n	2405633c <HAL_DMA_IRQHandler+0xd8>
2405632a:	6818      	ldr	r0, [r3, #0]
2405632c:	f020 0004 	bic.w	r0, r0, #4
24056330:	6018      	str	r0, [r3, #0]
24056332:	60a9      	str	r1, [r5, #8]
24056334:	6d61      	ldr	r1, [r4, #84]	; 0x54
24056336:	f041 0101 	orr.w	r1, r1, #1
2405633a:	6561      	str	r1, [r4, #84]	; 0x54
2405633c:	fa28 f102 	lsr.w	r1, r8, r2
24056340:	07c8      	lsls	r0, r1, #31
24056342:	d509      	bpl.n	24056358 <HAL_DMA_IRQHandler+0xf4>
24056344:	6959      	ldr	r1, [r3, #20]
24056346:	0609      	lsls	r1, r1, #24
24056348:	d506      	bpl.n	24056358 <HAL_DMA_IRQHandler+0xf4>
2405634a:	2101      	movs	r1, #1
2405634c:	4091      	lsls	r1, r2
2405634e:	60a9      	str	r1, [r5, #8]
24056350:	6d61      	ldr	r1, [r4, #84]	; 0x54
24056352:	f041 0102 	orr.w	r1, r1, #2
24056356:	6561      	str	r1, [r4, #84]	; 0x54
24056358:	2104      	movs	r1, #4
2405635a:	4091      	lsls	r1, r2
2405635c:	ea11 0f08 	tst.w	r1, r8
24056360:	d007      	beq.n	24056372 <HAL_DMA_IRQHandler+0x10e>
24056362:	6818      	ldr	r0, [r3, #0]
24056364:	0780      	lsls	r0, r0, #30
24056366:	d504      	bpl.n	24056372 <HAL_DMA_IRQHandler+0x10e>
24056368:	60a9      	str	r1, [r5, #8]
2405636a:	6d61      	ldr	r1, [r4, #84]	; 0x54
2405636c:	f041 0104 	orr.w	r1, r1, #4
24056370:	6561      	str	r1, [r4, #84]	; 0x54
24056372:	2110      	movs	r1, #16
24056374:	fa01 f202 	lsl.w	r2, r1, r2
24056378:	ea12 0f08 	tst.w	r2, r8
2405637c:	d00f      	beq.n	2405639e <HAL_DMA_IRQHandler+0x13a>
2405637e:	6819      	ldr	r1, [r3, #0]
24056380:	0709      	lsls	r1, r1, #28
24056382:	d50c      	bpl.n	2405639e <HAL_DMA_IRQHandler+0x13a>
24056384:	60aa      	str	r2, [r5, #8]
24056386:	681a      	ldr	r2, [r3, #0]
24056388:	0350      	lsls	r0, r2, #13
2405638a:	d56c      	bpl.n	24056466 <HAL_DMA_IRQHandler+0x202>
2405638c:	681b      	ldr	r3, [r3, #0]
2405638e:	0319      	lsls	r1, r3, #12
24056390:	d401      	bmi.n	24056396 <HAL_DMA_IRQHandler+0x132>
24056392:	6c23      	ldr	r3, [r4, #64]	; 0x40
24056394:	e000      	b.n	24056398 <HAL_DMA_IRQHandler+0x134>
24056396:	6ca3      	ldr	r3, [r4, #72]	; 0x48
24056398:	b10b      	cbz	r3, 2405639e <HAL_DMA_IRQHandler+0x13a>
2405639a:	4620      	mov	r0, r4
2405639c:	4798      	blx	r3
2405639e:	6de2      	ldr	r2, [r4, #92]	; 0x5c
240563a0:	2120      	movs	r1, #32
240563a2:	f002 021f 	and.w	r2, r2, #31
240563a6:	4091      	lsls	r1, r2
240563a8:	ea11 0f08 	tst.w	r1, r8
240563ac:	d07a      	beq.n	240564a4 <HAL_DMA_IRQHandler+0x240>
240563ae:	6823      	ldr	r3, [r4, #0]
240563b0:	42bb      	cmp	r3, r7
240563b2:	d02d      	beq.n	24056410 <HAL_DMA_IRQHandler+0x1ac>
240563b4:	4834      	ldr	r0, [pc, #208]	; (24056488 <HAL_DMA_IRQHandler+0x224>)
240563b6:	4283      	cmp	r3, r0
240563b8:	d02a      	beq.n	24056410 <HAL_DMA_IRQHandler+0x1ac>
240563ba:	3018      	adds	r0, #24
240563bc:	4283      	cmp	r3, r0
240563be:	d027      	beq.n	24056410 <HAL_DMA_IRQHandler+0x1ac>
240563c0:	3018      	adds	r0, #24
240563c2:	4283      	cmp	r3, r0
240563c4:	d024      	beq.n	24056410 <HAL_DMA_IRQHandler+0x1ac>
240563c6:	3018      	adds	r0, #24
240563c8:	4283      	cmp	r3, r0
240563ca:	d021      	beq.n	24056410 <HAL_DMA_IRQHandler+0x1ac>
240563cc:	3018      	adds	r0, #24
240563ce:	4283      	cmp	r3, r0
240563d0:	d01e      	beq.n	24056410 <HAL_DMA_IRQHandler+0x1ac>
240563d2:	3018      	adds	r0, #24
240563d4:	4283      	cmp	r3, r0
240563d6:	d01b      	beq.n	24056410 <HAL_DMA_IRQHandler+0x1ac>
240563d8:	3018      	adds	r0, #24
240563da:	4283      	cmp	r3, r0
240563dc:	d018      	beq.n	24056410 <HAL_DMA_IRQHandler+0x1ac>
240563de:	f500 7056 	add.w	r0, r0, #856	; 0x358
240563e2:	4283      	cmp	r3, r0
240563e4:	d014      	beq.n	24056410 <HAL_DMA_IRQHandler+0x1ac>
240563e6:	3018      	adds	r0, #24
240563e8:	4283      	cmp	r3, r0
240563ea:	d011      	beq.n	24056410 <HAL_DMA_IRQHandler+0x1ac>
240563ec:	3018      	adds	r0, #24
240563ee:	4283      	cmp	r3, r0
240563f0:	d00e      	beq.n	24056410 <HAL_DMA_IRQHandler+0x1ac>
240563f2:	3018      	adds	r0, #24
240563f4:	4283      	cmp	r3, r0
240563f6:	d00b      	beq.n	24056410 <HAL_DMA_IRQHandler+0x1ac>
240563f8:	3018      	adds	r0, #24
240563fa:	4283      	cmp	r3, r0
240563fc:	d008      	beq.n	24056410 <HAL_DMA_IRQHandler+0x1ac>
240563fe:	3018      	adds	r0, #24
24056400:	4283      	cmp	r3, r0
24056402:	d005      	beq.n	24056410 <HAL_DMA_IRQHandler+0x1ac>
24056404:	3018      	adds	r0, #24
24056406:	4283      	cmp	r3, r0
24056408:	d002      	beq.n	24056410 <HAL_DMA_IRQHandler+0x1ac>
2405640a:	3018      	adds	r0, #24
2405640c:	4283      	cmp	r3, r0
2405640e:	d132      	bne.n	24056476 <HAL_DMA_IRQHandler+0x212>
24056410:	6818      	ldr	r0, [r3, #0]
24056412:	f010 0f10 	tst.w	r0, #16
24056416:	d045      	beq.n	240564a4 <HAL_DMA_IRQHandler+0x240>
24056418:	60a9      	str	r1, [r5, #8]
2405641a:	f894 1035 	ldrb.w	r1, [r4, #53]	; 0x35
2405641e:	2904      	cmp	r1, #4
24056420:	d136      	bne.n	24056490 <HAL_DMA_IRQHandler+0x22c>
24056422:	6819      	ldr	r1, [r3, #0]
24056424:	f021 0116 	bic.w	r1, r1, #22
24056428:	6019      	str	r1, [r3, #0]
2405642a:	6959      	ldr	r1, [r3, #20]
2405642c:	f021 0180 	bic.w	r1, r1, #128	; 0x80
24056430:	6159      	str	r1, [r3, #20]
24056432:	6c21      	ldr	r1, [r4, #64]	; 0x40
24056434:	b909      	cbnz	r1, 2405643a <HAL_DMA_IRQHandler+0x1d6>
24056436:	6ca1      	ldr	r1, [r4, #72]	; 0x48
24056438:	b119      	cbz	r1, 24056442 <HAL_DMA_IRQHandler+0x1de>
2405643a:	6819      	ldr	r1, [r3, #0]
2405643c:	f021 0108 	bic.w	r1, r1, #8
24056440:	6019      	str	r1, [r3, #0]
24056442:	233f      	movs	r3, #63	; 0x3f
24056444:	4093      	lsls	r3, r2
24056446:	60ab      	str	r3, [r5, #8]
24056448:	2301      	movs	r3, #1
2405644a:	f884 3035 	strb.w	r3, [r4, #53]	; 0x35
2405644e:	2300      	movs	r3, #0
24056450:	f884 3034 	strb.w	r3, [r4, #52]	; 0x34
24056454:	6d23      	ldr	r3, [r4, #80]	; 0x50
24056456:	2b00      	cmp	r3, #0
24056458:	f000 80b7 	beq.w	240565ca <HAL_DMA_IRQHandler+0x366>
2405645c:	4620      	mov	r0, r4
2405645e:	b002      	add	sp, #8
24056460:	e8bd 41f0 	ldmia.w	sp!, {r4, r5, r6, r7, r8, lr}
24056464:	4718      	bx	r3
24056466:	681a      	ldr	r2, [r3, #0]
24056468:	05d2      	lsls	r2, r2, #23
2405646a:	d492      	bmi.n	24056392 <HAL_DMA_IRQHandler+0x12e>
2405646c:	681a      	ldr	r2, [r3, #0]
2405646e:	f022 0208 	bic.w	r2, r2, #8
24056472:	601a      	str	r2, [r3, #0]
24056474:	e78d      	b.n	24056392 <HAL_DMA_IRQHandler+0x12e>
24056476:	6818      	ldr	r0, [r3, #0]
24056478:	f010 0f02 	tst.w	r0, #2
2405647c:	e7cb      	b.n	24056416 <HAL_DMA_IRQHandler+0x1b2>
2405647e:	bf00      	nop
24056480:	200000ac 	.word	0x200000ac
24056484:	40020010 	.word	0x40020010
24056488:	40020028 	.word	0x40020028
2405648c:	48022c08 	.word	0x48022c08
24056490:	681a      	ldr	r2, [r3, #0]
24056492:	0355      	lsls	r5, r2, #13
24056494:	d54e      	bpl.n	24056534 <HAL_DMA_IRQHandler+0x2d0>
24056496:	681b      	ldr	r3, [r3, #0]
24056498:	0318      	lsls	r0, r3, #12
2405649a:	d458      	bmi.n	2405654e <HAL_DMA_IRQHandler+0x2ea>
2405649c:	6c63      	ldr	r3, [r4, #68]	; 0x44
2405649e:	b10b      	cbz	r3, 240564a4 <HAL_DMA_IRQHandler+0x240>
240564a0:	4620      	mov	r0, r4
240564a2:	4798      	blx	r3
240564a4:	6d63      	ldr	r3, [r4, #84]	; 0x54
240564a6:	2b00      	cmp	r3, #0
240564a8:	f000 808f 	beq.w	240565ca <HAL_DMA_IRQHandler+0x366>
240564ac:	6d63      	ldr	r3, [r4, #84]	; 0x54
240564ae:	07d9      	lsls	r1, r3, #31
240564b0:	d53e      	bpl.n	24056530 <HAL_DMA_IRQHandler+0x2cc>
240564b2:	2304      	movs	r3, #4
240564b4:	f884 3035 	strb.w	r3, [r4, #53]	; 0x35
240564b8:	6823      	ldr	r3, [r4, #0]
240564ba:	42bb      	cmp	r3, r7
240564bc:	d01e      	beq.n	240564fc <HAL_DMA_IRQHandler+0x298>
240564be:	4a5f      	ldr	r2, [pc, #380]	; (2405663c <HAL_DMA_IRQHandler+0x3d8>)
240564c0:	4293      	cmp	r3, r2
240564c2:	d01b      	beq.n	240564fc <HAL_DMA_IRQHandler+0x298>
240564c4:	3218      	adds	r2, #24
240564c6:	4293      	cmp	r3, r2
240564c8:	d018      	beq.n	240564fc <HAL_DMA_IRQHandler+0x298>
240564ca:	3218      	adds	r2, #24
240564cc:	4293      	cmp	r3, r2
240564ce:	d015      	beq.n	240564fc <HAL_DMA_IRQHandler+0x298>
240564d0:	3218      	adds	r2, #24
240564d2:	4293      	cmp	r3, r2
240564d4:	d012      	beq.n	240564fc <HAL_DMA_IRQHandler+0x298>
240564d6:	3218      	adds	r2, #24
240564d8:	4293      	cmp	r3, r2
240564da:	d00f      	beq.n	240564fc <HAL_DMA_IRQHandler+0x298>
240564dc:	3218      	adds	r2, #24
240564de:	4293      	cmp	r3, r2
240564e0:	d00c      	beq.n	240564fc <HAL_DMA_IRQHandler+0x298>
240564e2:	3218      	adds	r2, #24
240564e4:	4293      	cmp	r3, r2
240564e6:	d009      	beq.n	240564fc <HAL_DMA_IRQHandler+0x298>
240564e8:	f502 7256 	add.w	r2, r2, #856	; 0x358
240564ec:	4293      	cmp	r3, r2
240564ee:	d005      	beq.n	240564fc <HAL_DMA_IRQHandler+0x298>
240564f0:	3218      	adds	r2, #24
240564f2:	4293      	cmp	r3, r2
240564f4:	d002      	beq.n	240564fc <HAL_DMA_IRQHandler+0x298>
240564f6:	3218      	adds	r2, #24
240564f8:	4293      	cmp	r3, r2
240564fa:	d0ff      	beq.n	240564fc <HAL_DMA_IRQHandler+0x298>
240564fc:	681a      	ldr	r2, [r3, #0]
240564fe:	f022 0201 	bic.w	r2, r2, #1
24056502:	601a      	str	r2, [r3, #0]
24056504:	f44f 5216 	mov.w	r2, #9600	; 0x2580
24056508:	fbb6 f6f2 	udiv	r6, r6, r2
2405650c:	9a01      	ldr	r2, [sp, #4]
2405650e:	3201      	adds	r2, #1
24056510:	42b2      	cmp	r2, r6
24056512:	9201      	str	r2, [sp, #4]
24056514:	d802      	bhi.n	2405651c <HAL_DMA_IRQHandler+0x2b8>
24056516:	681a      	ldr	r2, [r3, #0]
24056518:	07d2      	lsls	r2, r2, #31
2405651a:	d4f7      	bmi.n	2405650c <HAL_DMA_IRQHandler+0x2a8>
2405651c:	681b      	ldr	r3, [r3, #0]
2405651e:	07df      	lsls	r7, r3, #31
24056520:	bf4c      	ite	mi
24056522:	2303      	movmi	r3, #3
24056524:	2301      	movpl	r3, #1
24056526:	f884 3035 	strb.w	r3, [r4, #53]	; 0x35
2405652a:	2300      	movs	r3, #0
2405652c:	f884 3034 	strb.w	r3, [r4, #52]	; 0x34
24056530:	6ce3      	ldr	r3, [r4, #76]	; 0x4c
24056532:	e790      	b.n	24056456 <HAL_DMA_IRQHandler+0x1f2>
24056534:	681a      	ldr	r2, [r3, #0]
24056536:	f412 7280 	ands.w	r2, r2, #256	; 0x100
2405653a:	d108      	bne.n	2405654e <HAL_DMA_IRQHandler+0x2ea>
2405653c:	6819      	ldr	r1, [r3, #0]
2405653e:	f021 0110 	bic.w	r1, r1, #16
24056542:	6019      	str	r1, [r3, #0]
24056544:	2301      	movs	r3, #1
24056546:	f884 2034 	strb.w	r2, [r4, #52]	; 0x34
2405654a:	f884 3035 	strb.w	r3, [r4, #53]	; 0x35
2405654e:	6be3      	ldr	r3, [r4, #60]	; 0x3c
24056550:	e7a5      	b.n	2405649e <HAL_DMA_IRQHandler+0x23a>
24056552:	4a3b      	ldr	r2, [pc, #236]	; (24056640 <HAL_DMA_IRQHandler+0x3dc>)
24056554:	4293      	cmp	r3, r2
24056556:	f43f aec7 	beq.w	240562e8 <HAL_DMA_IRQHandler+0x84>
2405655a:	3214      	adds	r2, #20
2405655c:	4293      	cmp	r3, r2
2405655e:	f43f aec3 	beq.w	240562e8 <HAL_DMA_IRQHandler+0x84>
24056562:	3214      	adds	r2, #20
24056564:	4293      	cmp	r3, r2
24056566:	f43f aebf 	beq.w	240562e8 <HAL_DMA_IRQHandler+0x84>
2405656a:	3214      	adds	r2, #20
2405656c:	4293      	cmp	r3, r2
2405656e:	f43f aebb 	beq.w	240562e8 <HAL_DMA_IRQHandler+0x84>
24056572:	3214      	adds	r2, #20
24056574:	4293      	cmp	r3, r2
24056576:	f43f aeb7 	beq.w	240562e8 <HAL_DMA_IRQHandler+0x84>
2405657a:	3214      	adds	r2, #20
2405657c:	4293      	cmp	r3, r2
2405657e:	f43f aeb3 	beq.w	240562e8 <HAL_DMA_IRQHandler+0x84>
24056582:	3214      	adds	r2, #20
24056584:	4293      	cmp	r3, r2
24056586:	f43f aeaf 	beq.w	240562e8 <HAL_DMA_IRQHandler+0x84>
2405658a:	4a2e      	ldr	r2, [pc, #184]	; (24056644 <HAL_DMA_IRQHandler+0x3e0>)
2405658c:	4293      	cmp	r3, r2
2405658e:	f43f aeab 	beq.w	240562e8 <HAL_DMA_IRQHandler+0x84>
24056592:	3214      	adds	r2, #20
24056594:	4293      	cmp	r3, r2
24056596:	f43f aea7 	beq.w	240562e8 <HAL_DMA_IRQHandler+0x84>
2405659a:	3214      	adds	r2, #20
2405659c:	4293      	cmp	r3, r2
2405659e:	f43f aea3 	beq.w	240562e8 <HAL_DMA_IRQHandler+0x84>
240565a2:	3214      	adds	r2, #20
240565a4:	4293      	cmp	r3, r2
240565a6:	f43f ae9f 	beq.w	240562e8 <HAL_DMA_IRQHandler+0x84>
240565aa:	3214      	adds	r2, #20
240565ac:	4293      	cmp	r3, r2
240565ae:	f43f ae9b 	beq.w	240562e8 <HAL_DMA_IRQHandler+0x84>
240565b2:	3214      	adds	r2, #20
240565b4:	4293      	cmp	r3, r2
240565b6:	f43f ae97 	beq.w	240562e8 <HAL_DMA_IRQHandler+0x84>
240565ba:	3214      	adds	r2, #20
240565bc:	4293      	cmp	r3, r2
240565be:	f43f ae93 	beq.w	240562e8 <HAL_DMA_IRQHandler+0x84>
240565c2:	3214      	adds	r2, #20
240565c4:	4293      	cmp	r3, r2
240565c6:	f43f ae8f 	beq.w	240562e8 <HAL_DMA_IRQHandler+0x84>
240565ca:	b002      	add	sp, #8
240565cc:	e8bd 81f0 	ldmia.w	sp!, {r4, r5, r6, r7, r8, pc}
240565d0:	0697      	lsls	r7, r2, #26
240565d2:	d403      	bmi.n	240565dc <HAL_DMA_IRQHandler+0x378>
240565d4:	681a      	ldr	r2, [r3, #0]
240565d6:	f022 0204 	bic.w	r2, r2, #4
240565da:	601a      	str	r2, [r3, #0]
240565dc:	6c23      	ldr	r3, [r4, #64]	; 0x40
240565de:	e73a      	b.n	24056456 <HAL_DMA_IRQHandler+0x1f2>
240565e0:	2002      	movs	r0, #2
240565e2:	4088      	lsls	r0, r1
240565e4:	ea10 0f0c 	tst.w	r0, ip
240565e8:	d016      	beq.n	24056618 <HAL_DMA_IRQHandler+0x3b4>
240565ea:	0796      	lsls	r6, r2, #30
240565ec:	d514      	bpl.n	24056618 <HAL_DMA_IRQHandler+0x3b4>
240565ee:	6068      	str	r0, [r5, #4]
240565f0:	0410      	lsls	r0, r2, #16
240565f2:	d503      	bpl.n	240565fc <HAL_DMA_IRQHandler+0x398>
240565f4:	03d1      	lsls	r1, r2, #15
240565f6:	d40d      	bmi.n	24056614 <HAL_DMA_IRQHandler+0x3b0>
240565f8:	6c63      	ldr	r3, [r4, #68]	; 0x44
240565fa:	e72c      	b.n	24056456 <HAL_DMA_IRQHandler+0x1f2>
240565fc:	f012 0220 	ands.w	r2, r2, #32
24056600:	d108      	bne.n	24056614 <HAL_DMA_IRQHandler+0x3b0>
24056602:	6819      	ldr	r1, [r3, #0]
24056604:	f021 010a 	bic.w	r1, r1, #10
24056608:	6019      	str	r1, [r3, #0]
2405660a:	2301      	movs	r3, #1
2405660c:	f884 2034 	strb.w	r2, [r4, #52]	; 0x34
24056610:	f884 3035 	strb.w	r3, [r4, #53]	; 0x35
24056614:	6be3      	ldr	r3, [r4, #60]	; 0x3c
24056616:	e71e      	b.n	24056456 <HAL_DMA_IRQHandler+0x1f2>
24056618:	2008      	movs	r0, #8
2405661a:	4088      	lsls	r0, r1
2405661c:	ea10 0f0c 	tst.w	r0, ip
24056620:	d0d3      	beq.n	240565ca <HAL_DMA_IRQHandler+0x366>
24056622:	0712      	lsls	r2, r2, #28
24056624:	d5d1      	bpl.n	240565ca <HAL_DMA_IRQHandler+0x366>
24056626:	681a      	ldr	r2, [r3, #0]
24056628:	f022 020e 	bic.w	r2, r2, #14
2405662c:	601a      	str	r2, [r3, #0]
2405662e:	2301      	movs	r3, #1
24056630:	fa03 f101 	lsl.w	r1, r3, r1
24056634:	6069      	str	r1, [r5, #4]
24056636:	6563      	str	r3, [r4, #84]	; 0x54
24056638:	e775      	b.n	24056526 <HAL_DMA_IRQHandler+0x2c2>
2405663a:	bf00      	nop
2405663c:	40020028 	.word	0x40020028
24056640:	48022c1c 	.word	0x48022c1c
24056644:	58025408 	.word	0x58025408

24056648 <HAL_DMA_GetError>:
24056648:	6d40      	ldr	r0, [r0, #84]	; 0x54
2405664a:	4770      	bx	lr

2405664c <HAL_DMA2D_Init>:
2405664c:	b510      	push	{r4, lr}
2405664e:	4604      	mov	r4, r0
24056650:	2800      	cmp	r0, #0
24056652:	d036      	beq.n	240566c2 <HAL_DMA2D_Init+0x76>
24056654:	f890 3061 	ldrb.w	r3, [r0, #97]	; 0x61
24056658:	f003 02ff 	and.w	r2, r3, #255	; 0xff
2405665c:	b91b      	cbnz	r3, 24056666 <HAL_DMA2D_Init+0x1a>
2405665e:	f880 2060 	strb.w	r2, [r0, #96]	; 0x60
24056662:	f7fd fa1b 	bl	24053a9c <HAL_DMA2D_MspInit>
24056666:	2302      	movs	r3, #2
24056668:	69e0      	ldr	r0, [r4, #28]
2405666a:	6862      	ldr	r2, [r4, #4]
2405666c:	f884 3061 	strb.w	r3, [r4, #97]	; 0x61
24056670:	6823      	ldr	r3, [r4, #0]
24056672:	4302      	orrs	r2, r0
24056674:	69a0      	ldr	r0, [r4, #24]
24056676:	6819      	ldr	r1, [r3, #0]
24056678:	f421 21e0 	bic.w	r1, r1, #458752	; 0x70000
2405667c:	f021 0140 	bic.w	r1, r1, #64	; 0x40
24056680:	430a      	orrs	r2, r1
24056682:	601a      	str	r2, [r3, #0]
24056684:	6b59      	ldr	r1, [r3, #52]	; 0x34
24056686:	68a2      	ldr	r2, [r4, #8]
24056688:	f421 7183 	bic.w	r1, r1, #262	; 0x106
2405668c:	4302      	orrs	r2, r0
2405668e:	f021 0101 	bic.w	r1, r1, #1
24056692:	430a      	orrs	r2, r1
24056694:	68e1      	ldr	r1, [r4, #12]
24056696:	635a      	str	r2, [r3, #52]	; 0x34
24056698:	6c1a      	ldr	r2, [r3, #64]	; 0x40
2405669a:	0c12      	lsrs	r2, r2, #16
2405669c:	0412      	lsls	r2, r2, #16
2405669e:	430a      	orrs	r2, r1
240566a0:	641a      	str	r2, [r3, #64]	; 0x40
240566a2:	6b59      	ldr	r1, [r3, #52]	; 0x34
240566a4:	e9d4 0204 	ldrd	r0, r2, [r4, #16]
240566a8:	f421 1140 	bic.w	r1, r1, #3145728	; 0x300000
240566ac:	0552      	lsls	r2, r2, #21
240566ae:	ea42 5200 	orr.w	r2, r2, r0, lsl #20
240566b2:	2000      	movs	r0, #0
240566b4:	430a      	orrs	r2, r1
240566b6:	635a      	str	r2, [r3, #52]	; 0x34
240566b8:	2301      	movs	r3, #1
240566ba:	6660      	str	r0, [r4, #100]	; 0x64
240566bc:	f884 3061 	strb.w	r3, [r4, #97]	; 0x61
240566c0:	bd10      	pop	{r4, pc}
240566c2:	2001      	movs	r0, #1
240566c4:	e7fc      	b.n	240566c0 <HAL_DMA2D_Init+0x74>
	...

240566c8 <HAL_GPIO_Init>:
240566c8:	e92d 4ff7 	stmdb	sp!, {r0, r1, r2, r4, r5, r6, r7, r8, r9, sl, fp, lr}
240566cc:	2300      	movs	r3, #0
240566ce:	f8df 91c8 	ldr.w	r9, [pc, #456]	; 24056898 <HAL_GPIO_Init+0x1d0>
240566d2:	f04f 44b0 	mov.w	r4, #1476395008	; 0x58000000
240566d6:	680a      	ldr	r2, [r1, #0]
240566d8:	fa32 f503 	lsrs.w	r5, r2, r3
240566dc:	d102      	bne.n	240566e4 <HAL_GPIO_Init+0x1c>
240566de:	b003      	add	sp, #12
240566e0:	e8bd 8ff0 	ldmia.w	sp!, {r4, r5, r6, r7, r8, r9, sl, fp, pc}
240566e4:	f04f 0e01 	mov.w	lr, #1
240566e8:	fa0e fe03 	lsl.w	lr, lr, r3
240566ec:	ea1e 0202 	ands.w	r2, lr, r2
240566f0:	f000 80bc 	beq.w	2405686c <HAL_GPIO_Init+0x1a4>
240566f4:	684e      	ldr	r6, [r1, #4]
240566f6:	ea4f 0843 	mov.w	r8, r3, lsl #1
240566fa:	f04f 0c03 	mov.w	ip, #3
240566fe:	f006 0503 	and.w	r5, r6, #3
24056702:	fa0c fc08 	lsl.w	ip, ip, r8
24056706:	1e6f      	subs	r7, r5, #1
24056708:	ea6f 0c0c 	mvn.w	ip, ip
2405670c:	2f01      	cmp	r7, #1
2405670e:	d834      	bhi.n	2405677a <HAL_GPIO_Init+0xb2>
24056710:	6887      	ldr	r7, [r0, #8]
24056712:	ea07 0a0c 	and.w	sl, r7, ip
24056716:	68cf      	ldr	r7, [r1, #12]
24056718:	fa07 f708 	lsl.w	r7, r7, r8
2405671c:	ea47 070a 	orr.w	r7, r7, sl
24056720:	6087      	str	r7, [r0, #8]
24056722:	6847      	ldr	r7, [r0, #4]
24056724:	ea27 0e0e 	bic.w	lr, r7, lr
24056728:	f3c6 1700 	ubfx	r7, r6, #4, #1
2405672c:	409f      	lsls	r7, r3
2405672e:	ea47 070e 	orr.w	r7, r7, lr
24056732:	6047      	str	r7, [r0, #4]
24056734:	68c7      	ldr	r7, [r0, #12]
24056736:	2d02      	cmp	r5, #2
24056738:	ea07 0e0c 	and.w	lr, r7, ip
2405673c:	688f      	ldr	r7, [r1, #8]
2405673e:	fa07 f708 	lsl.w	r7, r7, r8
24056742:	ea47 070e 	orr.w	r7, r7, lr
24056746:	60c7      	str	r7, [r0, #12]
24056748:	d119      	bne.n	2405677e <HAL_GPIO_Init+0xb6>
2405674a:	ea4f 0ad3 	mov.w	sl, r3, lsr #3
2405674e:	f003 0b07 	and.w	fp, r3, #7
24056752:	f04f 0e0f 	mov.w	lr, #15
24056756:	eb00 0a8a 	add.w	sl, r0, sl, lsl #2
2405675a:	ea4f 0b8b 	mov.w	fp, fp, lsl #2
2405675e:	f8da 7020 	ldr.w	r7, [sl, #32]
24056762:	fa0e fe0b 	lsl.w	lr, lr, fp
24056766:	ea27 0e0e 	bic.w	lr, r7, lr
2405676a:	690f      	ldr	r7, [r1, #16]
2405676c:	fa07 f70b 	lsl.w	r7, r7, fp
24056770:	ea47 070e 	orr.w	r7, r7, lr
24056774:	f8ca 7020 	str.w	r7, [sl, #32]
24056778:	e001      	b.n	2405677e <HAL_GPIO_Init+0xb6>
2405677a:	2d03      	cmp	r5, #3
2405677c:	d1da      	bne.n	24056734 <HAL_GPIO_Init+0x6c>
2405677e:	6807      	ldr	r7, [r0, #0]
24056780:	fa05 f508 	lsl.w	r5, r5, r8
24056784:	f416 3f40 	tst.w	r6, #196608	; 0x30000
24056788:	ea07 070c 	and.w	r7, r7, ip
2405678c:	ea45 0507 	orr.w	r5, r5, r7
24056790:	6005      	str	r5, [r0, #0]
24056792:	d06b      	beq.n	2405686c <HAL_GPIO_Init+0x1a4>
24056794:	f8d9 5154 	ldr.w	r5, [r9, #340]	; 0x154
24056798:	f023 0703 	bic.w	r7, r3, #3
2405679c:	f003 0c03 	and.w	ip, r3, #3
240567a0:	f045 0502 	orr.w	r5, r5, #2
240567a4:	f107 47b0 	add.w	r7, r7, #1476395008	; 0x58000000
240567a8:	ea4f 0c8c 	mov.w	ip, ip, lsl #2
240567ac:	f8c9 5154 	str.w	r5, [r9, #340]	; 0x154
240567b0:	f507 6780 	add.w	r7, r7, #1024	; 0x400
240567b4:	f8d9 5154 	ldr.w	r5, [r9, #340]	; 0x154
240567b8:	f005 0502 	and.w	r5, r5, #2
240567bc:	9501      	str	r5, [sp, #4]
240567be:	9d01      	ldr	r5, [sp, #4]
240567c0:	250f      	movs	r5, #15
240567c2:	f8d7 e008 	ldr.w	lr, [r7, #8]
240567c6:	fa05 f50c 	lsl.w	r5, r5, ip
240567ca:	ea2e 0e05 	bic.w	lr, lr, r5
240567ce:	4d31      	ldr	r5, [pc, #196]	; (24056894 <HAL_GPIO_Init+0x1cc>)
240567d0:	42a8      	cmp	r0, r5
240567d2:	d04d      	beq.n	24056870 <HAL_GPIO_Init+0x1a8>
240567d4:	f505 6580 	add.w	r5, r5, #1024	; 0x400
240567d8:	42a8      	cmp	r0, r5
240567da:	d04b      	beq.n	24056874 <HAL_GPIO_Init+0x1ac>
240567dc:	f505 6580 	add.w	r5, r5, #1024	; 0x400
240567e0:	42a8      	cmp	r0, r5
240567e2:	d049      	beq.n	24056878 <HAL_GPIO_Init+0x1b0>
240567e4:	f505 6580 	add.w	r5, r5, #1024	; 0x400
240567e8:	42a8      	cmp	r0, r5
240567ea:	d047      	beq.n	2405687c <HAL_GPIO_Init+0x1b4>
240567ec:	f505 6580 	add.w	r5, r5, #1024	; 0x400
240567f0:	42a8      	cmp	r0, r5
240567f2:	d045      	beq.n	24056880 <HAL_GPIO_Init+0x1b8>
240567f4:	f505 6580 	add.w	r5, r5, #1024	; 0x400
240567f8:	42a8      	cmp	r0, r5
240567fa:	d043      	beq.n	24056884 <HAL_GPIO_Init+0x1bc>
240567fc:	f505 6580 	add.w	r5, r5, #1024	; 0x400
24056800:	42a8      	cmp	r0, r5
24056802:	d041      	beq.n	24056888 <HAL_GPIO_Init+0x1c0>
24056804:	f505 6580 	add.w	r5, r5, #1024	; 0x400
24056808:	42a8      	cmp	r0, r5
2405680a:	d03f      	beq.n	2405688c <HAL_GPIO_Init+0x1c4>
2405680c:	f505 6580 	add.w	r5, r5, #1024	; 0x400
24056810:	42a8      	cmp	r0, r5
24056812:	d03d      	beq.n	24056890 <HAL_GPIO_Init+0x1c8>
24056814:	f505 6580 	add.w	r5, r5, #1024	; 0x400
24056818:	42a8      	cmp	r0, r5
2405681a:	bf0c      	ite	eq
2405681c:	2509      	moveq	r5, #9
2405681e:	250a      	movne	r5, #10
24056820:	fa05 f50c 	lsl.w	r5, r5, ip
24056824:	f416 1f80 	tst.w	r6, #1048576	; 0x100000
24056828:	ea45 050e 	orr.w	r5, r5, lr
2405682c:	60bd      	str	r5, [r7, #8]
2405682e:	ea6f 0702 	mvn.w	r7, r2
24056832:	6825      	ldr	r5, [r4, #0]
24056834:	bf0c      	ite	eq
24056836:	403d      	andeq	r5, r7
24056838:	4315      	orrne	r5, r2
2405683a:	f416 1f00 	tst.w	r6, #2097152	; 0x200000
2405683e:	6025      	str	r5, [r4, #0]
24056840:	6865      	ldr	r5, [r4, #4]
24056842:	bf0c      	ite	eq
24056844:	403d      	andeq	r5, r7
24056846:	4315      	orrne	r5, r2
24056848:	f416 3f00 	tst.w	r6, #131072	; 0x20000
2405684c:	6065      	str	r5, [r4, #4]
2405684e:	f8d4 5084 	ldr.w	r5, [r4, #132]	; 0x84
24056852:	bf0c      	ite	eq
24056854:	403d      	andeq	r5, r7
24056856:	4315      	orrne	r5, r2
24056858:	03f6      	lsls	r6, r6, #15
2405685a:	f8c4 5084 	str.w	r5, [r4, #132]	; 0x84
2405685e:	f8d4 5080 	ldr.w	r5, [r4, #128]	; 0x80
24056862:	bf54      	ite	pl
24056864:	403d      	andpl	r5, r7
24056866:	4315      	orrmi	r5, r2
24056868:	f8c4 5080 	str.w	r5, [r4, #128]	; 0x80
2405686c:	3301      	adds	r3, #1
2405686e:	e732      	b.n	240566d6 <HAL_GPIO_Init+0xe>
24056870:	2500      	movs	r5, #0
24056872:	e7d5      	b.n	24056820 <HAL_GPIO_Init+0x158>
24056874:	2501      	movs	r5, #1
24056876:	e7d3      	b.n	24056820 <HAL_GPIO_Init+0x158>
24056878:	2502      	movs	r5, #2
2405687a:	e7d1      	b.n	24056820 <HAL_GPIO_Init+0x158>
2405687c:	2503      	movs	r5, #3
2405687e:	e7cf      	b.n	24056820 <HAL_GPIO_Init+0x158>
24056880:	2504      	movs	r5, #4
24056882:	e7cd      	b.n	24056820 <HAL_GPIO_Init+0x158>
24056884:	2505      	movs	r5, #5
24056886:	e7cb      	b.n	24056820 <HAL_GPIO_Init+0x158>
24056888:	2506      	movs	r5, #6
2405688a:	e7c9      	b.n	24056820 <HAL_GPIO_Init+0x158>
2405688c:	2507      	movs	r5, #7
2405688e:	e7c7      	b.n	24056820 <HAL_GPIO_Init+0x158>
24056890:	2508      	movs	r5, #8
24056892:	e7c5      	b.n	24056820 <HAL_GPIO_Init+0x158>
24056894:	58020000 	.word	0x58020000
24056898:	58024400 	.word	0x58024400

2405689c <HAL_GPIO_ReadPin>:
2405689c:	6903      	ldr	r3, [r0, #16]
2405689e:	4219      	tst	r1, r3
240568a0:	bf14      	ite	ne
240568a2:	2001      	movne	r0, #1
240568a4:	2000      	moveq	r0, #0
240568a6:	4770      	bx	lr

240568a8 <HAL_GPIO_WritePin>:
240568a8:	b10a      	cbz	r2, 240568ae <HAL_GPIO_WritePin+0x6>
240568aa:	6181      	str	r1, [r0, #24]
240568ac:	4770      	bx	lr
240568ae:	0409      	lsls	r1, r1, #16
240568b0:	e7fb      	b.n	240568aa <HAL_GPIO_WritePin+0x2>

240568b2 <HAL_GPIO_EXTI_Callback>:
240568b2:	4770      	bx	lr

240568b4 <HAL_GPIO_EXTI_IRQHandler>:
240568b4:	f04f 42b0 	mov.w	r2, #1476395008	; 0x58000000
240568b8:	f8d2 1088 	ldr.w	r1, [r2, #136]	; 0x88
240568bc:	4201      	tst	r1, r0
240568be:	b508      	push	{r3, lr}
240568c0:	d003      	beq.n	240568ca <HAL_GPIO_EXTI_IRQHandler+0x16>
240568c2:	f8c2 0088 	str.w	r0, [r2, #136]	; 0x88
240568c6:	f7ff fff4 	bl	240568b2 <HAL_GPIO_EXTI_Callback>
240568ca:	bd08      	pop	{r3, pc}

240568cc <LTDC_SetConfig>:
240568cc:	01d2      	lsls	r2, r2, #7
240568ce:	6800      	ldr	r0, [r0, #0]
240568d0:	f8d1 c000 	ldr.w	ip, [r1]
240568d4:	3284      	adds	r2, #132	; 0x84
240568d6:	1883      	adds	r3, r0, r2
240568d8:	e92d 43f0 	stmdb	sp!, {r4, r5, r6, r7, r8, r9, lr}
240568dc:	68c6      	ldr	r6, [r0, #12]
240568de:	f10c 0701 	add.w	r7, ip, #1
240568e2:	685d      	ldr	r5, [r3, #4]
240568e4:	f04f 0e00 	mov.w	lr, #0
240568e8:	684c      	ldr	r4, [r1, #4]
240568ea:	f3c6 460b 	ubfx	r6, r6, #16, #12
240568ee:	f405 4570 	and.w	r5, r5, #61440	; 0xf000
240568f2:	f8d1 9018 	ldr.w	r9, [r1, #24]
240568f6:	4426      	add	r6, r4
240568f8:	605d      	str	r5, [r3, #4]
240568fa:	68c5      	ldr	r5, [r0, #12]
240568fc:	f3c5 450b 	ubfx	r5, r5, #16, #12
24056900:	443d      	add	r5, r7
24056902:	ea45 4506 	orr.w	r5, r5, r6, lsl #16
24056906:	605d      	str	r5, [r3, #4]
24056908:	68c6      	ldr	r6, [r0, #12]
2405690a:	68cd      	ldr	r5, [r1, #12]
2405690c:	f3c6 060a 	ubfx	r6, r6, #0, #11
24056910:	442e      	add	r6, r5
24056912:	689d      	ldr	r5, [r3, #8]
24056914:	f405 4570 	and.w	r5, r5, #61440	; 0xf000
24056918:	609d      	str	r5, [r3, #8]
2405691a:	688d      	ldr	r5, [r1, #8]
2405691c:	68c7      	ldr	r7, [r0, #12]
2405691e:	3501      	adds	r5, #1
24056920:	f3c7 070a 	ubfx	r7, r7, #0, #11
24056924:	443d      	add	r5, r7
24056926:	ea45 4506 	orr.w	r5, r5, r6, lsl #16
2405692a:	690e      	ldr	r6, [r1, #16]
2405692c:	609d      	str	r5, [r3, #8]
2405692e:	691d      	ldr	r5, [r3, #16]
24056930:	f025 0507 	bic.w	r5, r5, #7
24056934:	611d      	str	r5, [r3, #16]
24056936:	611e      	str	r6, [r3, #16]
24056938:	699d      	ldr	r5, [r3, #24]
2405693a:	f891 7032 	ldrb.w	r7, [r1, #50]	; 0x32
2405693e:	f891 8031 	ldrb.w	r8, [r1, #49]	; 0x31
24056942:	f8c3 e018 	str.w	lr, [r3, #24]
24056946:	f891 5030 	ldrb.w	r5, [r1, #48]	; 0x30
2405694a:	ea45 6509 	orr.w	r5, r5, r9, lsl #24
2405694e:	ea45 2508 	orr.w	r5, r5, r8, lsl #8
24056952:	ea45 4507 	orr.w	r5, r5, r7, lsl #16
24056956:	619d      	str	r5, [r3, #24]
24056958:	695d      	ldr	r5, [r3, #20]
2405695a:	f025 05ff 	bic.w	r5, r5, #255	; 0xff
2405695e:	615d      	str	r5, [r3, #20]
24056960:	694d      	ldr	r5, [r1, #20]
24056962:	615d      	str	r5, [r3, #20]
24056964:	69dd      	ldr	r5, [r3, #28]
24056966:	f425 65e0 	bic.w	r5, r5, #1792	; 0x700
2405696a:	f025 0507 	bic.w	r5, r5, #7
2405696e:	61dd      	str	r5, [r3, #28]
24056970:	e9d1 5707 	ldrd	r5, r7, [r1, #28]
24056974:	433d      	orrs	r5, r7
24056976:	61dd      	str	r5, [r3, #28]
24056978:	6a9d      	ldr	r5, [r3, #40]	; 0x28
2405697a:	6a4d      	ldr	r5, [r1, #36]	; 0x24
2405697c:	f8c3 e028 	str.w	lr, [r3, #40]	; 0x28
24056980:	629d      	str	r5, [r3, #40]	; 0x28
24056982:	b1fe      	cbz	r6, 240569c4 <LTDC_SetConfig+0xf8>
24056984:	3e01      	subs	r6, #1
24056986:	2e06      	cmp	r6, #6
24056988:	d81e      	bhi.n	240569c8 <LTDC_SetConfig+0xfc>
2405698a:	4d10      	ldr	r5, [pc, #64]	; (240569cc <LTDC_SetConfig+0x100>)
2405698c:	5dad      	ldrb	r5, [r5, r6]
2405698e:	6ade      	ldr	r6, [r3, #44]	; 0x2c
24056990:	eba4 040c 	sub.w	r4, r4, ip
24056994:	f006 26e0 	and.w	r6, r6, #3758153728	; 0xe000e000
24056998:	436c      	muls	r4, r5
2405699a:	62de      	str	r6, [r3, #44]	; 0x2c
2405699c:	3407      	adds	r4, #7
2405699e:	6a8e      	ldr	r6, [r1, #40]	; 0x28
240569a0:	6ac9      	ldr	r1, [r1, #44]	; 0x2c
240569a2:	436e      	muls	r6, r5
240569a4:	ea44 4406 	orr.w	r4, r4, r6, lsl #16
240569a8:	62dc      	str	r4, [r3, #44]	; 0x2c
240569aa:	6b1c      	ldr	r4, [r3, #48]	; 0x30
240569ac:	f424 64ff 	bic.w	r4, r4, #2040	; 0x7f8
240569b0:	f024 0407 	bic.w	r4, r4, #7
240569b4:	631c      	str	r4, [r3, #48]	; 0x30
240569b6:	6319      	str	r1, [r3, #48]	; 0x30
240569b8:	5883      	ldr	r3, [r0, r2]
240569ba:	f043 0301 	orr.w	r3, r3, #1
240569be:	5083      	str	r3, [r0, r2]
240569c0:	e8bd 83f0 	ldmia.w	sp!, {r4, r5, r6, r7, r8, r9, pc}
240569c4:	2504      	movs	r5, #4
240569c6:	e7e2      	b.n	2405698e <LTDC_SetConfig+0xc2>
240569c8:	2501      	movs	r5, #1
240569ca:	e7e0      	b.n	2405698e <LTDC_SetConfig+0xc2>
240569cc:	2406013a 	.word	0x2406013a

240569d0 <HAL_LTDC_Init>:
240569d0:	b538      	push	{r3, r4, r5, lr}
240569d2:	4604      	mov	r4, r0
240569d4:	2800      	cmp	r0, #0
240569d6:	d063      	beq.n	24056aa0 <HAL_LTDC_Init+0xd0>
240569d8:	f890 30a1 	ldrb.w	r3, [r0, #161]	; 0xa1
240569dc:	f003 02ff 	and.w	r2, r3, #255	; 0xff
240569e0:	b91b      	cbnz	r3, 240569ea <HAL_LTDC_Init+0x1a>
240569e2:	f880 20a0 	strb.w	r2, [r0, #160]	; 0xa0
240569e6:	f7fd f871 	bl	24053acc <HAL_LTDC_MspInit>
240569ea:	2302      	movs	r3, #2
240569ec:	f884 30a1 	strb.w	r3, [r4, #161]	; 0xa1
240569f0:	6823      	ldr	r3, [r4, #0]
240569f2:	699a      	ldr	r2, [r3, #24]
240569f4:	f022 4270 	bic.w	r2, r2, #4026531840	; 0xf0000000
240569f8:	619a      	str	r2, [r3, #24]
240569fa:	6999      	ldr	r1, [r3, #24]
240569fc:	e9d4 2001 	ldrd	r2, r0, [r4, #4]
24056a00:	4302      	orrs	r2, r0
24056a02:	68e0      	ldr	r0, [r4, #12]
24056a04:	4302      	orrs	r2, r0
24056a06:	6920      	ldr	r0, [r4, #16]
24056a08:	4302      	orrs	r2, r0
24056a0a:	6960      	ldr	r0, [r4, #20]
24056a0c:	430a      	orrs	r2, r1
24056a0e:	4925      	ldr	r1, [pc, #148]	; (24056aa4 <HAL_LTDC_Init+0xd4>)
24056a10:	619a      	str	r2, [r3, #24]
24056a12:	689a      	ldr	r2, [r3, #8]
24056a14:	400a      	ands	r2, r1
24056a16:	609a      	str	r2, [r3, #8]
24056a18:	689a      	ldr	r2, [r3, #8]
24056a1a:	ea42 4200 	orr.w	r2, r2, r0, lsl #16
24056a1e:	69a0      	ldr	r0, [r4, #24]
24056a20:	4302      	orrs	r2, r0
24056a22:	69e0      	ldr	r0, [r4, #28]
24056a24:	609a      	str	r2, [r3, #8]
24056a26:	68da      	ldr	r2, [r3, #12]
24056a28:	400a      	ands	r2, r1
24056a2a:	60da      	str	r2, [r3, #12]
24056a2c:	68da      	ldr	r2, [r3, #12]
24056a2e:	ea42 4200 	orr.w	r2, r2, r0, lsl #16
24056a32:	6a20      	ldr	r0, [r4, #32]
24056a34:	4302      	orrs	r2, r0
24056a36:	6a60      	ldr	r0, [r4, #36]	; 0x24
24056a38:	60da      	str	r2, [r3, #12]
24056a3a:	691a      	ldr	r2, [r3, #16]
24056a3c:	400a      	ands	r2, r1
24056a3e:	611a      	str	r2, [r3, #16]
24056a40:	691a      	ldr	r2, [r3, #16]
24056a42:	ea42 4200 	orr.w	r2, r2, r0, lsl #16
24056a46:	6aa0      	ldr	r0, [r4, #40]	; 0x28
24056a48:	4302      	orrs	r2, r0
24056a4a:	611a      	str	r2, [r3, #16]
24056a4c:	695a      	ldr	r2, [r3, #20]
24056a4e:	400a      	ands	r2, r1
24056a50:	6ae1      	ldr	r1, [r4, #44]	; 0x2c
24056a52:	615a      	str	r2, [r3, #20]
24056a54:	695a      	ldr	r2, [r3, #20]
24056a56:	ea42 4201 	orr.w	r2, r2, r1, lsl #16
24056a5a:	6b21      	ldr	r1, [r4, #48]	; 0x30
24056a5c:	430a      	orrs	r2, r1
24056a5e:	615a      	str	r2, [r3, #20]
24056a60:	6ada      	ldr	r2, [r3, #44]	; 0x2c
24056a62:	f894 0035 	ldrb.w	r0, [r4, #53]	; 0x35
24056a66:	f002 427f 	and.w	r2, r2, #4278190080	; 0xff000000
24056a6a:	f894 1036 	ldrb.w	r1, [r4, #54]	; 0x36
24056a6e:	62da      	str	r2, [r3, #44]	; 0x2c
24056a70:	6add      	ldr	r5, [r3, #44]	; 0x2c
24056a72:	f894 2034 	ldrb.w	r2, [r4, #52]	; 0x34
24056a76:	432a      	orrs	r2, r5
24056a78:	ea42 2200 	orr.w	r2, r2, r0, lsl #8
24056a7c:	2000      	movs	r0, #0
24056a7e:	ea42 4201 	orr.w	r2, r2, r1, lsl #16
24056a82:	62da      	str	r2, [r3, #44]	; 0x2c
24056a84:	6b5a      	ldr	r2, [r3, #52]	; 0x34
24056a86:	f042 0206 	orr.w	r2, r2, #6
24056a8a:	635a      	str	r2, [r3, #52]	; 0x34
24056a8c:	699a      	ldr	r2, [r3, #24]
24056a8e:	f042 0201 	orr.w	r2, r2, #1
24056a92:	619a      	str	r2, [r3, #24]
24056a94:	2301      	movs	r3, #1
24056a96:	f8c4 00a4 	str.w	r0, [r4, #164]	; 0xa4
24056a9a:	f884 30a1 	strb.w	r3, [r4, #161]	; 0xa1
24056a9e:	bd38      	pop	{r3, r4, r5, pc}
24056aa0:	2001      	movs	r0, #1
24056aa2:	e7fc      	b.n	24056a9e <HAL_LTDC_Init+0xce>
24056aa4:	f000f800 	.word	0xf000f800

24056aa8 <HAL_LTDC_ErrorCallback>:
24056aa8:	4770      	bx	lr

24056aaa <HAL_LTDC_LineEventCallback>:
24056aaa:	4770      	bx	lr

24056aac <HAL_LTDC_IRQHandler>:
24056aac:	6803      	ldr	r3, [r0, #0]
24056aae:	b570      	push	{r4, r5, r6, lr}
24056ab0:	6b9e      	ldr	r6, [r3, #56]	; 0x38
24056ab2:	4604      	mov	r4, r0
24056ab4:	6b5d      	ldr	r5, [r3, #52]	; 0x34
24056ab6:	0772      	lsls	r2, r6, #29
24056ab8:	d514      	bpl.n	24056ae4 <HAL_LTDC_IRQHandler+0x38>
24056aba:	0769      	lsls	r1, r5, #29
24056abc:	d512      	bpl.n	24056ae4 <HAL_LTDC_IRQHandler+0x38>
24056abe:	6b5a      	ldr	r2, [r3, #52]	; 0x34
24056ac0:	f022 0204 	bic.w	r2, r2, #4
24056ac4:	635a      	str	r2, [r3, #52]	; 0x34
24056ac6:	2204      	movs	r2, #4
24056ac8:	63da      	str	r2, [r3, #60]	; 0x3c
24056aca:	f8d0 30a4 	ldr.w	r3, [r0, #164]	; 0xa4
24056ace:	f043 0301 	orr.w	r3, r3, #1
24056ad2:	f8c0 30a4 	str.w	r3, [r0, #164]	; 0xa4
24056ad6:	2300      	movs	r3, #0
24056ad8:	f880 20a1 	strb.w	r2, [r0, #161]	; 0xa1
24056adc:	f880 30a0 	strb.w	r3, [r0, #160]	; 0xa0
24056ae0:	f7ff ffe2 	bl	24056aa8 <HAL_LTDC_ErrorCallback>
24056ae4:	07b2      	lsls	r2, r6, #30
24056ae6:	d516      	bpl.n	24056b16 <HAL_LTDC_IRQHandler+0x6a>
24056ae8:	07ab      	lsls	r3, r5, #30
24056aea:	d514      	bpl.n	24056b16 <HAL_LTDC_IRQHandler+0x6a>
24056aec:	6823      	ldr	r3, [r4, #0]
24056aee:	4620      	mov	r0, r4
24056af0:	6b5a      	ldr	r2, [r3, #52]	; 0x34
24056af2:	f022 0202 	bic.w	r2, r2, #2
24056af6:	635a      	str	r2, [r3, #52]	; 0x34
24056af8:	2202      	movs	r2, #2
24056afa:	63da      	str	r2, [r3, #60]	; 0x3c
24056afc:	f8d4 30a4 	ldr.w	r3, [r4, #164]	; 0xa4
24056b00:	4313      	orrs	r3, r2
24056b02:	f8c4 30a4 	str.w	r3, [r4, #164]	; 0xa4
24056b06:	2304      	movs	r3, #4
24056b08:	f884 30a1 	strb.w	r3, [r4, #161]	; 0xa1
24056b0c:	2300      	movs	r3, #0
24056b0e:	f884 30a0 	strb.w	r3, [r4, #160]	; 0xa0
24056b12:	f7ff ffc9 	bl	24056aa8 <HAL_LTDC_ErrorCallback>
24056b16:	07f0      	lsls	r0, r6, #31
24056b18:	d510      	bpl.n	24056b3c <HAL_LTDC_IRQHandler+0x90>
24056b1a:	07e9      	lsls	r1, r5, #31
24056b1c:	d50e      	bpl.n	24056b3c <HAL_LTDC_IRQHandler+0x90>
24056b1e:	6823      	ldr	r3, [r4, #0]
24056b20:	4620      	mov	r0, r4
24056b22:	6b5a      	ldr	r2, [r3, #52]	; 0x34
24056b24:	f022 0201 	bic.w	r2, r2, #1
24056b28:	635a      	str	r2, [r3, #52]	; 0x34
24056b2a:	2201      	movs	r2, #1
24056b2c:	63da      	str	r2, [r3, #60]	; 0x3c
24056b2e:	2300      	movs	r3, #0
24056b30:	f884 20a1 	strb.w	r2, [r4, #161]	; 0xa1
24056b34:	f884 30a0 	strb.w	r3, [r4, #160]	; 0xa0
24056b38:	f7ff ffb7 	bl	24056aaa <HAL_LTDC_LineEventCallback>
24056b3c:	0732      	lsls	r2, r6, #28
24056b3e:	d511      	bpl.n	24056b64 <HAL_LTDC_IRQHandler+0xb8>
24056b40:	072b      	lsls	r3, r5, #28
24056b42:	d50f      	bpl.n	24056b64 <HAL_LTDC_IRQHandler+0xb8>
24056b44:	6823      	ldr	r3, [r4, #0]
24056b46:	4620      	mov	r0, r4
24056b48:	6b5a      	ldr	r2, [r3, #52]	; 0x34
24056b4a:	f022 0208 	bic.w	r2, r2, #8
24056b4e:	635a      	str	r2, [r3, #52]	; 0x34
24056b50:	2208      	movs	r2, #8
24056b52:	63da      	str	r2, [r3, #60]	; 0x3c
24056b54:	2301      	movs	r3, #1
24056b56:	f884 30a1 	strb.w	r3, [r4, #161]	; 0xa1
24056b5a:	2300      	movs	r3, #0
24056b5c:	f884 30a0 	strb.w	r3, [r4, #160]	; 0xa0
24056b60:	f7fb fd3a 	bl	240525d8 <HAL_LTDC_ReloadEventCallback>
24056b64:	bd70      	pop	{r4, r5, r6, pc}

24056b66 <HAL_LTDC_ConfigLayer>:
24056b66:	e92d 41f0 	stmdb	sp!, {r4, r5, r6, r7, r8, lr}
24056b6a:	f890 30a0 	ldrb.w	r3, [r0, #160]	; 0xa0
24056b6e:	4606      	mov	r6, r0
24056b70:	460f      	mov	r7, r1
24056b72:	4694      	mov	ip, r2
24056b74:	2b01      	cmp	r3, #1
24056b76:	f04f 0002 	mov.w	r0, #2
24056b7a:	d01f      	beq.n	24056bbc <HAL_LTDC_ConfigLayer+0x56>
24056b7c:	2434      	movs	r4, #52	; 0x34
24056b7e:	f04f 0801 	mov.w	r8, #1
24056b82:	460d      	mov	r5, r1
24056b84:	f886 00a1 	strb.w	r0, [r6, #161]	; 0xa1
24056b88:	fb04 6402 	mla	r4, r4, r2, r6
24056b8c:	f886 80a0 	strb.w	r8, [r6, #160]	; 0xa0
24056b90:	3438      	adds	r4, #56	; 0x38
24056b92:	cd0f      	ldmia	r5!, {r0, r1, r2, r3}
24056b94:	c40f      	stmia	r4!, {r0, r1, r2, r3}
24056b96:	cd0f      	ldmia	r5!, {r0, r1, r2, r3}
24056b98:	c40f      	stmia	r4!, {r0, r1, r2, r3}
24056b9a:	cd0f      	ldmia	r5!, {r0, r1, r2, r3}
24056b9c:	c40f      	stmia	r4!, {r0, r1, r2, r3}
24056b9e:	682b      	ldr	r3, [r5, #0]
24056ba0:	4630      	mov	r0, r6
24056ba2:	4662      	mov	r2, ip
24056ba4:	4639      	mov	r1, r7
24056ba6:	6023      	str	r3, [r4, #0]
24056ba8:	f7ff fe90 	bl	240568cc <LTDC_SetConfig>
24056bac:	6833      	ldr	r3, [r6, #0]
24056bae:	2000      	movs	r0, #0
24056bb0:	f8c3 8024 	str.w	r8, [r3, #36]	; 0x24
24056bb4:	f886 80a1 	strb.w	r8, [r6, #161]	; 0xa1
24056bb8:	f886 00a0 	strb.w	r0, [r6, #160]	; 0xa0
24056bbc:	e8bd 81f0 	ldmia.w	sp!, {r4, r5, r6, r7, r8, pc}

24056bc0 <HAL_LTDC_SetAddress>:
24056bc0:	b570      	push	{r4, r5, r6, lr}
24056bc2:	f890 30a0 	ldrb.w	r3, [r0, #160]	; 0xa0
24056bc6:	4604      	mov	r4, r0
24056bc8:	2b01      	cmp	r3, #1
24056bca:	f04f 0302 	mov.w	r3, #2
24056bce:	d015      	beq.n	24056bfc <HAL_LTDC_SetAddress+0x3c>
24056bd0:	f880 30a1 	strb.w	r3, [r0, #161]	; 0xa1
24056bd4:	2334      	movs	r3, #52	; 0x34
24056bd6:	2601      	movs	r6, #1
24056bd8:	4353      	muls	r3, r2
24056bda:	f880 60a0 	strb.w	r6, [r0, #160]	; 0xa0
24056bde:	18c5      	adds	r5, r0, r3
24056be0:	65e9      	str	r1, [r5, #92]	; 0x5c
24056be2:	f103 0138 	add.w	r1, r3, #56	; 0x38
24056be6:	4401      	add	r1, r0
24056be8:	f7ff fe70 	bl	240568cc <LTDC_SetConfig>
24056bec:	6823      	ldr	r3, [r4, #0]
24056bee:	2000      	movs	r0, #0
24056bf0:	625e      	str	r6, [r3, #36]	; 0x24
24056bf2:	f884 60a1 	strb.w	r6, [r4, #161]	; 0xa1
24056bf6:	f884 00a0 	strb.w	r0, [r4, #160]	; 0xa0
24056bfa:	bd70      	pop	{r4, r5, r6, pc}
24056bfc:	4618      	mov	r0, r3
24056bfe:	e7fc      	b.n	24056bfa <HAL_LTDC_SetAddress+0x3a>

24056c00 <HAL_LTDC_Reload>:
24056c00:	f890 30a0 	ldrb.w	r3, [r0, #160]	; 0xa0
24056c04:	2b01      	cmp	r3, #1
24056c06:	f04f 0302 	mov.w	r3, #2
24056c0a:	d00d      	beq.n	24056c28 <HAL_LTDC_Reload+0x28>
24056c0c:	f880 30a1 	strb.w	r3, [r0, #161]	; 0xa1
24056c10:	6803      	ldr	r3, [r0, #0]
24056c12:	6b5a      	ldr	r2, [r3, #52]	; 0x34
24056c14:	f042 0208 	orr.w	r2, r2, #8
24056c18:	635a      	str	r2, [r3, #52]	; 0x34
24056c1a:	6259      	str	r1, [r3, #36]	; 0x24
24056c1c:	2301      	movs	r3, #1
24056c1e:	f880 30a1 	strb.w	r3, [r0, #161]	; 0xa1
24056c22:	2300      	movs	r3, #0
24056c24:	f880 30a0 	strb.w	r3, [r0, #160]	; 0xa0
24056c28:	4618      	mov	r0, r3
24056c2a:	4770      	bx	lr

24056c2c <HAL_MDMA_Abort_IT>:
24056c2c:	b128      	cbz	r0, 24056c3a <HAL_MDMA_Abort_IT+0xe>
24056c2e:	f890 303d 	ldrb.w	r3, [r0, #61]	; 0x3d
24056c32:	2b02      	cmp	r3, #2
24056c34:	d003      	beq.n	24056c3e <HAL_MDMA_Abort_IT+0x12>
24056c36:	2380      	movs	r3, #128	; 0x80
24056c38:	6683      	str	r3, [r0, #104]	; 0x68
24056c3a:	2001      	movs	r0, #1
24056c3c:	4770      	bx	lr
24056c3e:	6802      	ldr	r2, [r0, #0]
24056c40:	2304      	movs	r3, #4
24056c42:	f880 303d 	strb.w	r3, [r0, #61]	; 0x3d
24056c46:	2000      	movs	r0, #0
24056c48:	68d3      	ldr	r3, [r2, #12]
24056c4a:	f023 0301 	bic.w	r3, r3, #1
24056c4e:	60d3      	str	r3, [r2, #12]
24056c50:	4770      	bx	lr
	...

24056c54 <OSPI_ConfigCmd>:
24056c54:	e92d 43f0 	stmdb	sp!, {r4, r5, r6, r7, r8, r9, lr}
24056c58:	6804      	ldr	r4, [r0, #0]
24056c5a:	6823      	ldr	r3, [r4, #0]
24056c5c:	f023 5340 	bic.w	r3, r3, #805306368	; 0x30000000
24056c60:	6023      	str	r3, [r4, #0]
24056c62:	6883      	ldr	r3, [r0, #8]
24056c64:	b92b      	cbnz	r3, 24056c72 <OSPI_ConfigCmd+0x1e>
24056c66:	6823      	ldr	r3, [r4, #0]
24056c68:	684a      	ldr	r2, [r1, #4]
24056c6a:	f023 0380 	bic.w	r3, r3, #128	; 0x80
24056c6e:	4313      	orrs	r3, r2
24056c70:	6023      	str	r3, [r4, #0]
24056c72:	680b      	ldr	r3, [r1, #0]
24056c74:	2b02      	cmp	r3, #2
24056c76:	d150      	bne.n	24056d1a <OSPI_ConfigCmd+0xc6>
24056c78:	f504 72c0 	add.w	r2, r4, #384	; 0x180
24056c7c:	f504 76c4 	add.w	r6, r4, #392	; 0x188
24056c80:	f504 75c8 	add.w	r5, r4, #400	; 0x190
24056c84:	f504 7cd0 	add.w	ip, r4, #416	; 0x1a0
24056c88:	e9d1 3712 	ldrd	r3, r7, [r1, #72]	; 0x48
24056c8c:	433b      	orrs	r3, r7
24056c8e:	6013      	str	r3, [r2, #0]
24056c90:	6acb      	ldr	r3, [r1, #44]	; 0x2c
24056c92:	b16b      	cbz	r3, 24056cb0 <OSPI_ConfigCmd+0x5c>
24056c94:	6a8b      	ldr	r3, [r1, #40]	; 0x28
24056c96:	f8cc 3000 	str.w	r3, [ip]
24056c9a:	6b4f      	ldr	r7, [r1, #52]	; 0x34
24056c9c:	6acb      	ldr	r3, [r1, #44]	; 0x2c
24056c9e:	f8d2 c000 	ldr.w	ip, [r2]
24056ca2:	433b      	orrs	r3, r7
24056ca4:	6b0f      	ldr	r7, [r1, #48]	; 0x30
24056ca6:	433b      	orrs	r3, r7
24056ca8:	f42c 177c 	bic.w	r7, ip, #4128768	; 0x3f0000
24056cac:	433b      	orrs	r3, r7
24056cae:	6013      	str	r3, [r2, #0]
24056cb0:	6833      	ldr	r3, [r6, #0]
24056cb2:	6c4f      	ldr	r7, [r1, #68]	; 0x44
24056cb4:	f023 031f 	bic.w	r3, r3, #31
24056cb8:	433b      	orrs	r3, r7
24056cba:	6033      	str	r3, [r6, #0]
24056cbc:	f8d1 e038 	ldr.w	lr, [r1, #56]	; 0x38
24056cc0:	f1be 0f00 	cmp.w	lr, #0
24056cc4:	d004      	beq.n	24056cd0 <OSPI_ConfigCmd+0x7c>
24056cc6:	680b      	ldr	r3, [r1, #0]
24056cc8:	b913      	cbnz	r3, 24056cd0 <OSPI_ConfigCmd+0x7c>
24056cca:	6bcb      	ldr	r3, [r1, #60]	; 0x3c
24056ccc:	3b01      	subs	r3, #1
24056cce:	6423      	str	r3, [r4, #64]	; 0x40
24056cd0:	68cb      	ldr	r3, [r1, #12]
24056cd2:	f8d1 901c 	ldr.w	r9, [r1, #28]
24056cd6:	2b00      	cmp	r3, #0
24056cd8:	d07a      	beq.n	24056dd0 <OSPI_ConfigCmd+0x17c>
24056cda:	e9d1 c804 	ldrd	ip, r8, [r1, #16]
24056cde:	f1b9 0f00 	cmp.w	r9, #0
24056ce2:	d04a      	beq.n	24056d7a <OSPI_ConfigCmd+0x126>
24056ce4:	e9d1 6708 	ldrd	r6, r7, [r1, #32]
24056ce8:	f1be 0f00 	cmp.w	lr, #0
24056cec:	d029      	beq.n	24056d42 <OSPI_ConfigCmd+0xee>
24056cee:	ea4e 0303 	orr.w	r3, lr, r3
24056cf2:	6810      	ldr	r0, [r2, #0]
24056cf4:	ea43 0309 	orr.w	r3, r3, r9
24056cf8:	ea43 0308 	orr.w	r3, r3, r8
24056cfc:	ea43 030c 	orr.w	r3, r3, ip
24056d00:	433b      	orrs	r3, r7
24056d02:	4333      	orrs	r3, r6
24056d04:	6c0e      	ldr	r6, [r1, #64]	; 0x40
24056d06:	4333      	orrs	r3, r6
24056d08:	4e43      	ldr	r6, [pc, #268]	; (24056e18 <OSPI_ConfigCmd+0x1c4>)
24056d0a:	4006      	ands	r6, r0
24056d0c:	4333      	orrs	r3, r6
24056d0e:	6013      	str	r3, [r2, #0]
24056d10:	688b      	ldr	r3, [r1, #8]
24056d12:	602b      	str	r3, [r5, #0]
24056d14:	698b      	ldr	r3, [r1, #24]
24056d16:	64a3      	str	r3, [r4, #72]	; 0x48
24056d18:	e043      	b.n	24056da2 <OSPI_ConfigCmd+0x14e>
24056d1a:	2b03      	cmp	r3, #3
24056d1c:	bf01      	itttt	eq
24056d1e:	f504 72a0 	addeq.w	r2, r4, #320	; 0x140
24056d22:	f504 76a4 	addeq.w	r6, r4, #328	; 0x148
24056d26:	f504 75a8 	addeq.w	r5, r4, #336	; 0x150
24056d2a:	f504 7cb0 	addeq.w	ip, r4, #352	; 0x160
24056d2e:	bf1f      	itttt	ne
24056d30:	f504 7280 	addne.w	r2, r4, #256	; 0x100
24056d34:	f504 7684 	addne.w	r6, r4, #264	; 0x108
24056d38:	f504 7588 	addne.w	r5, r4, #272	; 0x110
24056d3c:	f504 7c90 	addne.w	ip, r4, #288	; 0x120
24056d40:	e7a2      	b.n	24056c88 <OSPI_ConfigCmd+0x34>
24056d42:	ea43 0309 	orr.w	r3, r3, r9
24056d46:	f8d2 e000 	ldr.w	lr, [r2]
24056d4a:	ea43 0308 	orr.w	r3, r3, r8
24056d4e:	f42e 5e7c 	bic.w	lr, lr, #16128	; 0x3f00
24056d52:	ea43 030c 	orr.w	r3, r3, ip
24056d56:	f02e 0e3f 	bic.w	lr, lr, #63	; 0x3f
24056d5a:	433b      	orrs	r3, r7
24056d5c:	4333      	orrs	r3, r6
24056d5e:	ea43 030e 	orr.w	r3, r3, lr
24056d62:	6013      	str	r3, [r2, #0]
24056d64:	6ac3      	ldr	r3, [r0, #44]	; 0x2c
24056d66:	f1b3 5f80 	cmp.w	r3, #268435456	; 0x10000000
24056d6a:	d1d1      	bne.n	24056d10 <OSPI_ConfigCmd+0xbc>
24056d6c:	694b      	ldr	r3, [r1, #20]
24056d6e:	2b08      	cmp	r3, #8
24056d70:	d1ce      	bne.n	24056d10 <OSPI_ConfigCmd+0xbc>
24056d72:	6813      	ldr	r3, [r2, #0]
24056d74:	f043 6300 	orr.w	r3, r3, #134217728	; 0x8000000
24056d78:	e7c9      	b.n	24056d0e <OSPI_ConfigCmd+0xba>
24056d7a:	f1be 0f00 	cmp.w	lr, #0
24056d7e:	d013      	beq.n	24056da8 <OSPI_ConfigCmd+0x154>
24056d80:	ea4e 0303 	orr.w	r3, lr, r3
24056d84:	6810      	ldr	r0, [r2, #0]
24056d86:	6c0c      	ldr	r4, [r1, #64]	; 0x40
24056d88:	ea43 0308 	orr.w	r3, r3, r8
24056d8c:	f020 6070 	bic.w	r0, r0, #251658240	; 0xf000000
24056d90:	ea43 030c 	orr.w	r3, r3, ip
24056d94:	f020 003f 	bic.w	r0, r0, #63	; 0x3f
24056d98:	4323      	orrs	r3, r4
24056d9a:	4303      	orrs	r3, r0
24056d9c:	6013      	str	r3, [r2, #0]
24056d9e:	688b      	ldr	r3, [r1, #8]
24056da0:	602b      	str	r3, [r5, #0]
24056da2:	2000      	movs	r0, #0
24056da4:	e8bd 83f0 	ldmia.w	sp!, {r4, r5, r6, r7, r8, r9, pc}
24056da8:	6814      	ldr	r4, [r2, #0]
24056daa:	ea43 0308 	orr.w	r3, r3, r8
24056dae:	f024 043f 	bic.w	r4, r4, #63	; 0x3f
24056db2:	ea43 030c 	orr.w	r3, r3, ip
24056db6:	4323      	orrs	r3, r4
24056db8:	6013      	str	r3, [r2, #0]
24056dba:	6ac3      	ldr	r3, [r0, #44]	; 0x2c
24056dbc:	f1b3 5f80 	cmp.w	r3, #268435456	; 0x10000000
24056dc0:	d1ed      	bne.n	24056d9e <OSPI_ConfigCmd+0x14a>
24056dc2:	694b      	ldr	r3, [r1, #20]
24056dc4:	2b08      	cmp	r3, #8
24056dc6:	d1ea      	bne.n	24056d9e <OSPI_ConfigCmd+0x14a>
24056dc8:	6813      	ldr	r3, [r2, #0]
24056dca:	f043 6300 	orr.w	r3, r3, #134217728	; 0x8000000
24056dce:	e7e5      	b.n	24056d9c <OSPI_ConfigCmd+0x148>
24056dd0:	f1b9 0f00 	cmp.w	r9, #0
24056dd4:	d01b      	beq.n	24056e0e <OSPI_ConfigCmd+0x1ba>
24056dd6:	e9d1 6008 	ldrd	r6, r0, [r1, #32]
24056dda:	f1be 0f00 	cmp.w	lr, #0
24056dde:	d00d      	beq.n	24056dfc <OSPI_ConfigCmd+0x1a8>
24056de0:	ea4e 0309 	orr.w	r3, lr, r9
24056de4:	6815      	ldr	r5, [r2, #0]
24056de6:	4303      	orrs	r3, r0
24056de8:	6c08      	ldr	r0, [r1, #64]	; 0x40
24056dea:	4333      	orrs	r3, r6
24056dec:	4303      	orrs	r3, r0
24056dee:	f025 6070 	bic.w	r0, r5, #251658240	; 0xf000000
24056df2:	f420 507c 	bic.w	r0, r0, #16128	; 0x3f00
24056df6:	4303      	orrs	r3, r0
24056df8:	6013      	str	r3, [r2, #0]
24056dfa:	e78b      	b.n	24056d14 <OSPI_ConfigCmd+0xc0>
24056dfc:	6813      	ldr	r3, [r2, #0]
24056dfe:	ea40 0009 	orr.w	r0, r0, r9
24056e02:	f423 537c 	bic.w	r3, r3, #16128	; 0x3f00
24056e06:	4330      	orrs	r0, r6
24056e08:	4318      	orrs	r0, r3
24056e0a:	6010      	str	r0, [r2, #0]
24056e0c:	e782      	b.n	24056d14 <OSPI_ConfigCmd+0xc0>
24056e0e:	2308      	movs	r3, #8
24056e10:	6543      	str	r3, [r0, #84]	; 0x54
24056e12:	2001      	movs	r0, #1
24056e14:	e7c6      	b.n	24056da4 <OSPI_ConfigCmd+0x150>
24056e16:	bf00      	nop
24056e18:	f0ffc0c0 	.word	0xf0ffc0c0

24056e1c <OSPI_WaitFlagStateUntilTimeout>:
24056e1c:	e92d 41f0 	stmdb	sp!, {r4, r5, r6, r7, r8, lr}
24056e20:	f8dd 8018 	ldr.w	r8, [sp, #24]
24056e24:	4604      	mov	r4, r0
24056e26:	460e      	mov	r6, r1
24056e28:	4615      	mov	r5, r2
24056e2a:	461f      	mov	r7, r3
24056e2c:	6822      	ldr	r2, [r4, #0]
24056e2e:	6a13      	ldr	r3, [r2, #32]
24056e30:	4233      	tst	r3, r6
24056e32:	bf14      	ite	ne
24056e34:	2301      	movne	r3, #1
24056e36:	2300      	moveq	r3, #0
24056e38:	42ab      	cmp	r3, r5
24056e3a:	d101      	bne.n	24056e40 <OSPI_WaitFlagStateUntilTimeout+0x24>
24056e3c:	2000      	movs	r0, #0
24056e3e:	e012      	b.n	24056e66 <OSPI_WaitFlagStateUntilTimeout+0x4a>
24056e40:	f1b8 3fff 	cmp.w	r8, #4294967295
24056e44:	d0f3      	beq.n	24056e2e <OSPI_WaitFlagStateUntilTimeout+0x12>
24056e46:	f7fd fa8d 	bl	24054364 <HAL_GetTick>
24056e4a:	1bc0      	subs	r0, r0, r7
24056e4c:	4540      	cmp	r0, r8
24056e4e:	d802      	bhi.n	24056e56 <OSPI_WaitFlagStateUntilTimeout+0x3a>
24056e50:	f1b8 0f00 	cmp.w	r8, #0
24056e54:	d1ea      	bne.n	24056e2c <OSPI_WaitFlagStateUntilTimeout+0x10>
24056e56:	f44f 7300 	mov.w	r3, #512	; 0x200
24056e5a:	2001      	movs	r0, #1
24056e5c:	6523      	str	r3, [r4, #80]	; 0x50
24056e5e:	6d63      	ldr	r3, [r4, #84]	; 0x54
24056e60:	f043 0301 	orr.w	r3, r3, #1
24056e64:	6563      	str	r3, [r4, #84]	; 0x54
24056e66:	e8bd 81f0 	ldmia.w	sp!, {r4, r5, r6, r7, r8, pc}
	...

24056e6c <HAL_OSPI_Init>:
24056e6c:	b5f0      	push	{r4, r5, r6, r7, lr}
24056e6e:	4604      	mov	r4, r0
24056e70:	b085      	sub	sp, #20
24056e72:	f7fd fa77 	bl	24054364 <HAL_GetTick>
24056e76:	4603      	mov	r3, r0
24056e78:	2c00      	cmp	r4, #0
24056e7a:	d067      	beq.n	24056f4c <HAL_OSPI_Init+0xe0>
24056e7c:	2000      	movs	r0, #0
24056e7e:	6560      	str	r0, [r4, #84]	; 0x54
24056e80:	6d26      	ldr	r6, [r4, #80]	; 0x50
24056e82:	2e00      	cmp	r6, #0
24056e84:	d160      	bne.n	24056f48 <HAL_OSPI_Init+0xdc>
24056e86:	4620      	mov	r0, r4
24056e88:	9303      	str	r3, [sp, #12]
24056e8a:	f7fc ff0d 	bl	24053ca8 <HAL_OSPI_MspInit>
24056e8e:	6b60      	ldr	r0, [r4, #52]	; 0x34
24056e90:	68e1      	ldr	r1, [r4, #12]
24056e92:	f241 3288 	movw	r2, #5000	; 0x1388
24056e96:	6825      	ldr	r5, [r4, #0]
24056e98:	4301      	orrs	r1, r0
24056e9a:	69e0      	ldr	r0, [r4, #28]
24056e9c:	68af      	ldr	r7, [r5, #8]
24056e9e:	4301      	orrs	r1, r0
24056ea0:	482b      	ldr	r0, [pc, #172]	; (24056f50 <HAL_OSPI_Init+0xe4>)
24056ea2:	65a2      	str	r2, [r4, #88]	; 0x58
24056ea4:	4038      	ands	r0, r7
24056ea6:	9b03      	ldr	r3, [sp, #12]
24056ea8:	4301      	orrs	r1, r0
24056eaa:	6920      	ldr	r0, [r4, #16]
24056eac:	3801      	subs	r0, #1
24056eae:	ea41 4100 	orr.w	r1, r1, r0, lsl #16
24056eb2:	6960      	ldr	r0, [r4, #20]
24056eb4:	3801      	subs	r0, #1
24056eb6:	ea41 2100 	orr.w	r1, r1, r0, lsl #8
24056eba:	6a20      	ldr	r0, [r4, #32]
24056ebc:	60a9      	str	r1, [r5, #8]
24056ebe:	68e9      	ldr	r1, [r5, #12]
24056ec0:	f421 21e0 	bic.w	r1, r1, #458752	; 0x70000
24056ec4:	4301      	orrs	r1, r0
24056ec6:	6b20      	ldr	r0, [r4, #48]	; 0x30
24056ec8:	60e9      	str	r1, [r5, #12]
24056eca:	6ba1      	ldr	r1, [r4, #56]	; 0x38
24056ecc:	ea41 4100 	orr.w	r1, r1, r0, lsl #16
24056ed0:	6860      	ldr	r0, [r4, #4]
24056ed2:	6129      	str	r1, [r5, #16]
24056ed4:	3801      	subs	r0, #1
24056ed6:	6be1      	ldr	r1, [r4, #60]	; 0x3c
24056ed8:	6169      	str	r1, [r5, #20]
24056eda:	6829      	ldr	r1, [r5, #0]
24056edc:	f421 51f8 	bic.w	r1, r1, #7936	; 0x1f00
24056ee0:	ea41 2100 	orr.w	r1, r1, r0, lsl #8
24056ee4:	4620      	mov	r0, r4
24056ee6:	6029      	str	r1, [r5, #0]
24056ee8:	2120      	movs	r1, #32
24056eea:	9200      	str	r2, [sp, #0]
24056eec:	4632      	mov	r2, r6
24056eee:	f7ff ff95 	bl	24056e1c <OSPI_WaitFlagStateUntilTimeout>
24056ef2:	bb48      	cbnz	r0, 24056f48 <HAL_OSPI_Init+0xdc>
24056ef4:	6823      	ldr	r3, [r4, #0]
24056ef6:	6a62      	ldr	r2, [r4, #36]	; 0x24
24056ef8:	68d9      	ldr	r1, [r3, #12]
24056efa:	3a01      	subs	r2, #1
24056efc:	f021 01ff 	bic.w	r1, r1, #255	; 0xff
24056f00:	430a      	orrs	r2, r1
24056f02:	68a1      	ldr	r1, [r4, #8]
24056f04:	60da      	str	r2, [r3, #12]
24056f06:	681a      	ldr	r2, [r3, #0]
24056f08:	f022 0240 	bic.w	r2, r2, #64	; 0x40
24056f0c:	430a      	orrs	r2, r1
24056f0e:	601a      	str	r2, [r3, #0]
24056f10:	f8d3 1108 	ldr.w	r1, [r3, #264]	; 0x108
24056f14:	e9d4 250a 	ldrd	r2, r5, [r4, #40]	; 0x28
24056f18:	f021 41a0 	bic.w	r1, r1, #1342177280	; 0x50000000
24056f1c:	432a      	orrs	r2, r5
24056f1e:	430a      	orrs	r2, r1
24056f20:	f8c3 2108 	str.w	r2, [r3, #264]	; 0x108
24056f24:	681a      	ldr	r2, [r3, #0]
24056f26:	f042 0201 	orr.w	r2, r2, #1
24056f2a:	601a      	str	r2, [r3, #0]
24056f2c:	69a2      	ldr	r2, [r4, #24]
24056f2e:	2a02      	cmp	r2, #2
24056f30:	d103      	bne.n	24056f3a <HAL_OSPI_Init+0xce>
24056f32:	689a      	ldr	r2, [r3, #8]
24056f34:	f042 0202 	orr.w	r2, r2, #2
24056f38:	609a      	str	r2, [r3, #8]
24056f3a:	68e3      	ldr	r3, [r4, #12]
24056f3c:	f1b3 6f80 	cmp.w	r3, #67108864	; 0x4000000
24056f40:	bf0c      	ite	eq
24056f42:	2301      	moveq	r3, #1
24056f44:	2302      	movne	r3, #2
24056f46:	6523      	str	r3, [r4, #80]	; 0x50
24056f48:	b005      	add	sp, #20
24056f4a:	bdf0      	pop	{r4, r5, r6, r7, pc}
24056f4c:	2001      	movs	r0, #1
24056f4e:	e7fb      	b.n	24056f48 <HAL_OSPI_Init+0xdc>
24056f50:	f8e0f8f4 	.word	0xf8e0f8f4

24056f54 <HAL_OSPI_Command>:
24056f54:	b57f      	push	{r0, r1, r2, r3, r4, r5, r6, lr}
24056f56:	4604      	mov	r4, r0
24056f58:	4616      	mov	r6, r2
24056f5a:	460d      	mov	r5, r1
24056f5c:	f7fd fa02 	bl	24054364 <HAL_GetTick>
24056f60:	6d22      	ldr	r2, [r4, #80]	; 0x50
24056f62:	4603      	mov	r3, r0
24056f64:	2a02      	cmp	r2, #2
24056f66:	d107      	bne.n	24056f78 <HAL_OSPI_Command+0x24>
24056f68:	68e2      	ldr	r2, [r4, #12]
24056f6a:	f1b2 6f80 	cmp.w	r2, #67108864	; 0x4000000
24056f6e:	d109      	bne.n	24056f84 <HAL_OSPI_Command+0x30>
24056f70:	2310      	movs	r3, #16
24056f72:	2001      	movs	r0, #1
24056f74:	6563      	str	r3, [r4, #84]	; 0x54
24056f76:	e01f      	b.n	24056fb8 <HAL_OSPI_Command+0x64>
24056f78:	2a14      	cmp	r2, #20
24056f7a:	d11f      	bne.n	24056fbc <HAL_OSPI_Command+0x68>
24056f7c:	682a      	ldr	r2, [r5, #0]
24056f7e:	3a02      	subs	r2, #2
24056f80:	2a01      	cmp	r2, #1
24056f82:	d8f5      	bhi.n	24056f70 <HAL_OSPI_Command+0x1c>
24056f84:	2200      	movs	r2, #0
24056f86:	2120      	movs	r1, #32
24056f88:	4620      	mov	r0, r4
24056f8a:	9600      	str	r6, [sp, #0]
24056f8c:	9303      	str	r3, [sp, #12]
24056f8e:	f7ff ff45 	bl	24056e1c <OSPI_WaitFlagStateUntilTimeout>
24056f92:	b988      	cbnz	r0, 24056fb8 <HAL_OSPI_Command+0x64>
24056f94:	6560      	str	r0, [r4, #84]	; 0x54
24056f96:	4629      	mov	r1, r5
24056f98:	4620      	mov	r0, r4
24056f9a:	f7ff fe5b 	bl	24056c54 <OSPI_ConfigCmd>
24056f9e:	b958      	cbnz	r0, 24056fb8 <HAL_OSPI_Command+0x64>
24056fa0:	6baa      	ldr	r2, [r5, #56]	; 0x38
24056fa2:	9b03      	ldr	r3, [sp, #12]
24056fa4:	b992      	cbnz	r2, 24056fcc <HAL_OSPI_Command+0x78>
24056fa6:	2201      	movs	r2, #1
24056fa8:	2102      	movs	r1, #2
24056faa:	4620      	mov	r0, r4
24056fac:	9600      	str	r6, [sp, #0]
24056fae:	f7ff ff35 	bl	24056e1c <OSPI_WaitFlagStateUntilTimeout>
24056fb2:	6823      	ldr	r3, [r4, #0]
24056fb4:	2202      	movs	r2, #2
24056fb6:	625a      	str	r2, [r3, #36]	; 0x24
24056fb8:	b004      	add	sp, #16
24056fba:	bd70      	pop	{r4, r5, r6, pc}
24056fbc:	2a24      	cmp	r2, #36	; 0x24
24056fbe:	d1d7      	bne.n	24056f70 <HAL_OSPI_Command+0x1c>
24056fc0:	682a      	ldr	r2, [r5, #0]
24056fc2:	f022 0202 	bic.w	r2, r2, #2
24056fc6:	2a01      	cmp	r2, #1
24056fc8:	d1d2      	bne.n	24056f70 <HAL_OSPI_Command+0x1c>
24056fca:	e7db      	b.n	24056f84 <HAL_OSPI_Command+0x30>
24056fcc:	682b      	ldr	r3, [r5, #0]
24056fce:	b90b      	cbnz	r3, 24056fd4 <HAL_OSPI_Command+0x80>
24056fd0:	2304      	movs	r3, #4
24056fd2:	e005      	b.n	24056fe0 <HAL_OSPI_Command+0x8c>
24056fd4:	2b01      	cmp	r3, #1
24056fd6:	d105      	bne.n	24056fe4 <HAL_OSPI_Command+0x90>
24056fd8:	6d23      	ldr	r3, [r4, #80]	; 0x50
24056fda:	2b24      	cmp	r3, #36	; 0x24
24056fdc:	d0f8      	beq.n	24056fd0 <HAL_OSPI_Command+0x7c>
24056fde:	2314      	movs	r3, #20
24056fe0:	6523      	str	r3, [r4, #80]	; 0x50
24056fe2:	e7e9      	b.n	24056fb8 <HAL_OSPI_Command+0x64>
24056fe4:	2b02      	cmp	r3, #2
24056fe6:	d1e7      	bne.n	24056fb8 <HAL_OSPI_Command+0x64>
24056fe8:	6d23      	ldr	r3, [r4, #80]	; 0x50
24056fea:	2b14      	cmp	r3, #20
24056fec:	d0f0      	beq.n	24056fd0 <HAL_OSPI_Command+0x7c>
24056fee:	2324      	movs	r3, #36	; 0x24
24056ff0:	e7f6      	b.n	24056fe0 <HAL_OSPI_Command+0x8c>

24056ff2 <HAL_OSPI_Transmit>:
24056ff2:	b5f0      	push	{r4, r5, r6, r7, lr}
24056ff4:	4604      	mov	r4, r0
24056ff6:	460f      	mov	r7, r1
24056ff8:	b085      	sub	sp, #20
24056ffa:	4615      	mov	r5, r2
24056ffc:	f7fd f9b2 	bl	24054364 <HAL_GetTick>
24057000:	6826      	ldr	r6, [r4, #0]
24057002:	4603      	mov	r3, r0
24057004:	b91f      	cbnz	r7, 2405700e <HAL_OSPI_Transmit+0x1c>
24057006:	2308      	movs	r3, #8
24057008:	2001      	movs	r0, #1
2405700a:	6563      	str	r3, [r4, #84]	; 0x54
2405700c:	e02d      	b.n	2405706a <HAL_OSPI_Transmit+0x78>
2405700e:	6d22      	ldr	r2, [r4, #80]	; 0x50
24057010:	2a04      	cmp	r2, #4
24057012:	d12c      	bne.n	2405706e <HAL_OSPI_Transmit+0x7c>
24057014:	6c32      	ldr	r2, [r6, #64]	; 0x40
24057016:	6427      	str	r7, [r4, #64]	; 0x40
24057018:	3201      	adds	r2, #1
2405701a:	64a2      	str	r2, [r4, #72]	; 0x48
2405701c:	6ca2      	ldr	r2, [r4, #72]	; 0x48
2405701e:	6462      	str	r2, [r4, #68]	; 0x44
24057020:	6832      	ldr	r2, [r6, #0]
24057022:	f022 5240 	bic.w	r2, r2, #805306368	; 0x30000000
24057026:	6032      	str	r2, [r6, #0]
24057028:	2201      	movs	r2, #1
2405702a:	2104      	movs	r1, #4
2405702c:	4620      	mov	r0, r4
2405702e:	9500      	str	r5, [sp, #0]
24057030:	9303      	str	r3, [sp, #12]
24057032:	f7ff fef3 	bl	24056e1c <OSPI_WaitFlagStateUntilTimeout>
24057036:	b9c0      	cbnz	r0, 2405706a <HAL_OSPI_Transmit+0x78>
24057038:	6c22      	ldr	r2, [r4, #64]	; 0x40
2405703a:	9b03      	ldr	r3, [sp, #12]
2405703c:	7812      	ldrb	r2, [r2, #0]
2405703e:	f886 2050 	strb.w	r2, [r6, #80]	; 0x50
24057042:	6c22      	ldr	r2, [r4, #64]	; 0x40
24057044:	3201      	adds	r2, #1
24057046:	6422      	str	r2, [r4, #64]	; 0x40
24057048:	6ca2      	ldr	r2, [r4, #72]	; 0x48
2405704a:	3a01      	subs	r2, #1
2405704c:	64a2      	str	r2, [r4, #72]	; 0x48
2405704e:	6ca2      	ldr	r2, [r4, #72]	; 0x48
24057050:	2a00      	cmp	r2, #0
24057052:	d1e9      	bne.n	24057028 <HAL_OSPI_Transmit+0x36>
24057054:	2201      	movs	r2, #1
24057056:	2102      	movs	r1, #2
24057058:	4620      	mov	r0, r4
2405705a:	9500      	str	r5, [sp, #0]
2405705c:	f7ff fede 	bl	24056e1c <OSPI_WaitFlagStateUntilTimeout>
24057060:	b918      	cbnz	r0, 2405706a <HAL_OSPI_Transmit+0x78>
24057062:	2302      	movs	r3, #2
24057064:	6822      	ldr	r2, [r4, #0]
24057066:	6253      	str	r3, [r2, #36]	; 0x24
24057068:	6523      	str	r3, [r4, #80]	; 0x50
2405706a:	b005      	add	sp, #20
2405706c:	bdf0      	pop	{r4, r5, r6, r7, pc}
2405706e:	2310      	movs	r3, #16
24057070:	e7ca      	b.n	24057008 <HAL_OSPI_Transmit+0x16>

24057072 <HAL_OSPI_Receive>:
24057072:	b5f0      	push	{r4, r5, r6, r7, lr}
24057074:	4604      	mov	r4, r0
24057076:	b085      	sub	sp, #20
24057078:	460f      	mov	r7, r1
2405707a:	4616      	mov	r6, r2
2405707c:	f7fd f972 	bl	24054364 <HAL_GetTick>
24057080:	6825      	ldr	r5, [r4, #0]
24057082:	4603      	mov	r3, r0
24057084:	6ca8      	ldr	r0, [r5, #72]	; 0x48
24057086:	f8d5 c110 	ldr.w	ip, [r5, #272]	; 0x110
2405708a:	b91f      	cbnz	r7, 24057094 <HAL_OSPI_Receive+0x22>
2405708c:	2308      	movs	r3, #8
2405708e:	2001      	movs	r0, #1
24057090:	6563      	str	r3, [r4, #84]	; 0x54
24057092:	e034      	b.n	240570fe <HAL_OSPI_Receive+0x8c>
24057094:	6d22      	ldr	r2, [r4, #80]	; 0x50
24057096:	2a04      	cmp	r2, #4
24057098:	d13b      	bne.n	24057112 <HAL_OSPI_Receive+0xa0>
2405709a:	6c2a      	ldr	r2, [r5, #64]	; 0x40
2405709c:	6427      	str	r7, [r4, #64]	; 0x40
2405709e:	3201      	adds	r2, #1
240570a0:	64a2      	str	r2, [r4, #72]	; 0x48
240570a2:	6ca2      	ldr	r2, [r4, #72]	; 0x48
240570a4:	6462      	str	r2, [r4, #68]	; 0x44
240570a6:	6829      	ldr	r1, [r5, #0]
240570a8:	68e2      	ldr	r2, [r4, #12]
240570aa:	f021 5140 	bic.w	r1, r1, #805306368	; 0x30000000
240570ae:	f1b2 6f80 	cmp.w	r2, #67108864	; 0x4000000
240570b2:	f041 5180 	orr.w	r1, r1, #268435456	; 0x10000000
240570b6:	6029      	str	r1, [r5, #0]
240570b8:	d123      	bne.n	24057102 <HAL_OSPI_Receive+0x90>
240570ba:	64a8      	str	r0, [r5, #72]	; 0x48
240570bc:	2201      	movs	r2, #1
240570be:	2106      	movs	r1, #6
240570c0:	4620      	mov	r0, r4
240570c2:	9600      	str	r6, [sp, #0]
240570c4:	9303      	str	r3, [sp, #12]
240570c6:	f7ff fea9 	bl	24056e1c <OSPI_WaitFlagStateUntilTimeout>
240570ca:	b9c0      	cbnz	r0, 240570fe <HAL_OSPI_Receive+0x8c>
240570cc:	f895 1050 	ldrb.w	r1, [r5, #80]	; 0x50
240570d0:	6c22      	ldr	r2, [r4, #64]	; 0x40
240570d2:	9b03      	ldr	r3, [sp, #12]
240570d4:	7011      	strb	r1, [r2, #0]
240570d6:	6c22      	ldr	r2, [r4, #64]	; 0x40
240570d8:	3201      	adds	r2, #1
240570da:	6422      	str	r2, [r4, #64]	; 0x40
240570dc:	6ca2      	ldr	r2, [r4, #72]	; 0x48
240570de:	3a01      	subs	r2, #1
240570e0:	64a2      	str	r2, [r4, #72]	; 0x48
240570e2:	6ca2      	ldr	r2, [r4, #72]	; 0x48
240570e4:	2a00      	cmp	r2, #0
240570e6:	d1e9      	bne.n	240570bc <HAL_OSPI_Receive+0x4a>
240570e8:	2201      	movs	r2, #1
240570ea:	2102      	movs	r1, #2
240570ec:	4620      	mov	r0, r4
240570ee:	9600      	str	r6, [sp, #0]
240570f0:	f7ff fe94 	bl	24056e1c <OSPI_WaitFlagStateUntilTimeout>
240570f4:	b918      	cbnz	r0, 240570fe <HAL_OSPI_Receive+0x8c>
240570f6:	2302      	movs	r3, #2
240570f8:	6822      	ldr	r2, [r4, #0]
240570fa:	6253      	str	r3, [r2, #36]	; 0x24
240570fc:	6523      	str	r3, [r4, #80]	; 0x50
240570fe:	b005      	add	sp, #20
24057100:	bdf0      	pop	{r4, r5, r6, r7, pc}
24057102:	f8d5 2100 	ldr.w	r2, [r5, #256]	; 0x100
24057106:	f412 6fe0 	tst.w	r2, #1792	; 0x700
2405710a:	d1d6      	bne.n	240570ba <HAL_OSPI_Receive+0x48>
2405710c:	f8c5 c110 	str.w	ip, [r5, #272]	; 0x110
24057110:	e7d4      	b.n	240570bc <HAL_OSPI_Receive+0x4a>
24057112:	2310      	movs	r3, #16
24057114:	e7bb      	b.n	2405708e <HAL_OSPI_Receive+0x1c>

24057116 <HAL_OSPI_MemoryMapped>:
24057116:	b537      	push	{r0, r1, r2, r4, r5, lr}
24057118:	4604      	mov	r4, r0
2405711a:	460d      	mov	r5, r1
2405711c:	f7fd f922 	bl	24054364 <HAL_GetTick>
24057120:	4603      	mov	r3, r0
24057122:	6d22      	ldr	r2, [r4, #80]	; 0x50
24057124:	2a04      	cmp	r2, #4
24057126:	d121      	bne.n	2405716c <HAL_OSPI_MemoryMapped+0x56>
24057128:	6da2      	ldr	r2, [r4, #88]	; 0x58
2405712a:	2120      	movs	r1, #32
2405712c:	4620      	mov	r0, r4
2405712e:	9200      	str	r2, [sp, #0]
24057130:	2200      	movs	r2, #0
24057132:	f7ff fe73 	bl	24056e1c <OSPI_WaitFlagStateUntilTimeout>
24057136:	b9b8      	cbnz	r0, 24057168 <HAL_OSPI_MemoryMapped+0x52>
24057138:	6829      	ldr	r1, [r5, #0]
2405713a:	2388      	movs	r3, #136	; 0x88
2405713c:	6822      	ldr	r2, [r4, #0]
2405713e:	2908      	cmp	r1, #8
24057140:	6523      	str	r3, [r4, #80]	; 0x50
24057142:	d108      	bne.n	24057156 <HAL_OSPI_MemoryMapped+0x40>
24057144:	686b      	ldr	r3, [r5, #4]
24057146:	f8c2 3130 	str.w	r3, [r2, #304]	; 0x130
2405714a:	2310      	movs	r3, #16
2405714c:	6253      	str	r3, [r2, #36]	; 0x24
2405714e:	6813      	ldr	r3, [r2, #0]
24057150:	f443 1380 	orr.w	r3, r3, #1048576	; 0x100000
24057154:	6013      	str	r3, [r2, #0]
24057156:	6813      	ldr	r3, [r2, #0]
24057158:	f023 5340 	bic.w	r3, r3, #805306368	; 0x30000000
2405715c:	f023 0308 	bic.w	r3, r3, #8
24057160:	430b      	orrs	r3, r1
24057162:	f043 5340 	orr.w	r3, r3, #805306368	; 0x30000000
24057166:	6013      	str	r3, [r2, #0]
24057168:	b003      	add	sp, #12
2405716a:	bd30      	pop	{r4, r5, pc}
2405716c:	2310      	movs	r3, #16
2405716e:	2001      	movs	r0, #1
24057170:	6563      	str	r3, [r4, #84]	; 0x54
24057172:	e7f9      	b.n	24057168 <HAL_OSPI_MemoryMapped+0x52>

24057174 <HAL_OSPI_ErrorCallback>:
24057174:	4770      	bx	lr

24057176 <HAL_OSPI_AbortCpltCallback>:
24057176:	4770      	bx	lr

24057178 <OSPI_DMAAbortCplt>:
24057178:	6c00      	ldr	r0, [r0, #64]	; 0x40
2405717a:	b508      	push	{r3, lr}
2405717c:	2300      	movs	r3, #0
2405717e:	6483      	str	r3, [r0, #72]	; 0x48
24057180:	6d03      	ldr	r3, [r0, #80]	; 0x50
24057182:	f5b3 7f80 	cmp.w	r3, #256	; 0x100
24057186:	d114      	bne.n	240571b2 <OSPI_DMAAbortCplt+0x3a>
24057188:	6803      	ldr	r3, [r0, #0]
2405718a:	6a1a      	ldr	r2, [r3, #32]
2405718c:	f012 0f20 	tst.w	r2, #32
24057190:	f04f 0202 	mov.w	r2, #2
24057194:	d009      	beq.n	240571aa <OSPI_DMAAbortCplt+0x32>
24057196:	625a      	str	r2, [r3, #36]	; 0x24
24057198:	681a      	ldr	r2, [r3, #0]
2405719a:	f442 3200 	orr.w	r2, r2, #131072	; 0x20000
2405719e:	601a      	str	r2, [r3, #0]
240571a0:	681a      	ldr	r2, [r3, #0]
240571a2:	f042 0202 	orr.w	r2, r2, #2
240571a6:	601a      	str	r2, [r3, #0]
240571a8:	bd08      	pop	{r3, pc}
240571aa:	6502      	str	r2, [r0, #80]	; 0x50
240571ac:	f7ff ffe3 	bl	24057176 <HAL_OSPI_AbortCpltCallback>
240571b0:	e7fa      	b.n	240571a8 <OSPI_DMAAbortCplt+0x30>
240571b2:	2302      	movs	r3, #2
240571b4:	6503      	str	r3, [r0, #80]	; 0x50
240571b6:	f7ff ffdd 	bl	24057174 <HAL_OSPI_ErrorCallback>
240571ba:	e7f5      	b.n	240571a8 <OSPI_DMAAbortCplt+0x30>

240571bc <HAL_OSPI_FifoThresholdCallback>:
240571bc:	4770      	bx	lr

240571be <HAL_OSPI_CmdCpltCallback>:
240571be:	4770      	bx	lr

240571c0 <HAL_OSPI_RxCpltCallback>:
240571c0:	4770      	bx	lr

240571c2 <HAL_OSPI_TxCpltCallback>:
240571c2:	4770      	bx	lr

240571c4 <HAL_OSPI_StatusMatchCallback>:
240571c4:	4770      	bx	lr

240571c6 <HAL_OSPI_TimeOutCallback>:
240571c6:	4770      	bx	lr

240571c8 <HAL_OSPI_IRQHandler>:
240571c8:	b538      	push	{r3, r4, r5, lr}
240571ca:	6803      	ldr	r3, [r0, #0]
240571cc:	4604      	mov	r4, r0
240571ce:	6a1a      	ldr	r2, [r3, #32]
240571d0:	6818      	ldr	r0, [r3, #0]
240571d2:	0755      	lsls	r5, r2, #29
240571d4:	6d21      	ldr	r1, [r4, #80]	; 0x50
240571d6:	d51f      	bpl.n	24057218 <HAL_OSPI_IRQHandler+0x50>
240571d8:	0345      	lsls	r5, r0, #13
240571da:	d51d      	bpl.n	24057218 <HAL_OSPI_IRQHandler+0x50>
240571dc:	2918      	cmp	r1, #24
240571de:	d114      	bne.n	2405720a <HAL_OSPI_IRQHandler+0x42>
240571e0:	6c22      	ldr	r2, [r4, #64]	; 0x40
240571e2:	7812      	ldrb	r2, [r2, #0]
240571e4:	f883 2050 	strb.w	r2, [r3, #80]	; 0x50
240571e8:	6c23      	ldr	r3, [r4, #64]	; 0x40
240571ea:	3301      	adds	r3, #1
240571ec:	6423      	str	r3, [r4, #64]	; 0x40
240571ee:	6ca3      	ldr	r3, [r4, #72]	; 0x48
240571f0:	3b01      	subs	r3, #1
240571f2:	64a3      	str	r3, [r4, #72]	; 0x48
240571f4:	6ca3      	ldr	r3, [r4, #72]	; 0x48
240571f6:	b923      	cbnz	r3, 24057202 <HAL_OSPI_IRQHandler+0x3a>
240571f8:	6822      	ldr	r2, [r4, #0]
240571fa:	6813      	ldr	r3, [r2, #0]
240571fc:	f423 2380 	bic.w	r3, r3, #262144	; 0x40000
24057200:	6013      	str	r3, [r2, #0]
24057202:	4620      	mov	r0, r4
24057204:	f7ff ffda 	bl	240571bc <HAL_OSPI_FifoThresholdCallback>
24057208:	bd38      	pop	{r3, r4, r5, pc}
2405720a:	2928      	cmp	r1, #40	; 0x28
2405720c:	d1f2      	bne.n	240571f4 <HAL_OSPI_IRQHandler+0x2c>
2405720e:	6c22      	ldr	r2, [r4, #64]	; 0x40
24057210:	f893 3050 	ldrb.w	r3, [r3, #80]	; 0x50
24057214:	7013      	strb	r3, [r2, #0]
24057216:	e7e7      	b.n	240571e8 <HAL_OSPI_IRQHandler+0x20>
24057218:	0795      	lsls	r5, r2, #30
2405721a:	d53e      	bpl.n	2405729a <HAL_OSPI_IRQHandler+0xd2>
2405721c:	0385      	lsls	r5, r0, #14
2405721e:	d53c      	bpl.n	2405729a <HAL_OSPI_IRQHandler+0xd2>
24057220:	2928      	cmp	r1, #40	; 0x28
24057222:	d11d      	bne.n	24057260 <HAL_OSPI_IRQHandler+0x98>
24057224:	6ca1      	ldr	r1, [r4, #72]	; 0x48
24057226:	b169      	cbz	r1, 24057244 <HAL_OSPI_IRQHandler+0x7c>
24057228:	f412 5f7c 	tst.w	r2, #16128	; 0x3f00
2405722c:	d00a      	beq.n	24057244 <HAL_OSPI_IRQHandler+0x7c>
2405722e:	f893 3050 	ldrb.w	r3, [r3, #80]	; 0x50
24057232:	6c22      	ldr	r2, [r4, #64]	; 0x40
24057234:	7013      	strb	r3, [r2, #0]
24057236:	6c23      	ldr	r3, [r4, #64]	; 0x40
24057238:	3301      	adds	r3, #1
2405723a:	6423      	str	r3, [r4, #64]	; 0x40
2405723c:	6ca3      	ldr	r3, [r4, #72]	; 0x48
2405723e:	3b01      	subs	r3, #1
24057240:	64a3      	str	r3, [r4, #72]	; 0x48
24057242:	e7e1      	b.n	24057208 <HAL_OSPI_IRQHandler+0x40>
24057244:	6ca2      	ldr	r2, [r4, #72]	; 0x48
24057246:	2a00      	cmp	r2, #0
24057248:	d1de      	bne.n	24057208 <HAL_OSPI_IRQHandler+0x40>
2405724a:	2102      	movs	r1, #2
2405724c:	4620      	mov	r0, r4
2405724e:	6259      	str	r1, [r3, #36]	; 0x24
24057250:	681a      	ldr	r2, [r3, #0]
24057252:	f422 22e0 	bic.w	r2, r2, #458752	; 0x70000
24057256:	601a      	str	r2, [r3, #0]
24057258:	6521      	str	r1, [r4, #80]	; 0x50
2405725a:	f7ff ffb1 	bl	240571c0 <HAL_OSPI_RxCpltCallback>
2405725e:	e7d3      	b.n	24057208 <HAL_OSPI_IRQHandler+0x40>
24057260:	2002      	movs	r0, #2
24057262:	2918      	cmp	r1, #24
24057264:	6258      	str	r0, [r3, #36]	; 0x24
24057266:	681a      	ldr	r2, [r3, #0]
24057268:	f422 22e0 	bic.w	r2, r2, #458752	; 0x70000
2405726c:	601a      	str	r2, [r3, #0]
2405726e:	6520      	str	r0, [r4, #80]	; 0x50
24057270:	d103      	bne.n	2405727a <HAL_OSPI_IRQHandler+0xb2>
24057272:	4620      	mov	r0, r4
24057274:	f7ff ffa5 	bl	240571c2 <HAL_OSPI_TxCpltCallback>
24057278:	e7c6      	b.n	24057208 <HAL_OSPI_IRQHandler+0x40>
2405727a:	2908      	cmp	r1, #8
2405727c:	d103      	bne.n	24057286 <HAL_OSPI_IRQHandler+0xbe>
2405727e:	4620      	mov	r0, r4
24057280:	f7ff ff9d 	bl	240571be <HAL_OSPI_CmdCpltCallback>
24057284:	e7c0      	b.n	24057208 <HAL_OSPI_IRQHandler+0x40>
24057286:	f5b1 7f80 	cmp.w	r1, #256	; 0x100
2405728a:	d1bd      	bne.n	24057208 <HAL_OSPI_IRQHandler+0x40>
2405728c:	6d63      	ldr	r3, [r4, #84]	; 0x54
2405728e:	4620      	mov	r0, r4
24057290:	2b00      	cmp	r3, #0
24057292:	d131      	bne.n	240572f8 <HAL_OSPI_IRQHandler+0x130>
24057294:	f7ff ff6f 	bl	24057176 <HAL_OSPI_AbortCpltCallback>
24057298:	e7b6      	b.n	24057208 <HAL_OSPI_IRQHandler+0x40>
2405729a:	0711      	lsls	r1, r2, #28
2405729c:	d510      	bpl.n	240572c0 <HAL_OSPI_IRQHandler+0xf8>
2405729e:	0305      	lsls	r5, r0, #12
240572a0:	d50e      	bpl.n	240572c0 <HAL_OSPI_IRQHandler+0xf8>
240572a2:	2208      	movs	r2, #8
240572a4:	625a      	str	r2, [r3, #36]	; 0x24
240572a6:	681a      	ldr	r2, [r3, #0]
240572a8:	0250      	lsls	r0, r2, #9
240572aa:	d505      	bpl.n	240572b8 <HAL_OSPI_IRQHandler+0xf0>
240572ac:	681a      	ldr	r2, [r3, #0]
240572ae:	f422 2210 	bic.w	r2, r2, #589824	; 0x90000
240572b2:	601a      	str	r2, [r3, #0]
240572b4:	2302      	movs	r3, #2
240572b6:	6523      	str	r3, [r4, #80]	; 0x50
240572b8:	4620      	mov	r0, r4
240572ba:	f7ff ff83 	bl	240571c4 <HAL_OSPI_StatusMatchCallback>
240572be:	e7a3      	b.n	24057208 <HAL_OSPI_IRQHandler+0x40>
240572c0:	07d1      	lsls	r1, r2, #31
240572c2:	d51c      	bpl.n	240572fe <HAL_OSPI_IRQHandler+0x136>
240572c4:	03c5      	lsls	r5, r0, #15
240572c6:	d51a      	bpl.n	240572fe <HAL_OSPI_IRQHandler+0x136>
240572c8:	2201      	movs	r2, #1
240572ca:	2502      	movs	r5, #2
240572cc:	625a      	str	r2, [r3, #36]	; 0x24
240572ce:	681a      	ldr	r2, [r3, #0]
240572d0:	f422 12f8 	bic.w	r2, r2, #2031616	; 0x1f0000
240572d4:	601a      	str	r2, [r3, #0]
240572d6:	6565      	str	r5, [r4, #84]	; 0x54
240572d8:	681a      	ldr	r2, [r3, #0]
240572da:	0750      	lsls	r0, r2, #29
240572dc:	d50a      	bpl.n	240572f4 <HAL_OSPI_IRQHandler+0x12c>
240572de:	681a      	ldr	r2, [r3, #0]
240572e0:	6ce0      	ldr	r0, [r4, #76]	; 0x4c
240572e2:	f022 0204 	bic.w	r2, r2, #4
240572e6:	601a      	str	r2, [r3, #0]
240572e8:	4b0a      	ldr	r3, [pc, #40]	; (24057314 <HAL_OSPI_IRQHandler+0x14c>)
240572ea:	6583      	str	r3, [r0, #88]	; 0x58
240572ec:	f7ff fc9e 	bl	24056c2c <HAL_MDMA_Abort_IT>
240572f0:	2800      	cmp	r0, #0
240572f2:	d089      	beq.n	24057208 <HAL_OSPI_IRQHandler+0x40>
240572f4:	4620      	mov	r0, r4
240572f6:	6525      	str	r5, [r4, #80]	; 0x50
240572f8:	f7ff ff3c 	bl	24057174 <HAL_OSPI_ErrorCallback>
240572fc:	e784      	b.n	24057208 <HAL_OSPI_IRQHandler+0x40>
240572fe:	06d1      	lsls	r1, r2, #27
24057300:	d582      	bpl.n	24057208 <HAL_OSPI_IRQHandler+0x40>
24057302:	02c2      	lsls	r2, r0, #11
24057304:	d580      	bpl.n	24057208 <HAL_OSPI_IRQHandler+0x40>
24057306:	2210      	movs	r2, #16
24057308:	4620      	mov	r0, r4
2405730a:	625a      	str	r2, [r3, #36]	; 0x24
2405730c:	f7ff ff5b 	bl	240571c6 <HAL_OSPI_TimeOutCallback>
24057310:	e77a      	b.n	24057208 <HAL_OSPI_IRQHandler+0x40>
24057312:	bf00      	nop
24057314:	24057179 	.word	0x24057179

24057318 <HAL_OSPIM_Config>:
24057318:	4b9f      	ldr	r3, [pc, #636]	; (24057598 <HAL_OSPIM_Config+0x280>)
2405731a:	f04f 0c01 	mov.w	ip, #1
2405731e:	6802      	ldr	r2, [r0, #0]
24057320:	e92d 4ff0 	stmdb	sp!, {r4, r5, r6, r7, r8, r9, sl, fp, lr}
24057324:	429a      	cmp	r2, r3
24057326:	b08f      	sub	sp, #60	; 0x3c
24057328:	f04f 0600 	mov.w	r6, #0
2405732c:	f8df e270 	ldr.w	lr, [pc, #624]	; 240575a0 <HAL_OSPIM_Config+0x288>
24057330:	bf0b      	itete	eq
24057332:	f04f 0801 	moveq.w	r8, #1
24057336:	f04f 0800 	movne.w	r8, #0
2405733a:	2400      	moveq	r4, #0
2405733c:	2401      	movne	r4, #1
2405733e:	ab02      	add	r3, sp, #8
24057340:	f8df 9260 	ldr.w	r9, [pc, #608]	; 240575a4 <HAL_OSPIM_Config+0x28c>
24057344:	f1bc 0f02 	cmp.w	ip, #2
24057348:	611e      	str	r6, [r3, #16]
2405734a:	e9c3 6600 	strd	r6, r6, [r3]
2405734e:	e9c3 6602 	strd	r6, r6, [r3, #8]
24057352:	f040 811c 	bne.w	2405758e <HAL_OSPIM_Config+0x276>
24057356:	f8de 2000 	ldr.w	r2, [lr]
2405735a:	f012 0f01 	tst.w	r2, #1
2405735e:	bf0c      	ite	eq
24057360:	464d      	moveq	r5, r9
24057362:	f44f 7500 	movne.w	r5, #512	; 0x200
24057366:	2700      	movs	r7, #0
24057368:	eb0e 0287 	add.w	r2, lr, r7, lsl #2
2405736c:	1c78      	adds	r0, r7, #1
2405736e:	6852      	ldr	r2, [r2, #4]
24057370:	07d7      	lsls	r7, r2, #31
24057372:	d504      	bpl.n	2405737e <HAL_OSPIM_Config+0x66>
24057374:	ea82 0705 	eor.w	r7, r2, r5
24057378:	07bf      	lsls	r7, r7, #30
2405737a:	bf58      	it	pl
2405737c:	6018      	strpl	r0, [r3, #0]
2405737e:	06d7      	lsls	r7, r2, #27
24057380:	d504      	bpl.n	2405738c <HAL_OSPIM_Config+0x74>
24057382:	ea82 0705 	eor.w	r7, r2, r5
24057386:	06bf      	lsls	r7, r7, #26
24057388:	bf58      	it	pl
2405738a:	6058      	strpl	r0, [r3, #4]
2405738c:	05d7      	lsls	r7, r2, #23
2405738e:	d504      	bpl.n	2405739a <HAL_OSPIM_Config+0x82>
24057390:	ea82 0705 	eor.w	r7, r2, r5
24057394:	05bf      	lsls	r7, r7, #22
24057396:	bf58      	it	pl
24057398:	6098      	strpl	r0, [r3, #8]
2405739a:	03d7      	lsls	r7, r2, #15
2405739c:	d50a      	bpl.n	240573b4 <HAL_OSPIM_Config+0x9c>
2405739e:	ea82 0705 	eor.w	r7, r2, r5
240573a2:	037f      	lsls	r7, r7, #13
240573a4:	d406      	bmi.n	240573b4 <HAL_OSPIM_Config+0x9c>
240573a6:	0397      	lsls	r7, r2, #14
240573a8:	bf54      	ite	pl
240573aa:	f440 3780 	orrpl.w	r7, r0, #65536	; 0x10000
240573ae:	f040 7780 	orrmi.w	r7, r0, #16777216	; 0x1000000
240573b2:	60df      	str	r7, [r3, #12]
240573b4:	01d7      	lsls	r7, r2, #7
240573b6:	d50a      	bpl.n	240573ce <HAL_OSPIM_Config+0xb6>
240573b8:	ea82 0705 	eor.w	r7, r2, r5
240573bc:	017f      	lsls	r7, r7, #5
240573be:	d406      	bmi.n	240573ce <HAL_OSPIM_Config+0xb6>
240573c0:	0197      	lsls	r7, r2, #6
240573c2:	bf54      	ite	pl
240573c4:	f440 3280 	orrpl.w	r2, r0, #65536	; 0x10000
240573c8:	f040 7280 	orrmi.w	r2, r0, #16777216	; 0x1000000
240573cc:	611a      	str	r2, [r3, #16]
240573ce:	2802      	cmp	r0, #2
240573d0:	f04f 0701 	mov.w	r7, #1
240573d4:	d1c8      	bne.n	24057368 <HAL_OSPIM_Config+0x50>
240573d6:	f1bc 0f02 	cmp.w	ip, #2
240573da:	f103 0318 	add.w	r3, r3, #24
240573de:	f040 80d4 	bne.w	2405758a <HAL_OSPIM_Config+0x272>
240573e2:	4b6d      	ldr	r3, [pc, #436]	; (24057598 <HAL_OSPIM_Config+0x280>)
240573e4:	681d      	ldr	r5, [r3, #0]
240573e6:	403d      	ands	r5, r7
240573e8:	d004      	beq.n	240573f4 <HAL_OSPIM_Config+0xdc>
240573ea:	681a      	ldr	r2, [r3, #0]
240573ec:	463d      	mov	r5, r7
240573ee:	f022 0201 	bic.w	r2, r2, #1
240573f2:	601a      	str	r2, [r3, #0]
240573f4:	4b69      	ldr	r3, [pc, #420]	; (2405759c <HAL_OSPIM_Config+0x284>)
240573f6:	681a      	ldr	r2, [r3, #0]
240573f8:	07d0      	lsls	r0, r2, #31
240573fa:	f140 80ca 	bpl.w	24057592 <HAL_OSPIM_Config+0x27a>
240573fe:	681a      	ldr	r2, [r3, #0]
24057400:	f022 0201 	bic.w	r2, r2, #1
24057404:	601a      	str	r2, [r3, #0]
24057406:	f045 0302 	orr.w	r3, r5, #2
2405740a:	9301      	str	r3, [sp, #4]
2405740c:	ab0e      	add	r3, sp, #56	; 0x38
2405740e:	2018      	movs	r0, #24
24057410:	fb00 3004 	mla	r0, r0, r4, r3
24057414:	4b62      	ldr	r3, [pc, #392]	; (240575a0 <HAL_OSPIM_Config+0x288>)
24057416:	f850 2c28 	ldr.w	r2, [r0, #-40]
2405741a:	3a01      	subs	r2, #1
2405741c:	eb03 0282 	add.w	r2, r3, r2, lsl #2
24057420:	6857      	ldr	r7, [r2, #4]
24057422:	f427 7780 	bic.w	r7, r7, #256	; 0x100
24057426:	6057      	str	r7, [r2, #4]
24057428:	681a      	ldr	r2, [r3, #0]
2405742a:	07d2      	lsls	r2, r2, #31
2405742c:	f140 80be 	bpl.w	240575ac <HAL_OSPIM_Config+0x294>
24057430:	681a      	ldr	r2, [r3, #0]
24057432:	f022 0201 	bic.w	r2, r2, #1
24057436:	601a      	str	r2, [r3, #0]
24057438:	f1b8 0f00 	cmp.w	r8, #0
2405743c:	d02c      	beq.n	24057498 <HAL_OSPIM_Config+0x180>
2405743e:	9a08      	ldr	r2, [sp, #32]
24057440:	3a01      	subs	r2, #1
24057442:	eb03 0282 	add.w	r2, r3, r2, lsl #2
24057446:	6850      	ldr	r0, [r2, #4]
24057448:	f040 0002 	orr.w	r0, r0, #2
2405744c:	6050      	str	r0, [r2, #4]
2405744e:	9a09      	ldr	r2, [sp, #36]	; 0x24
24057450:	b132      	cbz	r2, 24057460 <HAL_OSPIM_Config+0x148>
24057452:	3a01      	subs	r2, #1
24057454:	eb03 0382 	add.w	r3, r3, r2, lsl #2
24057458:	685a      	ldr	r2, [r3, #4]
2405745a:	f042 0220 	orr.w	r2, r2, #32
2405745e:	605a      	str	r2, [r3, #4]
24057460:	9b0b      	ldr	r3, [sp, #44]	; 0x2c
24057462:	b15b      	cbz	r3, 2405747c <HAL_OSPIM_Config+0x164>
24057464:	3b01      	subs	r3, #1
24057466:	f003 0301 	and.w	r3, r3, #1
2405746a:	009b      	lsls	r3, r3, #2
2405746c:	f103 43a4 	add.w	r3, r3, #1375731712	; 0x52000000
24057470:	f503 4334 	add.w	r3, r3, #46080	; 0xb400
24057474:	685a      	ldr	r2, [r3, #4]
24057476:	f442 2280 	orr.w	r2, r2, #262144	; 0x40000
2405747a:	605a      	str	r2, [r3, #4]
2405747c:	9b0c      	ldr	r3, [sp, #48]	; 0x30
2405747e:	b15b      	cbz	r3, 24057498 <HAL_OSPIM_Config+0x180>
24057480:	3b01      	subs	r3, #1
24057482:	f003 0301 	and.w	r3, r3, #1
24057486:	009b      	lsls	r3, r3, #2
24057488:	f103 43a4 	add.w	r3, r3, #1375731712	; 0x52000000
2405748c:	f503 4334 	add.w	r3, r3, #46080	; 0xb400
24057490:	685a      	ldr	r2, [r3, #4]
24057492:	f042 6280 	orr.w	r2, r2, #67108864	; 0x4000000
24057496:	605a      	str	r2, [r3, #4]
24057498:	ab0e      	add	r3, sp, #56	; 0x38
2405749a:	f04f 0918 	mov.w	r9, #24
2405749e:	f8d1 c000 	ldr.w	ip, [r1]
240574a2:	fb09 3908 	mla	r9, r9, r8, r3
240574a6:	f859 ac30 	ldr.w	sl, [r9, #-48]
240574aa:	f859 0c20 	ldr.w	r0, [r9, #-32]
240574ae:	45d4      	cmp	ip, sl
240574b0:	f859 bc2c 	ldr.w	fp, [r9, #-44]
240574b4:	e9d1 7e01 	ldrd	r7, lr, [r1, #4]
240574b8:	e9d1 2303 	ldrd	r2, r3, [r1, #12]
240574bc:	f000 80b4 	beq.w	24057628 <HAL_OSPIM_Config+0x310>
240574c0:	45bb      	cmp	fp, r7
240574c2:	d00a      	beq.n	240574da <HAL_OSPIM_Config+0x1c2>
240574c4:	f859 6c28 	ldr.w	r6, [r9, #-40]
240574c8:	4576      	cmp	r6, lr
240574ca:	d006      	beq.n	240574da <HAL_OSPIM_Config+0x1c2>
240574cc:	f859 9c24 	ldr.w	r9, [r9, #-36]
240574d0:	4591      	cmp	r9, r2
240574d2:	d002      	beq.n	240574da <HAL_OSPIM_Config+0x1c2>
240574d4:	4298      	cmp	r0, r3
240574d6:	f040 80ba 	bne.w	2405764e <HAL_OSPIM_Config+0x336>
240574da:	f10a 39ff 	add.w	r9, sl, #4294967295
240574de:	f8df a0c0 	ldr.w	sl, [pc, #192]	; 240575a0 <HAL_OSPIM_Config+0x288>
240574e2:	ae0e      	add	r6, sp, #56	; 0x38
240574e4:	eb0a 0989 	add.w	r9, sl, r9, lsl #2
240574e8:	f8d9 b004 	ldr.w	fp, [r9, #4]
240574ec:	f02b 0b01 	bic.w	fp, fp, #1
240574f0:	f8c9 b004 	str.w	fp, [r9, #4]
240574f4:	f04f 0918 	mov.w	r9, #24
240574f8:	fb09 6908 	mla	r9, r9, r8, r6
240574fc:	f859 9c2c 	ldr.w	r9, [r9, #-44]
24057500:	f1b9 0f00 	cmp.w	r9, #0
24057504:	d009      	beq.n	2405751a <HAL_OSPIM_Config+0x202>
24057506:	f109 39ff 	add.w	r9, r9, #4294967295
2405750a:	eb0a 0989 	add.w	r9, sl, r9, lsl #2
2405750e:	f8d9 a004 	ldr.w	sl, [r9, #4]
24057512:	f02a 0a10 	bic.w	sl, sl, #16
24057516:	f8c9 a004 	str.w	sl, [r9, #4]
2405751a:	f04f 0918 	mov.w	r9, #24
2405751e:	ae0e      	add	r6, sp, #56	; 0x38
24057520:	fb09 6808 	mla	r8, r9, r8, r6
24057524:	f8df 9080 	ldr.w	r9, [pc, #128]	; 240575a8 <HAL_OSPIM_Config+0x290>
24057528:	f858 6c28 	ldr.w	r6, [r8, #-40]
2405752c:	ea4f 0a86 	mov.w	sl, r6, lsl #2
24057530:	44d1      	add	r9, sl
24057532:	f8d9 a004 	ldr.w	sl, [r9, #4]
24057536:	f42a 7a80 	bic.w	sl, sl, #256	; 0x100
2405753a:	f8c9 a004 	str.w	sl, [r9, #4]
2405753e:	f858 8c24 	ldr.w	r8, [r8, #-36]
24057542:	f1b8 0f00 	cmp.w	r8, #0
24057546:	d00f      	beq.n	24057568 <HAL_OSPIM_Config+0x250>
24057548:	f108 38ff 	add.w	r8, r8, #4294967295
2405754c:	f008 0801 	and.w	r8, r8, #1
24057550:	ea4f 0888 	mov.w	r8, r8, lsl #2
24057554:	f108 48a4 	add.w	r8, r8, #1375731712	; 0x52000000
24057558:	f508 4834 	add.w	r8, r8, #46080	; 0xb400
2405755c:	f8d8 9004 	ldr.w	r9, [r8, #4]
24057560:	f429 3980 	bic.w	r9, r9, #65536	; 0x10000
24057564:	f8c8 9004 	str.w	r9, [r8, #4]
24057568:	2800      	cmp	r0, #0
2405756a:	d070      	beq.n	2405764e <HAL_OSPIM_Config+0x336>
2405756c:	3801      	subs	r0, #1
2405756e:	f000 0001 	and.w	r0, r0, #1
24057572:	0080      	lsls	r0, r0, #2
24057574:	f100 40a4 	add.w	r0, r0, #1375731712	; 0x52000000
24057578:	f500 4034 	add.w	r0, r0, #46080	; 0xb400
2405757c:	f8d0 8004 	ldr.w	r8, [r0, #4]
24057580:	f028 7880 	bic.w	r8, r8, #16777216	; 0x1000000
24057584:	f8c0 8004 	str.w	r8, [r0, #4]
24057588:	e061      	b.n	2405764e <HAL_OSPIM_Config+0x336>
2405758a:	4684      	mov	ip, r0
2405758c:	e6da      	b.n	24057344 <HAL_OSPIM_Config+0x2c>
2405758e:	2500      	movs	r5, #0
24057590:	e6e9      	b.n	24057366 <HAL_OSPIM_Config+0x4e>
24057592:	9501      	str	r5, [sp, #4]
24057594:	e73a      	b.n	2405740c <HAL_OSPIM_Config+0xf4>
24057596:	bf00      	nop
24057598:	52005000 	.word	0x52005000
2405759c:	5200a000 	.word	0x5200a000
240575a0:	5200b400 	.word	0x5200b400
240575a4:	04040222 	.word	0x04040222
240575a8:	5200b3fc 	.word	0x5200b3fc
240575ac:	f850 2c30 	ldr.w	r2, [r0, #-48]
240575b0:	2a00      	cmp	r2, #0
240575b2:	f43f af71 	beq.w	24057498 <HAL_OSPIM_Config+0x180>
240575b6:	3a01      	subs	r2, #1
240575b8:	eb03 0282 	add.w	r2, r3, r2, lsl #2
240575bc:	6857      	ldr	r7, [r2, #4]
240575be:	f027 0701 	bic.w	r7, r7, #1
240575c2:	6057      	str	r7, [r2, #4]
240575c4:	f850 2c2c 	ldr.w	r2, [r0, #-44]
240575c8:	b132      	cbz	r2, 240575d8 <HAL_OSPIM_Config+0x2c0>
240575ca:	3a01      	subs	r2, #1
240575cc:	eb03 0382 	add.w	r3, r3, r2, lsl #2
240575d0:	685a      	ldr	r2, [r3, #4]
240575d2:	f022 0210 	bic.w	r2, r2, #16
240575d6:	605a      	str	r2, [r3, #4]
240575d8:	2318      	movs	r3, #24
240575da:	aa0e      	add	r2, sp, #56	; 0x38
240575dc:	fb03 2304 	mla	r3, r3, r4, r2
240575e0:	f853 3c24 	ldr.w	r3, [r3, #-36]
240575e4:	b15b      	cbz	r3, 240575fe <HAL_OSPIM_Config+0x2e6>
240575e6:	3b01      	subs	r3, #1
240575e8:	f003 0301 	and.w	r3, r3, #1
240575ec:	009b      	lsls	r3, r3, #2
240575ee:	f103 43a4 	add.w	r3, r3, #1375731712	; 0x52000000
240575f2:	f503 4334 	add.w	r3, r3, #46080	; 0xb400
240575f6:	685a      	ldr	r2, [r3, #4]
240575f8:	f422 3280 	bic.w	r2, r2, #65536	; 0x10000
240575fc:	605a      	str	r2, [r3, #4]
240575fe:	2318      	movs	r3, #24
24057600:	aa0e      	add	r2, sp, #56	; 0x38
24057602:	fb03 2304 	mla	r3, r3, r4, r2
24057606:	f853 3c20 	ldr.w	r3, [r3, #-32]
2405760a:	2b00      	cmp	r3, #0
2405760c:	f43f af44 	beq.w	24057498 <HAL_OSPIM_Config+0x180>
24057610:	3b01      	subs	r3, #1
24057612:	f003 0301 	and.w	r3, r3, #1
24057616:	009b      	lsls	r3, r3, #2
24057618:	f103 43a4 	add.w	r3, r3, #1375731712	; 0x52000000
2405761c:	f503 4334 	add.w	r3, r3, #46080	; 0xb400
24057620:	685a      	ldr	r2, [r3, #4]
24057622:	f022 7280 	bic.w	r2, r2, #16777216	; 0x1000000
24057626:	e736      	b.n	24057496 <HAL_OSPIM_Config+0x17e>
24057628:	45bb      	cmp	fp, r7
2405762a:	f47f af56 	bne.w	240574da <HAL_OSPIM_Config+0x1c2>
2405762e:	f859 9c24 	ldr.w	r9, [r9, #-36]
24057632:	4591      	cmp	r9, r2
24057634:	f47f af51 	bne.w	240574da <HAL_OSPIM_Config+0x1c2>
24057638:	4298      	cmp	r0, r3
2405763a:	f47f af4e 	bne.w	240574da <HAL_OSPIM_Config+0x1c2>
2405763e:	f8df 81e0 	ldr.w	r8, [pc, #480]	; 24057820 <HAL_OSPIM_Config+0x508>
24057642:	f8d8 0000 	ldr.w	r0, [r8]
24057646:	f040 0001 	orr.w	r0, r0, #1
2405764a:	f8c8 0000 	str.w	r0, [r8]
2405764e:	4874      	ldr	r0, [pc, #464]	; (24057820 <HAL_OSPIM_Config+0x508>)
24057650:	f10e 3eff 	add.w	lr, lr, #4294967295
24057654:	eb00 0e8e 	add.w	lr, r0, lr, lsl #2
24057658:	f8de 8004 	ldr.w	r8, [lr, #4]
2405765c:	f428 7840 	bic.w	r8, r8, #768	; 0x300
24057660:	ea48 2844 	orr.w	r8, r8, r4, lsl #9
24057664:	f448 7880 	orr.w	r8, r8, #256	; 0x100
24057668:	f8ce 8004 	str.w	r8, [lr, #4]
2405766c:	6949      	ldr	r1, [r1, #20]
2405766e:	f101 3eff 	add.w	lr, r1, #4294967295
24057672:	6801      	ldr	r1, [r0, #0]
24057674:	f3c1 4107 	ubfx	r1, r1, #16, #8
24057678:	458e      	cmp	lr, r1
2405767a:	d905      	bls.n	24057688 <HAL_OSPIM_Config+0x370>
2405767c:	6801      	ldr	r1, [r0, #0]
2405767e:	f421 017f 	bic.w	r1, r1, #16711680	; 0xff0000
24057682:	ea41 410e 	orr.w	r1, r1, lr, lsl #16
24057686:	6001      	str	r1, [r0, #0]
24057688:	6801      	ldr	r1, [r0, #0]
2405768a:	f10c 3cff 	add.w	ip, ip, #4294967295
2405768e:	f402 3e80 	and.w	lr, r2, #65536	; 0x10000
24057692:	f011 0f01 	tst.w	r1, #1
24057696:	ea4f 0c8c 	mov.w	ip, ip, lsl #2
2405769a:	f403 3180 	and.w	r1, r3, #65536	; 0x10000
2405769e:	4484      	add	ip, r0
240576a0:	d063      	beq.n	2405776a <HAL_OSPIM_Config+0x452>
240576a2:	f8dc 4004 	ldr.w	r4, [ip, #4]
240576a6:	f024 0403 	bic.w	r4, r4, #3
240576aa:	f044 0401 	orr.w	r4, r4, #1
240576ae:	f8cc 4004 	str.w	r4, [ip, #4]
240576b2:	b147      	cbz	r7, 240576c6 <HAL_OSPIM_Config+0x3ae>
240576b4:	3f01      	subs	r7, #1
240576b6:	eb00 0787 	add.w	r7, r0, r7, lsl #2
240576ba:	6878      	ldr	r0, [r7, #4]
240576bc:	f020 0030 	bic.w	r0, r0, #48	; 0x30
240576c0:	f040 0010 	orr.w	r0, r0, #16
240576c4:	6078      	str	r0, [r7, #4]
240576c6:	f1be 0f00 	cmp.w	lr, #0
240576ca:	d02e      	beq.n	2405772a <HAL_OSPIM_Config+0x412>
240576cc:	3a01      	subs	r2, #1
240576ce:	f002 0201 	and.w	r2, r2, #1
240576d2:	0092      	lsls	r2, r2, #2
240576d4:	f102 42a4 	add.w	r2, r2, #1375731712	; 0x52000000
240576d8:	f502 4234 	add.w	r2, r2, #46080	; 0xb400
240576dc:	6850      	ldr	r0, [r2, #4]
240576de:	f420 20e0 	bic.w	r0, r0, #458752	; 0x70000
240576e2:	f440 3080 	orr.w	r0, r0, #65536	; 0x10000
240576e6:	6050      	str	r0, [r2, #4]
240576e8:	b379      	cbz	r1, 2405774a <HAL_OSPIM_Config+0x432>
240576ea:	3b01      	subs	r3, #1
240576ec:	f003 0301 	and.w	r3, r3, #1
240576f0:	009b      	lsls	r3, r3, #2
240576f2:	f103 43a4 	add.w	r3, r3, #1375731712	; 0x52000000
240576f6:	f503 4334 	add.w	r3, r3, #46080	; 0xb400
240576fa:	685a      	ldr	r2, [r3, #4]
240576fc:	f422 22e0 	bic.w	r2, r2, #458752	; 0x70000
24057700:	f442 3240 	orr.w	r2, r2, #196608	; 0x30000
24057704:	605a      	str	r2, [r3, #4]
24057706:	b125      	cbz	r5, 24057712 <HAL_OSPIM_Config+0x3fa>
24057708:	4a46      	ldr	r2, [pc, #280]	; (24057824 <HAL_OSPIM_Config+0x50c>)
2405770a:	6813      	ldr	r3, [r2, #0]
2405770c:	f043 0301 	orr.w	r3, r3, #1
24057710:	6013      	str	r3, [r2, #0]
24057712:	9b01      	ldr	r3, [sp, #4]
24057714:	079b      	lsls	r3, r3, #30
24057716:	d504      	bpl.n	24057722 <HAL_OSPIM_Config+0x40a>
24057718:	4a43      	ldr	r2, [pc, #268]	; (24057828 <HAL_OSPIM_Config+0x510>)
2405771a:	6813      	ldr	r3, [r2, #0]
2405771c:	f043 0301 	orr.w	r3, r3, #1
24057720:	6013      	str	r3, [r2, #0]
24057722:	2000      	movs	r0, #0
24057724:	b00f      	add	sp, #60	; 0x3c
24057726:	e8bd 8ff0 	ldmia.w	sp!, {r4, r5, r6, r7, r8, r9, sl, fp, pc}
2405772a:	2a00      	cmp	r2, #0
2405772c:	d0dc      	beq.n	240576e8 <HAL_OSPIM_Config+0x3d0>
2405772e:	3a01      	subs	r2, #1
24057730:	f002 0201 	and.w	r2, r2, #1
24057734:	0092      	lsls	r2, r2, #2
24057736:	f102 42a4 	add.w	r2, r2, #1375731712	; 0x52000000
2405773a:	f502 4234 	add.w	r2, r2, #46080	; 0xb400
2405773e:	6850      	ldr	r0, [r2, #4]
24057740:	f020 60e0 	bic.w	r0, r0, #117440512	; 0x7000000
24057744:	f040 7080 	orr.w	r0, r0, #16777216	; 0x1000000
24057748:	e7cd      	b.n	240576e6 <HAL_OSPIM_Config+0x3ce>
2405774a:	2b00      	cmp	r3, #0
2405774c:	d0db      	beq.n	24057706 <HAL_OSPIM_Config+0x3ee>
2405774e:	3b01      	subs	r3, #1
24057750:	f003 0301 	and.w	r3, r3, #1
24057754:	009b      	lsls	r3, r3, #2
24057756:	f103 43a4 	add.w	r3, r3, #1375731712	; 0x52000000
2405775a:	f503 4334 	add.w	r3, r3, #46080	; 0xb400
2405775e:	685a      	ldr	r2, [r3, #4]
24057760:	f022 62e0 	bic.w	r2, r2, #117440512	; 0x7000000
24057764:	f042 7240 	orr.w	r2, r2, #50331648	; 0x3000000
24057768:	e7cc      	b.n	24057704 <HAL_OSPIM_Config+0x3ec>
2405776a:	f8dc 8004 	ldr.w	r8, [ip, #4]
2405776e:	f028 0803 	bic.w	r8, r8, #3
24057772:	ea48 0844 	orr.w	r8, r8, r4, lsl #1
24057776:	f048 0801 	orr.w	r8, r8, #1
2405777a:	f8cc 8004 	str.w	r8, [ip, #4]
2405777e:	b157      	cbz	r7, 24057796 <HAL_OSPIM_Config+0x47e>
24057780:	3f01      	subs	r7, #1
24057782:	eb00 0087 	add.w	r0, r0, r7, lsl #2
24057786:	6847      	ldr	r7, [r0, #4]
24057788:	f027 0730 	bic.w	r7, r7, #48	; 0x30
2405778c:	ea47 1744 	orr.w	r7, r7, r4, lsl #5
24057790:	f047 0710 	orr.w	r7, r7, #16
24057794:	6047      	str	r7, [r0, #4]
24057796:	f1be 0f00 	cmp.w	lr, #0
2405779a:	d01e      	beq.n	240577da <HAL_OSPIM_Config+0x4c2>
2405779c:	3a01      	subs	r2, #1
2405779e:	f002 0201 	and.w	r2, r2, #1
240577a2:	0092      	lsls	r2, r2, #2
240577a4:	f102 42a4 	add.w	r2, r2, #1375731712	; 0x52000000
240577a8:	f502 4234 	add.w	r2, r2, #46080	; 0xb400
240577ac:	6850      	ldr	r0, [r2, #4]
240577ae:	f420 20e0 	bic.w	r0, r0, #458752	; 0x70000
240577b2:	ea40 4084 	orr.w	r0, r0, r4, lsl #18
240577b6:	f440 3080 	orr.w	r0, r0, #65536	; 0x10000
240577ba:	6050      	str	r0, [r2, #4]
240577bc:	b1f9      	cbz	r1, 240577fe <HAL_OSPIM_Config+0x4e6>
240577be:	3b01      	subs	r3, #1
240577c0:	f003 0301 	and.w	r3, r3, #1
240577c4:	009b      	lsls	r3, r3, #2
240577c6:	f103 43a4 	add.w	r3, r3, #1375731712	; 0x52000000
240577ca:	f503 4334 	add.w	r3, r3, #46080	; 0xb400
240577ce:	685a      	ldr	r2, [r3, #4]
240577d0:	f422 22e0 	bic.w	r2, r2, #458752	; 0x70000
240577d4:	ea42 4284 	orr.w	r2, r2, r4, lsl #18
240577d8:	e792      	b.n	24057700 <HAL_OSPIM_Config+0x3e8>
240577da:	2a00      	cmp	r2, #0
240577dc:	d0ee      	beq.n	240577bc <HAL_OSPIM_Config+0x4a4>
240577de:	3a01      	subs	r2, #1
240577e0:	f002 0201 	and.w	r2, r2, #1
240577e4:	0092      	lsls	r2, r2, #2
240577e6:	f102 42a4 	add.w	r2, r2, #1375731712	; 0x52000000
240577ea:	f502 4234 	add.w	r2, r2, #46080	; 0xb400
240577ee:	6850      	ldr	r0, [r2, #4]
240577f0:	f020 60e0 	bic.w	r0, r0, #117440512	; 0x7000000
240577f4:	ea40 6084 	orr.w	r0, r0, r4, lsl #26
240577f8:	f040 7080 	orr.w	r0, r0, #16777216	; 0x1000000
240577fc:	e7dd      	b.n	240577ba <HAL_OSPIM_Config+0x4a2>
240577fe:	2b00      	cmp	r3, #0
24057800:	d081      	beq.n	24057706 <HAL_OSPIM_Config+0x3ee>
24057802:	3b01      	subs	r3, #1
24057804:	f003 0301 	and.w	r3, r3, #1
24057808:	009b      	lsls	r3, r3, #2
2405780a:	f103 43a4 	add.w	r3, r3, #1375731712	; 0x52000000
2405780e:	f503 4334 	add.w	r3, r3, #46080	; 0xb400
24057812:	685a      	ldr	r2, [r3, #4]
24057814:	f022 62e0 	bic.w	r2, r2, #117440512	; 0x7000000
24057818:	ea42 6284 	orr.w	r2, r2, r4, lsl #26
2405781c:	e7a2      	b.n	24057764 <HAL_OSPIM_Config+0x44c>
2405781e:	bf00      	nop
24057820:	5200b400 	.word	0x5200b400
24057824:	52005000 	.word	0x52005000
24057828:	5200a000 	.word	0x5200a000

2405782c <HAL_PWR_EnableBkUpAccess>:
2405782c:	4a02      	ldr	r2, [pc, #8]	; (24057838 <HAL_PWR_EnableBkUpAccess+0xc>)
2405782e:	6813      	ldr	r3, [r2, #0]
24057830:	f443 7380 	orr.w	r3, r3, #256	; 0x100
24057834:	6013      	str	r3, [r2, #0]
24057836:	4770      	bx	lr
24057838:	58024800 	.word	0x58024800

2405783c <HAL_PWREx_ConfigSupply>:
2405783c:	b538      	push	{r3, r4, r5, lr}
2405783e:	4c10      	ldr	r4, [pc, #64]	; (24057880 <HAL_PWREx_ConfigSupply+0x44>)
24057840:	68e3      	ldr	r3, [r4, #12]
24057842:	f013 0f04 	tst.w	r3, #4
24057846:	68e3      	ldr	r3, [r4, #12]
24057848:	d105      	bne.n	24057856 <HAL_PWREx_ConfigSupply+0x1a>
2405784a:	f003 0307 	and.w	r3, r3, #7
2405784e:	1a18      	subs	r0, r3, r0
24057850:	bf18      	it	ne
24057852:	2001      	movne	r0, #1
24057854:	bd38      	pop	{r3, r4, r5, pc}
24057856:	f023 0307 	bic.w	r3, r3, #7
2405785a:	4318      	orrs	r0, r3
2405785c:	60e0      	str	r0, [r4, #12]
2405785e:	f7fc fd81 	bl	24054364 <HAL_GetTick>
24057862:	4605      	mov	r5, r0
24057864:	6863      	ldr	r3, [r4, #4]
24057866:	049b      	lsls	r3, r3, #18
24057868:	d501      	bpl.n	2405786e <HAL_PWREx_ConfigSupply+0x32>
2405786a:	2000      	movs	r0, #0
2405786c:	e7f2      	b.n	24057854 <HAL_PWREx_ConfigSupply+0x18>
2405786e:	f7fc fd79 	bl	24054364 <HAL_GetTick>
24057872:	1b40      	subs	r0, r0, r5
24057874:	f5b0 7f7a 	cmp.w	r0, #1000	; 0x3e8
24057878:	d9f4      	bls.n	24057864 <HAL_PWREx_ConfigSupply+0x28>
2405787a:	2001      	movs	r0, #1
2405787c:	e7ea      	b.n	24057854 <HAL_PWREx_ConfigSupply+0x18>
2405787e:	bf00      	nop
24057880:	58024800 	.word	0x58024800

24057884 <HAL_RCC_OscConfig>:
24057884:	b5f8      	push	{r3, r4, r5, r6, r7, lr}
24057886:	4604      	mov	r4, r0
24057888:	b908      	cbnz	r0, 2405788e <HAL_RCC_OscConfig+0xa>
2405788a:	2001      	movs	r0, #1
2405788c:	e080      	b.n	24057990 <HAL_RCC_OscConfig+0x10c>
2405788e:	6803      	ldr	r3, [r0, #0]
24057890:	07d8      	lsls	r0, r3, #31
24057892:	d453      	bmi.n	2405793c <HAL_RCC_OscConfig+0xb8>
24057894:	6823      	ldr	r3, [r4, #0]
24057896:	0799      	lsls	r1, r3, #30
24057898:	f100 80b7 	bmi.w	24057a0a <HAL_RCC_OscConfig+0x186>
2405789c:	6823      	ldr	r3, [r4, #0]
2405789e:	06da      	lsls	r2, r3, #27
240578a0:	d51c      	bpl.n	240578dc <HAL_RCC_OscConfig+0x58>
240578a2:	4a97      	ldr	r2, [pc, #604]	; (24057b00 <HAL_RCC_OscConfig+0x27c>)
240578a4:	6913      	ldr	r3, [r2, #16]
240578a6:	6a91      	ldr	r1, [r2, #40]	; 0x28
240578a8:	f003 0338 	and.w	r3, r3, #56	; 0x38
240578ac:	2b08      	cmp	r3, #8
240578ae:	d007      	beq.n	240578c0 <HAL_RCC_OscConfig+0x3c>
240578b0:	2b18      	cmp	r3, #24
240578b2:	f040 80f8 	bne.w	24057aa6 <HAL_RCC_OscConfig+0x222>
240578b6:	f001 0303 	and.w	r3, r1, #3
240578ba:	2b01      	cmp	r3, #1
240578bc:	f040 80f3 	bne.w	24057aa6 <HAL_RCC_OscConfig+0x222>
240578c0:	6813      	ldr	r3, [r2, #0]
240578c2:	05db      	lsls	r3, r3, #23
240578c4:	d502      	bpl.n	240578cc <HAL_RCC_OscConfig+0x48>
240578c6:	69e3      	ldr	r3, [r4, #28]
240578c8:	2b80      	cmp	r3, #128	; 0x80
240578ca:	d1de      	bne.n	2405788a <HAL_RCC_OscConfig+0x6>
240578cc:	4a8c      	ldr	r2, [pc, #560]	; (24057b00 <HAL_RCC_OscConfig+0x27c>)
240578ce:	6a21      	ldr	r1, [r4, #32]
240578d0:	68d3      	ldr	r3, [r2, #12]
240578d2:	f023 537c 	bic.w	r3, r3, #1056964608	; 0x3f000000
240578d6:	ea43 6301 	orr.w	r3, r3, r1, lsl #24
240578da:	60d3      	str	r3, [r2, #12]
240578dc:	6823      	ldr	r3, [r4, #0]
240578de:	0719      	lsls	r1, r3, #28
240578e0:	f100 8112 	bmi.w	24057b08 <HAL_RCC_OscConfig+0x284>
240578e4:	6823      	ldr	r3, [r4, #0]
240578e6:	069a      	lsls	r2, r3, #26
240578e8:	f100 8133 	bmi.w	24057b52 <HAL_RCC_OscConfig+0x2ce>
240578ec:	6823      	ldr	r3, [r4, #0]
240578ee:	075d      	lsls	r5, r3, #29
240578f0:	d51e      	bpl.n	24057930 <HAL_RCC_OscConfig+0xac>
240578f2:	4d84      	ldr	r5, [pc, #528]	; (24057b04 <HAL_RCC_OscConfig+0x280>)
240578f4:	682b      	ldr	r3, [r5, #0]
240578f6:	f443 7380 	orr.w	r3, r3, #256	; 0x100
240578fa:	602b      	str	r3, [r5, #0]
240578fc:	f7fc fd32 	bl	24054364 <HAL_GetTick>
24057900:	4606      	mov	r6, r0
24057902:	682b      	ldr	r3, [r5, #0]
24057904:	05da      	lsls	r2, r3, #23
24057906:	f140 8149 	bpl.w	24057b9c <HAL_RCC_OscConfig+0x318>
2405790a:	68a3      	ldr	r3, [r4, #8]
2405790c:	4d7c      	ldr	r5, [pc, #496]	; (24057b00 <HAL_RCC_OscConfig+0x27c>)
2405790e:	2b01      	cmp	r3, #1
24057910:	f040 814b 	bne.w	24057baa <HAL_RCC_OscConfig+0x326>
24057914:	6f2b      	ldr	r3, [r5, #112]	; 0x70
24057916:	f043 0301 	orr.w	r3, r3, #1
2405791a:	672b      	str	r3, [r5, #112]	; 0x70
2405791c:	f241 3788 	movw	r7, #5000	; 0x1388
24057920:	f7fc fd20 	bl	24054364 <HAL_GetTick>
24057924:	4e76      	ldr	r6, [pc, #472]	; (24057b00 <HAL_RCC_OscConfig+0x27c>)
24057926:	4605      	mov	r5, r0
24057928:	6f33      	ldr	r3, [r6, #112]	; 0x70
2405792a:	079b      	lsls	r3, r3, #30
2405792c:	f140 8179 	bpl.w	24057c22 <HAL_RCC_OscConfig+0x39e>
24057930:	6a60      	ldr	r0, [r4, #36]	; 0x24
24057932:	2800      	cmp	r0, #0
24057934:	f040 817c 	bne.w	24057c30 <HAL_RCC_OscConfig+0x3ac>
24057938:	2000      	movs	r0, #0
2405793a:	e029      	b.n	24057990 <HAL_RCC_OscConfig+0x10c>
2405793c:	4a70      	ldr	r2, [pc, #448]	; (24057b00 <HAL_RCC_OscConfig+0x27c>)
2405793e:	6913      	ldr	r3, [r2, #16]
24057940:	6a91      	ldr	r1, [r2, #40]	; 0x28
24057942:	f003 0338 	and.w	r3, r3, #56	; 0x38
24057946:	2b10      	cmp	r3, #16
24057948:	d005      	beq.n	24057956 <HAL_RCC_OscConfig+0xd2>
2405794a:	2b18      	cmp	r3, #24
2405794c:	d10a      	bne.n	24057964 <HAL_RCC_OscConfig+0xe0>
2405794e:	f001 0303 	and.w	r3, r1, #3
24057952:	2b02      	cmp	r3, #2
24057954:	d106      	bne.n	24057964 <HAL_RCC_OscConfig+0xe0>
24057956:	6813      	ldr	r3, [r2, #0]
24057958:	039a      	lsls	r2, r3, #14
2405795a:	d59b      	bpl.n	24057894 <HAL_RCC_OscConfig+0x10>
2405795c:	6863      	ldr	r3, [r4, #4]
2405795e:	2b00      	cmp	r3, #0
24057960:	d198      	bne.n	24057894 <HAL_RCC_OscConfig+0x10>
24057962:	e792      	b.n	2405788a <HAL_RCC_OscConfig+0x6>
24057964:	6863      	ldr	r3, [r4, #4]
24057966:	4d66      	ldr	r5, [pc, #408]	; (24057b00 <HAL_RCC_OscConfig+0x27c>)
24057968:	f5b3 3f80 	cmp.w	r3, #65536	; 0x10000
2405796c:	d111      	bne.n	24057992 <HAL_RCC_OscConfig+0x10e>
2405796e:	682b      	ldr	r3, [r5, #0]
24057970:	f443 3380 	orr.w	r3, r3, #65536	; 0x10000
24057974:	602b      	str	r3, [r5, #0]
24057976:	f7fc fcf5 	bl	24054364 <HAL_GetTick>
2405797a:	4e61      	ldr	r6, [pc, #388]	; (24057b00 <HAL_RCC_OscConfig+0x27c>)
2405797c:	4605      	mov	r5, r0
2405797e:	6833      	ldr	r3, [r6, #0]
24057980:	039b      	lsls	r3, r3, #14
24057982:	d487      	bmi.n	24057894 <HAL_RCC_OscConfig+0x10>
24057984:	f7fc fcee 	bl	24054364 <HAL_GetTick>
24057988:	1b40      	subs	r0, r0, r5
2405798a:	2864      	cmp	r0, #100	; 0x64
2405798c:	d9f7      	bls.n	2405797e <HAL_RCC_OscConfig+0xfa>
2405798e:	2003      	movs	r0, #3
24057990:	bdf8      	pop	{r3, r4, r5, r6, r7, pc}
24057992:	b9c3      	cbnz	r3, 240579c6 <HAL_RCC_OscConfig+0x142>
24057994:	682b      	ldr	r3, [r5, #0]
24057996:	f423 3380 	bic.w	r3, r3, #65536	; 0x10000
2405799a:	602b      	str	r3, [r5, #0]
2405799c:	682b      	ldr	r3, [r5, #0]
2405799e:	f423 1380 	bic.w	r3, r3, #1048576	; 0x100000
240579a2:	602b      	str	r3, [r5, #0]
240579a4:	682b      	ldr	r3, [r5, #0]
240579a6:	f423 2380 	bic.w	r3, r3, #262144	; 0x40000
240579aa:	602b      	str	r3, [r5, #0]
240579ac:	f7fc fcda 	bl	24054364 <HAL_GetTick>
240579b0:	4606      	mov	r6, r0
240579b2:	682b      	ldr	r3, [r5, #0]
240579b4:	039f      	lsls	r7, r3, #14
240579b6:	f57f af6d 	bpl.w	24057894 <HAL_RCC_OscConfig+0x10>
240579ba:	f7fc fcd3 	bl	24054364 <HAL_GetTick>
240579be:	1b80      	subs	r0, r0, r6
240579c0:	2864      	cmp	r0, #100	; 0x64
240579c2:	d9f6      	bls.n	240579b2 <HAL_RCC_OscConfig+0x12e>
240579c4:	e7e3      	b.n	2405798e <HAL_RCC_OscConfig+0x10a>
240579c6:	f5b3 2fa0 	cmp.w	r3, #327680	; 0x50000
240579ca:	d108      	bne.n	240579de <HAL_RCC_OscConfig+0x15a>
240579cc:	682b      	ldr	r3, [r5, #0]
240579ce:	f443 2380 	orr.w	r3, r3, #262144	; 0x40000
240579d2:	602b      	str	r3, [r5, #0]
240579d4:	682b      	ldr	r3, [r5, #0]
240579d6:	f423 1380 	bic.w	r3, r3, #1048576	; 0x100000
240579da:	602b      	str	r3, [r5, #0]
240579dc:	e7c7      	b.n	2405796e <HAL_RCC_OscConfig+0xea>
240579de:	f5b3 1fa8 	cmp.w	r3, #1376256	; 0x150000
240579e2:	682b      	ldr	r3, [r5, #0]
240579e4:	d106      	bne.n	240579f4 <HAL_RCC_OscConfig+0x170>
240579e6:	f443 2380 	orr.w	r3, r3, #262144	; 0x40000
240579ea:	602b      	str	r3, [r5, #0]
240579ec:	682b      	ldr	r3, [r5, #0]
240579ee:	f443 1380 	orr.w	r3, r3, #1048576	; 0x100000
240579f2:	e7f2      	b.n	240579da <HAL_RCC_OscConfig+0x156>
240579f4:	f423 3380 	bic.w	r3, r3, #65536	; 0x10000
240579f8:	602b      	str	r3, [r5, #0]
240579fa:	682b      	ldr	r3, [r5, #0]
240579fc:	f423 2380 	bic.w	r3, r3, #262144	; 0x40000
24057a00:	602b      	str	r3, [r5, #0]
24057a02:	682b      	ldr	r3, [r5, #0]
24057a04:	f423 1380 	bic.w	r3, r3, #1048576	; 0x100000
24057a08:	e7b4      	b.n	24057974 <HAL_RCC_OscConfig+0xf0>
24057a0a:	493d      	ldr	r1, [pc, #244]	; (24057b00 <HAL_RCC_OscConfig+0x27c>)
24057a0c:	68e2      	ldr	r2, [r4, #12]
24057a0e:	690b      	ldr	r3, [r1, #16]
24057a10:	6a88      	ldr	r0, [r1, #40]	; 0x28
24057a12:	f013 0338 	ands.w	r3, r3, #56	; 0x38
24057a16:	d003      	beq.n	24057a20 <HAL_RCC_OscConfig+0x19c>
24057a18:	2b18      	cmp	r3, #24
24057a1a:	d121      	bne.n	24057a60 <HAL_RCC_OscConfig+0x1dc>
24057a1c:	0780      	lsls	r0, r0, #30
24057a1e:	d11f      	bne.n	24057a60 <HAL_RCC_OscConfig+0x1dc>
24057a20:	680b      	ldr	r3, [r1, #0]
24057a22:	075b      	lsls	r3, r3, #29
24057a24:	d502      	bpl.n	24057a2c <HAL_RCC_OscConfig+0x1a8>
24057a26:	2a00      	cmp	r2, #0
24057a28:	f43f af2f 	beq.w	2405788a <HAL_RCC_OscConfig+0x6>
24057a2c:	4d34      	ldr	r5, [pc, #208]	; (24057b00 <HAL_RCC_OscConfig+0x27c>)
24057a2e:	682b      	ldr	r3, [r5, #0]
24057a30:	f023 0319 	bic.w	r3, r3, #25
24057a34:	4313      	orrs	r3, r2
24057a36:	602b      	str	r3, [r5, #0]
24057a38:	f7fc fc94 	bl	24054364 <HAL_GetTick>
24057a3c:	4606      	mov	r6, r0
24057a3e:	682b      	ldr	r3, [r5, #0]
24057a40:	075f      	lsls	r7, r3, #29
24057a42:	d507      	bpl.n	24057a54 <HAL_RCC_OscConfig+0x1d0>
24057a44:	686b      	ldr	r3, [r5, #4]
24057a46:	6922      	ldr	r2, [r4, #16]
24057a48:	f023 43fe 	bic.w	r3, r3, #2130706432	; 0x7f000000
24057a4c:	ea43 6302 	orr.w	r3, r3, r2, lsl #24
24057a50:	606b      	str	r3, [r5, #4]
24057a52:	e723      	b.n	2405789c <HAL_RCC_OscConfig+0x18>
24057a54:	f7fc fc86 	bl	24054364 <HAL_GetTick>
24057a58:	1b80      	subs	r0, r0, r6
24057a5a:	2802      	cmp	r0, #2
24057a5c:	d9ef      	bls.n	24057a3e <HAL_RCC_OscConfig+0x1ba>
24057a5e:	e796      	b.n	2405798e <HAL_RCC_OscConfig+0x10a>
24057a60:	4d27      	ldr	r5, [pc, #156]	; (24057b00 <HAL_RCC_OscConfig+0x27c>)
24057a62:	682b      	ldr	r3, [r5, #0]
24057a64:	b17a      	cbz	r2, 24057a86 <HAL_RCC_OscConfig+0x202>
24057a66:	f023 0319 	bic.w	r3, r3, #25
24057a6a:	4313      	orrs	r3, r2
24057a6c:	602b      	str	r3, [r5, #0]
24057a6e:	f7fc fc79 	bl	24054364 <HAL_GetTick>
24057a72:	4606      	mov	r6, r0
24057a74:	682b      	ldr	r3, [r5, #0]
24057a76:	0758      	lsls	r0, r3, #29
24057a78:	d4e4      	bmi.n	24057a44 <HAL_RCC_OscConfig+0x1c0>
24057a7a:	f7fc fc73 	bl	24054364 <HAL_GetTick>
24057a7e:	1b80      	subs	r0, r0, r6
24057a80:	2802      	cmp	r0, #2
24057a82:	d9f7      	bls.n	24057a74 <HAL_RCC_OscConfig+0x1f0>
24057a84:	e783      	b.n	2405798e <HAL_RCC_OscConfig+0x10a>
24057a86:	f023 0301 	bic.w	r3, r3, #1
24057a8a:	602b      	str	r3, [r5, #0]
24057a8c:	f7fc fc6a 	bl	24054364 <HAL_GetTick>
24057a90:	4606      	mov	r6, r0
24057a92:	682b      	ldr	r3, [r5, #0]
24057a94:	0759      	lsls	r1, r3, #29
24057a96:	f57f af01 	bpl.w	2405789c <HAL_RCC_OscConfig+0x18>
24057a9a:	f7fc fc63 	bl	24054364 <HAL_GetTick>
24057a9e:	1b80      	subs	r0, r0, r6
24057aa0:	2802      	cmp	r0, #2
24057aa2:	d9f6      	bls.n	24057a92 <HAL_RCC_OscConfig+0x20e>
24057aa4:	e773      	b.n	2405798e <HAL_RCC_OscConfig+0x10a>
24057aa6:	69e3      	ldr	r3, [r4, #28]
24057aa8:	4d15      	ldr	r5, [pc, #84]	; (24057b00 <HAL_RCC_OscConfig+0x27c>)
24057aaa:	b1bb      	cbz	r3, 24057adc <HAL_RCC_OscConfig+0x258>
24057aac:	682b      	ldr	r3, [r5, #0]
24057aae:	f043 0380 	orr.w	r3, r3, #128	; 0x80
24057ab2:	602b      	str	r3, [r5, #0]
24057ab4:	f7fc fc56 	bl	24054364 <HAL_GetTick>
24057ab8:	4606      	mov	r6, r0
24057aba:	682b      	ldr	r3, [r5, #0]
24057abc:	05df      	lsls	r7, r3, #23
24057abe:	d507      	bpl.n	24057ad0 <HAL_RCC_OscConfig+0x24c>
24057ac0:	68eb      	ldr	r3, [r5, #12]
24057ac2:	6a22      	ldr	r2, [r4, #32]
24057ac4:	f023 537c 	bic.w	r3, r3, #1056964608	; 0x3f000000
24057ac8:	ea43 6302 	orr.w	r3, r3, r2, lsl #24
24057acc:	60eb      	str	r3, [r5, #12]
24057ace:	e705      	b.n	240578dc <HAL_RCC_OscConfig+0x58>
24057ad0:	f7fc fc48 	bl	24054364 <HAL_GetTick>
24057ad4:	1b80      	subs	r0, r0, r6
24057ad6:	2802      	cmp	r0, #2
24057ad8:	d9ef      	bls.n	24057aba <HAL_RCC_OscConfig+0x236>
24057ada:	e758      	b.n	2405798e <HAL_RCC_OscConfig+0x10a>
24057adc:	682b      	ldr	r3, [r5, #0]
24057ade:	f023 0380 	bic.w	r3, r3, #128	; 0x80
24057ae2:	602b      	str	r3, [r5, #0]
24057ae4:	f7fc fc3e 	bl	24054364 <HAL_GetTick>
24057ae8:	4606      	mov	r6, r0
24057aea:	682b      	ldr	r3, [r5, #0]
24057aec:	05d8      	lsls	r0, r3, #23
24057aee:	f57f aef5 	bpl.w	240578dc <HAL_RCC_OscConfig+0x58>
24057af2:	f7fc fc37 	bl	24054364 <HAL_GetTick>
24057af6:	1b80      	subs	r0, r0, r6
24057af8:	2802      	cmp	r0, #2
24057afa:	d9f6      	bls.n	24057aea <HAL_RCC_OscConfig+0x266>
24057afc:	e747      	b.n	2405798e <HAL_RCC_OscConfig+0x10a>
24057afe:	bf00      	nop
24057b00:	58024400 	.word	0x58024400
24057b04:	58024800 	.word	0x58024800
24057b08:	6963      	ldr	r3, [r4, #20]
24057b0a:	4d8a      	ldr	r5, [pc, #552]	; (24057d34 <HAL_RCC_OscConfig+0x4b0>)
24057b0c:	b183      	cbz	r3, 24057b30 <HAL_RCC_OscConfig+0x2ac>
24057b0e:	6f6b      	ldr	r3, [r5, #116]	; 0x74
24057b10:	f043 0301 	orr.w	r3, r3, #1
24057b14:	676b      	str	r3, [r5, #116]	; 0x74
24057b16:	f7fc fc25 	bl	24054364 <HAL_GetTick>
24057b1a:	4606      	mov	r6, r0
24057b1c:	6f6b      	ldr	r3, [r5, #116]	; 0x74
24057b1e:	079b      	lsls	r3, r3, #30
24057b20:	f53f aee0 	bmi.w	240578e4 <HAL_RCC_OscConfig+0x60>
24057b24:	f7fc fc1e 	bl	24054364 <HAL_GetTick>
24057b28:	1b80      	subs	r0, r0, r6
24057b2a:	2802      	cmp	r0, #2
24057b2c:	d9f6      	bls.n	24057b1c <HAL_RCC_OscConfig+0x298>
24057b2e:	e72e      	b.n	2405798e <HAL_RCC_OscConfig+0x10a>
24057b30:	6f6b      	ldr	r3, [r5, #116]	; 0x74
24057b32:	f023 0301 	bic.w	r3, r3, #1
24057b36:	676b      	str	r3, [r5, #116]	; 0x74
24057b38:	f7fc fc14 	bl	24054364 <HAL_GetTick>
24057b3c:	4606      	mov	r6, r0
24057b3e:	6f6b      	ldr	r3, [r5, #116]	; 0x74
24057b40:	079f      	lsls	r7, r3, #30
24057b42:	f57f aecf 	bpl.w	240578e4 <HAL_RCC_OscConfig+0x60>
24057b46:	f7fc fc0d 	bl	24054364 <HAL_GetTick>
24057b4a:	1b80      	subs	r0, r0, r6
24057b4c:	2802      	cmp	r0, #2
24057b4e:	d9f6      	bls.n	24057b3e <HAL_RCC_OscConfig+0x2ba>
24057b50:	e71d      	b.n	2405798e <HAL_RCC_OscConfig+0x10a>
24057b52:	69a3      	ldr	r3, [r4, #24]
24057b54:	4d77      	ldr	r5, [pc, #476]	; (24057d34 <HAL_RCC_OscConfig+0x4b0>)
24057b56:	b183      	cbz	r3, 24057b7a <HAL_RCC_OscConfig+0x2f6>
24057b58:	682b      	ldr	r3, [r5, #0]
24057b5a:	f443 5380 	orr.w	r3, r3, #4096	; 0x1000
24057b5e:	602b      	str	r3, [r5, #0]
24057b60:	f7fc fc00 	bl	24054364 <HAL_GetTick>
24057b64:	4606      	mov	r6, r0
24057b66:	682b      	ldr	r3, [r5, #0]
24057b68:	0498      	lsls	r0, r3, #18
24057b6a:	f53f aebf 	bmi.w	240578ec <HAL_RCC_OscConfig+0x68>
24057b6e:	f7fc fbf9 	bl	24054364 <HAL_GetTick>
24057b72:	1b80      	subs	r0, r0, r6
24057b74:	2802      	cmp	r0, #2
24057b76:	d9f6      	bls.n	24057b66 <HAL_RCC_OscConfig+0x2e2>
24057b78:	e709      	b.n	2405798e <HAL_RCC_OscConfig+0x10a>
24057b7a:	682b      	ldr	r3, [r5, #0]
24057b7c:	f423 5380 	bic.w	r3, r3, #4096	; 0x1000
24057b80:	602b      	str	r3, [r5, #0]
24057b82:	f7fc fbef 	bl	24054364 <HAL_GetTick>
24057b86:	4606      	mov	r6, r0
24057b88:	682b      	ldr	r3, [r5, #0]
24057b8a:	0499      	lsls	r1, r3, #18
24057b8c:	f57f aeae 	bpl.w	240578ec <HAL_RCC_OscConfig+0x68>
24057b90:	f7fc fbe8 	bl	24054364 <HAL_GetTick>
24057b94:	1b80      	subs	r0, r0, r6
24057b96:	2802      	cmp	r0, #2
24057b98:	d9f6      	bls.n	24057b88 <HAL_RCC_OscConfig+0x304>
24057b9a:	e6f8      	b.n	2405798e <HAL_RCC_OscConfig+0x10a>
24057b9c:	f7fc fbe2 	bl	24054364 <HAL_GetTick>
24057ba0:	1b80      	subs	r0, r0, r6
24057ba2:	2864      	cmp	r0, #100	; 0x64
24057ba4:	f67f aead 	bls.w	24057902 <HAL_RCC_OscConfig+0x7e>
24057ba8:	e6f1      	b.n	2405798e <HAL_RCC_OscConfig+0x10a>
24057baa:	b9d3      	cbnz	r3, 24057be2 <HAL_RCC_OscConfig+0x35e>
24057bac:	6f2b      	ldr	r3, [r5, #112]	; 0x70
24057bae:	f241 3788 	movw	r7, #5000	; 0x1388
24057bb2:	f023 0301 	bic.w	r3, r3, #1
24057bb6:	672b      	str	r3, [r5, #112]	; 0x70
24057bb8:	6f2b      	ldr	r3, [r5, #112]	; 0x70
24057bba:	f023 0380 	bic.w	r3, r3, #128	; 0x80
24057bbe:	672b      	str	r3, [r5, #112]	; 0x70
24057bc0:	6f2b      	ldr	r3, [r5, #112]	; 0x70
24057bc2:	f023 0304 	bic.w	r3, r3, #4
24057bc6:	672b      	str	r3, [r5, #112]	; 0x70
24057bc8:	f7fc fbcc 	bl	24054364 <HAL_GetTick>
24057bcc:	4606      	mov	r6, r0
24057bce:	6f2b      	ldr	r3, [r5, #112]	; 0x70
24057bd0:	0798      	lsls	r0, r3, #30
24057bd2:	f57f aead 	bpl.w	24057930 <HAL_RCC_OscConfig+0xac>
24057bd6:	f7fc fbc5 	bl	24054364 <HAL_GetTick>
24057bda:	1b80      	subs	r0, r0, r6
24057bdc:	42b8      	cmp	r0, r7
24057bde:	d9f6      	bls.n	24057bce <HAL_RCC_OscConfig+0x34a>
24057be0:	e6d5      	b.n	2405798e <HAL_RCC_OscConfig+0x10a>
24057be2:	2b05      	cmp	r3, #5
24057be4:	d108      	bne.n	24057bf8 <HAL_RCC_OscConfig+0x374>
24057be6:	6f2b      	ldr	r3, [r5, #112]	; 0x70
24057be8:	f043 0304 	orr.w	r3, r3, #4
24057bec:	672b      	str	r3, [r5, #112]	; 0x70
24057bee:	6f2b      	ldr	r3, [r5, #112]	; 0x70
24057bf0:	f023 0380 	bic.w	r3, r3, #128	; 0x80
24057bf4:	672b      	str	r3, [r5, #112]	; 0x70
24057bf6:	e68d      	b.n	24057914 <HAL_RCC_OscConfig+0x90>
24057bf8:	2b85      	cmp	r3, #133	; 0x85
24057bfa:	6f2b      	ldr	r3, [r5, #112]	; 0x70
24057bfc:	d106      	bne.n	24057c0c <HAL_RCC_OscConfig+0x388>
24057bfe:	f043 0304 	orr.w	r3, r3, #4
24057c02:	672b      	str	r3, [r5, #112]	; 0x70
24057c04:	6f2b      	ldr	r3, [r5, #112]	; 0x70
24057c06:	f043 0380 	orr.w	r3, r3, #128	; 0x80
24057c0a:	e7f3      	b.n	24057bf4 <HAL_RCC_OscConfig+0x370>
24057c0c:	f023 0301 	bic.w	r3, r3, #1
24057c10:	672b      	str	r3, [r5, #112]	; 0x70
24057c12:	6f2b      	ldr	r3, [r5, #112]	; 0x70
24057c14:	f023 0304 	bic.w	r3, r3, #4
24057c18:	672b      	str	r3, [r5, #112]	; 0x70
24057c1a:	6f2b      	ldr	r3, [r5, #112]	; 0x70
24057c1c:	f023 0380 	bic.w	r3, r3, #128	; 0x80
24057c20:	e67b      	b.n	2405791a <HAL_RCC_OscConfig+0x96>
24057c22:	f7fc fb9f 	bl	24054364 <HAL_GetTick>
24057c26:	1b40      	subs	r0, r0, r5
24057c28:	42b8      	cmp	r0, r7
24057c2a:	f67f ae7d 	bls.w	24057928 <HAL_RCC_OscConfig+0xa4>
24057c2e:	e6ae      	b.n	2405798e <HAL_RCC_OscConfig+0x10a>
24057c30:	4d40      	ldr	r5, [pc, #256]	; (24057d34 <HAL_RCC_OscConfig+0x4b0>)
24057c32:	692b      	ldr	r3, [r5, #16]
24057c34:	f003 0338 	and.w	r3, r3, #56	; 0x38
24057c38:	2b18      	cmp	r3, #24
24057c3a:	d07d      	beq.n	24057d38 <HAL_RCC_OscConfig+0x4b4>
24057c3c:	682b      	ldr	r3, [r5, #0]
24057c3e:	2802      	cmp	r0, #2
24057c40:	f023 7380 	bic.w	r3, r3, #16777216	; 0x1000000
24057c44:	602b      	str	r3, [r5, #0]
24057c46:	d167      	bne.n	24057d18 <HAL_RCC_OscConfig+0x494>
24057c48:	f7fc fb8c 	bl	24054364 <HAL_GetTick>
24057c4c:	4606      	mov	r6, r0
24057c4e:	682b      	ldr	r3, [r5, #0]
24057c50:	0199      	lsls	r1, r3, #6
24057c52:	d45b      	bmi.n	24057d0c <HAL_RCC_OscConfig+0x488>
24057c54:	6aab      	ldr	r3, [r5, #40]	; 0x28
24057c56:	6aa2      	ldr	r2, [r4, #40]	; 0x28
24057c58:	f423 737c 	bic.w	r3, r3, #1008	; 0x3f0
24057c5c:	f023 0303 	bic.w	r3, r3, #3
24057c60:	4313      	orrs	r3, r2
24057c62:	6ae2      	ldr	r2, [r4, #44]	; 0x2c
24057c64:	ea43 1302 	orr.w	r3, r3, r2, lsl #4
24057c68:	62ab      	str	r3, [r5, #40]	; 0x28
24057c6a:	6b63      	ldr	r3, [r4, #52]	; 0x34
24057c6c:	6ba2      	ldr	r2, [r4, #56]	; 0x38
24057c6e:	3b01      	subs	r3, #1
24057c70:	3a01      	subs	r2, #1
24057c72:	025b      	lsls	r3, r3, #9
24057c74:	0412      	lsls	r2, r2, #16
24057c76:	b29b      	uxth	r3, r3
24057c78:	f402 02fe 	and.w	r2, r2, #8323072	; 0x7f0000
24057c7c:	4313      	orrs	r3, r2
24057c7e:	6b22      	ldr	r2, [r4, #48]	; 0x30
24057c80:	3a01      	subs	r2, #1
24057c82:	f3c2 0208 	ubfx	r2, r2, #0, #9
24057c86:	4313      	orrs	r3, r2
24057c88:	6be2      	ldr	r2, [r4, #60]	; 0x3c
24057c8a:	3a01      	subs	r2, #1
24057c8c:	0612      	lsls	r2, r2, #24
24057c8e:	f002 42fe 	and.w	r2, r2, #2130706432	; 0x7f000000
24057c92:	4313      	orrs	r3, r2
24057c94:	632b      	str	r3, [r5, #48]	; 0x30
24057c96:	6aeb      	ldr	r3, [r5, #44]	; 0x2c
24057c98:	f023 0301 	bic.w	r3, r3, #1
24057c9c:	62eb      	str	r3, [r5, #44]	; 0x2c
24057c9e:	6b6b      	ldr	r3, [r5, #52]	; 0x34
24057ca0:	6ca2      	ldr	r2, [r4, #72]	; 0x48
24057ca2:	f423 437f 	bic.w	r3, r3, #65280	; 0xff00
24057ca6:	f023 03f8 	bic.w	r3, r3, #248	; 0xf8
24057caa:	ea43 03c2 	orr.w	r3, r3, r2, lsl #3
24057cae:	636b      	str	r3, [r5, #52]	; 0x34
24057cb0:	6aeb      	ldr	r3, [r5, #44]	; 0x2c
24057cb2:	6c22      	ldr	r2, [r4, #64]	; 0x40
24057cb4:	f023 030c 	bic.w	r3, r3, #12
24057cb8:	4313      	orrs	r3, r2
24057cba:	62eb      	str	r3, [r5, #44]	; 0x2c
24057cbc:	6aeb      	ldr	r3, [r5, #44]	; 0x2c
24057cbe:	6c62      	ldr	r2, [r4, #68]	; 0x44
24057cc0:	f023 0302 	bic.w	r3, r3, #2
24057cc4:	4313      	orrs	r3, r2
24057cc6:	62eb      	str	r3, [r5, #44]	; 0x2c
24057cc8:	6aeb      	ldr	r3, [r5, #44]	; 0x2c
24057cca:	f443 3380 	orr.w	r3, r3, #65536	; 0x10000
24057cce:	62eb      	str	r3, [r5, #44]	; 0x2c
24057cd0:	6aeb      	ldr	r3, [r5, #44]	; 0x2c
24057cd2:	f443 3300 	orr.w	r3, r3, #131072	; 0x20000
24057cd6:	62eb      	str	r3, [r5, #44]	; 0x2c
24057cd8:	6aeb      	ldr	r3, [r5, #44]	; 0x2c
24057cda:	f443 2380 	orr.w	r3, r3, #262144	; 0x40000
24057cde:	62eb      	str	r3, [r5, #44]	; 0x2c
24057ce0:	6aeb      	ldr	r3, [r5, #44]	; 0x2c
24057ce2:	f043 0301 	orr.w	r3, r3, #1
24057ce6:	62eb      	str	r3, [r5, #44]	; 0x2c
24057ce8:	682b      	ldr	r3, [r5, #0]
24057cea:	f043 7380 	orr.w	r3, r3, #16777216	; 0x1000000
24057cee:	602b      	str	r3, [r5, #0]
24057cf0:	f7fc fb38 	bl	24054364 <HAL_GetTick>
24057cf4:	4d0f      	ldr	r5, [pc, #60]	; (24057d34 <HAL_RCC_OscConfig+0x4b0>)
24057cf6:	4604      	mov	r4, r0
24057cf8:	682b      	ldr	r3, [r5, #0]
24057cfa:	019a      	lsls	r2, r3, #6
24057cfc:	f53f ae1c 	bmi.w	24057938 <HAL_RCC_OscConfig+0xb4>
24057d00:	f7fc fb30 	bl	24054364 <HAL_GetTick>
24057d04:	1b00      	subs	r0, r0, r4
24057d06:	2802      	cmp	r0, #2
24057d08:	d9f6      	bls.n	24057cf8 <HAL_RCC_OscConfig+0x474>
24057d0a:	e640      	b.n	2405798e <HAL_RCC_OscConfig+0x10a>
24057d0c:	f7fc fb2a 	bl	24054364 <HAL_GetTick>
24057d10:	1b80      	subs	r0, r0, r6
24057d12:	2802      	cmp	r0, #2
24057d14:	d99b      	bls.n	24057c4e <HAL_RCC_OscConfig+0x3ca>
24057d16:	e63a      	b.n	2405798e <HAL_RCC_OscConfig+0x10a>
24057d18:	f7fc fb24 	bl	24054364 <HAL_GetTick>
24057d1c:	4604      	mov	r4, r0
24057d1e:	682b      	ldr	r3, [r5, #0]
24057d20:	019b      	lsls	r3, r3, #6
24057d22:	f57f ae09 	bpl.w	24057938 <HAL_RCC_OscConfig+0xb4>
24057d26:	f7fc fb1d 	bl	24054364 <HAL_GetTick>
24057d2a:	1b00      	subs	r0, r0, r4
24057d2c:	2802      	cmp	r0, #2
24057d2e:	d9f6      	bls.n	24057d1e <HAL_RCC_OscConfig+0x49a>
24057d30:	e62d      	b.n	2405798e <HAL_RCC_OscConfig+0x10a>
24057d32:	bf00      	nop
24057d34:	58024400 	.word	0x58024400
24057d38:	2801      	cmp	r0, #1
24057d3a:	6aaa      	ldr	r2, [r5, #40]	; 0x28
24057d3c:	6b2b      	ldr	r3, [r5, #48]	; 0x30
24057d3e:	f43f ae27 	beq.w	24057990 <HAL_RCC_OscConfig+0x10c>
24057d42:	f002 0103 	and.w	r1, r2, #3
24057d46:	6aa0      	ldr	r0, [r4, #40]	; 0x28
24057d48:	4281      	cmp	r1, r0
24057d4a:	f47f ad9e 	bne.w	2405788a <HAL_RCC_OscConfig+0x6>
24057d4e:	f3c2 1205 	ubfx	r2, r2, #4, #6
24057d52:	6ae1      	ldr	r1, [r4, #44]	; 0x2c
24057d54:	428a      	cmp	r2, r1
24057d56:	f47f ad98 	bne.w	2405788a <HAL_RCC_OscConfig+0x6>
24057d5a:	6b22      	ldr	r2, [r4, #48]	; 0x30
24057d5c:	f3c3 0108 	ubfx	r1, r3, #0, #9
24057d60:	3a01      	subs	r2, #1
24057d62:	4291      	cmp	r1, r2
24057d64:	f47f ad91 	bne.w	2405788a <HAL_RCC_OscConfig+0x6>
24057d68:	6b62      	ldr	r2, [r4, #52]	; 0x34
24057d6a:	f3c3 2146 	ubfx	r1, r3, #9, #7
24057d6e:	3a01      	subs	r2, #1
24057d70:	4291      	cmp	r1, r2
24057d72:	f47f ad8a 	bne.w	2405788a <HAL_RCC_OscConfig+0x6>
24057d76:	6ba2      	ldr	r2, [r4, #56]	; 0x38
24057d78:	f3c3 4106 	ubfx	r1, r3, #16, #7
24057d7c:	3a01      	subs	r2, #1
24057d7e:	4291      	cmp	r1, r2
24057d80:	f47f ad83 	bne.w	2405788a <HAL_RCC_OscConfig+0x6>
24057d84:	6be2      	ldr	r2, [r4, #60]	; 0x3c
24057d86:	f3c3 6306 	ubfx	r3, r3, #24, #7
24057d8a:	3a01      	subs	r2, #1
24057d8c:	4293      	cmp	r3, r2
24057d8e:	f47f ad7c 	bne.w	2405788a <HAL_RCC_OscConfig+0x6>
24057d92:	6b6b      	ldr	r3, [r5, #52]	; 0x34
24057d94:	6ca2      	ldr	r2, [r4, #72]	; 0x48
24057d96:	f3c3 03cc 	ubfx	r3, r3, #3, #13
24057d9a:	429a      	cmp	r2, r3
24057d9c:	f43f adcc 	beq.w	24057938 <HAL_RCC_OscConfig+0xb4>
24057da0:	4d0c      	ldr	r5, [pc, #48]	; (24057dd4 <HAL_RCC_OscConfig+0x550>)
24057da2:	6aeb      	ldr	r3, [r5, #44]	; 0x2c
24057da4:	f023 0301 	bic.w	r3, r3, #1
24057da8:	62eb      	str	r3, [r5, #44]	; 0x2c
24057daa:	f7fc fadb 	bl	24054364 <HAL_GetTick>
24057dae:	4606      	mov	r6, r0
24057db0:	f7fc fad8 	bl	24054364 <HAL_GetTick>
24057db4:	42b0      	cmp	r0, r6
24057db6:	d0fb      	beq.n	24057db0 <HAL_RCC_OscConfig+0x52c>
24057db8:	6b6b      	ldr	r3, [r5, #52]	; 0x34
24057dba:	6ca2      	ldr	r2, [r4, #72]	; 0x48
24057dbc:	f423 437f 	bic.w	r3, r3, #65280	; 0xff00
24057dc0:	f023 03f8 	bic.w	r3, r3, #248	; 0xf8
24057dc4:	ea43 03c2 	orr.w	r3, r3, r2, lsl #3
24057dc8:	636b      	str	r3, [r5, #52]	; 0x34
24057dca:	6aeb      	ldr	r3, [r5, #44]	; 0x2c
24057dcc:	f043 0301 	orr.w	r3, r3, #1
24057dd0:	62eb      	str	r3, [r5, #44]	; 0x2c
24057dd2:	e5b1      	b.n	24057938 <HAL_RCC_OscConfig+0xb4>
24057dd4:	58024400 	.word	0x58024400

24057dd8 <HAL_RCC_GetSysClockFreq>:
24057dd8:	4b49      	ldr	r3, [pc, #292]	; (24057f00 <HAL_RCC_GetSysClockFreq+0x128>)
24057dda:	691a      	ldr	r2, [r3, #16]
24057ddc:	f002 0238 	and.w	r2, r2, #56	; 0x38
24057de0:	2a10      	cmp	r2, #16
24057de2:	b530      	push	{r4, r5, lr}
24057de4:	f000 8088 	beq.w	24057ef8 <HAL_RCC_GetSysClockFreq+0x120>
24057de8:	2a18      	cmp	r2, #24
24057dea:	d00c      	beq.n	24057e06 <HAL_RCC_GetSysClockFreq+0x2e>
24057dec:	2a00      	cmp	r2, #0
24057dee:	f040 8085 	bne.w	24057efc <HAL_RCC_GetSysClockFreq+0x124>
24057df2:	681a      	ldr	r2, [r3, #0]
24057df4:	4843      	ldr	r0, [pc, #268]	; (24057f04 <HAL_RCC_GetSysClockFreq+0x12c>)
24057df6:	f012 0f20 	tst.w	r2, #32
24057dfa:	d003      	beq.n	24057e04 <HAL_RCC_GetSysClockFreq+0x2c>
24057dfc:	681b      	ldr	r3, [r3, #0]
24057dfe:	f3c3 03c1 	ubfx	r3, r3, #3, #2
24057e02:	40d8      	lsrs	r0, r3
24057e04:	bd30      	pop	{r4, r5, pc}
24057e06:	6a99      	ldr	r1, [r3, #40]	; 0x28
24057e08:	6a9d      	ldr	r5, [r3, #40]	; 0x28
24057e0a:	6adc      	ldr	r4, [r3, #44]	; 0x2c
24057e0c:	f415 7f7c 	tst.w	r5, #1008	; 0x3f0
24057e10:	f3c5 1005 	ubfx	r0, r5, #4, #6
24057e14:	6b5a      	ldr	r2, [r3, #52]	; 0x34
24057e16:	d0f5      	beq.n	24057e04 <HAL_RCC_GetSysClockFreq+0x2c>
24057e18:	f3c2 02cc 	ubfx	r2, r2, #3, #13
24057e1c:	f004 0401 	and.w	r4, r4, #1
24057e20:	f001 0103 	and.w	r1, r1, #3
24057e24:	ee07 0a90 	vmov	s15, r0
24057e28:	4362      	muls	r2, r4
24057e2a:	eeb7 6a00 	vmov.f32	s12, #112	; 0x3f800000  1.0
24057e2e:	2901      	cmp	r1, #1
24057e30:	eeb8 7ae7 	vcvt.f32.s32	s14, s15
24057e34:	ee06 2a90 	vmov	s13, r2
24057e38:	eefa 6ae9 	vcvt.f32.s32	s13, s13, #13
24057e3c:	d04e      	beq.n	24057edc <HAL_RCC_GetSysClockFreq+0x104>
24057e3e:	2902      	cmp	r1, #2
24057e40:	d03e      	beq.n	24057ec0 <HAL_RCC_GetSysClockFreq+0xe8>
24057e42:	2900      	cmp	r1, #0
24057e44:	d14a      	bne.n	24057edc <HAL_RCC_GetSysClockFreq+0x104>
24057e46:	681a      	ldr	r2, [r3, #0]
24057e48:	0692      	lsls	r2, r2, #26
24057e4a:	d527      	bpl.n	24057e9c <HAL_RCC_GetSysClockFreq+0xc4>
24057e4c:	6819      	ldr	r1, [r3, #0]
24057e4e:	4a2d      	ldr	r2, [pc, #180]	; (24057f04 <HAL_RCC_GetSysClockFreq+0x12c>)
24057e50:	f3c1 01c1 	ubfx	r1, r1, #3, #2
24057e54:	6b1b      	ldr	r3, [r3, #48]	; 0x30
24057e56:	40ca      	lsrs	r2, r1
24057e58:	f3c3 0308 	ubfx	r3, r3, #0, #9
24057e5c:	ee07 2a90 	vmov	s15, r2
24057e60:	eef8 5ae7 	vcvt.f32.s32	s11, s15
24057e64:	eec5 7a87 	vdiv.f32	s15, s11, s14
24057e68:	ee07 3a10 	vmov	s14, r3
24057e6c:	eeb8 7ac7 	vcvt.f32.s32	s14, s14
24057e70:	ee37 7a26 	vadd.f32	s14, s14, s13
24057e74:	ee37 7a06 	vadd.f32	s14, s14, s12
24057e78:	ee67 7a87 	vmul.f32	s15, s15, s14
24057e7c:	4b20      	ldr	r3, [pc, #128]	; (24057f00 <HAL_RCC_GetSysClockFreq+0x128>)
24057e7e:	6b1b      	ldr	r3, [r3, #48]	; 0x30
24057e80:	f3c3 2346 	ubfx	r3, r3, #9, #7
24057e84:	3301      	adds	r3, #1
24057e86:	ee07 3a10 	vmov	s14, r3
24057e8a:	eef8 6ac7 	vcvt.f32.s32	s13, s14
24057e8e:	ee87 7aa6 	vdiv.f32	s14, s15, s13
24057e92:	eefc 7ac7 	vcvt.u32.f32	s15, s14
24057e96:	ee17 0a90 	vmov	r0, s15
24057e9a:	e7b3      	b.n	24057e04 <HAL_RCC_GetSysClockFreq+0x2c>
24057e9c:	6b1b      	ldr	r3, [r3, #48]	; 0x30
24057e9e:	f3c3 0308 	ubfx	r3, r3, #0, #9
24057ea2:	ee07 3a90 	vmov	s15, r3
24057ea6:	eef8 7ae7 	vcvt.f32.s32	s15, s15
24057eaa:	ee77 7aa6 	vadd.f32	s15, s15, s13
24057eae:	ee77 7a86 	vadd.f32	s15, s15, s12
24057eb2:	ed9f 6a15 	vldr	s12, [pc, #84]	; 24057f08 <HAL_RCC_GetSysClockFreq+0x130>
24057eb6:	eec6 6a07 	vdiv.f32	s13, s12, s14
24057eba:	ee67 7aa6 	vmul.f32	s15, s15, s13
24057ebe:	e7dd      	b.n	24057e7c <HAL_RCC_GetSysClockFreq+0xa4>
24057ec0:	6b1b      	ldr	r3, [r3, #48]	; 0x30
24057ec2:	f3c3 0308 	ubfx	r3, r3, #0, #9
24057ec6:	ee07 3a90 	vmov	s15, r3
24057eca:	eef8 7ae7 	vcvt.f32.s32	s15, s15
24057ece:	ee77 7aa6 	vadd.f32	s15, s15, s13
24057ed2:	ee77 7a86 	vadd.f32	s15, s15, s12
24057ed6:	ed9f 6a0d 	vldr	s12, [pc, #52]	; 24057f0c <HAL_RCC_GetSysClockFreq+0x134>
24057eda:	e7ec      	b.n	24057eb6 <HAL_RCC_GetSysClockFreq+0xde>
24057edc:	6b1b      	ldr	r3, [r3, #48]	; 0x30
24057ede:	f3c3 0308 	ubfx	r3, r3, #0, #9
24057ee2:	ee07 3a90 	vmov	s15, r3
24057ee6:	eef8 7ae7 	vcvt.f32.s32	s15, s15
24057eea:	ee77 7aa6 	vadd.f32	s15, s15, s13
24057eee:	ee77 7a86 	vadd.f32	s15, s15, s12
24057ef2:	ed9f 6a07 	vldr	s12, [pc, #28]	; 24057f10 <HAL_RCC_GetSysClockFreq+0x138>
24057ef6:	e7de      	b.n	24057eb6 <HAL_RCC_GetSysClockFreq+0xde>
24057ef8:	4806      	ldr	r0, [pc, #24]	; (24057f14 <HAL_RCC_GetSysClockFreq+0x13c>)
24057efa:	e783      	b.n	24057e04 <HAL_RCC_GetSysClockFreq+0x2c>
24057efc:	4806      	ldr	r0, [pc, #24]	; (24057f18 <HAL_RCC_GetSysClockFreq+0x140>)
24057efe:	e781      	b.n	24057e04 <HAL_RCC_GetSysClockFreq+0x2c>
24057f00:	58024400 	.word	0x58024400
24057f04:	03d09000 	.word	0x03d09000
24057f08:	4c742400 	.word	0x4c742400
24057f0c:	4bb71b00 	.word	0x4bb71b00
24057f10:	4a742400 	.word	0x4a742400
24057f14:	016e3600 	.word	0x016e3600
24057f18:	003d0900 	.word	0x003d0900

24057f1c <HAL_RCC_ClockConfig>:
24057f1c:	e92d 41f0 	stmdb	sp!, {r4, r5, r6, r7, r8, lr}
24057f20:	460d      	mov	r5, r1
24057f22:	4604      	mov	r4, r0
24057f24:	b910      	cbnz	r0, 24057f2c <HAL_RCC_ClockConfig+0x10>
24057f26:	2001      	movs	r0, #1
24057f28:	e8bd 81f0 	ldmia.w	sp!, {r4, r5, r6, r7, r8, pc}
24057f2c:	4a88      	ldr	r2, [pc, #544]	; (24058150 <HAL_RCC_ClockConfig+0x234>)
24057f2e:	6813      	ldr	r3, [r2, #0]
24057f30:	f003 030f 	and.w	r3, r3, #15
24057f34:	428b      	cmp	r3, r1
24057f36:	f0c0 8093 	bcc.w	24058060 <HAL_RCC_ClockConfig+0x144>
24057f3a:	6823      	ldr	r3, [r4, #0]
24057f3c:	075f      	lsls	r7, r3, #29
24057f3e:	f100 809b 	bmi.w	24058078 <HAL_RCC_ClockConfig+0x15c>
24057f42:	071e      	lsls	r6, r3, #28
24057f44:	d50b      	bpl.n	24057f5e <HAL_RCC_ClockConfig+0x42>
24057f46:	4983      	ldr	r1, [pc, #524]	; (24058154 <HAL_RCC_ClockConfig+0x238>)
24057f48:	6960      	ldr	r0, [r4, #20]
24057f4a:	69ca      	ldr	r2, [r1, #28]
24057f4c:	f002 0270 	and.w	r2, r2, #112	; 0x70
24057f50:	4290      	cmp	r0, r2
24057f52:	d904      	bls.n	24057f5e <HAL_RCC_ClockConfig+0x42>
24057f54:	69ca      	ldr	r2, [r1, #28]
24057f56:	f022 0270 	bic.w	r2, r2, #112	; 0x70
24057f5a:	4302      	orrs	r2, r0
24057f5c:	61ca      	str	r2, [r1, #28]
24057f5e:	06d8      	lsls	r0, r3, #27
24057f60:	d50b      	bpl.n	24057f7a <HAL_RCC_ClockConfig+0x5e>
24057f62:	497c      	ldr	r1, [pc, #496]	; (24058154 <HAL_RCC_ClockConfig+0x238>)
24057f64:	69a0      	ldr	r0, [r4, #24]
24057f66:	69ca      	ldr	r2, [r1, #28]
24057f68:	f402 62e0 	and.w	r2, r2, #1792	; 0x700
24057f6c:	4290      	cmp	r0, r2
24057f6e:	d904      	bls.n	24057f7a <HAL_RCC_ClockConfig+0x5e>
24057f70:	69ca      	ldr	r2, [r1, #28]
24057f72:	f422 62e0 	bic.w	r2, r2, #1792	; 0x700
24057f76:	4302      	orrs	r2, r0
24057f78:	61ca      	str	r2, [r1, #28]
24057f7a:	0699      	lsls	r1, r3, #26
24057f7c:	d50b      	bpl.n	24057f96 <HAL_RCC_ClockConfig+0x7a>
24057f7e:	4975      	ldr	r1, [pc, #468]	; (24058154 <HAL_RCC_ClockConfig+0x238>)
24057f80:	69e0      	ldr	r0, [r4, #28]
24057f82:	6a0a      	ldr	r2, [r1, #32]
24057f84:	f002 0270 	and.w	r2, r2, #112	; 0x70
24057f88:	4290      	cmp	r0, r2
24057f8a:	d904      	bls.n	24057f96 <HAL_RCC_ClockConfig+0x7a>
24057f8c:	6a0a      	ldr	r2, [r1, #32]
24057f8e:	f022 0270 	bic.w	r2, r2, #112	; 0x70
24057f92:	4302      	orrs	r2, r0
24057f94:	620a      	str	r2, [r1, #32]
24057f96:	079a      	lsls	r2, r3, #30
24057f98:	d50b      	bpl.n	24057fb2 <HAL_RCC_ClockConfig+0x96>
24057f9a:	496e      	ldr	r1, [pc, #440]	; (24058154 <HAL_RCC_ClockConfig+0x238>)
24057f9c:	68e0      	ldr	r0, [r4, #12]
24057f9e:	698a      	ldr	r2, [r1, #24]
24057fa0:	f002 020f 	and.w	r2, r2, #15
24057fa4:	4290      	cmp	r0, r2
24057fa6:	d904      	bls.n	24057fb2 <HAL_RCC_ClockConfig+0x96>
24057fa8:	698a      	ldr	r2, [r1, #24]
24057faa:	f022 020f 	bic.w	r2, r2, #15
24057fae:	4302      	orrs	r2, r0
24057fb0:	618a      	str	r2, [r1, #24]
24057fb2:	07df      	lsls	r7, r3, #31
24057fb4:	d46e      	bmi.n	24058094 <HAL_RCC_ClockConfig+0x178>
24057fb6:	6823      	ldr	r3, [r4, #0]
24057fb8:	079e      	lsls	r6, r3, #30
24057fba:	f100 80a1 	bmi.w	24058100 <HAL_RCC_ClockConfig+0x1e4>
24057fbe:	4964      	ldr	r1, [pc, #400]	; (24058150 <HAL_RCC_ClockConfig+0x234>)
24057fc0:	680a      	ldr	r2, [r1, #0]
24057fc2:	f002 020f 	and.w	r2, r2, #15
24057fc6:	42aa      	cmp	r2, r5
24057fc8:	f200 80a8 	bhi.w	2405811c <HAL_RCC_ClockConfig+0x200>
24057fcc:	0758      	lsls	r0, r3, #29
24057fce:	f100 80b1 	bmi.w	24058134 <HAL_RCC_ClockConfig+0x218>
24057fd2:	0719      	lsls	r1, r3, #28
24057fd4:	d50b      	bpl.n	24057fee <HAL_RCC_ClockConfig+0xd2>
24057fd6:	495f      	ldr	r1, [pc, #380]	; (24058154 <HAL_RCC_ClockConfig+0x238>)
24057fd8:	6960      	ldr	r0, [r4, #20]
24057fda:	69ca      	ldr	r2, [r1, #28]
24057fdc:	f002 0270 	and.w	r2, r2, #112	; 0x70
24057fe0:	4290      	cmp	r0, r2
24057fe2:	d204      	bcs.n	24057fee <HAL_RCC_ClockConfig+0xd2>
24057fe4:	69ca      	ldr	r2, [r1, #28]
24057fe6:	f022 0270 	bic.w	r2, r2, #112	; 0x70
24057fea:	4302      	orrs	r2, r0
24057fec:	61ca      	str	r2, [r1, #28]
24057fee:	06da      	lsls	r2, r3, #27
24057ff0:	d50b      	bpl.n	2405800a <HAL_RCC_ClockConfig+0xee>
24057ff2:	4958      	ldr	r1, [pc, #352]	; (24058154 <HAL_RCC_ClockConfig+0x238>)
24057ff4:	69a0      	ldr	r0, [r4, #24]
24057ff6:	69ca      	ldr	r2, [r1, #28]
24057ff8:	f402 62e0 	and.w	r2, r2, #1792	; 0x700
24057ffc:	4290      	cmp	r0, r2
24057ffe:	d204      	bcs.n	2405800a <HAL_RCC_ClockConfig+0xee>
24058000:	69ca      	ldr	r2, [r1, #28]
24058002:	f422 62e0 	bic.w	r2, r2, #1792	; 0x700
24058006:	4302      	orrs	r2, r0
24058008:	61ca      	str	r2, [r1, #28]
2405800a:	069b      	lsls	r3, r3, #26
2405800c:	d50b      	bpl.n	24058026 <HAL_RCC_ClockConfig+0x10a>
2405800e:	4a51      	ldr	r2, [pc, #324]	; (24058154 <HAL_RCC_ClockConfig+0x238>)
24058010:	69e1      	ldr	r1, [r4, #28]
24058012:	6a13      	ldr	r3, [r2, #32]
24058014:	f003 0370 	and.w	r3, r3, #112	; 0x70
24058018:	4299      	cmp	r1, r3
2405801a:	d204      	bcs.n	24058026 <HAL_RCC_ClockConfig+0x10a>
2405801c:	6a13      	ldr	r3, [r2, #32]
2405801e:	f023 0370 	bic.w	r3, r3, #112	; 0x70
24058022:	430b      	orrs	r3, r1
24058024:	6213      	str	r3, [r2, #32]
24058026:	f7ff fed7 	bl	24057dd8 <HAL_RCC_GetSysClockFreq>
2405802a:	494a      	ldr	r1, [pc, #296]	; (24058154 <HAL_RCC_ClockConfig+0x238>)
2405802c:	4a4a      	ldr	r2, [pc, #296]	; (24058158 <HAL_RCC_ClockConfig+0x23c>)
2405802e:	698b      	ldr	r3, [r1, #24]
24058030:	f3c3 2303 	ubfx	r3, r3, #8, #4
24058034:	5cd3      	ldrb	r3, [r2, r3]
24058036:	f003 031f 	and.w	r3, r3, #31
2405803a:	40d8      	lsrs	r0, r3
2405803c:	698b      	ldr	r3, [r1, #24]
2405803e:	f003 030f 	and.w	r3, r3, #15
24058042:	5cd3      	ldrb	r3, [r2, r3]
24058044:	4a45      	ldr	r2, [pc, #276]	; (2405815c <HAL_RCC_ClockConfig+0x240>)
24058046:	f003 031f 	and.w	r3, r3, #31
2405804a:	fa20 f303 	lsr.w	r3, r0, r3
2405804e:	6013      	str	r3, [r2, #0]
24058050:	4b43      	ldr	r3, [pc, #268]	; (24058160 <HAL_RCC_ClockConfig+0x244>)
24058052:	6018      	str	r0, [r3, #0]
24058054:	4b43      	ldr	r3, [pc, #268]	; (24058164 <HAL_RCC_ClockConfig+0x248>)
24058056:	e8bd 41f0 	ldmia.w	sp!, {r4, r5, r6, r7, r8, lr}
2405805a:	6818      	ldr	r0, [r3, #0]
2405805c:	f7fc b922 	b.w	240542a4 <HAL_InitTick>
24058060:	6813      	ldr	r3, [r2, #0]
24058062:	f023 030f 	bic.w	r3, r3, #15
24058066:	430b      	orrs	r3, r1
24058068:	6013      	str	r3, [r2, #0]
2405806a:	6813      	ldr	r3, [r2, #0]
2405806c:	f003 030f 	and.w	r3, r3, #15
24058070:	428b      	cmp	r3, r1
24058072:	f47f af58 	bne.w	24057f26 <HAL_RCC_ClockConfig+0xa>
24058076:	e760      	b.n	24057f3a <HAL_RCC_ClockConfig+0x1e>
24058078:	4936      	ldr	r1, [pc, #216]	; (24058154 <HAL_RCC_ClockConfig+0x238>)
2405807a:	6920      	ldr	r0, [r4, #16]
2405807c:	698a      	ldr	r2, [r1, #24]
2405807e:	f002 0270 	and.w	r2, r2, #112	; 0x70
24058082:	4290      	cmp	r0, r2
24058084:	f67f af5d 	bls.w	24057f42 <HAL_RCC_ClockConfig+0x26>
24058088:	698a      	ldr	r2, [r1, #24]
2405808a:	f022 0270 	bic.w	r2, r2, #112	; 0x70
2405808e:	4302      	orrs	r2, r0
24058090:	618a      	str	r2, [r1, #24]
24058092:	e756      	b.n	24057f42 <HAL_RCC_ClockConfig+0x26>
24058094:	4b2f      	ldr	r3, [pc, #188]	; (24058154 <HAL_RCC_ClockConfig+0x238>)
24058096:	68a1      	ldr	r1, [r4, #8]
24058098:	699a      	ldr	r2, [r3, #24]
2405809a:	f422 6270 	bic.w	r2, r2, #3840	; 0xf00
2405809e:	430a      	orrs	r2, r1
240580a0:	619a      	str	r2, [r3, #24]
240580a2:	6861      	ldr	r1, [r4, #4]
240580a4:	681a      	ldr	r2, [r3, #0]
240580a6:	2902      	cmp	r1, #2
240580a8:	d11d      	bne.n	240580e6 <HAL_RCC_ClockConfig+0x1ca>
240580aa:	f412 3f00 	tst.w	r2, #131072	; 0x20000
240580ae:	f43f af3a 	beq.w	24057f26 <HAL_RCC_ClockConfig+0xa>
240580b2:	691a      	ldr	r2, [r3, #16]
240580b4:	f241 3888 	movw	r8, #5000	; 0x1388
240580b8:	4f26      	ldr	r7, [pc, #152]	; (24058154 <HAL_RCC_ClockConfig+0x238>)
240580ba:	f022 0207 	bic.w	r2, r2, #7
240580be:	430a      	orrs	r2, r1
240580c0:	611a      	str	r2, [r3, #16]
240580c2:	f7fc f94f 	bl	24054364 <HAL_GetTick>
240580c6:	4606      	mov	r6, r0
240580c8:	693b      	ldr	r3, [r7, #16]
240580ca:	6862      	ldr	r2, [r4, #4]
240580cc:	f003 0338 	and.w	r3, r3, #56	; 0x38
240580d0:	ebb3 0fc2 	cmp.w	r3, r2, lsl #3
240580d4:	f43f af6f 	beq.w	24057fb6 <HAL_RCC_ClockConfig+0x9a>
240580d8:	f7fc f944 	bl	24054364 <HAL_GetTick>
240580dc:	1b80      	subs	r0, r0, r6
240580de:	4540      	cmp	r0, r8
240580e0:	d9f2      	bls.n	240580c8 <HAL_RCC_ClockConfig+0x1ac>
240580e2:	2003      	movs	r0, #3
240580e4:	e720      	b.n	24057f28 <HAL_RCC_ClockConfig+0xc>
240580e6:	2903      	cmp	r1, #3
240580e8:	d102      	bne.n	240580f0 <HAL_RCC_ClockConfig+0x1d4>
240580ea:	f012 7f00 	tst.w	r2, #33554432	; 0x2000000
240580ee:	e7de      	b.n	240580ae <HAL_RCC_ClockConfig+0x192>
240580f0:	2901      	cmp	r1, #1
240580f2:	d102      	bne.n	240580fa <HAL_RCC_ClockConfig+0x1de>
240580f4:	f412 7f80 	tst.w	r2, #256	; 0x100
240580f8:	e7d9      	b.n	240580ae <HAL_RCC_ClockConfig+0x192>
240580fa:	f012 0f04 	tst.w	r2, #4
240580fe:	e7d6      	b.n	240580ae <HAL_RCC_ClockConfig+0x192>
24058100:	4914      	ldr	r1, [pc, #80]	; (24058154 <HAL_RCC_ClockConfig+0x238>)
24058102:	68e0      	ldr	r0, [r4, #12]
24058104:	698a      	ldr	r2, [r1, #24]
24058106:	f002 020f 	and.w	r2, r2, #15
2405810a:	4290      	cmp	r0, r2
2405810c:	f4bf af57 	bcs.w	24057fbe <HAL_RCC_ClockConfig+0xa2>
24058110:	698a      	ldr	r2, [r1, #24]
24058112:	f022 020f 	bic.w	r2, r2, #15
24058116:	4302      	orrs	r2, r0
24058118:	618a      	str	r2, [r1, #24]
2405811a:	e750      	b.n	24057fbe <HAL_RCC_ClockConfig+0xa2>
2405811c:	680a      	ldr	r2, [r1, #0]
2405811e:	f022 020f 	bic.w	r2, r2, #15
24058122:	432a      	orrs	r2, r5
24058124:	600a      	str	r2, [r1, #0]
24058126:	680a      	ldr	r2, [r1, #0]
24058128:	f002 020f 	and.w	r2, r2, #15
2405812c:	42aa      	cmp	r2, r5
2405812e:	f47f aefa 	bne.w	24057f26 <HAL_RCC_ClockConfig+0xa>
24058132:	e74b      	b.n	24057fcc <HAL_RCC_ClockConfig+0xb0>
24058134:	4907      	ldr	r1, [pc, #28]	; (24058154 <HAL_RCC_ClockConfig+0x238>)
24058136:	6920      	ldr	r0, [r4, #16]
24058138:	698a      	ldr	r2, [r1, #24]
2405813a:	f002 0270 	and.w	r2, r2, #112	; 0x70
2405813e:	4290      	cmp	r0, r2
24058140:	f4bf af47 	bcs.w	24057fd2 <HAL_RCC_ClockConfig+0xb6>
24058144:	698a      	ldr	r2, [r1, #24]
24058146:	f022 0270 	bic.w	r2, r2, #112	; 0x70
2405814a:	4302      	orrs	r2, r0
2405814c:	618a      	str	r2, [r1, #24]
2405814e:	e740      	b.n	24057fd2 <HAL_RCC_ClockConfig+0xb6>
24058150:	52002000 	.word	0x52002000
24058154:	58024400 	.word	0x58024400
24058158:	24060122 	.word	0x24060122
2405815c:	200000b0 	.word	0x200000b0
24058160:	200000ac 	.word	0x200000ac
24058164:	200000b8 	.word	0x200000b8

24058168 <HAL_RCC_GetHCLKFreq>:
24058168:	b510      	push	{r4, lr}
2405816a:	4c0c      	ldr	r4, [pc, #48]	; (2405819c <HAL_RCC_GetHCLKFreq+0x34>)
2405816c:	f7ff fe34 	bl	24057dd8 <HAL_RCC_GetSysClockFreq>
24058170:	490b      	ldr	r1, [pc, #44]	; (240581a0 <HAL_RCC_GetHCLKFreq+0x38>)
24058172:	69a3      	ldr	r3, [r4, #24]
24058174:	f3c3 2303 	ubfx	r3, r3, #8, #4
24058178:	5ccb      	ldrb	r3, [r1, r3]
2405817a:	f003 031f 	and.w	r3, r3, #31
2405817e:	fa20 f203 	lsr.w	r2, r0, r3
24058182:	69a3      	ldr	r3, [r4, #24]
24058184:	f003 030f 	and.w	r3, r3, #15
24058188:	5ccb      	ldrb	r3, [r1, r3]
2405818a:	f003 031f 	and.w	r3, r3, #31
2405818e:	fa22 f003 	lsr.w	r0, r2, r3
24058192:	4b04      	ldr	r3, [pc, #16]	; (240581a4 <HAL_RCC_GetHCLKFreq+0x3c>)
24058194:	6018      	str	r0, [r3, #0]
24058196:	4b04      	ldr	r3, [pc, #16]	; (240581a8 <HAL_RCC_GetHCLKFreq+0x40>)
24058198:	601a      	str	r2, [r3, #0]
2405819a:	bd10      	pop	{r4, pc}
2405819c:	58024400 	.word	0x58024400
240581a0:	24060122 	.word	0x24060122
240581a4:	200000b0 	.word	0x200000b0
240581a8:	200000ac 	.word	0x200000ac

240581ac <HAL_RCC_GetPCLK1Freq>:
240581ac:	b508      	push	{r3, lr}
240581ae:	f7ff ffdb 	bl	24058168 <HAL_RCC_GetHCLKFreq>
240581b2:	4b05      	ldr	r3, [pc, #20]	; (240581c8 <HAL_RCC_GetPCLK1Freq+0x1c>)
240581b4:	4a05      	ldr	r2, [pc, #20]	; (240581cc <HAL_RCC_GetPCLK1Freq+0x20>)
240581b6:	69db      	ldr	r3, [r3, #28]
240581b8:	f3c3 1302 	ubfx	r3, r3, #4, #3
240581bc:	5cd3      	ldrb	r3, [r2, r3]
240581be:	f003 031f 	and.w	r3, r3, #31
240581c2:	40d8      	lsrs	r0, r3
240581c4:	bd08      	pop	{r3, pc}
240581c6:	bf00      	nop
240581c8:	58024400 	.word	0x58024400
240581cc:	24060122 	.word	0x24060122

240581d0 <RCCEx_PLL2_Config>:
240581d0:	b5f8      	push	{r3, r4, r5, r6, r7, lr}
240581d2:	4c3a      	ldr	r4, [pc, #232]	; (240582bc <RCCEx_PLL2_Config+0xec>)
240581d4:	4606      	mov	r6, r0
240581d6:	460d      	mov	r5, r1
240581d8:	6aa3      	ldr	r3, [r4, #40]	; 0x28
240581da:	f003 0303 	and.w	r3, r3, #3
240581de:	2b03      	cmp	r3, #3
240581e0:	d069      	beq.n	240582b6 <RCCEx_PLL2_Config+0xe6>
240581e2:	6823      	ldr	r3, [r4, #0]
240581e4:	f023 6380 	bic.w	r3, r3, #67108864	; 0x4000000
240581e8:	6023      	str	r3, [r4, #0]
240581ea:	f7fc f8bb 	bl	24054364 <HAL_GetTick>
240581ee:	4607      	mov	r7, r0
240581f0:	6823      	ldr	r3, [r4, #0]
240581f2:	011a      	lsls	r2, r3, #4
240581f4:	d44b      	bmi.n	2405828e <RCCEx_PLL2_Config+0xbe>
240581f6:	6aa3      	ldr	r3, [r4, #40]	; 0x28
240581f8:	6832      	ldr	r2, [r6, #0]
240581fa:	f423 337c 	bic.w	r3, r3, #258048	; 0x3f000
240581fe:	ea43 3302 	orr.w	r3, r3, r2, lsl #12
24058202:	62a3      	str	r3, [r4, #40]	; 0x28
24058204:	68b3      	ldr	r3, [r6, #8]
24058206:	68f2      	ldr	r2, [r6, #12]
24058208:	3b01      	subs	r3, #1
2405820a:	3a01      	subs	r2, #1
2405820c:	025b      	lsls	r3, r3, #9
2405820e:	0412      	lsls	r2, r2, #16
24058210:	b29b      	uxth	r3, r3
24058212:	f402 02fe 	and.w	r2, r2, #8323072	; 0x7f0000
24058216:	4313      	orrs	r3, r2
24058218:	6872      	ldr	r2, [r6, #4]
2405821a:	3a01      	subs	r2, #1
2405821c:	f3c2 0208 	ubfx	r2, r2, #0, #9
24058220:	4313      	orrs	r3, r2
24058222:	6932      	ldr	r2, [r6, #16]
24058224:	3a01      	subs	r2, #1
24058226:	0612      	lsls	r2, r2, #24
24058228:	f002 42fe 	and.w	r2, r2, #2130706432	; 0x7f000000
2405822c:	4313      	orrs	r3, r2
2405822e:	63a3      	str	r3, [r4, #56]	; 0x38
24058230:	6ae3      	ldr	r3, [r4, #44]	; 0x2c
24058232:	6972      	ldr	r2, [r6, #20]
24058234:	f023 03c0 	bic.w	r3, r3, #192	; 0xc0
24058238:	4313      	orrs	r3, r2
2405823a:	62e3      	str	r3, [r4, #44]	; 0x2c
2405823c:	6ae3      	ldr	r3, [r4, #44]	; 0x2c
2405823e:	69b2      	ldr	r2, [r6, #24]
24058240:	f023 0320 	bic.w	r3, r3, #32
24058244:	4313      	orrs	r3, r2
24058246:	62e3      	str	r3, [r4, #44]	; 0x2c
24058248:	6ae3      	ldr	r3, [r4, #44]	; 0x2c
2405824a:	f023 0310 	bic.w	r3, r3, #16
2405824e:	62e3      	str	r3, [r4, #44]	; 0x2c
24058250:	6be3      	ldr	r3, [r4, #60]	; 0x3c
24058252:	69f2      	ldr	r2, [r6, #28]
24058254:	f423 437f 	bic.w	r3, r3, #65280	; 0xff00
24058258:	f023 03f8 	bic.w	r3, r3, #248	; 0xf8
2405825c:	ea43 03c2 	orr.w	r3, r3, r2, lsl #3
24058260:	63e3      	str	r3, [r4, #60]	; 0x3c
24058262:	6ae3      	ldr	r3, [r4, #44]	; 0x2c
24058264:	f043 0310 	orr.w	r3, r3, #16
24058268:	62e3      	str	r3, [r4, #44]	; 0x2c
2405826a:	6ae3      	ldr	r3, [r4, #44]	; 0x2c
2405826c:	b9b5      	cbnz	r5, 2405829c <RCCEx_PLL2_Config+0xcc>
2405826e:	f443 2300 	orr.w	r3, r3, #524288	; 0x80000
24058272:	62e3      	str	r3, [r4, #44]	; 0x2c
24058274:	4c11      	ldr	r4, [pc, #68]	; (240582bc <RCCEx_PLL2_Config+0xec>)
24058276:	6823      	ldr	r3, [r4, #0]
24058278:	f043 6380 	orr.w	r3, r3, #67108864	; 0x4000000
2405827c:	6023      	str	r3, [r4, #0]
2405827e:	f7fc f871 	bl	24054364 <HAL_GetTick>
24058282:	4605      	mov	r5, r0
24058284:	6823      	ldr	r3, [r4, #0]
24058286:	011b      	lsls	r3, r3, #4
24058288:	d50f      	bpl.n	240582aa <RCCEx_PLL2_Config+0xda>
2405828a:	2000      	movs	r0, #0
2405828c:	e005      	b.n	2405829a <RCCEx_PLL2_Config+0xca>
2405828e:	f7fc f869 	bl	24054364 <HAL_GetTick>
24058292:	1bc0      	subs	r0, r0, r7
24058294:	2802      	cmp	r0, #2
24058296:	d9ab      	bls.n	240581f0 <RCCEx_PLL2_Config+0x20>
24058298:	2003      	movs	r0, #3
2405829a:	bdf8      	pop	{r3, r4, r5, r6, r7, pc}
2405829c:	2d01      	cmp	r5, #1
2405829e:	bf0c      	ite	eq
240582a0:	f443 1380 	orreq.w	r3, r3, #1048576	; 0x100000
240582a4:	f443 1300 	orrne.w	r3, r3, #2097152	; 0x200000
240582a8:	e7e3      	b.n	24058272 <RCCEx_PLL2_Config+0xa2>
240582aa:	f7fc f85b 	bl	24054364 <HAL_GetTick>
240582ae:	1b40      	subs	r0, r0, r5
240582b0:	2802      	cmp	r0, #2
240582b2:	d9e7      	bls.n	24058284 <RCCEx_PLL2_Config+0xb4>
240582b4:	e7f0      	b.n	24058298 <RCCEx_PLL2_Config+0xc8>
240582b6:	2001      	movs	r0, #1
240582b8:	e7ef      	b.n	2405829a <RCCEx_PLL2_Config+0xca>
240582ba:	bf00      	nop
240582bc:	58024400 	.word	0x58024400

240582c0 <RCCEx_PLL3_Config>:
240582c0:	b5f8      	push	{r3, r4, r5, r6, r7, lr}
240582c2:	4c3a      	ldr	r4, [pc, #232]	; (240583ac <RCCEx_PLL3_Config+0xec>)
240582c4:	4606      	mov	r6, r0
240582c6:	460d      	mov	r5, r1
240582c8:	6aa3      	ldr	r3, [r4, #40]	; 0x28
240582ca:	f003 0303 	and.w	r3, r3, #3
240582ce:	2b03      	cmp	r3, #3
240582d0:	d069      	beq.n	240583a6 <RCCEx_PLL3_Config+0xe6>
240582d2:	6823      	ldr	r3, [r4, #0]
240582d4:	f023 5380 	bic.w	r3, r3, #268435456	; 0x10000000
240582d8:	6023      	str	r3, [r4, #0]
240582da:	f7fc f843 	bl	24054364 <HAL_GetTick>
240582de:	4607      	mov	r7, r0
240582e0:	6823      	ldr	r3, [r4, #0]
240582e2:	009a      	lsls	r2, r3, #2
240582e4:	d44b      	bmi.n	2405837e <RCCEx_PLL3_Config+0xbe>
240582e6:	6aa3      	ldr	r3, [r4, #40]	; 0x28
240582e8:	6832      	ldr	r2, [r6, #0]
240582ea:	f023 737c 	bic.w	r3, r3, #66060288	; 0x3f00000
240582ee:	ea43 5302 	orr.w	r3, r3, r2, lsl #20
240582f2:	62a3      	str	r3, [r4, #40]	; 0x28
240582f4:	68b3      	ldr	r3, [r6, #8]
240582f6:	68f2      	ldr	r2, [r6, #12]
240582f8:	3b01      	subs	r3, #1
240582fa:	3a01      	subs	r2, #1
240582fc:	025b      	lsls	r3, r3, #9
240582fe:	0412      	lsls	r2, r2, #16
24058300:	b29b      	uxth	r3, r3
24058302:	f402 02fe 	and.w	r2, r2, #8323072	; 0x7f0000
24058306:	4313      	orrs	r3, r2
24058308:	6872      	ldr	r2, [r6, #4]
2405830a:	3a01      	subs	r2, #1
2405830c:	f3c2 0208 	ubfx	r2, r2, #0, #9
24058310:	4313      	orrs	r3, r2
24058312:	6932      	ldr	r2, [r6, #16]
24058314:	3a01      	subs	r2, #1
24058316:	0612      	lsls	r2, r2, #24
24058318:	f002 42fe 	and.w	r2, r2, #2130706432	; 0x7f000000
2405831c:	4313      	orrs	r3, r2
2405831e:	6423      	str	r3, [r4, #64]	; 0x40
24058320:	6ae3      	ldr	r3, [r4, #44]	; 0x2c
24058322:	6972      	ldr	r2, [r6, #20]
24058324:	f423 6340 	bic.w	r3, r3, #3072	; 0xc00
24058328:	4313      	orrs	r3, r2
2405832a:	62e3      	str	r3, [r4, #44]	; 0x2c
2405832c:	6ae3      	ldr	r3, [r4, #44]	; 0x2c
2405832e:	69b2      	ldr	r2, [r6, #24]
24058330:	f423 7300 	bic.w	r3, r3, #512	; 0x200
24058334:	4313      	orrs	r3, r2
24058336:	62e3      	str	r3, [r4, #44]	; 0x2c
24058338:	6ae3      	ldr	r3, [r4, #44]	; 0x2c
2405833a:	f423 7380 	bic.w	r3, r3, #256	; 0x100
2405833e:	62e3      	str	r3, [r4, #44]	; 0x2c
24058340:	6c63      	ldr	r3, [r4, #68]	; 0x44
24058342:	69f2      	ldr	r2, [r6, #28]
24058344:	f423 437f 	bic.w	r3, r3, #65280	; 0xff00
24058348:	f023 03f8 	bic.w	r3, r3, #248	; 0xf8
2405834c:	ea43 03c2 	orr.w	r3, r3, r2, lsl #3
24058350:	6463      	str	r3, [r4, #68]	; 0x44
24058352:	6ae3      	ldr	r3, [r4, #44]	; 0x2c
24058354:	f443 7380 	orr.w	r3, r3, #256	; 0x100
24058358:	62e3      	str	r3, [r4, #44]	; 0x2c
2405835a:	6ae3      	ldr	r3, [r4, #44]	; 0x2c
2405835c:	b9b5      	cbnz	r5, 2405838c <RCCEx_PLL3_Config+0xcc>
2405835e:	f443 0380 	orr.w	r3, r3, #4194304	; 0x400000
24058362:	62e3      	str	r3, [r4, #44]	; 0x2c
24058364:	4c11      	ldr	r4, [pc, #68]	; (240583ac <RCCEx_PLL3_Config+0xec>)
24058366:	6823      	ldr	r3, [r4, #0]
24058368:	f043 5380 	orr.w	r3, r3, #268435456	; 0x10000000
2405836c:	6023      	str	r3, [r4, #0]
2405836e:	f7fb fff9 	bl	24054364 <HAL_GetTick>
24058372:	4605      	mov	r5, r0
24058374:	6823      	ldr	r3, [r4, #0]
24058376:	009b      	lsls	r3, r3, #2
24058378:	d50f      	bpl.n	2405839a <RCCEx_PLL3_Config+0xda>
2405837a:	2000      	movs	r0, #0
2405837c:	e005      	b.n	2405838a <RCCEx_PLL3_Config+0xca>
2405837e:	f7fb fff1 	bl	24054364 <HAL_GetTick>
24058382:	1bc0      	subs	r0, r0, r7
24058384:	2802      	cmp	r0, #2
24058386:	d9ab      	bls.n	240582e0 <RCCEx_PLL3_Config+0x20>
24058388:	2003      	movs	r0, #3
2405838a:	bdf8      	pop	{r3, r4, r5, r6, r7, pc}
2405838c:	2d01      	cmp	r5, #1
2405838e:	bf0c      	ite	eq
24058390:	f443 0300 	orreq.w	r3, r3, #8388608	; 0x800000
24058394:	f043 7380 	orrne.w	r3, r3, #16777216	; 0x1000000
24058398:	e7e3      	b.n	24058362 <RCCEx_PLL3_Config+0xa2>
2405839a:	f7fb ffe3 	bl	24054364 <HAL_GetTick>
2405839e:	1b40      	subs	r0, r0, r5
240583a0:	2802      	cmp	r0, #2
240583a2:	d9e7      	bls.n	24058374 <RCCEx_PLL3_Config+0xb4>
240583a4:	e7f0      	b.n	24058388 <RCCEx_PLL3_Config+0xc8>
240583a6:	2001      	movs	r0, #1
240583a8:	e7ef      	b.n	2405838a <RCCEx_PLL3_Config+0xca>
240583aa:	bf00      	nop
240583ac:	58024400 	.word	0x58024400

240583b0 <HAL_RCCEx_PeriphCLKConfig>:
240583b0:	e92d 43f8 	stmdb	sp!, {r3, r4, r5, r6, r7, r8, r9, lr}
240583b4:	6803      	ldr	r3, [r0, #0]
240583b6:	4605      	mov	r5, r0
240583b8:	0119      	lsls	r1, r3, #4
240583ba:	f003 6600 	and.w	r6, r3, #134217728	; 0x8000000
240583be:	d509      	bpl.n	240583d4 <HAL_RCCEx_PeriphCLKConfig+0x24>
240583c0:	6ec3      	ldr	r3, [r0, #108]	; 0x6c
240583c2:	f5b3 1f00 	cmp.w	r3, #2097152	; 0x200000
240583c6:	d02c      	beq.n	24058422 <HAL_RCCEx_PeriphCLKConfig+0x72>
240583c8:	d811      	bhi.n	240583ee <HAL_RCCEx_PeriphCLKConfig+0x3e>
240583ca:	b1e3      	cbz	r3, 24058406 <HAL_RCCEx_PeriphCLKConfig+0x56>
240583cc:	f5b3 1f80 	cmp.w	r3, #1048576	; 0x100000
240583d0:	d01f      	beq.n	24058412 <HAL_RCCEx_PeriphCLKConfig+0x62>
240583d2:	2601      	movs	r6, #1
240583d4:	682b      	ldr	r3, [r5, #0]
240583d6:	05da      	lsls	r2, r3, #23
240583d8:	f140 80d4 	bpl.w	24058584 <HAL_RCCEx_PeriphCLKConfig+0x1d4>
240583dc:	6dab      	ldr	r3, [r5, #88]	; 0x58
240583de:	2b04      	cmp	r3, #4
240583e0:	f200 80cf 	bhi.w	24058582 <HAL_RCCEx_PeriphCLKConfig+0x1d2>
240583e4:	e8df f003 	tbb	[pc, r3]
240583e8:	27c72922 	.word	0x27c72922
240583ec:	27          	.byte	0x27
240583ed:	00          	.byte	0x00
240583ee:	f5b3 1f40 	cmp.w	r3, #3145728	; 0x300000
240583f2:	d1ee      	bne.n	240583d2 <HAL_RCCEx_PeriphCLKConfig+0x22>
240583f4:	4aa8      	ldr	r2, [pc, #672]	; (24058698 <HAL_RCCEx_PeriphCLKConfig+0x2e8>)
240583f6:	2600      	movs	r6, #0
240583f8:	6ee9      	ldr	r1, [r5, #108]	; 0x6c
240583fa:	6d13      	ldr	r3, [r2, #80]	; 0x50
240583fc:	f423 1340 	bic.w	r3, r3, #3145728	; 0x300000
24058400:	430b      	orrs	r3, r1
24058402:	6513      	str	r3, [r2, #80]	; 0x50
24058404:	e7e6      	b.n	240583d4 <HAL_RCCEx_PeriphCLKConfig+0x24>
24058406:	4aa4      	ldr	r2, [pc, #656]	; (24058698 <HAL_RCCEx_PeriphCLKConfig+0x2e8>)
24058408:	6ad3      	ldr	r3, [r2, #44]	; 0x2c
2405840a:	f443 3300 	orr.w	r3, r3, #131072	; 0x20000
2405840e:	62d3      	str	r3, [r2, #44]	; 0x2c
24058410:	e7f0      	b.n	240583f4 <HAL_RCCEx_PeriphCLKConfig+0x44>
24058412:	2102      	movs	r1, #2
24058414:	3008      	adds	r0, #8
24058416:	f7ff fedb 	bl	240581d0 <RCCEx_PLL2_Config>
2405841a:	4606      	mov	r6, r0
2405841c:	2800      	cmp	r0, #0
2405841e:	d1d9      	bne.n	240583d4 <HAL_RCCEx_PeriphCLKConfig+0x24>
24058420:	e7e8      	b.n	240583f4 <HAL_RCCEx_PeriphCLKConfig+0x44>
24058422:	2102      	movs	r1, #2
24058424:	3028      	adds	r0, #40	; 0x28
24058426:	f7ff ff4b 	bl	240582c0 <RCCEx_PLL3_Config>
2405842a:	e7f6      	b.n	2405841a <HAL_RCCEx_PeriphCLKConfig+0x6a>
2405842c:	4a9a      	ldr	r2, [pc, #616]	; (24058698 <HAL_RCCEx_PeriphCLKConfig+0x2e8>)
2405842e:	6ad3      	ldr	r3, [r2, #44]	; 0x2c
24058430:	f443 3300 	orr.w	r3, r3, #131072	; 0x20000
24058434:	62d3      	str	r3, [r2, #44]	; 0x2c
24058436:	4634      	mov	r4, r6
24058438:	e005      	b.n	24058446 <HAL_RCCEx_PeriphCLKConfig+0x96>
2405843a:	2100      	movs	r1, #0
2405843c:	f105 0008 	add.w	r0, r5, #8
24058440:	f7ff fec6 	bl	240581d0 <RCCEx_PLL2_Config>
24058444:	4604      	mov	r4, r0
24058446:	2c00      	cmp	r4, #0
24058448:	f040 809e 	bne.w	24058588 <HAL_RCCEx_PeriphCLKConfig+0x1d8>
2405844c:	4a92      	ldr	r2, [pc, #584]	; (24058698 <HAL_RCCEx_PeriphCLKConfig+0x2e8>)
2405844e:	6da9      	ldr	r1, [r5, #88]	; 0x58
24058450:	6d13      	ldr	r3, [r2, #80]	; 0x50
24058452:	f023 0307 	bic.w	r3, r3, #7
24058456:	430b      	orrs	r3, r1
24058458:	6513      	str	r3, [r2, #80]	; 0x50
2405845a:	682b      	ldr	r3, [r5, #0]
2405845c:	059b      	lsls	r3, r3, #22
2405845e:	d50d      	bpl.n	2405847c <HAL_RCCEx_PeriphCLKConfig+0xcc>
24058460:	6deb      	ldr	r3, [r5, #92]	; 0x5c
24058462:	2b80      	cmp	r3, #128	; 0x80
24058464:	f000 80b0 	beq.w	240585c8 <HAL_RCCEx_PeriphCLKConfig+0x218>
24058468:	f200 8090 	bhi.w	2405858c <HAL_RCCEx_PeriphCLKConfig+0x1dc>
2405846c:	2b00      	cmp	r3, #0
2405846e:	f000 809e 	beq.w	240585ae <HAL_RCCEx_PeriphCLKConfig+0x1fe>
24058472:	2b40      	cmp	r3, #64	; 0x40
24058474:	f000 80a1 	beq.w	240585ba <HAL_RCCEx_PeriphCLKConfig+0x20a>
24058478:	2601      	movs	r6, #1
2405847a:	4634      	mov	r4, r6
2405847c:	682b      	ldr	r3, [r5, #0]
2405847e:	055f      	lsls	r7, r3, #21
24058480:	d50f      	bpl.n	240584a2 <HAL_RCCEx_PeriphCLKConfig+0xf2>
24058482:	6e2b      	ldr	r3, [r5, #96]	; 0x60
24058484:	f5b3 6f80 	cmp.w	r3, #1024	; 0x400
24058488:	f000 80c5 	beq.w	24058616 <HAL_RCCEx_PeriphCLKConfig+0x266>
2405848c:	f200 80a4 	bhi.w	240585d8 <HAL_RCCEx_PeriphCLKConfig+0x228>
24058490:	2b00      	cmp	r3, #0
24058492:	f000 80b3 	beq.w	240585fc <HAL_RCCEx_PeriphCLKConfig+0x24c>
24058496:	f5b3 7f00 	cmp.w	r3, #512	; 0x200
2405849a:	f000 80b5 	beq.w	24058608 <HAL_RCCEx_PeriphCLKConfig+0x258>
2405849e:	2601      	movs	r6, #1
240584a0:	4634      	mov	r4, r6
240584a2:	682b      	ldr	r3, [r5, #0]
240584a4:	0198      	lsls	r0, r3, #6
240584a6:	d50d      	bpl.n	240584c4 <HAL_RCCEx_PeriphCLKConfig+0x114>
240584a8:	6ceb      	ldr	r3, [r5, #76]	; 0x4c
240584aa:	2b20      	cmp	r3, #32
240584ac:	f000 80cd 	beq.w	2405864a <HAL_RCCEx_PeriphCLKConfig+0x29a>
240584b0:	f200 80b9 	bhi.w	24058626 <HAL_RCCEx_PeriphCLKConfig+0x276>
240584b4:	2b00      	cmp	r3, #0
240584b6:	f000 80b9 	beq.w	2405862c <HAL_RCCEx_PeriphCLKConfig+0x27c>
240584ba:	2b10      	cmp	r3, #16
240584bc:	f000 80bf 	beq.w	2405863e <HAL_RCCEx_PeriphCLKConfig+0x28e>
240584c0:	2601      	movs	r6, #1
240584c2:	4634      	mov	r4, r6
240584c4:	682b      	ldr	r3, [r5, #0]
240584c6:	04d9      	lsls	r1, r3, #19
240584c8:	d50f      	bpl.n	240584ea <HAL_RCCEx_PeriphCLKConfig+0x13a>
240584ca:	6e6b      	ldr	r3, [r5, #100]	; 0x64
240584cc:	f5b3 5f00 	cmp.w	r3, #8192	; 0x2000
240584d0:	f000 80e4 	beq.w	2405869c <HAL_RCCEx_PeriphCLKConfig+0x2ec>
240584d4:	f200 80c2 	bhi.w	2405865c <HAL_RCCEx_PeriphCLKConfig+0x2ac>
240584d8:	2b00      	cmp	r3, #0
240584da:	f000 80cf 	beq.w	2405867c <HAL_RCCEx_PeriphCLKConfig+0x2cc>
240584de:	f5b3 5f80 	cmp.w	r3, #4096	; 0x1000
240584e2:	f000 80d1 	beq.w	24058688 <HAL_RCCEx_PeriphCLKConfig+0x2d8>
240584e6:	2601      	movs	r6, #1
240584e8:	4634      	mov	r4, r6
240584ea:	682b      	ldr	r3, [r5, #0]
240584ec:	049a      	lsls	r2, r3, #18
240584ee:	d50f      	bpl.n	24058510 <HAL_RCCEx_PeriphCLKConfig+0x160>
240584f0:	6eab      	ldr	r3, [r5, #104]	; 0x68
240584f2:	f5b3 3f00 	cmp.w	r3, #131072	; 0x20000
240584f6:	f000 80f2 	beq.w	240586de <HAL_RCCEx_PeriphCLKConfig+0x32e>
240584fa:	f200 80d7 	bhi.w	240586ac <HAL_RCCEx_PeriphCLKConfig+0x2fc>
240584fe:	2b00      	cmp	r3, #0
24058500:	f000 80dd 	beq.w	240586be <HAL_RCCEx_PeriphCLKConfig+0x30e>
24058504:	f5b3 3f80 	cmp.w	r3, #65536	; 0x10000
24058508:	f000 80e2 	beq.w	240586d0 <HAL_RCCEx_PeriphCLKConfig+0x320>
2405850c:	2601      	movs	r6, #1
2405850e:	4634      	mov	r4, r6
24058510:	682b      	ldr	r3, [r5, #0]
24058512:	045b      	lsls	r3, r3, #17
24058514:	d510      	bpl.n	24058538 <HAL_RCCEx_PeriphCLKConfig+0x188>
24058516:	f8d5 30b0 	ldr.w	r3, [r5, #176]	; 0xb0
2405851a:	f1b3 5f00 	cmp.w	r3, #536870912	; 0x20000000
2405851e:	f000 8105 	beq.w	2405872c <HAL_RCCEx_PeriphCLKConfig+0x37c>
24058522:	f200 80e4 	bhi.w	240586ee <HAL_RCCEx_PeriphCLKConfig+0x33e>
24058526:	2b00      	cmp	r3, #0
24058528:	f000 80ec 	beq.w	24058704 <HAL_RCCEx_PeriphCLKConfig+0x354>
2405852c:	f1b3 5f80 	cmp.w	r3, #268435456	; 0x10000000
24058530:	f000 80f5 	beq.w	2405871e <HAL_RCCEx_PeriphCLKConfig+0x36e>
24058534:	2601      	movs	r6, #1
24058536:	4634      	mov	r4, r6
24058538:	682b      	ldr	r3, [r5, #0]
2405853a:	041f      	lsls	r7, r3, #16
2405853c:	d50d      	bpl.n	2405855a <HAL_RCCEx_PeriphCLKConfig+0x1aa>
2405853e:	6fab      	ldr	r3, [r5, #120]	; 0x78
24058540:	f1b3 5f80 	cmp.w	r3, #268435456	; 0x10000000
24058544:	f000 80fa 	beq.w	2405873c <HAL_RCCEx_PeriphCLKConfig+0x38c>
24058548:	f1b3 5f00 	cmp.w	r3, #536870912	; 0x20000000
2405854c:	f000 8104 	beq.w	24058758 <HAL_RCCEx_PeriphCLKConfig+0x3a8>
24058550:	2b00      	cmp	r3, #0
24058552:	f000 80f8 	beq.w	24058746 <HAL_RCCEx_PeriphCLKConfig+0x396>
24058556:	2601      	movs	r6, #1
24058558:	4634      	mov	r4, r6
2405855a:	682b      	ldr	r3, [r5, #0]
2405855c:	01d8      	lsls	r0, r3, #7
2405855e:	f140 8112 	bpl.w	24058786 <HAL_RCCEx_PeriphCLKConfig+0x3d6>
24058562:	6cab      	ldr	r3, [r5, #72]	; 0x48
24058564:	2b03      	cmp	r3, #3
24058566:	f200 8153 	bhi.w	24058810 <HAL_RCCEx_PeriphCLKConfig+0x460>
2405856a:	e8df f013 	tbh	[pc, r3, lsl #1]
2405856e:	0103      	.short	0x0103
24058570:	014a00fe 	.word	0x014a00fe
24058574:	0103      	.short	0x0103
24058576:	2100      	movs	r1, #0
24058578:	f105 0028 	add.w	r0, r5, #40	; 0x28
2405857c:	f7ff fea0 	bl	240582c0 <RCCEx_PLL3_Config>
24058580:	e760      	b.n	24058444 <HAL_RCCEx_PeriphCLKConfig+0x94>
24058582:	2601      	movs	r6, #1
24058584:	4634      	mov	r4, r6
24058586:	e768      	b.n	2405845a <HAL_RCCEx_PeriphCLKConfig+0xaa>
24058588:	4626      	mov	r6, r4
2405858a:	e766      	b.n	2405845a <HAL_RCCEx_PeriphCLKConfig+0xaa>
2405858c:	f023 0240 	bic.w	r2, r3, #64	; 0x40
24058590:	f5b2 7f80 	cmp.w	r2, #256	; 0x100
24058594:	d002      	beq.n	2405859c <HAL_RCCEx_PeriphCLKConfig+0x1ec>
24058596:	2bc0      	cmp	r3, #192	; 0xc0
24058598:	f47f af6e 	bne.w	24058478 <HAL_RCCEx_PeriphCLKConfig+0xc8>
2405859c:	b9d4      	cbnz	r4, 240585d4 <HAL_RCCEx_PeriphCLKConfig+0x224>
2405859e:	4a3e      	ldr	r2, [pc, #248]	; (24058698 <HAL_RCCEx_PeriphCLKConfig+0x2e8>)
240585a0:	6de9      	ldr	r1, [r5, #92]	; 0x5c
240585a2:	6d13      	ldr	r3, [r2, #80]	; 0x50
240585a4:	f423 73e0 	bic.w	r3, r3, #448	; 0x1c0
240585a8:	430b      	orrs	r3, r1
240585aa:	6513      	str	r3, [r2, #80]	; 0x50
240585ac:	e766      	b.n	2405847c <HAL_RCCEx_PeriphCLKConfig+0xcc>
240585ae:	4a3a      	ldr	r2, [pc, #232]	; (24058698 <HAL_RCCEx_PeriphCLKConfig+0x2e8>)
240585b0:	6ad3      	ldr	r3, [r2, #44]	; 0x2c
240585b2:	f443 3300 	orr.w	r3, r3, #131072	; 0x20000
240585b6:	62d3      	str	r3, [r2, #44]	; 0x2c
240585b8:	e7f0      	b.n	2405859c <HAL_RCCEx_PeriphCLKConfig+0x1ec>
240585ba:	2100      	movs	r1, #0
240585bc:	f105 0008 	add.w	r0, r5, #8
240585c0:	f7ff fe06 	bl	240581d0 <RCCEx_PLL2_Config>
240585c4:	4604      	mov	r4, r0
240585c6:	e7e9      	b.n	2405859c <HAL_RCCEx_PeriphCLKConfig+0x1ec>
240585c8:	2100      	movs	r1, #0
240585ca:	f105 0028 	add.w	r0, r5, #40	; 0x28
240585ce:	f7ff fe77 	bl	240582c0 <RCCEx_PLL3_Config>
240585d2:	e7f7      	b.n	240585c4 <HAL_RCCEx_PeriphCLKConfig+0x214>
240585d4:	4626      	mov	r6, r4
240585d6:	e751      	b.n	2405847c <HAL_RCCEx_PeriphCLKConfig+0xcc>
240585d8:	f423 7200 	bic.w	r2, r3, #512	; 0x200
240585dc:	f5b2 6f00 	cmp.w	r2, #2048	; 0x800
240585e0:	d003      	beq.n	240585ea <HAL_RCCEx_PeriphCLKConfig+0x23a>
240585e2:	f5b3 6fc0 	cmp.w	r3, #1536	; 0x600
240585e6:	f47f af5a 	bne.w	2405849e <HAL_RCCEx_PeriphCLKConfig+0xee>
240585ea:	b9d4      	cbnz	r4, 24058622 <HAL_RCCEx_PeriphCLKConfig+0x272>
240585ec:	4a2a      	ldr	r2, [pc, #168]	; (24058698 <HAL_RCCEx_PeriphCLKConfig+0x2e8>)
240585ee:	6e29      	ldr	r1, [r5, #96]	; 0x60
240585f0:	6d13      	ldr	r3, [r2, #80]	; 0x50
240585f2:	f423 6360 	bic.w	r3, r3, #3584	; 0xe00
240585f6:	430b      	orrs	r3, r1
240585f8:	6513      	str	r3, [r2, #80]	; 0x50
240585fa:	e752      	b.n	240584a2 <HAL_RCCEx_PeriphCLKConfig+0xf2>
240585fc:	4a26      	ldr	r2, [pc, #152]	; (24058698 <HAL_RCCEx_PeriphCLKConfig+0x2e8>)
240585fe:	6ad3      	ldr	r3, [r2, #44]	; 0x2c
24058600:	f443 3300 	orr.w	r3, r3, #131072	; 0x20000
24058604:	62d3      	str	r3, [r2, #44]	; 0x2c
24058606:	e7f0      	b.n	240585ea <HAL_RCCEx_PeriphCLKConfig+0x23a>
24058608:	2100      	movs	r1, #0
2405860a:	f105 0008 	add.w	r0, r5, #8
2405860e:	f7ff fddf 	bl	240581d0 <RCCEx_PLL2_Config>
24058612:	4604      	mov	r4, r0
24058614:	e7e9      	b.n	240585ea <HAL_RCCEx_PeriphCLKConfig+0x23a>
24058616:	2100      	movs	r1, #0
24058618:	f105 0028 	add.w	r0, r5, #40	; 0x28
2405861c:	f7ff fe50 	bl	240582c0 <RCCEx_PLL3_Config>
24058620:	e7f7      	b.n	24058612 <HAL_RCCEx_PeriphCLKConfig+0x262>
24058622:	4626      	mov	r6, r4
24058624:	e73d      	b.n	240584a2 <HAL_RCCEx_PeriphCLKConfig+0xf2>
24058626:	2b30      	cmp	r3, #48	; 0x30
24058628:	f47f af4a 	bne.w	240584c0 <HAL_RCCEx_PeriphCLKConfig+0x110>
2405862c:	b9a4      	cbnz	r4, 24058658 <HAL_RCCEx_PeriphCLKConfig+0x2a8>
2405862e:	4a1a      	ldr	r2, [pc, #104]	; (24058698 <HAL_RCCEx_PeriphCLKConfig+0x2e8>)
24058630:	6ce9      	ldr	r1, [r5, #76]	; 0x4c
24058632:	6cd3      	ldr	r3, [r2, #76]	; 0x4c
24058634:	f023 0330 	bic.w	r3, r3, #48	; 0x30
24058638:	430b      	orrs	r3, r1
2405863a:	64d3      	str	r3, [r2, #76]	; 0x4c
2405863c:	e742      	b.n	240584c4 <HAL_RCCEx_PeriphCLKConfig+0x114>
2405863e:	4a16      	ldr	r2, [pc, #88]	; (24058698 <HAL_RCCEx_PeriphCLKConfig+0x2e8>)
24058640:	6ad3      	ldr	r3, [r2, #44]	; 0x2c
24058642:	f443 3300 	orr.w	r3, r3, #131072	; 0x20000
24058646:	62d3      	str	r3, [r2, #44]	; 0x2c
24058648:	e7f0      	b.n	2405862c <HAL_RCCEx_PeriphCLKConfig+0x27c>
2405864a:	2102      	movs	r1, #2
2405864c:	f105 0008 	add.w	r0, r5, #8
24058650:	f7ff fdbe 	bl	240581d0 <RCCEx_PLL2_Config>
24058654:	4604      	mov	r4, r0
24058656:	e7e9      	b.n	2405862c <HAL_RCCEx_PeriphCLKConfig+0x27c>
24058658:	4626      	mov	r6, r4
2405865a:	e733      	b.n	240584c4 <HAL_RCCEx_PeriphCLKConfig+0x114>
2405865c:	f5b3 5f40 	cmp.w	r3, #12288	; 0x3000
24058660:	d003      	beq.n	2405866a <HAL_RCCEx_PeriphCLKConfig+0x2ba>
24058662:	f5b3 4f80 	cmp.w	r3, #16384	; 0x4000
24058666:	f47f af3e 	bne.w	240584e6 <HAL_RCCEx_PeriphCLKConfig+0x136>
2405866a:	b9ec      	cbnz	r4, 240586a8 <HAL_RCCEx_PeriphCLKConfig+0x2f8>
2405866c:	4a0a      	ldr	r2, [pc, #40]	; (24058698 <HAL_RCCEx_PeriphCLKConfig+0x2e8>)
2405866e:	6e69      	ldr	r1, [r5, #100]	; 0x64
24058670:	6d13      	ldr	r3, [r2, #80]	; 0x50
24058672:	f423 43e0 	bic.w	r3, r3, #28672	; 0x7000
24058676:	430b      	orrs	r3, r1
24058678:	6513      	str	r3, [r2, #80]	; 0x50
2405867a:	e736      	b.n	240584ea <HAL_RCCEx_PeriphCLKConfig+0x13a>
2405867c:	4a06      	ldr	r2, [pc, #24]	; (24058698 <HAL_RCCEx_PeriphCLKConfig+0x2e8>)
2405867e:	6ad3      	ldr	r3, [r2, #44]	; 0x2c
24058680:	f443 3300 	orr.w	r3, r3, #131072	; 0x20000
24058684:	62d3      	str	r3, [r2, #44]	; 0x2c
24058686:	e7f0      	b.n	2405866a <HAL_RCCEx_PeriphCLKConfig+0x2ba>
24058688:	2100      	movs	r1, #0
2405868a:	f105 0008 	add.w	r0, r5, #8
2405868e:	f7ff fd9f 	bl	240581d0 <RCCEx_PLL2_Config>
24058692:	4604      	mov	r4, r0
24058694:	e7e9      	b.n	2405866a <HAL_RCCEx_PeriphCLKConfig+0x2ba>
24058696:	bf00      	nop
24058698:	58024400 	.word	0x58024400
2405869c:	2100      	movs	r1, #0
2405869e:	f105 0028 	add.w	r0, r5, #40	; 0x28
240586a2:	f7ff fe0d 	bl	240582c0 <RCCEx_PLL3_Config>
240586a6:	e7f4      	b.n	24058692 <HAL_RCCEx_PeriphCLKConfig+0x2e2>
240586a8:	4626      	mov	r6, r4
240586aa:	e71e      	b.n	240584ea <HAL_RCCEx_PeriphCLKConfig+0x13a>
240586ac:	f423 3280 	bic.w	r2, r3, #65536	; 0x10000
240586b0:	f5b2 2f80 	cmp.w	r2, #262144	; 0x40000
240586b4:	d003      	beq.n	240586be <HAL_RCCEx_PeriphCLKConfig+0x30e>
240586b6:	f5b3 3f40 	cmp.w	r3, #196608	; 0x30000
240586ba:	f47f af27 	bne.w	2405850c <HAL_RCCEx_PeriphCLKConfig+0x15c>
240586be:	b9a4      	cbnz	r4, 240586ea <HAL_RCCEx_PeriphCLKConfig+0x33a>
240586c0:	4a96      	ldr	r2, [pc, #600]	; (2405891c <HAL_RCCEx_PeriphCLKConfig+0x56c>)
240586c2:	6ea9      	ldr	r1, [r5, #104]	; 0x68
240586c4:	6d13      	ldr	r3, [r2, #80]	; 0x50
240586c6:	f423 23e0 	bic.w	r3, r3, #458752	; 0x70000
240586ca:	430b      	orrs	r3, r1
240586cc:	6513      	str	r3, [r2, #80]	; 0x50
240586ce:	e71f      	b.n	24058510 <HAL_RCCEx_PeriphCLKConfig+0x160>
240586d0:	2101      	movs	r1, #1
240586d2:	f105 0008 	add.w	r0, r5, #8
240586d6:	f7ff fd7b 	bl	240581d0 <RCCEx_PLL2_Config>
240586da:	4604      	mov	r4, r0
240586dc:	e7ef      	b.n	240586be <HAL_RCCEx_PeriphCLKConfig+0x30e>
240586de:	2101      	movs	r1, #1
240586e0:	f105 0028 	add.w	r0, r5, #40	; 0x28
240586e4:	f7ff fdec 	bl	240582c0 <RCCEx_PLL3_Config>
240586e8:	e7f7      	b.n	240586da <HAL_RCCEx_PeriphCLKConfig+0x32a>
240586ea:	4626      	mov	r6, r4
240586ec:	e710      	b.n	24058510 <HAL_RCCEx_PeriphCLKConfig+0x160>
240586ee:	f1b3 4fa0 	cmp.w	r3, #1342177280	; 0x50000000
240586f2:	d007      	beq.n	24058704 <HAL_RCCEx_PeriphCLKConfig+0x354>
240586f4:	d810      	bhi.n	24058718 <HAL_RCCEx_PeriphCLKConfig+0x368>
240586f6:	f1b3 5f40 	cmp.w	r3, #805306368	; 0x30000000
240586fa:	d003      	beq.n	24058704 <HAL_RCCEx_PeriphCLKConfig+0x354>
240586fc:	f1b3 4f80 	cmp.w	r3, #1073741824	; 0x40000000
24058700:	f47f af18 	bne.w	24058534 <HAL_RCCEx_PeriphCLKConfig+0x184>
24058704:	b9c4      	cbnz	r4, 24058738 <HAL_RCCEx_PeriphCLKConfig+0x388>
24058706:	4a85      	ldr	r2, [pc, #532]	; (2405891c <HAL_RCCEx_PeriphCLKConfig+0x56c>)
24058708:	f8d5 10b0 	ldr.w	r1, [r5, #176]	; 0xb0
2405870c:	6d93      	ldr	r3, [r2, #88]	; 0x58
2405870e:	f023 43e0 	bic.w	r3, r3, #1879048192	; 0x70000000
24058712:	430b      	orrs	r3, r1
24058714:	6593      	str	r3, [r2, #88]	; 0x58
24058716:	e70f      	b.n	24058538 <HAL_RCCEx_PeriphCLKConfig+0x188>
24058718:	f1b3 4fc0 	cmp.w	r3, #1610612736	; 0x60000000
2405871c:	e7f0      	b.n	24058700 <HAL_RCCEx_PeriphCLKConfig+0x350>
2405871e:	2101      	movs	r1, #1
24058720:	f105 0008 	add.w	r0, r5, #8
24058724:	f7ff fd54 	bl	240581d0 <RCCEx_PLL2_Config>
24058728:	4604      	mov	r4, r0
2405872a:	e7eb      	b.n	24058704 <HAL_RCCEx_PeriphCLKConfig+0x354>
2405872c:	2101      	movs	r1, #1
2405872e:	f105 0028 	add.w	r0, r5, #40	; 0x28
24058732:	f7ff fdc5 	bl	240582c0 <RCCEx_PLL3_Config>
24058736:	e7f7      	b.n	24058728 <HAL_RCCEx_PeriphCLKConfig+0x378>
24058738:	4626      	mov	r6, r4
2405873a:	e6fd      	b.n	24058538 <HAL_RCCEx_PeriphCLKConfig+0x188>
2405873c:	4a77      	ldr	r2, [pc, #476]	; (2405891c <HAL_RCCEx_PeriphCLKConfig+0x56c>)
2405873e:	6ad3      	ldr	r3, [r2, #44]	; 0x2c
24058740:	f443 3300 	orr.w	r3, r3, #131072	; 0x20000
24058744:	62d3      	str	r3, [r2, #44]	; 0x2c
24058746:	b974      	cbnz	r4, 24058766 <HAL_RCCEx_PeriphCLKConfig+0x3b6>
24058748:	4a74      	ldr	r2, [pc, #464]	; (2405891c <HAL_RCCEx_PeriphCLKConfig+0x56c>)
2405874a:	6fa9      	ldr	r1, [r5, #120]	; 0x78
2405874c:	6d13      	ldr	r3, [r2, #80]	; 0x50
2405874e:	f023 5340 	bic.w	r3, r3, #805306368	; 0x30000000
24058752:	430b      	orrs	r3, r1
24058754:	6513      	str	r3, [r2, #80]	; 0x50
24058756:	e700      	b.n	2405855a <HAL_RCCEx_PeriphCLKConfig+0x1aa>
24058758:	2101      	movs	r1, #1
2405875a:	f105 0008 	add.w	r0, r5, #8
2405875e:	f7ff fd37 	bl	240581d0 <RCCEx_PLL2_Config>
24058762:	4604      	mov	r4, r0
24058764:	e7ef      	b.n	24058746 <HAL_RCCEx_PeriphCLKConfig+0x396>
24058766:	4626      	mov	r6, r4
24058768:	e6f7      	b.n	2405855a <HAL_RCCEx_PeriphCLKConfig+0x1aa>
2405876a:	4a6c      	ldr	r2, [pc, #432]	; (2405891c <HAL_RCCEx_PeriphCLKConfig+0x56c>)
2405876c:	6ad3      	ldr	r3, [r2, #44]	; 0x2c
2405876e:	f443 3300 	orr.w	r3, r3, #131072	; 0x20000
24058772:	62d3      	str	r3, [r2, #44]	; 0x2c
24058774:	2c00      	cmp	r4, #0
24058776:	d14e      	bne.n	24058816 <HAL_RCCEx_PeriphCLKConfig+0x466>
24058778:	4a68      	ldr	r2, [pc, #416]	; (2405891c <HAL_RCCEx_PeriphCLKConfig+0x56c>)
2405877a:	6ca9      	ldr	r1, [r5, #72]	; 0x48
2405877c:	6cd3      	ldr	r3, [r2, #76]	; 0x4c
2405877e:	f023 0303 	bic.w	r3, r3, #3
24058782:	430b      	orrs	r3, r1
24058784:	64d3      	str	r3, [r2, #76]	; 0x4c
24058786:	682b      	ldr	r3, [r5, #0]
24058788:	0259      	lsls	r1, r3, #9
2405878a:	d54e      	bpl.n	2405882a <HAL_RCCEx_PeriphCLKConfig+0x47a>
2405878c:	4f64      	ldr	r7, [pc, #400]	; (24058920 <HAL_RCCEx_PeriphCLKConfig+0x570>)
2405878e:	683b      	ldr	r3, [r7, #0]
24058790:	f443 7380 	orr.w	r3, r3, #256	; 0x100
24058794:	603b      	str	r3, [r7, #0]
24058796:	f7fb fde5 	bl	24054364 <HAL_GetTick>
2405879a:	4680      	mov	r8, r0
2405879c:	683b      	ldr	r3, [r7, #0]
2405879e:	05da      	lsls	r2, r3, #23
240587a0:	d53b      	bpl.n	2405881a <HAL_RCCEx_PeriphCLKConfig+0x46a>
240587a2:	2c00      	cmp	r4, #0
240587a4:	d16f      	bne.n	24058886 <HAL_RCCEx_PeriphCLKConfig+0x4d6>
240587a6:	4b5d      	ldr	r3, [pc, #372]	; (2405891c <HAL_RCCEx_PeriphCLKConfig+0x56c>)
240587a8:	f8d5 00b4 	ldr.w	r0, [r5, #180]	; 0xb4
240587ac:	6f1a      	ldr	r2, [r3, #112]	; 0x70
240587ae:	4042      	eors	r2, r0
240587b0:	f412 7f40 	tst.w	r2, #768	; 0x300
240587b4:	d00b      	beq.n	240587ce <HAL_RCCEx_PeriphCLKConfig+0x41e>
240587b6:	6f1a      	ldr	r2, [r3, #112]	; 0x70
240587b8:	6f19      	ldr	r1, [r3, #112]	; 0x70
240587ba:	f422 7240 	bic.w	r2, r2, #768	; 0x300
240587be:	f441 3180 	orr.w	r1, r1, #65536	; 0x10000
240587c2:	6719      	str	r1, [r3, #112]	; 0x70
240587c4:	6f19      	ldr	r1, [r3, #112]	; 0x70
240587c6:	f421 3180 	bic.w	r1, r1, #65536	; 0x10000
240587ca:	6719      	str	r1, [r3, #112]	; 0x70
240587cc:	671a      	str	r2, [r3, #112]	; 0x70
240587ce:	f5b0 7f80 	cmp.w	r0, #256	; 0x100
240587d2:	d043      	beq.n	2405885c <HAL_RCCEx_PeriphCLKConfig+0x4ac>
240587d4:	f8d5 30b4 	ldr.w	r3, [r5, #180]	; 0xb4
240587d8:	4950      	ldr	r1, [pc, #320]	; (2405891c <HAL_RCCEx_PeriphCLKConfig+0x56c>)
240587da:	f403 7240 	and.w	r2, r3, #768	; 0x300
240587de:	f5b2 7f40 	cmp.w	r2, #768	; 0x300
240587e2:	d14c      	bne.n	2405887e <HAL_RCCEx_PeriphCLKConfig+0x4ce>
240587e4:	6908      	ldr	r0, [r1, #16]
240587e6:	4a4f      	ldr	r2, [pc, #316]	; (24058924 <HAL_RCCEx_PeriphCLKConfig+0x574>)
240587e8:	f420 507c 	bic.w	r0, r0, #16128	; 0x3f00
240587ec:	ea02 1213 	and.w	r2, r2, r3, lsr #4
240587f0:	4302      	orrs	r2, r0
240587f2:	610a      	str	r2, [r1, #16]
240587f4:	f3c3 030b 	ubfx	r3, r3, #0, #12
240587f8:	4a48      	ldr	r2, [pc, #288]	; (2405891c <HAL_RCCEx_PeriphCLKConfig+0x56c>)
240587fa:	6f11      	ldr	r1, [r2, #112]	; 0x70
240587fc:	430b      	orrs	r3, r1
240587fe:	6713      	str	r3, [r2, #112]	; 0x70
24058800:	e013      	b.n	2405882a <HAL_RCCEx_PeriphCLKConfig+0x47a>
24058802:	2102      	movs	r1, #2
24058804:	f105 0008 	add.w	r0, r5, #8
24058808:	f7ff fce2 	bl	240581d0 <RCCEx_PLL2_Config>
2405880c:	4604      	mov	r4, r0
2405880e:	e7b1      	b.n	24058774 <HAL_RCCEx_PeriphCLKConfig+0x3c4>
24058810:	2601      	movs	r6, #1
24058812:	4634      	mov	r4, r6
24058814:	e7b7      	b.n	24058786 <HAL_RCCEx_PeriphCLKConfig+0x3d6>
24058816:	4626      	mov	r6, r4
24058818:	e7b5      	b.n	24058786 <HAL_RCCEx_PeriphCLKConfig+0x3d6>
2405881a:	f7fb fda3 	bl	24054364 <HAL_GetTick>
2405881e:	eba0 0008 	sub.w	r0, r0, r8
24058822:	2864      	cmp	r0, #100	; 0x64
24058824:	d9ba      	bls.n	2405879c <HAL_RCCEx_PeriphCLKConfig+0x3ec>
24058826:	2603      	movs	r6, #3
24058828:	4634      	mov	r4, r6
2405882a:	682b      	ldr	r3, [r5, #0]
2405882c:	07d8      	lsls	r0, r3, #31
2405882e:	d509      	bpl.n	24058844 <HAL_RCCEx_PeriphCLKConfig+0x494>
24058830:	f8d5 3084 	ldr.w	r3, [r5, #132]	; 0x84
24058834:	2b10      	cmp	r3, #16
24058836:	d03f      	beq.n	240588b8 <HAL_RCCEx_PeriphCLKConfig+0x508>
24058838:	d827      	bhi.n	2405888a <HAL_RCCEx_PeriphCLKConfig+0x4da>
2405883a:	b363      	cbz	r3, 24058896 <HAL_RCCEx_PeriphCLKConfig+0x4e6>
2405883c:	2b08      	cmp	r3, #8
2405883e:	d034      	beq.n	240588aa <HAL_RCCEx_PeriphCLKConfig+0x4fa>
24058840:	2601      	movs	r6, #1
24058842:	4634      	mov	r4, r6
24058844:	682b      	ldr	r3, [r5, #0]
24058846:	0799      	lsls	r1, r3, #30
24058848:	d54d      	bpl.n	240588e6 <HAL_RCCEx_PeriphCLKConfig+0x536>
2405884a:	f8d5 3080 	ldr.w	r3, [r5, #128]	; 0x80
2405884e:	2b05      	cmp	r3, #5
24058850:	d85f      	bhi.n	24058912 <HAL_RCCEx_PeriphCLKConfig+0x562>
24058852:	e8df f003 	tbb	[pc, r3]
24058856:	393f      	.short	0x393f
24058858:	3f3f3f58 	.word	0x3f3f3f58
2405885c:	f7fb fd82 	bl	24054364 <HAL_GetTick>
24058860:	f8df 80b8 	ldr.w	r8, [pc, #184]	; 2405891c <HAL_RCCEx_PeriphCLKConfig+0x56c>
24058864:	4607      	mov	r7, r0
24058866:	f241 3988 	movw	r9, #5000	; 0x1388
2405886a:	f8d8 3070 	ldr.w	r3, [r8, #112]	; 0x70
2405886e:	079b      	lsls	r3, r3, #30
24058870:	d4b0      	bmi.n	240587d4 <HAL_RCCEx_PeriphCLKConfig+0x424>
24058872:	f7fb fd77 	bl	24054364 <HAL_GetTick>
24058876:	1bc0      	subs	r0, r0, r7
24058878:	4548      	cmp	r0, r9
2405887a:	d9f6      	bls.n	2405886a <HAL_RCCEx_PeriphCLKConfig+0x4ba>
2405887c:	e7d3      	b.n	24058826 <HAL_RCCEx_PeriphCLKConfig+0x476>
2405887e:	690a      	ldr	r2, [r1, #16]
24058880:	f422 527c 	bic.w	r2, r2, #16128	; 0x3f00
24058884:	e7b5      	b.n	240587f2 <HAL_RCCEx_PeriphCLKConfig+0x442>
24058886:	4626      	mov	r6, r4
24058888:	e7cf      	b.n	2405882a <HAL_RCCEx_PeriphCLKConfig+0x47a>
2405888a:	f023 0208 	bic.w	r2, r3, #8
2405888e:	2a20      	cmp	r2, #32
24058890:	d001      	beq.n	24058896 <HAL_RCCEx_PeriphCLKConfig+0x4e6>
24058892:	2b18      	cmp	r3, #24
24058894:	d1d4      	bne.n	24058840 <HAL_RCCEx_PeriphCLKConfig+0x490>
24058896:	b9ac      	cbnz	r4, 240588c4 <HAL_RCCEx_PeriphCLKConfig+0x514>
24058898:	4a20      	ldr	r2, [pc, #128]	; (2405891c <HAL_RCCEx_PeriphCLKConfig+0x56c>)
2405889a:	f8d5 1084 	ldr.w	r1, [r5, #132]	; 0x84
2405889e:	6d53      	ldr	r3, [r2, #84]	; 0x54
240588a0:	f023 0338 	bic.w	r3, r3, #56	; 0x38
240588a4:	430b      	orrs	r3, r1
240588a6:	6553      	str	r3, [r2, #84]	; 0x54
240588a8:	e7cc      	b.n	24058844 <HAL_RCCEx_PeriphCLKConfig+0x494>
240588aa:	2101      	movs	r1, #1
240588ac:	f105 0008 	add.w	r0, r5, #8
240588b0:	f7ff fc8e 	bl	240581d0 <RCCEx_PLL2_Config>
240588b4:	4604      	mov	r4, r0
240588b6:	e7ee      	b.n	24058896 <HAL_RCCEx_PeriphCLKConfig+0x4e6>
240588b8:	2101      	movs	r1, #1
240588ba:	f105 0028 	add.w	r0, r5, #40	; 0x28
240588be:	f7ff fcff 	bl	240582c0 <RCCEx_PLL3_Config>
240588c2:	e7f7      	b.n	240588b4 <HAL_RCCEx_PeriphCLKConfig+0x504>
240588c4:	4626      	mov	r6, r4
240588c6:	e7bd      	b.n	24058844 <HAL_RCCEx_PeriphCLKConfig+0x494>
240588c8:	2101      	movs	r1, #1
240588ca:	f105 0008 	add.w	r0, r5, #8
240588ce:	f7ff fc7f 	bl	240581d0 <RCCEx_PLL2_Config>
240588d2:	4604      	mov	r4, r0
240588d4:	bb04      	cbnz	r4, 24058918 <HAL_RCCEx_PeriphCLKConfig+0x568>
240588d6:	4a11      	ldr	r2, [pc, #68]	; (2405891c <HAL_RCCEx_PeriphCLKConfig+0x56c>)
240588d8:	f8d5 1080 	ldr.w	r1, [r5, #128]	; 0x80
240588dc:	6d53      	ldr	r3, [r2, #84]	; 0x54
240588de:	f023 0307 	bic.w	r3, r3, #7
240588e2:	430b      	orrs	r3, r1
240588e4:	6553      	str	r3, [r2, #84]	; 0x54
240588e6:	682b      	ldr	r3, [r5, #0]
240588e8:	075a      	lsls	r2, r3, #29
240588ea:	d52e      	bpl.n	2405894a <HAL_RCCEx_PeriphCLKConfig+0x59a>
240588ec:	f8d5 309c 	ldr.w	r3, [r5, #156]	; 0x9c
240588f0:	2b05      	cmp	r3, #5
240588f2:	f200 817f 	bhi.w	24058bf4 <HAL_RCCEx_PeriphCLKConfig+0x844>
240588f6:	e8df f013 	tbh	[pc, r3, lsl #1]
240588fa:	001d      	.short	0x001d
240588fc:	01770017 	.word	0x01770017
24058900:	001d001d 	.word	0x001d001d
24058904:	001d      	.short	0x001d
24058906:	2101      	movs	r1, #1
24058908:	f105 0028 	add.w	r0, r5, #40	; 0x28
2405890c:	f7ff fcd8 	bl	240582c0 <RCCEx_PLL3_Config>
24058910:	e7df      	b.n	240588d2 <HAL_RCCEx_PeriphCLKConfig+0x522>
24058912:	2601      	movs	r6, #1
24058914:	4634      	mov	r4, r6
24058916:	e7e6      	b.n	240588e6 <HAL_RCCEx_PeriphCLKConfig+0x536>
24058918:	4626      	mov	r6, r4
2405891a:	e7e4      	b.n	240588e6 <HAL_RCCEx_PeriphCLKConfig+0x536>
2405891c:	58024400 	.word	0x58024400
24058920:	58024800 	.word	0x58024800
24058924:	00ffffcf 	.word	0x00ffffcf
24058928:	2101      	movs	r1, #1
2405892a:	f105 0008 	add.w	r0, r5, #8
2405892e:	f7ff fc4f 	bl	240581d0 <RCCEx_PLL2_Config>
24058932:	4604      	mov	r4, r0
24058934:	2c00      	cmp	r4, #0
24058936:	f040 8160 	bne.w	24058bfa <HAL_RCCEx_PeriphCLKConfig+0x84a>
2405893a:	4aaa      	ldr	r2, [pc, #680]	; (24058be4 <HAL_RCCEx_PeriphCLKConfig+0x834>)
2405893c:	f8d5 109c 	ldr.w	r1, [r5, #156]	; 0x9c
24058940:	6d93      	ldr	r3, [r2, #88]	; 0x58
24058942:	f023 0307 	bic.w	r3, r3, #7
24058946:	430b      	orrs	r3, r1
24058948:	6593      	str	r3, [r2, #88]	; 0x58
2405894a:	682b      	ldr	r3, [r5, #0]
2405894c:	069b      	lsls	r3, r3, #26
2405894e:	d510      	bpl.n	24058972 <HAL_RCCEx_PeriphCLKConfig+0x5c2>
24058950:	f8d5 3098 	ldr.w	r3, [r5, #152]	; 0x98
24058954:	f1b3 5f00 	cmp.w	r3, #536870912	; 0x20000000
24058958:	f000 816b 	beq.w	24058c32 <HAL_RCCEx_PeriphCLKConfig+0x882>
2405895c:	f200 814f 	bhi.w	24058bfe <HAL_RCCEx_PeriphCLKConfig+0x84e>
24058960:	2b00      	cmp	r3, #0
24058962:	f000 8155 	beq.w	24058c10 <HAL_RCCEx_PeriphCLKConfig+0x860>
24058966:	f1b3 5f80 	cmp.w	r3, #268435456	; 0x10000000
2405896a:	f000 815b 	beq.w	24058c24 <HAL_RCCEx_PeriphCLKConfig+0x874>
2405896e:	2601      	movs	r6, #1
24058970:	4634      	mov	r4, r6
24058972:	682b      	ldr	r3, [r5, #0]
24058974:	065f      	lsls	r7, r3, #25
24058976:	d510      	bpl.n	2405899a <HAL_RCCEx_PeriphCLKConfig+0x5ea>
24058978:	f8d5 30a4 	ldr.w	r3, [r5, #164]	; 0xa4
2405897c:	f5b3 6f00 	cmp.w	r3, #2048	; 0x800
24058980:	f000 8179 	beq.w	24058c76 <HAL_RCCEx_PeriphCLKConfig+0x8c6>
24058984:	f200 815d 	bhi.w	24058c42 <HAL_RCCEx_PeriphCLKConfig+0x892>
24058988:	2b00      	cmp	r3, #0
2405898a:	f000 8163 	beq.w	24058c54 <HAL_RCCEx_PeriphCLKConfig+0x8a4>
2405898e:	f5b3 6f80 	cmp.w	r3, #1024	; 0x400
24058992:	f000 8169 	beq.w	24058c68 <HAL_RCCEx_PeriphCLKConfig+0x8b8>
24058996:	2601      	movs	r6, #1
24058998:	4634      	mov	r4, r6
2405899a:	682b      	ldr	r3, [r5, #0]
2405899c:	0618      	lsls	r0, r3, #24
2405899e:	d510      	bpl.n	240589c2 <HAL_RCCEx_PeriphCLKConfig+0x612>
240589a0:	f8d5 30a8 	ldr.w	r3, [r5, #168]	; 0xa8
240589a4:	f5b3 4f80 	cmp.w	r3, #16384	; 0x4000
240589a8:	f000 8187 	beq.w	24058cba <HAL_RCCEx_PeriphCLKConfig+0x90a>
240589ac:	f200 816b 	bhi.w	24058c86 <HAL_RCCEx_PeriphCLKConfig+0x8d6>
240589b0:	2b00      	cmp	r3, #0
240589b2:	f000 8171 	beq.w	24058c98 <HAL_RCCEx_PeriphCLKConfig+0x8e8>
240589b6:	f5b3 5f00 	cmp.w	r3, #8192	; 0x2000
240589ba:	f000 8177 	beq.w	24058cac <HAL_RCCEx_PeriphCLKConfig+0x8fc>
240589be:	2601      	movs	r6, #1
240589c0:	4634      	mov	r4, r6
240589c2:	682b      	ldr	r3, [r5, #0]
240589c4:	0719      	lsls	r1, r3, #28
240589c6:	d514      	bpl.n	240589f2 <HAL_RCCEx_PeriphCLKConfig+0x642>
240589c8:	f8d5 308c 	ldr.w	r3, [r5, #140]	; 0x8c
240589cc:	f5b3 5f80 	cmp.w	r3, #4096	; 0x1000
240589d0:	d107      	bne.n	240589e2 <HAL_RCCEx_PeriphCLKConfig+0x632>
240589d2:	2102      	movs	r1, #2
240589d4:	f105 0028 	add.w	r0, r5, #40	; 0x28
240589d8:	f7ff fc72 	bl	240582c0 <RCCEx_PLL3_Config>
240589dc:	2800      	cmp	r0, #0
240589de:	bf18      	it	ne
240589e0:	2601      	movne	r6, #1
240589e2:	4a80      	ldr	r2, [pc, #512]	; (24058be4 <HAL_RCCEx_PeriphCLKConfig+0x834>)
240589e4:	f8d5 108c 	ldr.w	r1, [r5, #140]	; 0x8c
240589e8:	6d53      	ldr	r3, [r2, #84]	; 0x54
240589ea:	f423 5340 	bic.w	r3, r3, #12288	; 0x3000
240589ee:	430b      	orrs	r3, r1
240589f0:	6553      	str	r3, [r2, #84]	; 0x54
240589f2:	682b      	ldr	r3, [r5, #0]
240589f4:	06da      	lsls	r2, r3, #27
240589f6:	d514      	bpl.n	24058a22 <HAL_RCCEx_PeriphCLKConfig+0x672>
240589f8:	f8d5 30a0 	ldr.w	r3, [r5, #160]	; 0xa0
240589fc:	f5b3 7f80 	cmp.w	r3, #256	; 0x100
24058a00:	d107      	bne.n	24058a12 <HAL_RCCEx_PeriphCLKConfig+0x662>
24058a02:	2102      	movs	r1, #2
24058a04:	f105 0028 	add.w	r0, r5, #40	; 0x28
24058a08:	f7ff fc5a 	bl	240582c0 <RCCEx_PLL3_Config>
24058a0c:	2800      	cmp	r0, #0
24058a0e:	bf18      	it	ne
24058a10:	2601      	movne	r6, #1
24058a12:	4a74      	ldr	r2, [pc, #464]	; (24058be4 <HAL_RCCEx_PeriphCLKConfig+0x834>)
24058a14:	f8d5 10a0 	ldr.w	r1, [r5, #160]	; 0xa0
24058a18:	6d93      	ldr	r3, [r2, #88]	; 0x58
24058a1a:	f423 7340 	bic.w	r3, r3, #768	; 0x300
24058a1e:	430b      	orrs	r3, r1
24058a20:	6593      	str	r3, [r2, #88]	; 0x58
24058a22:	682b      	ldr	r3, [r5, #0]
24058a24:	031b      	lsls	r3, r3, #12
24058a26:	d51b      	bpl.n	24058a60 <HAL_RCCEx_PeriphCLKConfig+0x6b0>
24058a28:	f8d5 10ac 	ldr.w	r1, [r5, #172]	; 0xac
24058a2c:	f5b1 3f80 	cmp.w	r1, #65536	; 0x10000
24058a30:	f000 814b 	beq.w	24058cca <HAL_RCCEx_PeriphCLKConfig+0x91a>
24058a34:	f5b1 3f00 	cmp.w	r1, #131072	; 0x20000
24058a38:	d007      	beq.n	24058a4a <HAL_RCCEx_PeriphCLKConfig+0x69a>
24058a3a:	2900      	cmp	r1, #0
24058a3c:	f040 814b 	bne.w	24058cd6 <HAL_RCCEx_PeriphCLKConfig+0x926>
24058a40:	f105 0008 	add.w	r0, r5, #8
24058a44:	f7ff fbc4 	bl	240581d0 <RCCEx_PLL2_Config>
24058a48:	4604      	mov	r4, r0
24058a4a:	2c00      	cmp	r4, #0
24058a4c:	f040 8146 	bne.w	24058cdc <HAL_RCCEx_PeriphCLKConfig+0x92c>
24058a50:	4a64      	ldr	r2, [pc, #400]	; (24058be4 <HAL_RCCEx_PeriphCLKConfig+0x834>)
24058a52:	f8d5 10ac 	ldr.w	r1, [r5, #172]	; 0xac
24058a56:	6d93      	ldr	r3, [r2, #88]	; 0x58
24058a58:	f423 3340 	bic.w	r3, r3, #196608	; 0x30000
24058a5c:	430b      	orrs	r3, r1
24058a5e:	6593      	str	r3, [r2, #88]	; 0x58
24058a60:	682b      	ldr	r3, [r5, #0]
24058a62:	035f      	lsls	r7, r3, #13
24058a64:	d51c      	bpl.n	24058aa0 <HAL_RCCEx_PeriphCLKConfig+0x6f0>
24058a66:	f8d5 3090 	ldr.w	r3, [r5, #144]	; 0x90
24058a6a:	f5b3 1f00 	cmp.w	r3, #2097152	; 0x200000
24058a6e:	f000 8137 	beq.w	24058ce0 <HAL_RCCEx_PeriphCLKConfig+0x930>
24058a72:	f5b3 1f40 	cmp.w	r3, #3145728	; 0x300000
24058a76:	d008      	beq.n	24058a8a <HAL_RCCEx_PeriphCLKConfig+0x6da>
24058a78:	f5b3 1f80 	cmp.w	r3, #1048576	; 0x100000
24058a7c:	f040 8137 	bne.w	24058cee <HAL_RCCEx_PeriphCLKConfig+0x93e>
24058a80:	4a58      	ldr	r2, [pc, #352]	; (24058be4 <HAL_RCCEx_PeriphCLKConfig+0x834>)
24058a82:	6ad3      	ldr	r3, [r2, #44]	; 0x2c
24058a84:	f443 3300 	orr.w	r3, r3, #131072	; 0x20000
24058a88:	62d3      	str	r3, [r2, #44]	; 0x2c
24058a8a:	2c00      	cmp	r4, #0
24058a8c:	f040 8132 	bne.w	24058cf4 <HAL_RCCEx_PeriphCLKConfig+0x944>
24058a90:	4a54      	ldr	r2, [pc, #336]	; (24058be4 <HAL_RCCEx_PeriphCLKConfig+0x834>)
24058a92:	f8d5 1090 	ldr.w	r1, [r5, #144]	; 0x90
24058a96:	6d53      	ldr	r3, [r2, #84]	; 0x54
24058a98:	f423 1340 	bic.w	r3, r3, #3145728	; 0x300000
24058a9c:	430b      	orrs	r3, r1
24058a9e:	6553      	str	r3, [r2, #84]	; 0x54
24058aa0:	682b      	ldr	r3, [r5, #0]
24058aa2:	03d8      	lsls	r0, r3, #15
24058aa4:	d509      	bpl.n	24058aba <HAL_RCCEx_PeriphCLKConfig+0x70a>
24058aa6:	6d2b      	ldr	r3, [r5, #80]	; 0x50
24058aa8:	2b00      	cmp	r3, #0
24058aaa:	f000 8125 	beq.w	24058cf8 <HAL_RCCEx_PeriphCLKConfig+0x948>
24058aae:	f5b3 3f80 	cmp.w	r3, #65536	; 0x10000
24058ab2:	f000 812f 	beq.w	24058d14 <HAL_RCCEx_PeriphCLKConfig+0x964>
24058ab6:	2601      	movs	r6, #1
24058ab8:	4634      	mov	r4, r6
24058aba:	682b      	ldr	r3, [r5, #0]
24058abc:	0099      	lsls	r1, r3, #2
24058abe:	d507      	bpl.n	24058ad0 <HAL_RCCEx_PeriphCLKConfig+0x720>
24058ac0:	2102      	movs	r1, #2
24058ac2:	f105 0028 	add.w	r0, r5, #40	; 0x28
24058ac6:	f7ff fbfb 	bl	240582c0 <RCCEx_PLL3_Config>
24058aca:	2800      	cmp	r0, #0
24058acc:	bf18      	it	ne
24058ace:	2601      	movne	r6, #1
24058ad0:	e9d5 3100 	ldrd	r3, r1, [r5]
24058ad4:	039a      	lsls	r2, r3, #14
24058ad6:	d50b      	bpl.n	24058af0 <HAL_RCCEx_PeriphCLKConfig+0x740>
24058ad8:	f8d5 0088 	ldr.w	r0, [r5, #136]	; 0x88
24058adc:	f5b0 7f80 	cmp.w	r0, #256	; 0x100
24058ae0:	f000 812f 	beq.w	24058d42 <HAL_RCCEx_PeriphCLKConfig+0x992>
24058ae4:	f200 811f 	bhi.w	24058d26 <HAL_RCCEx_PeriphCLKConfig+0x976>
24058ae8:	2800      	cmp	r0, #0
24058aea:	f000 8122 	beq.w	24058d32 <HAL_RCCEx_PeriphCLKConfig+0x982>
24058aee:	2601      	movs	r6, #1
24058af0:	02df      	lsls	r7, r3, #11
24058af2:	d506      	bpl.n	24058b02 <HAL_RCCEx_PeriphCLKConfig+0x752>
24058af4:	483b      	ldr	r0, [pc, #236]	; (24058be4 <HAL_RCCEx_PeriphCLKConfig+0x834>)
24058af6:	6fec      	ldr	r4, [r5, #124]	; 0x7c
24058af8:	6d02      	ldr	r2, [r0, #80]	; 0x50
24058afa:	f022 4200 	bic.w	r2, r2, #2147483648	; 0x80000000
24058afe:	4322      	orrs	r2, r4
24058b00:	6502      	str	r2, [r0, #80]	; 0x50
24058b02:	029c      	lsls	r4, r3, #10
24058b04:	d506      	bpl.n	24058b14 <HAL_RCCEx_PeriphCLKConfig+0x764>
24058b06:	4837      	ldr	r0, [pc, #220]	; (24058be4 <HAL_RCCEx_PeriphCLKConfig+0x834>)
24058b08:	6f2c      	ldr	r4, [r5, #112]	; 0x70
24058b0a:	6d02      	ldr	r2, [r0, #80]	; 0x50
24058b0c:	f022 7280 	bic.w	r2, r2, #16777216	; 0x1000000
24058b10:	4322      	orrs	r2, r4
24058b12:	6502      	str	r2, [r0, #80]	; 0x50
24058b14:	0518      	lsls	r0, r3, #20
24058b16:	d506      	bpl.n	24058b26 <HAL_RCCEx_PeriphCLKConfig+0x776>
24058b18:	4832      	ldr	r0, [pc, #200]	; (24058be4 <HAL_RCCEx_PeriphCLKConfig+0x834>)
24058b1a:	6f6c      	ldr	r4, [r5, #116]	; 0x74
24058b1c:	6d82      	ldr	r2, [r0, #88]	; 0x58
24058b1e:	f022 6200 	bic.w	r2, r2, #134217728	; 0x8000000
24058b22:	4322      	orrs	r2, r4
24058b24:	6582      	str	r2, [r0, #88]	; 0x58
24058b26:	005a      	lsls	r2, r3, #1
24058b28:	d509      	bpl.n	24058b3e <HAL_RCCEx_PeriphCLKConfig+0x78e>
24058b2a:	4a2e      	ldr	r2, [pc, #184]	; (24058be4 <HAL_RCCEx_PeriphCLKConfig+0x834>)
24058b2c:	6910      	ldr	r0, [r2, #16]
24058b2e:	f420 4000 	bic.w	r0, r0, #32768	; 0x8000
24058b32:	6110      	str	r0, [r2, #16]
24058b34:	6910      	ldr	r0, [r2, #16]
24058b36:	f8d5 40b8 	ldr.w	r4, [r5, #184]	; 0xb8
24058b3a:	4320      	orrs	r0, r4
24058b3c:	6110      	str	r0, [r2, #16]
24058b3e:	2b00      	cmp	r3, #0
24058b40:	da06      	bge.n	24058b50 <HAL_RCCEx_PeriphCLKConfig+0x7a0>
24058b42:	4828      	ldr	r0, [pc, #160]	; (24058be4 <HAL_RCCEx_PeriphCLKConfig+0x834>)
24058b44:	6d6c      	ldr	r4, [r5, #84]	; 0x54
24058b46:	6cc2      	ldr	r2, [r0, #76]	; 0x4c
24058b48:	f022 5240 	bic.w	r2, r2, #805306368	; 0x30000000
24058b4c:	4322      	orrs	r2, r4
24058b4e:	64c2      	str	r2, [r0, #76]	; 0x4c
24058b50:	021b      	lsls	r3, r3, #8
24058b52:	d507      	bpl.n	24058b64 <HAL_RCCEx_PeriphCLKConfig+0x7b4>
24058b54:	4a23      	ldr	r2, [pc, #140]	; (24058be4 <HAL_RCCEx_PeriphCLKConfig+0x834>)
24058b56:	f8d5 0094 	ldr.w	r0, [r5, #148]	; 0x94
24058b5a:	6d53      	ldr	r3, [r2, #84]	; 0x54
24058b5c:	f423 0340 	bic.w	r3, r3, #12582912	; 0xc00000
24058b60:	4303      	orrs	r3, r0
24058b62:	6553      	str	r3, [r2, #84]	; 0x54
24058b64:	07cf      	lsls	r7, r1, #31
24058b66:	d507      	bpl.n	24058b78 <HAL_RCCEx_PeriphCLKConfig+0x7c8>
24058b68:	2100      	movs	r1, #0
24058b6a:	f105 0008 	add.w	r0, r5, #8
24058b6e:	f7ff fb2f 	bl	240581d0 <RCCEx_PLL2_Config>
24058b72:	2800      	cmp	r0, #0
24058b74:	bf18      	it	ne
24058b76:	4606      	movne	r6, r0
24058b78:	686b      	ldr	r3, [r5, #4]
24058b7a:	079c      	lsls	r4, r3, #30
24058b7c:	d507      	bpl.n	24058b8e <HAL_RCCEx_PeriphCLKConfig+0x7de>
24058b7e:	2101      	movs	r1, #1
24058b80:	f105 0008 	add.w	r0, r5, #8
24058b84:	f7ff fb24 	bl	240581d0 <RCCEx_PLL2_Config>
24058b88:	2800      	cmp	r0, #0
24058b8a:	bf18      	it	ne
24058b8c:	4606      	movne	r6, r0
24058b8e:	686b      	ldr	r3, [r5, #4]
24058b90:	0758      	lsls	r0, r3, #29
24058b92:	d507      	bpl.n	24058ba4 <HAL_RCCEx_PeriphCLKConfig+0x7f4>
24058b94:	2102      	movs	r1, #2
24058b96:	f105 0008 	add.w	r0, r5, #8
24058b9a:	f7ff fb19 	bl	240581d0 <RCCEx_PLL2_Config>
24058b9e:	2800      	cmp	r0, #0
24058ba0:	bf18      	it	ne
24058ba2:	4606      	movne	r6, r0
24058ba4:	686b      	ldr	r3, [r5, #4]
24058ba6:	0719      	lsls	r1, r3, #28
24058ba8:	d507      	bpl.n	24058bba <HAL_RCCEx_PeriphCLKConfig+0x80a>
24058baa:	2100      	movs	r1, #0
24058bac:	f105 0028 	add.w	r0, r5, #40	; 0x28
24058bb0:	f7ff fb86 	bl	240582c0 <RCCEx_PLL3_Config>
24058bb4:	2800      	cmp	r0, #0
24058bb6:	bf18      	it	ne
24058bb8:	4606      	movne	r6, r0
24058bba:	686b      	ldr	r3, [r5, #4]
24058bbc:	06da      	lsls	r2, r3, #27
24058bbe:	d507      	bpl.n	24058bd0 <HAL_RCCEx_PeriphCLKConfig+0x820>
24058bc0:	2101      	movs	r1, #1
24058bc2:	f105 0028 	add.w	r0, r5, #40	; 0x28
24058bc6:	f7ff fb7b 	bl	240582c0 <RCCEx_PLL3_Config>
24058bca:	2800      	cmp	r0, #0
24058bcc:	bf18      	it	ne
24058bce:	4606      	movne	r6, r0
24058bd0:	686b      	ldr	r3, [r5, #4]
24058bd2:	069b      	lsls	r3, r3, #26
24058bd4:	f100 80bd 	bmi.w	24058d52 <HAL_RCCEx_PeriphCLKConfig+0x9a2>
24058bd8:	1e30      	subs	r0, r6, #0
24058bda:	bf18      	it	ne
24058bdc:	2001      	movne	r0, #1
24058bde:	e8bd 83f8 	ldmia.w	sp!, {r3, r4, r5, r6, r7, r8, r9, pc}
24058be2:	bf00      	nop
24058be4:	58024400 	.word	0x58024400
24058be8:	2101      	movs	r1, #1
24058bea:	f105 0028 	add.w	r0, r5, #40	; 0x28
24058bee:	f7ff fb67 	bl	240582c0 <RCCEx_PLL3_Config>
24058bf2:	e69e      	b.n	24058932 <HAL_RCCEx_PeriphCLKConfig+0x582>
24058bf4:	2601      	movs	r6, #1
24058bf6:	4634      	mov	r4, r6
24058bf8:	e6a7      	b.n	2405894a <HAL_RCCEx_PeriphCLKConfig+0x59a>
24058bfa:	4626      	mov	r6, r4
24058bfc:	e6a5      	b.n	2405894a <HAL_RCCEx_PeriphCLKConfig+0x59a>
24058bfe:	f023 5280 	bic.w	r2, r3, #268435456	; 0x10000000
24058c02:	f1b2 4f80 	cmp.w	r2, #1073741824	; 0x40000000
24058c06:	d003      	beq.n	24058c10 <HAL_RCCEx_PeriphCLKConfig+0x860>
24058c08:	f1b3 5f40 	cmp.w	r3, #805306368	; 0x30000000
24058c0c:	f47f aeaf 	bne.w	2405896e <HAL_RCCEx_PeriphCLKConfig+0x5be>
24058c10:	b9ac      	cbnz	r4, 24058c3e <HAL_RCCEx_PeriphCLKConfig+0x88e>
24058c12:	4a55      	ldr	r2, [pc, #340]	; (24058d68 <HAL_RCCEx_PeriphCLKConfig+0x9b8>)
24058c14:	f8d5 1098 	ldr.w	r1, [r5, #152]	; 0x98
24058c18:	6d53      	ldr	r3, [r2, #84]	; 0x54
24058c1a:	f023 43e0 	bic.w	r3, r3, #1879048192	; 0x70000000
24058c1e:	430b      	orrs	r3, r1
24058c20:	6553      	str	r3, [r2, #84]	; 0x54
24058c22:	e6a6      	b.n	24058972 <HAL_RCCEx_PeriphCLKConfig+0x5c2>
24058c24:	2100      	movs	r1, #0
24058c26:	f105 0008 	add.w	r0, r5, #8
24058c2a:	f7ff fad1 	bl	240581d0 <RCCEx_PLL2_Config>
24058c2e:	4604      	mov	r4, r0
24058c30:	e7ee      	b.n	24058c10 <HAL_RCCEx_PeriphCLKConfig+0x860>
24058c32:	2102      	movs	r1, #2
24058c34:	f105 0028 	add.w	r0, r5, #40	; 0x28
24058c38:	f7ff fb42 	bl	240582c0 <RCCEx_PLL3_Config>
24058c3c:	e7f7      	b.n	24058c2e <HAL_RCCEx_PeriphCLKConfig+0x87e>
24058c3e:	4626      	mov	r6, r4
24058c40:	e697      	b.n	24058972 <HAL_RCCEx_PeriphCLKConfig+0x5c2>
24058c42:	f423 6280 	bic.w	r2, r3, #1024	; 0x400
24058c46:	f5b2 5f80 	cmp.w	r2, #4096	; 0x1000
24058c4a:	d003      	beq.n	24058c54 <HAL_RCCEx_PeriphCLKConfig+0x8a4>
24058c4c:	f5b3 6f40 	cmp.w	r3, #3072	; 0xc00
24058c50:	f47f aea1 	bne.w	24058996 <HAL_RCCEx_PeriphCLKConfig+0x5e6>
24058c54:	b9ac      	cbnz	r4, 24058c82 <HAL_RCCEx_PeriphCLKConfig+0x8d2>
24058c56:	4a44      	ldr	r2, [pc, #272]	; (24058d68 <HAL_RCCEx_PeriphCLKConfig+0x9b8>)
24058c58:	f8d5 10a4 	ldr.w	r1, [r5, #164]	; 0xa4
24058c5c:	6d93      	ldr	r3, [r2, #88]	; 0x58
24058c5e:	f423 53e0 	bic.w	r3, r3, #7168	; 0x1c00
24058c62:	430b      	orrs	r3, r1
24058c64:	6593      	str	r3, [r2, #88]	; 0x58
24058c66:	e698      	b.n	2405899a <HAL_RCCEx_PeriphCLKConfig+0x5ea>
24058c68:	2100      	movs	r1, #0
24058c6a:	f105 0008 	add.w	r0, r5, #8
24058c6e:	f7ff faaf 	bl	240581d0 <RCCEx_PLL2_Config>
24058c72:	4604      	mov	r4, r0
24058c74:	e7ee      	b.n	24058c54 <HAL_RCCEx_PeriphCLKConfig+0x8a4>
24058c76:	2102      	movs	r1, #2
24058c78:	f105 0028 	add.w	r0, r5, #40	; 0x28
24058c7c:	f7ff fb20 	bl	240582c0 <RCCEx_PLL3_Config>
24058c80:	e7f7      	b.n	24058c72 <HAL_RCCEx_PeriphCLKConfig+0x8c2>
24058c82:	4626      	mov	r6, r4
24058c84:	e689      	b.n	2405899a <HAL_RCCEx_PeriphCLKConfig+0x5ea>
24058c86:	f423 5200 	bic.w	r2, r3, #8192	; 0x2000
24058c8a:	f5b2 4f00 	cmp.w	r2, #32768	; 0x8000
24058c8e:	d003      	beq.n	24058c98 <HAL_RCCEx_PeriphCLKConfig+0x8e8>
24058c90:	f5b3 4fc0 	cmp.w	r3, #24576	; 0x6000
24058c94:	f47f ae93 	bne.w	240589be <HAL_RCCEx_PeriphCLKConfig+0x60e>
24058c98:	b9ac      	cbnz	r4, 24058cc6 <HAL_RCCEx_PeriphCLKConfig+0x916>
24058c9a:	4a33      	ldr	r2, [pc, #204]	; (24058d68 <HAL_RCCEx_PeriphCLKConfig+0x9b8>)
24058c9c:	f8d5 10a8 	ldr.w	r1, [r5, #168]	; 0xa8
24058ca0:	6d93      	ldr	r3, [r2, #88]	; 0x58
24058ca2:	f423 4360 	bic.w	r3, r3, #57344	; 0xe000
24058ca6:	430b      	orrs	r3, r1
24058ca8:	6593      	str	r3, [r2, #88]	; 0x58
24058caa:	e68a      	b.n	240589c2 <HAL_RCCEx_PeriphCLKConfig+0x612>
24058cac:	2100      	movs	r1, #0
24058cae:	f105 0008 	add.w	r0, r5, #8
24058cb2:	f7ff fa8d 	bl	240581d0 <RCCEx_PLL2_Config>
24058cb6:	4604      	mov	r4, r0
24058cb8:	e7ee      	b.n	24058c98 <HAL_RCCEx_PeriphCLKConfig+0x8e8>
24058cba:	2102      	movs	r1, #2
24058cbc:	f105 0028 	add.w	r0, r5, #40	; 0x28
24058cc0:	f7ff fafe 	bl	240582c0 <RCCEx_PLL3_Config>
24058cc4:	e7f7      	b.n	24058cb6 <HAL_RCCEx_PeriphCLKConfig+0x906>
24058cc6:	4626      	mov	r6, r4
24058cc8:	e67b      	b.n	240589c2 <HAL_RCCEx_PeriphCLKConfig+0x612>
24058cca:	2102      	movs	r1, #2
24058ccc:	f105 0028 	add.w	r0, r5, #40	; 0x28
24058cd0:	f7ff faf6 	bl	240582c0 <RCCEx_PLL3_Config>
24058cd4:	e6b8      	b.n	24058a48 <HAL_RCCEx_PeriphCLKConfig+0x698>
24058cd6:	2601      	movs	r6, #1
24058cd8:	4634      	mov	r4, r6
24058cda:	e6c1      	b.n	24058a60 <HAL_RCCEx_PeriphCLKConfig+0x6b0>
24058cdc:	4626      	mov	r6, r4
24058cde:	e6bf      	b.n	24058a60 <HAL_RCCEx_PeriphCLKConfig+0x6b0>
24058ce0:	2101      	movs	r1, #1
24058ce2:	f105 0028 	add.w	r0, r5, #40	; 0x28
24058ce6:	f7ff faeb 	bl	240582c0 <RCCEx_PLL3_Config>
24058cea:	4604      	mov	r4, r0
24058cec:	e6cd      	b.n	24058a8a <HAL_RCCEx_PeriphCLKConfig+0x6da>
24058cee:	2601      	movs	r6, #1
24058cf0:	4634      	mov	r4, r6
24058cf2:	e6d5      	b.n	24058aa0 <HAL_RCCEx_PeriphCLKConfig+0x6f0>
24058cf4:	4626      	mov	r6, r4
24058cf6:	e6d3      	b.n	24058aa0 <HAL_RCCEx_PeriphCLKConfig+0x6f0>
24058cf8:	4a1b      	ldr	r2, [pc, #108]	; (24058d68 <HAL_RCCEx_PeriphCLKConfig+0x9b8>)
24058cfa:	6ad3      	ldr	r3, [r2, #44]	; 0x2c
24058cfc:	f443 3300 	orr.w	r3, r3, #131072	; 0x20000
24058d00:	62d3      	str	r3, [r2, #44]	; 0x2c
24058d02:	b974      	cbnz	r4, 24058d22 <HAL_RCCEx_PeriphCLKConfig+0x972>
24058d04:	4a18      	ldr	r2, [pc, #96]	; (24058d68 <HAL_RCCEx_PeriphCLKConfig+0x9b8>)
24058d06:	6d29      	ldr	r1, [r5, #80]	; 0x50
24058d08:	6cd3      	ldr	r3, [r2, #76]	; 0x4c
24058d0a:	f423 3380 	bic.w	r3, r3, #65536	; 0x10000
24058d0e:	430b      	orrs	r3, r1
24058d10:	64d3      	str	r3, [r2, #76]	; 0x4c
24058d12:	e6d2      	b.n	24058aba <HAL_RCCEx_PeriphCLKConfig+0x70a>
24058d14:	2102      	movs	r1, #2
24058d16:	f105 0008 	add.w	r0, r5, #8
24058d1a:	f7ff fa59 	bl	240581d0 <RCCEx_PLL2_Config>
24058d1e:	4604      	mov	r4, r0
24058d20:	e7ef      	b.n	24058d02 <HAL_RCCEx_PeriphCLKConfig+0x952>
24058d22:	4626      	mov	r6, r4
24058d24:	e6c9      	b.n	24058aba <HAL_RCCEx_PeriphCLKConfig+0x70a>
24058d26:	f420 7280 	bic.w	r2, r0, #256	; 0x100
24058d2a:	f5b2 7f00 	cmp.w	r2, #512	; 0x200
24058d2e:	f47f aede 	bne.w	24058aee <HAL_RCCEx_PeriphCLKConfig+0x73e>
24058d32:	b964      	cbnz	r4, 24058d4e <HAL_RCCEx_PeriphCLKConfig+0x99e>
24058d34:	4c0c      	ldr	r4, [pc, #48]	; (24058d68 <HAL_RCCEx_PeriphCLKConfig+0x9b8>)
24058d36:	6d62      	ldr	r2, [r4, #84]	; 0x54
24058d38:	f422 7240 	bic.w	r2, r2, #768	; 0x300
24058d3c:	4302      	orrs	r2, r0
24058d3e:	6562      	str	r2, [r4, #84]	; 0x54
24058d40:	e6d6      	b.n	24058af0 <HAL_RCCEx_PeriphCLKConfig+0x740>
24058d42:	4f09      	ldr	r7, [pc, #36]	; (24058d68 <HAL_RCCEx_PeriphCLKConfig+0x9b8>)
24058d44:	6afa      	ldr	r2, [r7, #44]	; 0x2c
24058d46:	f442 3200 	orr.w	r2, r2, #131072	; 0x20000
24058d4a:	62fa      	str	r2, [r7, #44]	; 0x2c
24058d4c:	e7f1      	b.n	24058d32 <HAL_RCCEx_PeriphCLKConfig+0x982>
24058d4e:	4626      	mov	r6, r4
24058d50:	e6ce      	b.n	24058af0 <HAL_RCCEx_PeriphCLKConfig+0x740>
24058d52:	2102      	movs	r1, #2
24058d54:	f105 0028 	add.w	r0, r5, #40	; 0x28
24058d58:	f7ff fab2 	bl	240582c0 <RCCEx_PLL3_Config>
24058d5c:	2800      	cmp	r0, #0
24058d5e:	f43f af3b 	beq.w	24058bd8 <HAL_RCCEx_PeriphCLKConfig+0x828>
24058d62:	2001      	movs	r0, #1
24058d64:	e73b      	b.n	24058bde <HAL_RCCEx_PeriphCLKConfig+0x82e>
24058d66:	bf00      	nop
24058d68:	58024400 	.word	0x58024400

24058d6c <HAL_RCCEx_GetD3PCLK1Freq>:
24058d6c:	b508      	push	{r3, lr}
24058d6e:	f7ff f9fb 	bl	24058168 <HAL_RCC_GetHCLKFreq>
24058d72:	4b05      	ldr	r3, [pc, #20]	; (24058d88 <HAL_RCCEx_GetD3PCLK1Freq+0x1c>)
24058d74:	4a05      	ldr	r2, [pc, #20]	; (24058d8c <HAL_RCCEx_GetD3PCLK1Freq+0x20>)
24058d76:	6a1b      	ldr	r3, [r3, #32]
24058d78:	f3c3 1302 	ubfx	r3, r3, #4, #3
24058d7c:	5cd3      	ldrb	r3, [r2, r3]
24058d7e:	f003 031f 	and.w	r3, r3, #31
24058d82:	40d8      	lsrs	r0, r3
24058d84:	bd08      	pop	{r3, pc}
24058d86:	bf00      	nop
24058d88:	58024400 	.word	0x58024400
24058d8c:	24060122 	.word	0x24060122

24058d90 <HAL_RCCEx_GetPLL2ClockFreq>:
24058d90:	494f      	ldr	r1, [pc, #316]	; (24058ed0 <HAL_RCCEx_GetPLL2ClockFreq+0x140>)
24058d92:	b570      	push	{r4, r5, r6, lr}
24058d94:	6a8c      	ldr	r4, [r1, #40]	; 0x28
24058d96:	6a8e      	ldr	r6, [r1, #40]	; 0x28
24058d98:	6acd      	ldr	r5, [r1, #44]	; 0x2c
24058d9a:	f416 3f7c 	tst.w	r6, #258048	; 0x3f000
24058d9e:	f3c6 3305 	ubfx	r3, r6, #12, #6
24058da2:	6bca      	ldr	r2, [r1, #60]	; 0x3c
24058da4:	f000 8090 	beq.w	24058ec8 <HAL_RCCEx_GetPLL2ClockFreq+0x138>
24058da8:	ee07 3a90 	vmov	s15, r3
24058dac:	f3c2 03cc 	ubfx	r3, r2, #3, #13
24058db0:	f3c5 1200 	ubfx	r2, r5, #4, #1
24058db4:	f004 0403 	and.w	r4, r4, #3
24058db8:	eeb8 7ae7 	vcvt.f32.s32	s14, s15
24058dbc:	4353      	muls	r3, r2
24058dbe:	2c01      	cmp	r4, #1
24058dc0:	eeb7 6a00 	vmov.f32	s12, #112	; 0x3f800000  1.0
24058dc4:	ee06 3a90 	vmov	s13, r3
24058dc8:	eefa 6ae9 	vcvt.f32.s32	s13, s13, #13
24058dcc:	d06e      	beq.n	24058eac <HAL_RCCEx_GetPLL2ClockFreq+0x11c>
24058dce:	2c02      	cmp	r4, #2
24058dd0:	d05e      	beq.n	24058e90 <HAL_RCCEx_GetPLL2ClockFreq+0x100>
24058dd2:	2c00      	cmp	r4, #0
24058dd4:	d16a      	bne.n	24058eac <HAL_RCCEx_GetPLL2ClockFreq+0x11c>
24058dd6:	680b      	ldr	r3, [r1, #0]
24058dd8:	069b      	lsls	r3, r3, #26
24058dda:	d547      	bpl.n	24058e6c <HAL_RCCEx_GetPLL2ClockFreq+0xdc>
24058ddc:	680a      	ldr	r2, [r1, #0]
24058dde:	6b8b      	ldr	r3, [r1, #56]	; 0x38
24058de0:	f3c2 01c1 	ubfx	r1, r2, #3, #2
24058de4:	4a3b      	ldr	r2, [pc, #236]	; (24058ed4 <HAL_RCCEx_GetPLL2ClockFreq+0x144>)
24058de6:	f3c3 0308 	ubfx	r3, r3, #0, #9
24058dea:	40ca      	lsrs	r2, r1
24058dec:	ee07 2a90 	vmov	s15, r2
24058df0:	eef8 5ae7 	vcvt.f32.s32	s11, s15
24058df4:	eec5 7a87 	vdiv.f32	s15, s11, s14
24058df8:	ee07 3a10 	vmov	s14, r3
24058dfc:	eeb8 7ac7 	vcvt.f32.s32	s14, s14
24058e00:	ee37 7a26 	vadd.f32	s14, s14, s13
24058e04:	ee37 7a06 	vadd.f32	s14, s14, s12
24058e08:	ee67 7a87 	vmul.f32	s15, s15, s14
24058e0c:	4a30      	ldr	r2, [pc, #192]	; (24058ed0 <HAL_RCCEx_GetPLL2ClockFreq+0x140>)
24058e0e:	6b93      	ldr	r3, [r2, #56]	; 0x38
24058e10:	f3c3 2346 	ubfx	r3, r3, #9, #7
24058e14:	ee07 3a10 	vmov	s14, r3
24058e18:	eeb8 7ac7 	vcvt.f32.s32	s14, s14
24058e1c:	ee37 7a06 	vadd.f32	s14, s14, s12
24058e20:	eec7 6a87 	vdiv.f32	s13, s15, s14
24058e24:	eefc 6ae6 	vcvt.u32.f32	s13, s13
24058e28:	edc0 6a00 	vstr	s13, [r0]
24058e2c:	6b93      	ldr	r3, [r2, #56]	; 0x38
24058e2e:	f3c3 4306 	ubfx	r3, r3, #16, #7
24058e32:	ee07 3a10 	vmov	s14, r3
24058e36:	eeb8 7ac7 	vcvt.f32.s32	s14, s14
24058e3a:	ee37 7a06 	vadd.f32	s14, s14, s12
24058e3e:	eec7 6a87 	vdiv.f32	s13, s15, s14
24058e42:	eefc 6ae6 	vcvt.u32.f32	s13, s13
24058e46:	edc0 6a01 	vstr	s13, [r0, #4]
24058e4a:	6b93      	ldr	r3, [r2, #56]	; 0x38
24058e4c:	f3c3 6306 	ubfx	r3, r3, #24, #7
24058e50:	ee06 3a90 	vmov	s13, r3
24058e54:	eef8 6ae6 	vcvt.f32.s32	s13, s13
24058e58:	ee76 6a86 	vadd.f32	s13, s13, s12
24058e5c:	ee87 7aa6 	vdiv.f32	s14, s15, s13
24058e60:	eefc 7ac7 	vcvt.u32.f32	s15, s14
24058e64:	ee17 3a90 	vmov	r3, s15
24058e68:	6083      	str	r3, [r0, #8]
24058e6a:	bd70      	pop	{r4, r5, r6, pc}
24058e6c:	6b8b      	ldr	r3, [r1, #56]	; 0x38
24058e6e:	eddf 5a1a 	vldr	s11, [pc, #104]	; 24058ed8 <HAL_RCCEx_GetPLL2ClockFreq+0x148>
24058e72:	f3c3 0308 	ubfx	r3, r3, #0, #9
24058e76:	ee07 3a90 	vmov	s15, r3
24058e7a:	eef8 7ae7 	vcvt.f32.s32	s15, s15
24058e7e:	ee77 7aa6 	vadd.f32	s15, s15, s13
24058e82:	ee77 7a86 	vadd.f32	s15, s15, s12
24058e86:	eec5 6a87 	vdiv.f32	s13, s11, s14
24058e8a:	ee67 7aa6 	vmul.f32	s15, s15, s13
24058e8e:	e7bd      	b.n	24058e0c <HAL_RCCEx_GetPLL2ClockFreq+0x7c>
24058e90:	6b8b      	ldr	r3, [r1, #56]	; 0x38
24058e92:	eddf 5a12 	vldr	s11, [pc, #72]	; 24058edc <HAL_RCCEx_GetPLL2ClockFreq+0x14c>
24058e96:	f3c3 0308 	ubfx	r3, r3, #0, #9
24058e9a:	ee07 3a90 	vmov	s15, r3
24058e9e:	eef8 7ae7 	vcvt.f32.s32	s15, s15
24058ea2:	ee77 7aa6 	vadd.f32	s15, s15, s13
24058ea6:	ee77 7a86 	vadd.f32	s15, s15, s12
24058eaa:	e7ec      	b.n	24058e86 <HAL_RCCEx_GetPLL2ClockFreq+0xf6>
24058eac:	6b8b      	ldr	r3, [r1, #56]	; 0x38
24058eae:	eddf 5a0c 	vldr	s11, [pc, #48]	; 24058ee0 <HAL_RCCEx_GetPLL2ClockFreq+0x150>
24058eb2:	f3c3 0308 	ubfx	r3, r3, #0, #9
24058eb6:	ee07 3a90 	vmov	s15, r3
24058eba:	eef8 7ae7 	vcvt.f32.s32	s15, s15
24058ebe:	ee77 7aa6 	vadd.f32	s15, s15, s13
24058ec2:	ee77 7a86 	vadd.f32	s15, s15, s12
24058ec6:	e7de      	b.n	24058e86 <HAL_RCCEx_GetPLL2ClockFreq+0xf6>
24058ec8:	e9c0 3300 	strd	r3, r3, [r0]
24058ecc:	e7cc      	b.n	24058e68 <HAL_RCCEx_GetPLL2ClockFreq+0xd8>
24058ece:	bf00      	nop
24058ed0:	58024400 	.word	0x58024400
24058ed4:	03d09000 	.word	0x03d09000
24058ed8:	4c742400 	.word	0x4c742400
24058edc:	4bb71b00 	.word	0x4bb71b00
24058ee0:	4a742400 	.word	0x4a742400

24058ee4 <HAL_RCCEx_GetPLL3ClockFreq>:
24058ee4:	494f      	ldr	r1, [pc, #316]	; (24059024 <HAL_RCCEx_GetPLL3ClockFreq+0x140>)
24058ee6:	b570      	push	{r4, r5, r6, lr}
24058ee8:	6a8c      	ldr	r4, [r1, #40]	; 0x28
24058eea:	6a8e      	ldr	r6, [r1, #40]	; 0x28
24058eec:	6acd      	ldr	r5, [r1, #44]	; 0x2c
24058eee:	f016 7f7c 	tst.w	r6, #66060288	; 0x3f00000
24058ef2:	f3c6 5305 	ubfx	r3, r6, #20, #6
24058ef6:	6c4a      	ldr	r2, [r1, #68]	; 0x44
24058ef8:	f000 8090 	beq.w	2405901c <HAL_RCCEx_GetPLL3ClockFreq+0x138>
24058efc:	ee07 3a90 	vmov	s15, r3
24058f00:	f3c2 03cc 	ubfx	r3, r2, #3, #13
24058f04:	f3c5 2200 	ubfx	r2, r5, #8, #1
24058f08:	f004 0403 	and.w	r4, r4, #3
24058f0c:	eeb8 7ae7 	vcvt.f32.s32	s14, s15
24058f10:	4353      	muls	r3, r2
24058f12:	2c01      	cmp	r4, #1
24058f14:	eeb7 6a00 	vmov.f32	s12, #112	; 0x3f800000  1.0
24058f18:	ee06 3a90 	vmov	s13, r3
24058f1c:	eefa 6ae9 	vcvt.f32.s32	s13, s13, #13
24058f20:	d06e      	beq.n	24059000 <HAL_RCCEx_GetPLL3ClockFreq+0x11c>
24058f22:	2c02      	cmp	r4, #2
24058f24:	d05e      	beq.n	24058fe4 <HAL_RCCEx_GetPLL3ClockFreq+0x100>
24058f26:	2c00      	cmp	r4, #0
24058f28:	d16a      	bne.n	24059000 <HAL_RCCEx_GetPLL3ClockFreq+0x11c>
24058f2a:	680b      	ldr	r3, [r1, #0]
24058f2c:	069b      	lsls	r3, r3, #26
24058f2e:	d547      	bpl.n	24058fc0 <HAL_RCCEx_GetPLL3ClockFreq+0xdc>
24058f30:	680a      	ldr	r2, [r1, #0]
24058f32:	6c0b      	ldr	r3, [r1, #64]	; 0x40
24058f34:	f3c2 01c1 	ubfx	r1, r2, #3, #2
24058f38:	4a3b      	ldr	r2, [pc, #236]	; (24059028 <HAL_RCCEx_GetPLL3ClockFreq+0x144>)
24058f3a:	f3c3 0308 	ubfx	r3, r3, #0, #9
24058f3e:	40ca      	lsrs	r2, r1
24058f40:	ee07 2a90 	vmov	s15, r2
24058f44:	eef8 5ae7 	vcvt.f32.s32	s11, s15
24058f48:	eec5 7a87 	vdiv.f32	s15, s11, s14
24058f4c:	ee07 3a10 	vmov	s14, r3
24058f50:	eeb8 7ac7 	vcvt.f32.s32	s14, s14
24058f54:	ee37 7a26 	vadd.f32	s14, s14, s13
24058f58:	ee37 7a06 	vadd.f32	s14, s14, s12
24058f5c:	ee67 7a87 	vmul.f32	s15, s15, s14
24058f60:	4a30      	ldr	r2, [pc, #192]	; (24059024 <HAL_RCCEx_GetPLL3ClockFreq+0x140>)
24058f62:	6c13      	ldr	r3, [r2, #64]	; 0x40
24058f64:	f3c3 2346 	ubfx	r3, r3, #9, #7
24058f68:	ee07 3a10 	vmov	s14, r3
24058f6c:	eeb8 7ac7 	vcvt.f32.s32	s14, s14
24058f70:	ee37 7a06 	vadd.f32	s14, s14, s12
24058f74:	eec7 6a87 	vdiv.f32	s13, s15, s14
24058f78:	eefc 6ae6 	vcvt.u32.f32	s13, s13
24058f7c:	edc0 6a00 	vstr	s13, [r0]
24058f80:	6c13      	ldr	r3, [r2, #64]	; 0x40
24058f82:	f3c3 4306 	ubfx	r3, r3, #16, #7
24058f86:	ee07 3a10 	vmov	s14, r3
24058f8a:	eeb8 7ac7 	vcvt.f32.s32	s14, s14
24058f8e:	ee37 7a06 	vadd.f32	s14, s14, s12
24058f92:	eec7 6a87 	vdiv.f32	s13, s15, s14
24058f96:	eefc 6ae6 	vcvt.u32.f32	s13, s13
24058f9a:	edc0 6a01 	vstr	s13, [r0, #4]
24058f9e:	6c13      	ldr	r3, [r2, #64]	; 0x40
24058fa0:	f3c3 6306 	ubfx	r3, r3, #24, #7
24058fa4:	ee06 3a90 	vmov	s13, r3
24058fa8:	eef8 6ae6 	vcvt.f32.s32	s13, s13
24058fac:	ee76 6a86 	vadd.f32	s13, s13, s12
24058fb0:	ee87 7aa6 	vdiv.f32	s14, s15, s13
24058fb4:	eefc 7ac7 	vcvt.u32.f32	s15, s14
24058fb8:	ee17 3a90 	vmov	r3, s15
24058fbc:	6083      	str	r3, [r0, #8]
24058fbe:	bd70      	pop	{r4, r5, r6, pc}
24058fc0:	6c0b      	ldr	r3, [r1, #64]	; 0x40
24058fc2:	eddf 5a1a 	vldr	s11, [pc, #104]	; 2405902c <HAL_RCCEx_GetPLL3ClockFreq+0x148>
24058fc6:	f3c3 0308 	ubfx	r3, r3, #0, #9
24058fca:	ee07 3a90 	vmov	s15, r3
24058fce:	eef8 7ae7 	vcvt.f32.s32	s15, s15
24058fd2:	ee77 7aa6 	vadd.f32	s15, s15, s13
24058fd6:	ee77 7a86 	vadd.f32	s15, s15, s12
24058fda:	eec5 6a87 	vdiv.f32	s13, s11, s14
24058fde:	ee67 7aa6 	vmul.f32	s15, s15, s13
24058fe2:	e7bd      	b.n	24058f60 <HAL_RCCEx_GetPLL3ClockFreq+0x7c>
24058fe4:	6c0b      	ldr	r3, [r1, #64]	; 0x40
24058fe6:	eddf 5a12 	vldr	s11, [pc, #72]	; 24059030 <HAL_RCCEx_GetPLL3ClockFreq+0x14c>
24058fea:	f3c3 0308 	ubfx	r3, r3, #0, #9
24058fee:	ee07 3a90 	vmov	s15, r3
24058ff2:	eef8 7ae7 	vcvt.f32.s32	s15, s15
24058ff6:	ee77 7aa6 	vadd.f32	s15, s15, s13
24058ffa:	ee77 7a86 	vadd.f32	s15, s15, s12
24058ffe:	e7ec      	b.n	24058fda <HAL_RCCEx_GetPLL3ClockFreq+0xf6>
24059000:	6c0b      	ldr	r3, [r1, #64]	; 0x40
24059002:	eddf 5a0c 	vldr	s11, [pc, #48]	; 24059034 <HAL_RCCEx_GetPLL3ClockFreq+0x150>
24059006:	f3c3 0308 	ubfx	r3, r3, #0, #9
2405900a:	ee07 3a90 	vmov	s15, r3
2405900e:	eef8 7ae7 	vcvt.f32.s32	s15, s15
24059012:	ee77 7aa6 	vadd.f32	s15, s15, s13
24059016:	ee77 7a86 	vadd.f32	s15, s15, s12
2405901a:	e7de      	b.n	24058fda <HAL_RCCEx_GetPLL3ClockFreq+0xf6>
2405901c:	e9c0 3300 	strd	r3, r3, [r0]
24059020:	e7cc      	b.n	24058fbc <HAL_RCCEx_GetPLL3ClockFreq+0xd8>
24059022:	bf00      	nop
24059024:	58024400 	.word	0x58024400
24059028:	03d09000 	.word	0x03d09000
2405902c:	4c742400 	.word	0x4c742400
24059030:	4bb71b00 	.word	0x4bb71b00
24059034:	4a742400 	.word	0x4a742400

24059038 <HAL_RCCEx_GetPLL1ClockFreq>:
24059038:	494f      	ldr	r1, [pc, #316]	; (24059178 <HAL_RCCEx_GetPLL1ClockFreq+0x140>)
2405903a:	b570      	push	{r4, r5, r6, lr}
2405903c:	6a8c      	ldr	r4, [r1, #40]	; 0x28
2405903e:	6a8e      	ldr	r6, [r1, #40]	; 0x28
24059040:	6acd      	ldr	r5, [r1, #44]	; 0x2c
24059042:	f416 7f7c 	tst.w	r6, #1008	; 0x3f0
24059046:	f3c6 1305 	ubfx	r3, r6, #4, #6
2405904a:	6b4a      	ldr	r2, [r1, #52]	; 0x34
2405904c:	f000 8090 	beq.w	24059170 <HAL_RCCEx_GetPLL1ClockFreq+0x138>
24059050:	ee07 3a90 	vmov	s15, r3
24059054:	f3c2 03cc 	ubfx	r3, r2, #3, #13
24059058:	f005 0201 	and.w	r2, r5, #1
2405905c:	f004 0403 	and.w	r4, r4, #3
24059060:	eeb8 7ae7 	vcvt.f32.s32	s14, s15
24059064:	4353      	muls	r3, r2
24059066:	2c01      	cmp	r4, #1
24059068:	eeb7 6a00 	vmov.f32	s12, #112	; 0x3f800000  1.0
2405906c:	ee06 3a90 	vmov	s13, r3
24059070:	eefa 6ae9 	vcvt.f32.s32	s13, s13, #13
24059074:	d04e      	beq.n	24059114 <HAL_RCCEx_GetPLL1ClockFreq+0xdc>
24059076:	2c02      	cmp	r4, #2
24059078:	d05e      	beq.n	24059138 <HAL_RCCEx_GetPLL1ClockFreq+0x100>
2405907a:	2c00      	cmp	r4, #0
2405907c:	d16a      	bne.n	24059154 <HAL_RCCEx_GetPLL1ClockFreq+0x11c>
2405907e:	680b      	ldr	r3, [r1, #0]
24059080:	069b      	lsls	r3, r3, #26
24059082:	d567      	bpl.n	24059154 <HAL_RCCEx_GetPLL1ClockFreq+0x11c>
24059084:	680a      	ldr	r2, [r1, #0]
24059086:	6b0b      	ldr	r3, [r1, #48]	; 0x30
24059088:	f3c2 01c1 	ubfx	r1, r2, #3, #2
2405908c:	4a3b      	ldr	r2, [pc, #236]	; (2405917c <HAL_RCCEx_GetPLL1ClockFreq+0x144>)
2405908e:	f3c3 0308 	ubfx	r3, r3, #0, #9
24059092:	40ca      	lsrs	r2, r1
24059094:	ee07 2a90 	vmov	s15, r2
24059098:	eef8 5ae7 	vcvt.f32.s32	s11, s15
2405909c:	eec5 7a87 	vdiv.f32	s15, s11, s14
240590a0:	ee07 3a10 	vmov	s14, r3
240590a4:	eeb8 7ac7 	vcvt.f32.s32	s14, s14
240590a8:	ee37 7a26 	vadd.f32	s14, s14, s13
240590ac:	ee37 7a06 	vadd.f32	s14, s14, s12
240590b0:	ee67 7a87 	vmul.f32	s15, s15, s14
240590b4:	4a30      	ldr	r2, [pc, #192]	; (24059178 <HAL_RCCEx_GetPLL1ClockFreq+0x140>)
240590b6:	6b13      	ldr	r3, [r2, #48]	; 0x30
240590b8:	f3c3 2346 	ubfx	r3, r3, #9, #7
240590bc:	ee07 3a10 	vmov	s14, r3
240590c0:	eeb8 7ac7 	vcvt.f32.s32	s14, s14
240590c4:	ee37 7a06 	vadd.f32	s14, s14, s12
240590c8:	eec7 6a87 	vdiv.f32	s13, s15, s14
240590cc:	eefc 6ae6 	vcvt.u32.f32	s13, s13
240590d0:	edc0 6a00 	vstr	s13, [r0]
240590d4:	6b13      	ldr	r3, [r2, #48]	; 0x30
240590d6:	f3c3 4306 	ubfx	r3, r3, #16, #7
240590da:	ee07 3a10 	vmov	s14, r3
240590de:	eeb8 7ac7 	vcvt.f32.s32	s14, s14
240590e2:	ee37 7a06 	vadd.f32	s14, s14, s12
240590e6:	eec7 6a87 	vdiv.f32	s13, s15, s14
240590ea:	eefc 6ae6 	vcvt.u32.f32	s13, s13
240590ee:	edc0 6a01 	vstr	s13, [r0, #4]
240590f2:	6b13      	ldr	r3, [r2, #48]	; 0x30
240590f4:	f3c3 6306 	ubfx	r3, r3, #24, #7
240590f8:	ee06 3a90 	vmov	s13, r3
240590fc:	eef8 6ae6 	vcvt.f32.s32	s13, s13
24059100:	ee76 6a86 	vadd.f32	s13, s13, s12
24059104:	ee87 7aa6 	vdiv.f32	s14, s15, s13
24059108:	eefc 7ac7 	vcvt.u32.f32	s15, s14
2405910c:	ee17 3a90 	vmov	r3, s15
24059110:	6083      	str	r3, [r0, #8]
24059112:	bd70      	pop	{r4, r5, r6, pc}
24059114:	6b0b      	ldr	r3, [r1, #48]	; 0x30
24059116:	eddf 5a1a 	vldr	s11, [pc, #104]	; 24059180 <HAL_RCCEx_GetPLL1ClockFreq+0x148>
2405911a:	f3c3 0308 	ubfx	r3, r3, #0, #9
2405911e:	ee07 3a90 	vmov	s15, r3
24059122:	eef8 7ae7 	vcvt.f32.s32	s15, s15
24059126:	ee77 7aa6 	vadd.f32	s15, s15, s13
2405912a:	ee77 7a86 	vadd.f32	s15, s15, s12
2405912e:	eec5 6a87 	vdiv.f32	s13, s11, s14
24059132:	ee67 7aa6 	vmul.f32	s15, s15, s13
24059136:	e7bd      	b.n	240590b4 <HAL_RCCEx_GetPLL1ClockFreq+0x7c>
24059138:	6b0b      	ldr	r3, [r1, #48]	; 0x30
2405913a:	eddf 5a12 	vldr	s11, [pc, #72]	; 24059184 <HAL_RCCEx_GetPLL1ClockFreq+0x14c>
2405913e:	f3c3 0308 	ubfx	r3, r3, #0, #9
24059142:	ee07 3a90 	vmov	s15, r3
24059146:	eef8 7ae7 	vcvt.f32.s32	s15, s15
2405914a:	ee77 7aa6 	vadd.f32	s15, s15, s13
2405914e:	ee77 7a86 	vadd.f32	s15, s15, s12
24059152:	e7ec      	b.n	2405912e <HAL_RCCEx_GetPLL1ClockFreq+0xf6>
24059154:	6b0b      	ldr	r3, [r1, #48]	; 0x30
24059156:	eddf 5a0c 	vldr	s11, [pc, #48]	; 24059188 <HAL_RCCEx_GetPLL1ClockFreq+0x150>
2405915a:	f3c3 0308 	ubfx	r3, r3, #0, #9
2405915e:	ee07 3a90 	vmov	s15, r3
24059162:	eef8 7ae7 	vcvt.f32.s32	s15, s15
24059166:	ee77 7aa6 	vadd.f32	s15, s15, s13
2405916a:	ee77 7a86 	vadd.f32	s15, s15, s12
2405916e:	e7de      	b.n	2405912e <HAL_RCCEx_GetPLL1ClockFreq+0xf6>
24059170:	e9c0 3300 	strd	r3, r3, [r0]
24059174:	e7cc      	b.n	24059110 <HAL_RCCEx_GetPLL1ClockFreq+0xd8>
24059176:	bf00      	nop
24059178:	58024400 	.word	0x58024400
2405917c:	03d09000 	.word	0x03d09000
24059180:	4a742400 	.word	0x4a742400
24059184:	4bb71b00 	.word	0x4bb71b00
24059188:	4c742400 	.word	0x4c742400

2405918c <HAL_RCCEx_GetPeriphCLKFreq>:
2405918c:	b51f      	push	{r0, r1, r2, r3, r4, lr}
2405918e:	f5a0 7380 	sub.w	r3, r0, #256	; 0x100
24059192:	430b      	orrs	r3, r1
24059194:	d114      	bne.n	240591c0 <HAL_RCCEx_GetPeriphCLKFreq+0x34>
24059196:	4b9d      	ldr	r3, [pc, #628]	; (2405940c <HAL_RCCEx_GetPeriphCLKFreq+0x280>)
24059198:	6d1a      	ldr	r2, [r3, #80]	; 0x50
2405919a:	f002 0207 	and.w	r2, r2, #7
2405919e:	2a04      	cmp	r2, #4
240591a0:	d82f      	bhi.n	24059202 <HAL_RCCEx_GetPeriphCLKFreq+0x76>
240591a2:	e8df f012 	tbh	[pc, r2, lsl #1]
240591a6:	00ed      	.short	0x00ed
240591a8:	0005001d 	.word	0x0005001d
240591ac:	00490153 	.word	0x00490153
240591b0:	6818      	ldr	r0, [r3, #0]
240591b2:	f010 5000 	ands.w	r0, r0, #536870912	; 0x20000000
240591b6:	d01b      	beq.n	240591f0 <HAL_RCCEx_GetPeriphCLKFreq+0x64>
240591b8:	a801      	add	r0, sp, #4
240591ba:	f7ff fe93 	bl	24058ee4 <HAL_RCCEx_GetPLL3ClockFreq>
240591be:	e016      	b.n	240591ee <HAL_RCCEx_GetPeriphCLKFreq+0x62>
240591c0:	f5a0 7300 	sub.w	r3, r0, #512	; 0x200
240591c4:	430b      	orrs	r3, r1
240591c6:	d11e      	bne.n	24059206 <HAL_RCCEx_GetPeriphCLKFreq+0x7a>
240591c8:	4b90      	ldr	r3, [pc, #576]	; (2405940c <HAL_RCCEx_GetPeriphCLKFreq+0x280>)
240591ca:	6d1a      	ldr	r2, [r3, #80]	; 0x50
240591cc:	f402 72e0 	and.w	r2, r2, #448	; 0x1c0
240591d0:	2a80      	cmp	r2, #128	; 0x80
240591d2:	d0ed      	beq.n	240591b0 <HAL_RCCEx_GetPeriphCLKFreq+0x24>
240591d4:	d80f      	bhi.n	240591f6 <HAL_RCCEx_GetPeriphCLKFreq+0x6a>
240591d6:	2a00      	cmp	r2, #0
240591d8:	f000 80d2 	beq.w	24059380 <HAL_RCCEx_GetPeriphCLKFreq+0x1f4>
240591dc:	2a40      	cmp	r2, #64	; 0x40
240591de:	d110      	bne.n	24059202 <HAL_RCCEx_GetPeriphCLKFreq+0x76>
240591e0:	6818      	ldr	r0, [r3, #0]
240591e2:	f010 6000 	ands.w	r0, r0, #134217728	; 0x8000000
240591e6:	d003      	beq.n	240591f0 <HAL_RCCEx_GetPeriphCLKFreq+0x64>
240591e8:	a801      	add	r0, sp, #4
240591ea:	f7ff fdd1 	bl	24058d90 <HAL_RCCEx_GetPLL2ClockFreq>
240591ee:	9801      	ldr	r0, [sp, #4]
240591f0:	b005      	add	sp, #20
240591f2:	f85d fb04 	ldr.w	pc, [sp], #4
240591f6:	2ac0      	cmp	r2, #192	; 0xc0
240591f8:	f000 8128 	beq.w	2405944c <HAL_RCCEx_GetPeriphCLKFreq+0x2c0>
240591fc:	f5b2 7f80 	cmp.w	r2, #256	; 0x100
24059200:	d01a      	beq.n	24059238 <HAL_RCCEx_GetPeriphCLKFreq+0xac>
24059202:	2000      	movs	r0, #0
24059204:	e7f4      	b.n	240591f0 <HAL_RCCEx_GetPeriphCLKFreq+0x64>
24059206:	f5a0 6380 	sub.w	r3, r0, #1024	; 0x400
2405920a:	430b      	orrs	r3, r1
2405920c:	d133      	bne.n	24059276 <HAL_RCCEx_GetPeriphCLKFreq+0xea>
2405920e:	4b7f      	ldr	r3, [pc, #508]	; (2405940c <HAL_RCCEx_GetPeriphCLKFreq+0x280>)
24059210:	6d1a      	ldr	r2, [r3, #80]	; 0x50
24059212:	f402 6260 	and.w	r2, r2, #3584	; 0xe00
24059216:	f5b2 6f80 	cmp.w	r2, #1024	; 0x400
2405921a:	d0c9      	beq.n	240591b0 <HAL_RCCEx_GetPeriphCLKFreq+0x24>
2405921c:	d805      	bhi.n	2405922a <HAL_RCCEx_GetPeriphCLKFreq+0x9e>
2405921e:	2a00      	cmp	r2, #0
24059220:	f000 80ae 	beq.w	24059380 <HAL_RCCEx_GetPeriphCLKFreq+0x1f4>
24059224:	f5b2 7f00 	cmp.w	r2, #512	; 0x200
24059228:	e7d9      	b.n	240591de <HAL_RCCEx_GetPeriphCLKFreq+0x52>
2405922a:	f5b2 6fc0 	cmp.w	r2, #1536	; 0x600
2405922e:	f000 810d 	beq.w	2405944c <HAL_RCCEx_GetPeriphCLKFreq+0x2c0>
24059232:	f5b2 6f00 	cmp.w	r2, #2048	; 0x800
24059236:	e7e3      	b.n	24059200 <HAL_RCCEx_GetPeriphCLKFreq+0x74>
24059238:	6cda      	ldr	r2, [r3, #76]	; 0x4c
2405923a:	6819      	ldr	r1, [r3, #0]
2405923c:	f002 5240 	and.w	r2, r2, #805306368	; 0x30000000
24059240:	0748      	lsls	r0, r1, #29
24059242:	d506      	bpl.n	24059252 <HAL_RCCEx_GetPeriphCLKFreq+0xc6>
24059244:	b92a      	cbnz	r2, 24059252 <HAL_RCCEx_GetPeriphCLKFreq+0xc6>
24059246:	681b      	ldr	r3, [r3, #0]
24059248:	f3c3 03c1 	ubfx	r3, r3, #3, #2
2405924c:	4870      	ldr	r0, [pc, #448]	; (24059410 <HAL_RCCEx_GetPeriphCLKFreq+0x284>)
2405924e:	40d8      	lsrs	r0, r3
24059250:	e7ce      	b.n	240591f0 <HAL_RCCEx_GetPeriphCLKFreq+0x64>
24059252:	4b6e      	ldr	r3, [pc, #440]	; (2405940c <HAL_RCCEx_GetPeriphCLKFreq+0x280>)
24059254:	6819      	ldr	r1, [r3, #0]
24059256:	05c9      	lsls	r1, r1, #23
24059258:	d503      	bpl.n	24059262 <HAL_RCCEx_GetPeriphCLKFreq+0xd6>
2405925a:	f1b2 5f80 	cmp.w	r2, #268435456	; 0x10000000
2405925e:	f000 80f3 	beq.w	24059448 <HAL_RCCEx_GetPeriphCLKFreq+0x2bc>
24059262:	6818      	ldr	r0, [r3, #0]
24059264:	f410 3000 	ands.w	r0, r0, #131072	; 0x20000
24059268:	d0c2      	beq.n	240591f0 <HAL_RCCEx_GetPeriphCLKFreq+0x64>
2405926a:	f1b2 5f00 	cmp.w	r2, #536870912	; 0x20000000
2405926e:	4869      	ldr	r0, [pc, #420]	; (24059414 <HAL_RCCEx_GetPeriphCLKFreq+0x288>)
24059270:	bf18      	it	ne
24059272:	2000      	movne	r0, #0
24059274:	e7bc      	b.n	240591f0 <HAL_RCCEx_GetPeriphCLKFreq+0x64>
24059276:	f5a0 5380 	sub.w	r3, r0, #4096	; 0x1000
2405927a:	430b      	orrs	r3, r1
2405927c:	d124      	bne.n	240592c8 <HAL_RCCEx_GetPeriphCLKFreq+0x13c>
2405927e:	4b63      	ldr	r3, [pc, #396]	; (2405940c <HAL_RCCEx_GetPeriphCLKFreq+0x280>)
24059280:	6d1a      	ldr	r2, [r3, #80]	; 0x50
24059282:	f402 42e0 	and.w	r2, r2, #28672	; 0x7000
24059286:	f5b2 5f00 	cmp.w	r2, #8192	; 0x2000
2405928a:	d091      	beq.n	240591b0 <HAL_RCCEx_GetPeriphCLKFreq+0x24>
2405928c:	d804      	bhi.n	24059298 <HAL_RCCEx_GetPeriphCLKFreq+0x10c>
2405928e:	2a00      	cmp	r2, #0
24059290:	d076      	beq.n	24059380 <HAL_RCCEx_GetPeriphCLKFreq+0x1f4>
24059292:	f5b2 5f80 	cmp.w	r2, #4096	; 0x1000
24059296:	e7a2      	b.n	240591de <HAL_RCCEx_GetPeriphCLKFreq+0x52>
24059298:	f5b2 5f40 	cmp.w	r2, #12288	; 0x3000
2405929c:	f000 80d6 	beq.w	2405944c <HAL_RCCEx_GetPeriphCLKFreq+0x2c0>
240592a0:	f5b2 4f80 	cmp.w	r2, #16384	; 0x4000
240592a4:	d1ad      	bne.n	24059202 <HAL_RCCEx_GetPeriphCLKFreq+0x76>
240592a6:	6cda      	ldr	r2, [r3, #76]	; 0x4c
240592a8:	6819      	ldr	r1, [r3, #0]
240592aa:	f002 5240 	and.w	r2, r2, #805306368	; 0x30000000
240592ae:	681b      	ldr	r3, [r3, #0]
240592b0:	0748      	lsls	r0, r1, #29
240592b2:	d501      	bpl.n	240592b8 <HAL_RCCEx_GetPeriphCLKFreq+0x12c>
240592b4:	2a00      	cmp	r2, #0
240592b6:	d0c7      	beq.n	24059248 <HAL_RCCEx_GetPeriphCLKFreq+0xbc>
240592b8:	05d9      	lsls	r1, r3, #23
240592ba:	d503      	bpl.n	240592c4 <HAL_RCCEx_GetPeriphCLKFreq+0x138>
240592bc:	f1b2 5f80 	cmp.w	r2, #268435456	; 0x10000000
240592c0:	f000 80c2 	beq.w	24059448 <HAL_RCCEx_GetPeriphCLKFreq+0x2bc>
240592c4:	4b51      	ldr	r3, [pc, #324]	; (2405940c <HAL_RCCEx_GetPeriphCLKFreq+0x280>)
240592c6:	e7cc      	b.n	24059262 <HAL_RCCEx_GetPeriphCLKFreq+0xd6>
240592c8:	f5a0 5300 	sub.w	r3, r0, #8192	; 0x2000
240592cc:	430b      	orrs	r3, r1
240592ce:	d133      	bne.n	24059338 <HAL_RCCEx_GetPeriphCLKFreq+0x1ac>
240592d0:	4a4e      	ldr	r2, [pc, #312]	; (2405940c <HAL_RCCEx_GetPeriphCLKFreq+0x280>)
240592d2:	6d13      	ldr	r3, [r2, #80]	; 0x50
240592d4:	f403 23e0 	and.w	r3, r3, #458752	; 0x70000
240592d8:	f5b3 3f40 	cmp.w	r3, #196608	; 0x30000
240592dc:	f000 808e 	beq.w	240593fc <HAL_RCCEx_GetPeriphCLKFreq+0x270>
240592e0:	d80c      	bhi.n	240592fc <HAL_RCCEx_GetPeriphCLKFreq+0x170>
240592e2:	f5b3 3f80 	cmp.w	r3, #65536	; 0x10000
240592e6:	d015      	beq.n	24059314 <HAL_RCCEx_GetPeriphCLKFreq+0x188>
240592e8:	f5b3 3f00 	cmp.w	r3, #131072	; 0x20000
240592ec:	d01b      	beq.n	24059326 <HAL_RCCEx_GetPeriphCLKFreq+0x19a>
240592ee:	2b00      	cmp	r3, #0
240592f0:	d187      	bne.n	24059202 <HAL_RCCEx_GetPeriphCLKFreq+0x76>
240592f2:	b005      	add	sp, #20
240592f4:	f85d eb04 	ldr.w	lr, [sp], #4
240592f8:	f7fe bf58 	b.w	240581ac <HAL_RCC_GetPCLK1Freq>
240592fc:	f5b3 2f80 	cmp.w	r3, #262144	; 0x40000
24059300:	d075      	beq.n	240593ee <HAL_RCCEx_GetPeriphCLKFreq+0x262>
24059302:	f5b3 2fa0 	cmp.w	r3, #327680	; 0x50000
24059306:	f47f af7c 	bne.w	24059202 <HAL_RCCEx_GetPeriphCLKFreq+0x76>
2405930a:	6810      	ldr	r0, [r2, #0]
2405930c:	4b41      	ldr	r3, [pc, #260]	; (24059414 <HAL_RCCEx_GetPeriphCLKFreq+0x288>)
2405930e:	f410 3000 	ands.w	r0, r0, #131072	; 0x20000
24059312:	e070      	b.n	240593f6 <HAL_RCCEx_GetPeriphCLKFreq+0x26a>
24059314:	6810      	ldr	r0, [r2, #0]
24059316:	f010 6000 	ands.w	r0, r0, #134217728	; 0x8000000
2405931a:	f43f af69 	beq.w	240591f0 <HAL_RCCEx_GetPeriphCLKFreq+0x64>
2405931e:	a801      	add	r0, sp, #4
24059320:	f7ff fd36 	bl	24058d90 <HAL_RCCEx_GetPLL2ClockFreq>
24059324:	e034      	b.n	24059390 <HAL_RCCEx_GetPeriphCLKFreq+0x204>
24059326:	6810      	ldr	r0, [r2, #0]
24059328:	f010 5000 	ands.w	r0, r0, #536870912	; 0x20000000
2405932c:	f43f af60 	beq.w	240591f0 <HAL_RCCEx_GetPeriphCLKFreq+0x64>
24059330:	a801      	add	r0, sp, #4
24059332:	f7ff fdd7 	bl	24058ee4 <HAL_RCCEx_GetPLL3ClockFreq>
24059336:	e02b      	b.n	24059390 <HAL_RCCEx_GetPeriphCLKFreq+0x204>
24059338:	f5a0 2300 	sub.w	r3, r0, #524288	; 0x80000
2405933c:	430b      	orrs	r3, r1
2405933e:	d117      	bne.n	24059370 <HAL_RCCEx_GetPeriphCLKFreq+0x1e4>
24059340:	4b32      	ldr	r3, [pc, #200]	; (2405940c <HAL_RCCEx_GetPeriphCLKFreq+0x280>)
24059342:	6d9a      	ldr	r2, [r3, #88]	; 0x58
24059344:	f402 3240 	and.w	r2, r2, #196608	; 0x30000
24059348:	f5b2 3f80 	cmp.w	r2, #65536	; 0x10000
2405934c:	d006      	beq.n	2405935c <HAL_RCCEx_GetPeriphCLKFreq+0x1d0>
2405934e:	f5b2 3f00 	cmp.w	r2, #131072	; 0x20000
24059352:	d0a8      	beq.n	240592a6 <HAL_RCCEx_GetPeriphCLKFreq+0x11a>
24059354:	2a00      	cmp	r2, #0
24059356:	f47f af54 	bne.w	24059202 <HAL_RCCEx_GetPeriphCLKFreq+0x76>
2405935a:	e741      	b.n	240591e0 <HAL_RCCEx_GetPeriphCLKFreq+0x54>
2405935c:	6818      	ldr	r0, [r3, #0]
2405935e:	f010 5000 	ands.w	r0, r0, #536870912	; 0x20000000
24059362:	f43f af45 	beq.w	240591f0 <HAL_RCCEx_GetPeriphCLKFreq+0x64>
24059366:	a801      	add	r0, sp, #4
24059368:	f7ff fdbc 	bl	24058ee4 <HAL_RCCEx_GetPLL3ClockFreq>
2405936c:	9803      	ldr	r0, [sp, #12]
2405936e:	e73f      	b.n	240591f0 <HAL_RCCEx_GetPeriphCLKFreq+0x64>
24059370:	f5a0 3380 	sub.w	r3, r0, #65536	; 0x10000
24059374:	430b      	orrs	r3, r1
24059376:	d116      	bne.n	240593a6 <HAL_RCCEx_GetPeriphCLKFreq+0x21a>
24059378:	4b24      	ldr	r3, [pc, #144]	; (2405940c <HAL_RCCEx_GetPeriphCLKFreq+0x280>)
2405937a:	6cda      	ldr	r2, [r3, #76]	; 0x4c
2405937c:	03d2      	lsls	r2, r2, #15
2405937e:	d409      	bmi.n	24059394 <HAL_RCCEx_GetPeriphCLKFreq+0x208>
24059380:	6818      	ldr	r0, [r3, #0]
24059382:	f010 7000 	ands.w	r0, r0, #33554432	; 0x2000000
24059386:	f43f af33 	beq.w	240591f0 <HAL_RCCEx_GetPeriphCLKFreq+0x64>
2405938a:	a801      	add	r0, sp, #4
2405938c:	f7ff fe54 	bl	24059038 <HAL_RCCEx_GetPLL1ClockFreq>
24059390:	9802      	ldr	r0, [sp, #8]
24059392:	e72d      	b.n	240591f0 <HAL_RCCEx_GetPeriphCLKFreq+0x64>
24059394:	6818      	ldr	r0, [r3, #0]
24059396:	f010 6000 	ands.w	r0, r0, #134217728	; 0x8000000
2405939a:	f43f af29 	beq.w	240591f0 <HAL_RCCEx_GetPeriphCLKFreq+0x64>
2405939e:	a801      	add	r0, sp, #4
240593a0:	f7ff fcf6 	bl	24058d90 <HAL_RCCEx_GetPLL2ClockFreq>
240593a4:	e7e2      	b.n	2405936c <HAL_RCCEx_GetPeriphCLKFreq+0x1e0>
240593a6:	f5a0 4380 	sub.w	r3, r0, #16384	; 0x4000
240593aa:	430b      	orrs	r3, r1
240593ac:	d136      	bne.n	2405941c <HAL_RCCEx_GetPeriphCLKFreq+0x290>
240593ae:	4a17      	ldr	r2, [pc, #92]	; (2405940c <HAL_RCCEx_GetPeriphCLKFreq+0x280>)
240593b0:	6d93      	ldr	r3, [r2, #88]	; 0x58
240593b2:	f003 43e0 	and.w	r3, r3, #1879048192	; 0x70000000
240593b6:	f1b3 5f40 	cmp.w	r3, #805306368	; 0x30000000
240593ba:	d01f      	beq.n	240593fc <HAL_RCCEx_GetPeriphCLKFreq+0x270>
240593bc:	d80d      	bhi.n	240593da <HAL_RCCEx_GetPeriphCLKFreq+0x24e>
240593be:	f1b3 5f80 	cmp.w	r3, #268435456	; 0x10000000
240593c2:	d0a7      	beq.n	24059314 <HAL_RCCEx_GetPeriphCLKFreq+0x188>
240593c4:	f1b3 5f00 	cmp.w	r3, #536870912	; 0x20000000
240593c8:	d0ad      	beq.n	24059326 <HAL_RCCEx_GetPeriphCLKFreq+0x19a>
240593ca:	2b00      	cmp	r3, #0
240593cc:	f47f af19 	bne.w	24059202 <HAL_RCCEx_GetPeriphCLKFreq+0x76>
240593d0:	b005      	add	sp, #20
240593d2:	f85d eb04 	ldr.w	lr, [sp], #4
240593d6:	f7ff bcc9 	b.w	24058d6c <HAL_RCCEx_GetD3PCLK1Freq>
240593da:	f1b3 4fa0 	cmp.w	r3, #1342177280	; 0x50000000
240593de:	d094      	beq.n	2405930a <HAL_RCCEx_GetPeriphCLKFreq+0x17e>
240593e0:	f1b3 4fc0 	cmp.w	r3, #1610612736	; 0x60000000
240593e4:	d032      	beq.n	2405944c <HAL_RCCEx_GetPeriphCLKFreq+0x2c0>
240593e6:	f1b3 4f80 	cmp.w	r3, #1073741824	; 0x40000000
240593ea:	f47f af0a 	bne.w	24059202 <HAL_RCCEx_GetPeriphCLKFreq+0x76>
240593ee:	6810      	ldr	r0, [r2, #0]
240593f0:	4b09      	ldr	r3, [pc, #36]	; (24059418 <HAL_RCCEx_GetPeriphCLKFreq+0x28c>)
240593f2:	f410 7080 	ands.w	r0, r0, #256	; 0x100
240593f6:	bf18      	it	ne
240593f8:	4618      	movne	r0, r3
240593fa:	e6f9      	b.n	240591f0 <HAL_RCCEx_GetPeriphCLKFreq+0x64>
240593fc:	6810      	ldr	r0, [r2, #0]
240593fe:	f010 0004 	ands.w	r0, r0, #4
24059402:	f43f aef5 	beq.w	240591f0 <HAL_RCCEx_GetPeriphCLKFreq+0x64>
24059406:	6813      	ldr	r3, [r2, #0]
24059408:	e71e      	b.n	24059248 <HAL_RCCEx_GetPeriphCLKFreq+0xbc>
2405940a:	bf00      	nop
2405940c:	58024400 	.word	0x58024400
24059410:	03d09000 	.word	0x03d09000
24059414:	016e3600 	.word	0x016e3600
24059418:	003d0900 	.word	0x003d0900
2405941c:	f5a0 4000 	sub.w	r0, r0, #32768	; 0x8000
24059420:	4301      	orrs	r1, r0
24059422:	f47f aeee 	bne.w	24059202 <HAL_RCCEx_GetPeriphCLKFreq+0x76>
24059426:	4a0a      	ldr	r2, [pc, #40]	; (24059450 <HAL_RCCEx_GetPeriphCLKFreq+0x2c4>)
24059428:	6d13      	ldr	r3, [r2, #80]	; 0x50
2405942a:	f003 5340 	and.w	r3, r3, #805306368	; 0x30000000
2405942e:	f1b3 5f80 	cmp.w	r3, #268435456	; 0x10000000
24059432:	d007      	beq.n	24059444 <HAL_RCCEx_GetPeriphCLKFreq+0x2b8>
24059434:	f1b3 5f00 	cmp.w	r3, #536870912	; 0x20000000
24059438:	f43f af6c 	beq.w	24059314 <HAL_RCCEx_GetPeriphCLKFreq+0x188>
2405943c:	2b00      	cmp	r3, #0
2405943e:	f47f aee0 	bne.w	24059202 <HAL_RCCEx_GetPeriphCLKFreq+0x76>
24059442:	e762      	b.n	2405930a <HAL_RCCEx_GetPeriphCLKFreq+0x17e>
24059444:	6810      	ldr	r0, [r2, #0]
24059446:	e79c      	b.n	24059382 <HAL_RCCEx_GetPeriphCLKFreq+0x1f6>
24059448:	4802      	ldr	r0, [pc, #8]	; (24059454 <HAL_RCCEx_GetPeriphCLKFreq+0x2c8>)
2405944a:	e6d1      	b.n	240591f0 <HAL_RCCEx_GetPeriphCLKFreq+0x64>
2405944c:	4802      	ldr	r0, [pc, #8]	; (24059458 <HAL_RCCEx_GetPeriphCLKFreq+0x2cc>)
2405944e:	e6cf      	b.n	240591f0 <HAL_RCCEx_GetPeriphCLKFreq+0x64>
24059450:	58024400 	.word	0x58024400
24059454:	003d0900 	.word	0x003d0900
24059458:	00bb8000 	.word	0x00bb8000

2405945c <HAL_RTC_WaitForSynchro>:
2405945c:	b538      	push	{r3, r4, r5, lr}
2405945e:	4a0a      	ldr	r2, [pc, #40]	; (24059488 <HAL_RTC_WaitForSynchro+0x2c>)
24059460:	4604      	mov	r4, r0
24059462:	6803      	ldr	r3, [r0, #0]
24059464:	60da      	str	r2, [r3, #12]
24059466:	f7fa ff7d 	bl	24054364 <HAL_GetTick>
2405946a:	4605      	mov	r5, r0
2405946c:	6823      	ldr	r3, [r4, #0]
2405946e:	68db      	ldr	r3, [r3, #12]
24059470:	069b      	lsls	r3, r3, #26
24059472:	d501      	bpl.n	24059478 <HAL_RTC_WaitForSynchro+0x1c>
24059474:	2000      	movs	r0, #0
24059476:	bd38      	pop	{r3, r4, r5, pc}
24059478:	f7fa ff74 	bl	24054364 <HAL_GetTick>
2405947c:	1b40      	subs	r0, r0, r5
2405947e:	f5b0 7f7a 	cmp.w	r0, #1000	; 0x3e8
24059482:	d9f3      	bls.n	2405946c <HAL_RTC_WaitForSynchro+0x10>
24059484:	2003      	movs	r0, #3
24059486:	e7f6      	b.n	24059476 <HAL_RTC_WaitForSynchro+0x1a>
24059488:	0001005f 	.word	0x0001005f

2405948c <RTC_EnterInitMode>:
2405948c:	b5f8      	push	{r3, r4, r5, r6, r7, lr}
2405948e:	6803      	ldr	r3, [r0, #0]
24059490:	4605      	mov	r5, r0
24059492:	68dc      	ldr	r4, [r3, #12]
24059494:	f014 0440 	ands.w	r4, r4, #64	; 0x40
24059498:	d119      	bne.n	240594ce <RTC_EnterInitMode+0x42>
2405949a:	68da      	ldr	r2, [r3, #12]
2405949c:	2703      	movs	r7, #3
2405949e:	f042 0280 	orr.w	r2, r2, #128	; 0x80
240594a2:	60da      	str	r2, [r3, #12]
240594a4:	f7fa ff5e 	bl	24054364 <HAL_GetTick>
240594a8:	4606      	mov	r6, r0
240594aa:	682b      	ldr	r3, [r5, #0]
240594ac:	68db      	ldr	r3, [r3, #12]
240594ae:	065b      	lsls	r3, r3, #25
240594b0:	d401      	bmi.n	240594b6 <RTC_EnterInitMode+0x2a>
240594b2:	2c03      	cmp	r4, #3
240594b4:	d101      	bne.n	240594ba <RTC_EnterInitMode+0x2e>
240594b6:	4620      	mov	r0, r4
240594b8:	bdf8      	pop	{r3, r4, r5, r6, r7, pc}
240594ba:	f7fa ff53 	bl	24054364 <HAL_GetTick>
240594be:	1b80      	subs	r0, r0, r6
240594c0:	f5b0 7f7a 	cmp.w	r0, #1000	; 0x3e8
240594c4:	d9f1      	bls.n	240594aa <RTC_EnterInitMode+0x1e>
240594c6:	2403      	movs	r4, #3
240594c8:	f885 7025 	strb.w	r7, [r5, #37]	; 0x25
240594cc:	e7ed      	b.n	240594aa <RTC_EnterInitMode+0x1e>
240594ce:	2400      	movs	r4, #0
240594d0:	e7f1      	b.n	240594b6 <RTC_EnterInitMode+0x2a>
	...

240594d4 <RTC_ExitInitMode>:
240594d4:	b538      	push	{r3, r4, r5, lr}
240594d6:	4c0f      	ldr	r4, [pc, #60]	; (24059514 <RTC_ExitInitMode+0x40>)
240594d8:	4605      	mov	r5, r0
240594da:	68e3      	ldr	r3, [r4, #12]
240594dc:	f023 0380 	bic.w	r3, r3, #128	; 0x80
240594e0:	60e3      	str	r3, [r4, #12]
240594e2:	69a3      	ldr	r3, [r4, #24]
240594e4:	069b      	lsls	r3, r3, #26
240594e6:	d406      	bmi.n	240594f6 <RTC_ExitInitMode+0x22>
240594e8:	f7ff ffb8 	bl	2405945c <HAL_RTC_WaitForSynchro>
240594ec:	b110      	cbz	r0, 240594f4 <RTC_ExitInitMode+0x20>
240594ee:	2003      	movs	r0, #3
240594f0:	f885 0025 	strb.w	r0, [r5, #37]	; 0x25
240594f4:	bd38      	pop	{r3, r4, r5, pc}
240594f6:	69a3      	ldr	r3, [r4, #24]
240594f8:	f023 0320 	bic.w	r3, r3, #32
240594fc:	61a3      	str	r3, [r4, #24]
240594fe:	f7ff ffad 	bl	2405945c <HAL_RTC_WaitForSynchro>
24059502:	b110      	cbz	r0, 2405950a <RTC_ExitInitMode+0x36>
24059504:	2003      	movs	r0, #3
24059506:	f885 0025 	strb.w	r0, [r5, #37]	; 0x25
2405950a:	69a3      	ldr	r3, [r4, #24]
2405950c:	f043 0320 	orr.w	r3, r3, #32
24059510:	61a3      	str	r3, [r4, #24]
24059512:	e7ef      	b.n	240594f4 <RTC_ExitInitMode+0x20>
24059514:	58004000 	.word	0x58004000

24059518 <HAL_RTC_Init>:
24059518:	b538      	push	{r3, r4, r5, lr}
2405951a:	4604      	mov	r4, r0
2405951c:	2800      	cmp	r0, #0
2405951e:	d047      	beq.n	240595b0 <HAL_RTC_Init+0x98>
24059520:	f890 3025 	ldrb.w	r3, [r0, #37]	; 0x25
24059524:	f003 02ff 	and.w	r2, r3, #255	; 0xff
24059528:	b91b      	cbnz	r3, 24059532 <HAL_RTC_Init+0x1a>
2405952a:	f880 2024 	strb.w	r2, [r0, #36]	; 0x24
2405952e:	f7fa fc79 	bl	24053e24 <HAL_RTC_MspInit>
24059532:	2302      	movs	r3, #2
24059534:	f884 3025 	strb.w	r3, [r4, #37]	; 0x25
24059538:	6823      	ldr	r3, [r4, #0]
2405953a:	68da      	ldr	r2, [r3, #12]
2405953c:	06d2      	lsls	r2, r2, #27
2405953e:	d504      	bpl.n	2405954a <HAL_RTC_Init+0x32>
24059540:	2301      	movs	r3, #1
24059542:	2000      	movs	r0, #0
24059544:	f884 3025 	strb.w	r3, [r4, #37]	; 0x25
24059548:	bd38      	pop	{r3, r4, r5, pc}
2405954a:	22ca      	movs	r2, #202	; 0xca
2405954c:	4620      	mov	r0, r4
2405954e:	625a      	str	r2, [r3, #36]	; 0x24
24059550:	2253      	movs	r2, #83	; 0x53
24059552:	625a      	str	r2, [r3, #36]	; 0x24
24059554:	f7ff ff9a 	bl	2405948c <RTC_EnterInitMode>
24059558:	bb20      	cbnz	r0, 240595a4 <HAL_RTC_Init+0x8c>
2405955a:	6822      	ldr	r2, [r4, #0]
2405955c:	6920      	ldr	r0, [r4, #16]
2405955e:	6993      	ldr	r3, [r2, #24]
24059560:	f023 638e 	bic.w	r3, r3, #74448896	; 0x4700000
24059564:	f023 0340 	bic.w	r3, r3, #64	; 0x40
24059568:	6193      	str	r3, [r2, #24]
2405956a:	6863      	ldr	r3, [r4, #4]
2405956c:	6991      	ldr	r1, [r2, #24]
2405956e:	4303      	orrs	r3, r0
24059570:	69a0      	ldr	r0, [r4, #24]
24059572:	4303      	orrs	r3, r0
24059574:	4620      	mov	r0, r4
24059576:	430b      	orrs	r3, r1
24059578:	6193      	str	r3, [r2, #24]
2405957a:	e9d4 1302 	ldrd	r1, r3, [r4, #8]
2405957e:	ea43 4301 	orr.w	r3, r3, r1, lsl #16
24059582:	6113      	str	r3, [r2, #16]
24059584:	f7ff ffa6 	bl	240594d4 <RTC_ExitInitMode>
24059588:	b960      	cbnz	r0, 240595a4 <HAL_RTC_Init+0x8c>
2405958a:	6822      	ldr	r2, [r4, #0]
2405958c:	6993      	ldr	r3, [r2, #24]
2405958e:	f023 4360 	bic.w	r3, r3, #3758096384	; 0xe0000000
24059592:	6193      	str	r3, [r2, #24]
24059594:	6991      	ldr	r1, [r2, #24]
24059596:	e9d4 5307 	ldrd	r5, r3, [r4, #28]
2405959a:	432b      	orrs	r3, r5
2405959c:	6965      	ldr	r5, [r4, #20]
2405959e:	432b      	orrs	r3, r5
240595a0:	430b      	orrs	r3, r1
240595a2:	6193      	str	r3, [r2, #24]
240595a4:	6823      	ldr	r3, [r4, #0]
240595a6:	22ff      	movs	r2, #255	; 0xff
240595a8:	625a      	str	r2, [r3, #36]	; 0x24
240595aa:	2800      	cmp	r0, #0
240595ac:	d0c8      	beq.n	24059540 <HAL_RTC_Init+0x28>
240595ae:	e7cb      	b.n	24059548 <HAL_RTC_Init+0x30>
240595b0:	2001      	movs	r0, #1
240595b2:	e7c9      	b.n	24059548 <HAL_RTC_Init+0x30>

240595b4 <RTC_ByteToBcd2>:
240595b4:	2300      	movs	r3, #0
240595b6:	2809      	cmp	r0, #9
240595b8:	d803      	bhi.n	240595c2 <RTC_ByteToBcd2+0xe>
240595ba:	ea40 1003 	orr.w	r0, r0, r3, lsl #4
240595be:	b2c0      	uxtb	r0, r0
240595c0:	4770      	bx	lr
240595c2:	380a      	subs	r0, #10
240595c4:	3301      	adds	r3, #1
240595c6:	b2c0      	uxtb	r0, r0
240595c8:	e7f5      	b.n	240595b6 <RTC_ByteToBcd2+0x2>

240595ca <HAL_RTC_SetTime>:
240595ca:	e92d 41f0 	stmdb	sp!, {r4, r5, r6, r7, r8, lr}
240595ce:	f890 3024 	ldrb.w	r3, [r0, #36]	; 0x24
240595d2:	4605      	mov	r5, r0
240595d4:	460e      	mov	r6, r1
240595d6:	4690      	mov	r8, r2
240595d8:	2b01      	cmp	r3, #1
240595da:	f04f 0302 	mov.w	r3, #2
240595de:	d054      	beq.n	2405968a <HAL_RTC_SetTime+0xc0>
240595e0:	2201      	movs	r2, #1
240595e2:	f880 3025 	strb.w	r3, [r0, #37]	; 0x25
240595e6:	6803      	ldr	r3, [r0, #0]
240595e8:	f880 2024 	strb.w	r2, [r0, #36]	; 0x24
240595ec:	22ca      	movs	r2, #202	; 0xca
240595ee:	625a      	str	r2, [r3, #36]	; 0x24
240595f0:	2253      	movs	r2, #83	; 0x53
240595f2:	625a      	str	r2, [r3, #36]	; 0x24
240595f4:	f7ff ff4a 	bl	2405948c <RTC_EnterInitMode>
240595f8:	bb70      	cbnz	r0, 24059658 <HAL_RTC_SetTime+0x8e>
240595fa:	6829      	ldr	r1, [r5, #0]
240595fc:	7830      	ldrb	r0, [r6, #0]
240595fe:	7874      	ldrb	r4, [r6, #1]
24059600:	78b7      	ldrb	r7, [r6, #2]
24059602:	698b      	ldr	r3, [r1, #24]
24059604:	f1b8 0f00 	cmp.w	r8, #0
24059608:	d132      	bne.n	24059670 <HAL_RTC_SetTime+0xa6>
2405960a:	f013 0340 	ands.w	r3, r3, #64	; 0x40
2405960e:	bf08      	it	eq
24059610:	70f3      	strbeq	r3, [r6, #3]
24059612:	f7ff ffcf 	bl	240595b4 <RTC_ByteToBcd2>
24059616:	4680      	mov	r8, r0
24059618:	4620      	mov	r0, r4
2405961a:	f7ff ffcb 	bl	240595b4 <RTC_ByteToBcd2>
2405961e:	4602      	mov	r2, r0
24059620:	4638      	mov	r0, r7
24059622:	f7ff ffc7 	bl	240595b4 <RTC_ByteToBcd2>
24059626:	78f3      	ldrb	r3, [r6, #3]
24059628:	ea40 5383 	orr.w	r3, r0, r3, lsl #22
2405962c:	ea43 4308 	orr.w	r3, r3, r8, lsl #16
24059630:	ea43 2302 	orr.w	r3, r3, r2, lsl #8
24059634:	f003 337f 	and.w	r3, r3, #2139062143	; 0x7f7f7f7f
24059638:	f023 43fe 	bic.w	r3, r3, #2130706432	; 0x7f000000
2405963c:	600b      	str	r3, [r1, #0]
2405963e:	698b      	ldr	r3, [r1, #24]
24059640:	f423 2380 	bic.w	r3, r3, #262144	; 0x40000
24059644:	618b      	str	r3, [r1, #24]
24059646:	698a      	ldr	r2, [r1, #24]
24059648:	e9d6 3003 	ldrd	r3, r0, [r6, #12]
2405964c:	4303      	orrs	r3, r0
2405964e:	4628      	mov	r0, r5
24059650:	4313      	orrs	r3, r2
24059652:	618b      	str	r3, [r1, #24]
24059654:	f7ff ff3e 	bl	240594d4 <RTC_ExitInitMode>
24059658:	682b      	ldr	r3, [r5, #0]
2405965a:	22ff      	movs	r2, #255	; 0xff
2405965c:	625a      	str	r2, [r3, #36]	; 0x24
2405965e:	b910      	cbnz	r0, 24059666 <HAL_RTC_SetTime+0x9c>
24059660:	2301      	movs	r3, #1
24059662:	f885 3025 	strb.w	r3, [r5, #37]	; 0x25
24059666:	2300      	movs	r3, #0
24059668:	f885 3024 	strb.w	r3, [r5, #36]	; 0x24
2405966c:	e8bd 81f0 	ldmia.w	sp!, {r4, r5, r6, r7, r8, pc}
24059670:	f013 0340 	ands.w	r3, r3, #64	; 0x40
24059674:	ea4f 2404 	mov.w	r4, r4, lsl #8
24059678:	bf08      	it	eq
2405967a:	70f3      	strbeq	r3, [r6, #3]
2405967c:	ea44 4300 	orr.w	r3, r4, r0, lsl #16
24059680:	78f2      	ldrb	r2, [r6, #3]
24059682:	433b      	orrs	r3, r7
24059684:	ea43 5382 	orr.w	r3, r3, r2, lsl #22
24059688:	e7d4      	b.n	24059634 <HAL_RTC_SetTime+0x6a>
2405968a:	4618      	mov	r0, r3
2405968c:	e7ee      	b.n	2405966c <HAL_RTC_SetTime+0xa2>

2405968e <HAL_RTC_SetDate>:
2405968e:	b5f8      	push	{r3, r4, r5, r6, r7, lr}
24059690:	f890 3024 	ldrb.w	r3, [r0, #36]	; 0x24
24059694:	4605      	mov	r5, r0
24059696:	2b01      	cmp	r3, #1
24059698:	f04f 0302 	mov.w	r3, #2
2405969c:	d03d      	beq.n	2405971a <HAL_RTC_SetDate+0x8c>
2405969e:	2001      	movs	r0, #1
240596a0:	f885 3025 	strb.w	r3, [r5, #37]	; 0x25
240596a4:	f885 0024 	strb.w	r0, [r5, #36]	; 0x24
240596a8:	780c      	ldrb	r4, [r1, #0]
240596aa:	78c8      	ldrb	r0, [r1, #3]
240596ac:	784e      	ldrb	r6, [r1, #1]
240596ae:	0364      	lsls	r4, r4, #13
240596b0:	788f      	ldrb	r7, [r1, #2]
240596b2:	bba2      	cbnz	r2, 2405971e <HAL_RTC_SetDate+0x90>
240596b4:	06f3      	lsls	r3, r6, #27
240596b6:	d503      	bpl.n	240596c0 <HAL_RTC_SetDate+0x32>
240596b8:	f026 0610 	bic.w	r6, r6, #16
240596bc:	360a      	adds	r6, #10
240596be:	704e      	strb	r6, [r1, #1]
240596c0:	f7ff ff78 	bl	240595b4 <RTC_ByteToBcd2>
240596c4:	4606      	mov	r6, r0
240596c6:	7848      	ldrb	r0, [r1, #1]
240596c8:	f7ff ff74 	bl	240595b4 <RTC_ByteToBcd2>
240596cc:	4602      	mov	r2, r0
240596ce:	4638      	mov	r0, r7
240596d0:	f7ff ff70 	bl	240595b4 <RTC_ByteToBcd2>
240596d4:	ea40 0304 	orr.w	r3, r0, r4
240596d8:	ea43 4306 	orr.w	r3, r3, r6, lsl #16
240596dc:	ea43 2402 	orr.w	r4, r3, r2, lsl #8
240596e0:	682b      	ldr	r3, [r5, #0]
240596e2:	22ca      	movs	r2, #202	; 0xca
240596e4:	4628      	mov	r0, r5
240596e6:	625a      	str	r2, [r3, #36]	; 0x24
240596e8:	2253      	movs	r2, #83	; 0x53
240596ea:	625a      	str	r2, [r3, #36]	; 0x24
240596ec:	f7ff fece 	bl	2405948c <RTC_EnterInitMode>
240596f0:	b940      	cbnz	r0, 24059704 <HAL_RTC_SetDate+0x76>
240596f2:	f024 447f 	bic.w	r4, r4, #4278190080	; 0xff000000
240596f6:	682a      	ldr	r2, [r5, #0]
240596f8:	4628      	mov	r0, r5
240596fa:	f024 04c0 	bic.w	r4, r4, #192	; 0xc0
240596fe:	6054      	str	r4, [r2, #4]
24059700:	f7ff fee8 	bl	240594d4 <RTC_ExitInitMode>
24059704:	682b      	ldr	r3, [r5, #0]
24059706:	22ff      	movs	r2, #255	; 0xff
24059708:	625a      	str	r2, [r3, #36]	; 0x24
2405970a:	b910      	cbnz	r0, 24059712 <HAL_RTC_SetDate+0x84>
2405970c:	2301      	movs	r3, #1
2405970e:	f885 3025 	strb.w	r3, [r5, #37]	; 0x25
24059712:	2300      	movs	r3, #0
24059714:	f885 3024 	strb.w	r3, [r5, #36]	; 0x24
24059718:	bdf8      	pop	{r3, r4, r5, r6, r7, pc}
2405971a:	4618      	mov	r0, r3
2405971c:	e7fc      	b.n	24059718 <HAL_RTC_SetDate+0x8a>
2405971e:	ea44 4400 	orr.w	r4, r4, r0, lsl #16
24059722:	433c      	orrs	r4, r7
24059724:	ea44 2406 	orr.w	r4, r4, r6, lsl #8
24059728:	e7da      	b.n	240596e0 <HAL_RTC_SetDate+0x52>

2405972a <RTC_Bcd2ToByte>:
2405972a:	0903      	lsrs	r3, r0, #4
2405972c:	f000 000f 	and.w	r0, r0, #15
24059730:	eb03 0383 	add.w	r3, r3, r3, lsl #2
24059734:	eb00 0043 	add.w	r0, r0, r3, lsl #1
24059738:	b2c0      	uxtb	r0, r0
2405973a:	4770      	bx	lr

2405973c <HAL_RTC_GetTime>:
2405973c:	b538      	push	{r3, r4, r5, lr}
2405973e:	6803      	ldr	r3, [r0, #0]
24059740:	6898      	ldr	r0, [r3, #8]
24059742:	6048      	str	r0, [r1, #4]
24059744:	6918      	ldr	r0, [r3, #16]
24059746:	681b      	ldr	r3, [r3, #0]
24059748:	f3c0 000e 	ubfx	r0, r0, #0, #15
2405974c:	f3c3 2506 	ubfx	r5, r3, #8, #7
24059750:	f003 047f 	and.w	r4, r3, #127	; 0x7f
24059754:	6088      	str	r0, [r1, #8]
24059756:	f3c3 4005 	ubfx	r0, r3, #16, #6
2405975a:	f3c3 5380 	ubfx	r3, r3, #22, #1
2405975e:	704d      	strb	r5, [r1, #1]
24059760:	7008      	strb	r0, [r1, #0]
24059762:	708c      	strb	r4, [r1, #2]
24059764:	70cb      	strb	r3, [r1, #3]
24059766:	b952      	cbnz	r2, 2405977e <HAL_RTC_GetTime+0x42>
24059768:	f7ff ffdf 	bl	2405972a <RTC_Bcd2ToByte>
2405976c:	7008      	strb	r0, [r1, #0]
2405976e:	4628      	mov	r0, r5
24059770:	f7ff ffdb 	bl	2405972a <RTC_Bcd2ToByte>
24059774:	7048      	strb	r0, [r1, #1]
24059776:	4620      	mov	r0, r4
24059778:	f7ff ffd7 	bl	2405972a <RTC_Bcd2ToByte>
2405977c:	7088      	strb	r0, [r1, #2]
2405977e:	2000      	movs	r0, #0
24059780:	bd38      	pop	{r3, r4, r5, pc}

24059782 <HAL_RTC_GetDate>:
24059782:	b538      	push	{r3, r4, r5, lr}
24059784:	6803      	ldr	r3, [r0, #0]
24059786:	685b      	ldr	r3, [r3, #4]
24059788:	f3c3 4007 	ubfx	r0, r3, #16, #8
2405978c:	f3c3 2504 	ubfx	r5, r3, #8, #5
24059790:	f003 043f 	and.w	r4, r3, #63	; 0x3f
24059794:	f3c3 3342 	ubfx	r3, r3, #13, #3
24059798:	70c8      	strb	r0, [r1, #3]
2405979a:	704d      	strb	r5, [r1, #1]
2405979c:	708c      	strb	r4, [r1, #2]
2405979e:	700b      	strb	r3, [r1, #0]
240597a0:	b952      	cbnz	r2, 240597b8 <HAL_RTC_GetDate+0x36>
240597a2:	f7ff ffc2 	bl	2405972a <RTC_Bcd2ToByte>
240597a6:	70c8      	strb	r0, [r1, #3]
240597a8:	4628      	mov	r0, r5
240597aa:	f7ff ffbe 	bl	2405972a <RTC_Bcd2ToByte>
240597ae:	7048      	strb	r0, [r1, #1]
240597b0:	4620      	mov	r0, r4
240597b2:	f7ff ffba 	bl	2405972a <RTC_Bcd2ToByte>
240597b6:	7088      	strb	r0, [r1, #2]
240597b8:	2000      	movs	r0, #0
240597ba:	bd38      	pop	{r3, r4, r5, pc}

240597bc <SAI_InterruptFlag>:
240597bc:	2901      	cmp	r1, #1
240597be:	6c41      	ldr	r1, [r0, #68]	; 0x44
240597c0:	6842      	ldr	r2, [r0, #4]
240597c2:	bf14      	ite	ne
240597c4:	2301      	movne	r3, #1
240597c6:	2309      	moveq	r3, #9
240597c8:	2908      	cmp	r1, #8
240597ca:	d105      	bne.n	240597d8 <SAI_InterruptFlag+0x1c>
240597cc:	f022 0102 	bic.w	r1, r2, #2
240597d0:	2901      	cmp	r1, #1
240597d2:	bf08      	it	eq
240597d4:	f043 0310 	orreq.w	r3, r3, #16
240597d8:	3a02      	subs	r2, #2
240597da:	2a01      	cmp	r2, #1
240597dc:	bf94      	ite	ls
240597de:	f043 0060 	orrls.w	r0, r3, #96	; 0x60
240597e2:	f043 0004 	orrhi.w	r0, r3, #4
240597e6:	4770      	bx	lr

240597e8 <SAI_Disable>:
240597e8:	4b0d      	ldr	r3, [pc, #52]	; (24059820 <SAI_Disable+0x38>)
240597ea:	6801      	ldr	r1, [r0, #0]
240597ec:	681a      	ldr	r2, [r3, #0]
240597ee:	f641 3358 	movw	r3, #7000	; 0x1b58
240597f2:	fbb2 f2f3 	udiv	r2, r2, r3
240597f6:	680b      	ldr	r3, [r1, #0]
240597f8:	0092      	lsls	r2, r2, #2
240597fa:	f423 3380 	bic.w	r3, r3, #65536	; 0x10000
240597fe:	600b      	str	r3, [r1, #0]
24059800:	b93a      	cbnz	r2, 24059812 <SAI_Disable+0x2a>
24059802:	f8d0 3094 	ldr.w	r3, [r0, #148]	; 0x94
24059806:	f043 0340 	orr.w	r3, r3, #64	; 0x40
2405980a:	f8c0 3094 	str.w	r3, [r0, #148]	; 0x94
2405980e:	2003      	movs	r0, #3
24059810:	4770      	bx	lr
24059812:	680b      	ldr	r3, [r1, #0]
24059814:	3a01      	subs	r2, #1
24059816:	f413 3380 	ands.w	r3, r3, #65536	; 0x10000
2405981a:	d1f1      	bne.n	24059800 <SAI_Disable+0x18>
2405981c:	4618      	mov	r0, r3
2405981e:	4770      	bx	lr
24059820:	200000ac 	.word	0x200000ac

24059824 <HAL_SAI_Init>:
24059824:	e92d 41f0 	stmdb	sp!, {r4, r5, r6, r7, r8, lr}
24059828:	4604      	mov	r4, r0
2405982a:	b918      	cbnz	r0, 24059834 <HAL_SAI_Init+0x10>
2405982c:	2701      	movs	r7, #1
2405982e:	4638      	mov	r0, r7
24059830:	e8bd 81f0 	ldmia.w	sp!, {r4, r5, r6, r7, r8, pc}
24059834:	f890 2038 	ldrb.w	r2, [r0, #56]	; 0x38
24059838:	6803      	ldr	r3, [r0, #0]
2405983a:	2a01      	cmp	r2, #1
2405983c:	f8df 8298 	ldr.w	r8, [pc, #664]	; 24059ad8 <HAL_SAI_Init+0x2b4>
24059840:	f040 810e 	bne.w	24059a60 <HAL_SAI_Init+0x23c>
24059844:	4543      	cmp	r3, r8
24059846:	d1f1      	bne.n	2405982c <HAL_SAI_Init+0x8>
24059848:	6843      	ldr	r3, [r0, #4]
2405984a:	2b01      	cmp	r3, #1
2405984c:	d1ee      	bne.n	2405982c <HAL_SAI_Init+0x8>
2405984e:	6c43      	ldr	r3, [r0, #68]	; 0x44
24059850:	2b00      	cmp	r3, #0
24059852:	d1eb      	bne.n	2405982c <HAL_SAI_Init+0x8>
24059854:	4d99      	ldr	r5, [pc, #612]	; (24059abc <HAL_SAI_Init+0x298>)
24059856:	f894 3091 	ldrb.w	r3, [r4, #145]	; 0x91
2405985a:	f003 02ff 	and.w	r2, r3, #255	; 0xff
2405985e:	b923      	cbnz	r3, 2405986a <HAL_SAI_Init+0x46>
24059860:	4620      	mov	r0, r4
24059862:	f884 2090 	strb.w	r2, [r4, #144]	; 0x90
24059866:	f7fa fb75 	bl	24053f54 <HAL_SAI_MspInit>
2405986a:	4620      	mov	r0, r4
2405986c:	f7ff ffbc 	bl	240597e8 <SAI_Disable>
24059870:	4607      	mov	r7, r0
24059872:	2800      	cmp	r0, #0
24059874:	d1da      	bne.n	2405982c <HAL_SAI_Init+0x8>
24059876:	2302      	movs	r3, #2
24059878:	f884 3091 	strb.w	r3, [r4, #145]	; 0x91
2405987c:	68e3      	ldr	r3, [r4, #12]
2405987e:	2b01      	cmp	r3, #1
24059880:	f000 80ff 	beq.w	24059a82 <HAL_SAI_Init+0x25e>
24059884:	1e99      	subs	r1, r3, #2
24059886:	424b      	negs	r3, r1
24059888:	414b      	adcs	r3, r1
2405988a:	015b      	lsls	r3, r3, #5
2405988c:	68a6      	ldr	r6, [r4, #8]
2405988e:	2e02      	cmp	r6, #2
24059890:	f000 80fb 	beq.w	24059a8a <HAL_SAI_Init+0x266>
24059894:	2e03      	cmp	r6, #3
24059896:	f000 80f6 	beq.w	24059a86 <HAL_SAI_Init+0x262>
2405989a:	1e72      	subs	r2, r6, #1
2405989c:	4256      	negs	r6, r2
2405989e:	4156      	adcs	r6, r2
240598a0:	02b6      	lsls	r6, r6, #10
240598a2:	6a22      	ldr	r2, [r4, #32]
240598a4:	602b      	str	r3, [r5, #0]
240598a6:	6823      	ldr	r3, [r4, #0]
240598a8:	2a00      	cmp	r2, #0
240598aa:	d043      	beq.n	24059934 <HAL_SAI_Init+0x110>
240598ac:	4543      	cmp	r3, r8
240598ae:	d003      	beq.n	240598b8 <HAL_SAI_Init+0x94>
240598b0:	4a83      	ldr	r2, [pc, #524]	; (24059ac0 <HAL_SAI_Init+0x29c>)
240598b2:	4293      	cmp	r3, r2
240598b4:	f040 80ec 	bne.w	24059a90 <HAL_SAI_Init+0x26c>
240598b8:	f44f 7080 	mov.w	r0, #256	; 0x100
240598bc:	2100      	movs	r1, #0
240598be:	f7ff fc65 	bl	2405918c <HAL_RCCEx_GetPeriphCLKFreq>
240598c2:	6822      	ldr	r2, [r4, #0]
240598c4:	4b7f      	ldr	r3, [pc, #508]	; (24059ac4 <HAL_SAI_Init+0x2a0>)
240598c6:	429a      	cmp	r2, r3
240598c8:	d104      	bne.n	240598d4 <HAL_SAI_Init+0xb0>
240598ca:	f44f 7000 	mov.w	r0, #512	; 0x200
240598ce:	2100      	movs	r1, #0
240598d0:	f7ff fc5c 	bl	2405918c <HAL_RCCEx_GetPeriphCLKFreq>
240598d4:	6822      	ldr	r2, [r4, #0]
240598d6:	4b7c      	ldr	r3, [pc, #496]	; (24059ac8 <HAL_SAI_Init+0x2a4>)
240598d8:	429a      	cmp	r2, r3
240598da:	d104      	bne.n	240598e6 <HAL_SAI_Init+0xc2>
240598dc:	f44f 6080 	mov.w	r0, #1024	; 0x400
240598e0:	2100      	movs	r1, #0
240598e2:	f7ff fc53 	bl	2405918c <HAL_RCCEx_GetPeriphCLKFreq>
240598e6:	69a2      	ldr	r2, [r4, #24]
240598e8:	6c61      	ldr	r1, [r4, #68]	; 0x44
240598ea:	f5b2 2f00 	cmp.w	r2, #524288	; 0x80000
240598ee:	6d63      	ldr	r3, [r4, #84]	; 0x54
240598f0:	f8d4 e028 	ldr.w	lr, [r4, #40]	; 0x28
240598f4:	f04f 020a 	mov.w	r2, #10
240598f8:	f8d4 c020 	ldr.w	ip, [r4, #32]
240598fc:	f040 80cc 	bne.w	24059a98 <HAL_SAI_Init+0x274>
24059900:	2904      	cmp	r1, #4
24059902:	f000 80c7 	beq.w	24059a94 <HAL_SAI_Init+0x270>
24059906:	2908      	cmp	r1, #8
24059908:	bf08      	it	eq
2405990a:	f44f 7380 	moveq.w	r3, #256	; 0x100
2405990e:	4342      	muls	r2, r0
24059910:	fb0c f303 	mul.w	r3, ip, r3
24059914:	fbb2 f0f3 	udiv	r0, r2, r3
24059918:	220a      	movs	r2, #10
2405991a:	fbb0 f3f2 	udiv	r3, r0, r2
2405991e:	fb02 0013 	mls	r0, r2, r3, r0
24059922:	2809      	cmp	r0, #9
24059924:	bf08      	it	eq
24059926:	3301      	addeq	r3, #1
24059928:	2904      	cmp	r1, #4
2405992a:	6263      	str	r3, [r4, #36]	; 0x24
2405992c:	6a63      	ldr	r3, [r4, #36]	; 0x24
2405992e:	bf04      	itt	eq
24059930:	085b      	lsreq	r3, r3, #1
24059932:	6263      	streq	r3, [r4, #36]	; 0x24
24059934:	f8d4 c004 	ldr.w	ip, [r4, #4]
24059938:	6d22      	ldr	r2, [r4, #80]	; 0x50
2405993a:	f03c 0302 	bics.w	r3, ip, #2
2405993e:	f040 80b8 	bne.w	24059ab2 <HAL_SAI_Init+0x28e>
24059942:	3a01      	subs	r2, #1
24059944:	bf18      	it	ne
24059946:	2201      	movne	r2, #1
24059948:	6823      	ldr	r3, [r4, #0]
2405994a:	0252      	lsls	r2, r2, #9
2405994c:	495f      	ldr	r1, [pc, #380]	; (24059acc <HAL_SAI_Init+0x2a8>)
2405994e:	6818      	ldr	r0, [r3, #0]
24059950:	4543      	cmp	r3, r8
24059952:	ea01 0100 	and.w	r1, r1, r0
24059956:	6019      	str	r1, [r3, #0]
24059958:	6c61      	ldr	r1, [r4, #68]	; 0x44
2405995a:	6818      	ldr	r0, [r3, #0]
2405995c:	ea4c 0c01 	orr.w	ip, ip, r1
24059960:	6ca1      	ldr	r1, [r4, #72]	; 0x48
24059962:	ea4c 0c01 	orr.w	ip, ip, r1
24059966:	6ce1      	ldr	r1, [r4, #76]	; 0x4c
24059968:	ea4c 0c01 	orr.w	ip, ip, r1
2405996c:	6ae1      	ldr	r1, [r4, #44]	; 0x2c
2405996e:	ea4c 0c01 	orr.w	ip, ip, r1
24059972:	6961      	ldr	r1, [r4, #20]
24059974:	ea4c 0c01 	orr.w	ip, ip, r1
24059978:	69a1      	ldr	r1, [r4, #24]
2405997a:	ea4c 0c01 	orr.w	ip, ip, r1
2405997e:	6aa1      	ldr	r1, [r4, #40]	; 0x28
24059980:	ea4c 0c01 	orr.w	ip, ip, r1
24059984:	6921      	ldr	r1, [r4, #16]
24059986:	ea4c 0101 	orr.w	r1, ip, r1
2405998a:	ea41 0100 	orr.w	r1, r1, r0
2405998e:	6a60      	ldr	r0, [r4, #36]	; 0x24
24059990:	ea41 5100 	orr.w	r1, r1, r0, lsl #20
24059994:	6b20      	ldr	r0, [r4, #48]	; 0x30
24059996:	ea41 0106 	orr.w	r1, r1, r6
2405999a:	ea42 0201 	orr.w	r2, r2, r1
2405999e:	601a      	str	r2, [r3, #0]
240599a0:	685a      	ldr	r2, [r3, #4]
240599a2:	f422 4260 	bic.w	r2, r2, #57344	; 0xe000
240599a6:	f022 020f 	bic.w	r2, r2, #15
240599aa:	605a      	str	r2, [r3, #4]
240599ac:	69e2      	ldr	r2, [r4, #28]
240599ae:	6859      	ldr	r1, [r3, #4]
240599b0:	ea42 0200 	orr.w	r2, r2, r0
240599b4:	6b60      	ldr	r0, [r4, #52]	; 0x34
240599b6:	ea42 0200 	orr.w	r2, r2, r0
240599ba:	6de0      	ldr	r0, [r4, #92]	; 0x5c
240599bc:	ea42 0201 	orr.w	r2, r2, r1
240599c0:	605a      	str	r2, [r3, #4]
240599c2:	4a43      	ldr	r2, [pc, #268]	; (24059ad0 <HAL_SAI_Init+0x2ac>)
240599c4:	6899      	ldr	r1, [r3, #8]
240599c6:	ea02 0201 	and.w	r2, r2, r1
240599ca:	609a      	str	r2, [r3, #8]
240599cc:	6e62      	ldr	r2, [r4, #100]	; 0x64
240599ce:	6899      	ldr	r1, [r3, #8]
240599d0:	ea42 0200 	orr.w	r2, r2, r0
240599d4:	6e20      	ldr	r0, [r4, #96]	; 0x60
240599d6:	ea42 0200 	orr.w	r2, r2, r0
240599da:	ea42 0201 	orr.w	r2, r2, r1
240599de:	6d61      	ldr	r1, [r4, #84]	; 0x54
240599e0:	f101 31ff 	add.w	r1, r1, #4294967295
240599e4:	ea42 0201 	orr.w	r2, r2, r1
240599e8:	6da1      	ldr	r1, [r4, #88]	; 0x58
240599ea:	f101 31ff 	add.w	r1, r1, #4294967295
240599ee:	ea42 2201 	orr.w	r2, r2, r1, lsl #8
240599f2:	609a      	str	r2, [r3, #8]
240599f4:	68da      	ldr	r2, [r3, #12]
240599f6:	f422 627d 	bic.w	r2, r2, #4048	; 0xfd0
240599fa:	f022 020f 	bic.w	r2, r2, #15
240599fe:	ea4f 4202 	mov.w	r2, r2, lsl #16
24059a02:	ea4f 4212 	mov.w	r2, r2, lsr #16
24059a06:	60da      	str	r2, [r3, #12]
24059a08:	68d9      	ldr	r1, [r3, #12]
24059a0a:	e9d4 201a 	ldrd	r2, r0, [r4, #104]	; 0x68
24059a0e:	ea42 0200 	orr.w	r2, r2, r0
24059a12:	ea42 0201 	orr.w	r2, r2, r1
24059a16:	6f61      	ldr	r1, [r4, #116]	; 0x74
24059a18:	ea42 4201 	orr.w	r2, r2, r1, lsl #16
24059a1c:	6f21      	ldr	r1, [r4, #112]	; 0x70
24059a1e:	f101 31ff 	add.w	r1, r1, #4294967295
24059a22:	ea42 2201 	orr.w	r2, r2, r1, lsl #8
24059a26:	60da      	str	r2, [r3, #12]
24059a28:	d111      	bne.n	24059a4e <HAL_SAI_Init+0x22a>
24059a2a:	6c6b      	ldr	r3, [r5, #68]	; 0x44
24059a2c:	f023 0301 	bic.w	r3, r3, #1
24059a30:	646b      	str	r3, [r5, #68]	; 0x44
24059a32:	f894 3038 	ldrb.w	r3, [r4, #56]	; 0x38
24059a36:	2b01      	cmp	r3, #1
24059a38:	d109      	bne.n	24059a4e <HAL_SAI_Init+0x22a>
24059a3a:	6be3      	ldr	r3, [r4, #60]	; 0x3c
24059a3c:	1e5a      	subs	r2, r3, #1
24059a3e:	6c23      	ldr	r3, [r4, #64]	; 0x40
24059a40:	ea43 1302 	orr.w	r3, r3, r2, lsl #4
24059a44:	646b      	str	r3, [r5, #68]	; 0x44
24059a46:	6c6b      	ldr	r3, [r5, #68]	; 0x44
24059a48:	f043 0301 	orr.w	r3, r3, #1
24059a4c:	646b      	str	r3, [r5, #68]	; 0x44
24059a4e:	2300      	movs	r3, #0
24059a50:	2201      	movs	r2, #1
24059a52:	f8c4 3094 	str.w	r3, [r4, #148]	; 0x94
24059a56:	f884 3090 	strb.w	r3, [r4, #144]	; 0x90
24059a5a:	f884 2091 	strb.w	r2, [r4, #145]	; 0x91
24059a5e:	e6e6      	b.n	2405982e <HAL_SAI_Init+0xa>
24059a60:	4543      	cmp	r3, r8
24059a62:	f43f aef7 	beq.w	24059854 <HAL_SAI_Init+0x30>
24059a66:	4a16      	ldr	r2, [pc, #88]	; (24059ac0 <HAL_SAI_Init+0x29c>)
24059a68:	4293      	cmp	r3, r2
24059a6a:	f43f aef3 	beq.w	24059854 <HAL_SAI_Init+0x30>
24059a6e:	f502 7278 	add.w	r2, r2, #992	; 0x3e0
24059a72:	4293      	cmp	r3, r2
24059a74:	d003      	beq.n	24059a7e <HAL_SAI_Init+0x25a>
24059a76:	3220      	adds	r2, #32
24059a78:	4293      	cmp	r3, r2
24059a7a:	f47f aed7 	bne.w	2405982c <HAL_SAI_Init+0x8>
24059a7e:	4d15      	ldr	r5, [pc, #84]	; (24059ad4 <HAL_SAI_Init+0x2b0>)
24059a80:	e6e9      	b.n	24059856 <HAL_SAI_Init+0x32>
24059a82:	2310      	movs	r3, #16
24059a84:	e702      	b.n	2405988c <HAL_SAI_Init+0x68>
24059a86:	f043 0301 	orr.w	r3, r3, #1
24059a8a:	f44f 6600 	mov.w	r6, #2048	; 0x800
24059a8e:	e708      	b.n	240598a2 <HAL_SAI_Init+0x7e>
24059a90:	2000      	movs	r0, #0
24059a92:	e716      	b.n	240598c2 <HAL_SAI_Init+0x9e>
24059a94:	2340      	movs	r3, #64	; 0x40
24059a96:	e73a      	b.n	2405990e <HAL_SAI_Init+0xea>
24059a98:	f1be 6f80 	cmp.w	lr, #67108864	; 0x4000000
24059a9c:	fb02 f000 	mul.w	r0, r2, r0
24059aa0:	bf0c      	ite	eq
24059aa2:	2302      	moveq	r3, #2
24059aa4:	2301      	movne	r3, #1
24059aa6:	fb0c f303 	mul.w	r3, ip, r3
24059aaa:	021b      	lsls	r3, r3, #8
24059aac:	fbb0 f0f3 	udiv	r0, r0, r3
24059ab0:	e732      	b.n	24059918 <HAL_SAI_Init+0xf4>
24059ab2:	1e53      	subs	r3, r2, #1
24059ab4:	425a      	negs	r2, r3
24059ab6:	415a      	adcs	r2, r3
24059ab8:	e746      	b.n	24059948 <HAL_SAI_Init+0x124>
24059aba:	bf00      	nop
24059abc:	40015800 	.word	0x40015800
24059ac0:	40015824 	.word	0x40015824
24059ac4:	40015c04 	.word	0x40015c04
24059ac8:	40015c24 	.word	0x40015c24
24059acc:	f005c010 	.word	0xf005c010
24059ad0:	fff88000 	.word	0xfff88000
24059ad4:	40015c00 	.word	0x40015c00
24059ad8:	40015804 	.word	0x40015804

24059adc <HAL_SAI_InitProtocol>:
24059adc:	2902      	cmp	r1, #2
24059ade:	b430      	push	{r4, r5}
24059ae0:	d905      	bls.n	24059aee <HAL_SAI_InitProtocol+0x12>
24059ae2:	1ecc      	subs	r4, r1, #3
24059ae4:	2c01      	cmp	r4, #1
24059ae6:	d957      	bls.n	24059b98 <HAL_SAI_InitProtocol+0xbc>
24059ae8:	2001      	movs	r0, #1
24059aea:	bc30      	pop	{r4, r5}
24059aec:	4770      	bx	lr
24059aee:	6845      	ldr	r5, [r0, #4]
24059af0:	2400      	movs	r4, #0
24059af2:	6703      	str	r3, [r0, #112]	; 0x70
24059af4:	f035 0502 	bics.w	r5, r5, #2
24059af8:	6444      	str	r4, [r0, #68]	; 0x44
24059afa:	64c4      	str	r4, [r0, #76]	; 0x4c
24059afc:	bf14      	ite	ne
24059afe:	2501      	movne	r5, #1
24059b00:	4625      	moveq	r5, r4
24059b02:	6684      	str	r4, [r0, #104]	; 0x68
24059b04:	f013 0401 	ands.w	r4, r3, #1
24059b08:	6505      	str	r5, [r0, #80]	; 0x50
24059b0a:	f44f 3580 	mov.w	r5, #65536	; 0x10000
24059b0e:	65c5      	str	r5, [r0, #92]	; 0x5c
24059b10:	f64f 75ff 	movw	r5, #65535	; 0xffff
24059b14:	6745      	str	r5, [r0, #116]	; 0x74
24059b16:	d1e7      	bne.n	24059ae8 <HAL_SAI_InitProtocol+0xc>
24059b18:	b991      	cbnz	r1, 24059b40 <HAL_SAI_InitProtocol+0x64>
24059b1a:	f44f 2480 	mov.w	r4, #262144	; 0x40000
24059b1e:	6601      	str	r1, [r0, #96]	; 0x60
24059b20:	6644      	str	r4, [r0, #100]	; 0x64
24059b22:	2a03      	cmp	r2, #3
24059b24:	d8e0      	bhi.n	24059ae8 <HAL_SAI_InitProtocol+0xc>
24059b26:	e8df f002 	tbb	[pc, r2]
24059b2a:	0f02      	.short	0x0f02
24059b2c:	2f1e      	.short	0x2f1e
24059b2e:	085b      	lsrs	r3, r3, #1
24059b30:	2480      	movs	r4, #128	; 0x80
24059b32:	2240      	movs	r2, #64	; 0x40
24059b34:	0159      	lsls	r1, r3, #5
24059b36:	011b      	lsls	r3, r3, #4
24059b38:	6484      	str	r4, [r0, #72]	; 0x48
24059b3a:	e9c0 1315 	strd	r1, r3, [r0, #84]	; 0x54
24059b3e:	e057      	b.n	24059bf0 <HAL_SAI_InitProtocol+0x114>
24059b40:	f44f 3500 	mov.w	r5, #131072	; 0x20000
24059b44:	6605      	str	r5, [r0, #96]	; 0x60
24059b46:	e7eb      	b.n	24059b20 <HAL_SAI_InitProtocol+0x44>
24059b48:	085b      	lsrs	r3, r3, #1
24059b4a:	2280      	movs	r2, #128	; 0x80
24059b4c:	2902      	cmp	r1, #2
24059b4e:	ea4f 1483 	mov.w	r4, r3, lsl #6
24059b52:	6482      	str	r2, [r0, #72]	; 0x48
24059b54:	ea4f 1343 	mov.w	r3, r3, lsl #5
24059b58:	66c2      	str	r2, [r0, #108]	; 0x6c
24059b5a:	6544      	str	r4, [r0, #84]	; 0x54
24059b5c:	6583      	str	r3, [r0, #88]	; 0x58
24059b5e:	d019      	beq.n	24059b94 <HAL_SAI_InitProtocol+0xb8>
24059b60:	bc30      	pop	{r4, r5}
24059b62:	f7ff be5f 	b.w	24059824 <HAL_SAI_Init>
24059b66:	22c0      	movs	r2, #192	; 0xc0
24059b68:	085b      	lsrs	r3, r3, #1
24059b6a:	2902      	cmp	r1, #2
24059b6c:	6482      	str	r2, [r0, #72]	; 0x48
24059b6e:	ea4f 1283 	mov.w	r2, r3, lsl #6
24059b72:	ea4f 1343 	mov.w	r3, r3, lsl #5
24059b76:	6542      	str	r2, [r0, #84]	; 0x54
24059b78:	6583      	str	r3, [r0, #88]	; 0x58
24059b7a:	f04f 0380 	mov.w	r3, #128	; 0x80
24059b7e:	66c3      	str	r3, [r0, #108]	; 0x6c
24059b80:	d1ee      	bne.n	24059b60 <HAL_SAI_InitProtocol+0x84>
24059b82:	2308      	movs	r3, #8
24059b84:	6683      	str	r3, [r0, #104]	; 0x68
24059b86:	e7eb      	b.n	24059b60 <HAL_SAI_InitProtocol+0x84>
24059b88:	085b      	lsrs	r3, r3, #1
24059b8a:	24e0      	movs	r4, #224	; 0xe0
24059b8c:	2280      	movs	r2, #128	; 0x80
24059b8e:	0199      	lsls	r1, r3, #6
24059b90:	015b      	lsls	r3, r3, #5
24059b92:	e7d1      	b.n	24059b38 <HAL_SAI_InitProtocol+0x5c>
24059b94:	2310      	movs	r3, #16
24059b96:	e7f5      	b.n	24059b84 <HAL_SAI_InitProtocol+0xa8>
24059b98:	6845      	ldr	r5, [r0, #4]
24059b9a:	2400      	movs	r4, #0
24059b9c:	f44f 3c00 	mov.w	ip, #131072	; 0x20000
24059ba0:	6703      	str	r3, [r0, #112]	; 0x70
24059ba2:	f035 0502 	bics.w	r5, r5, #2
24059ba6:	6444      	str	r4, [r0, #68]	; 0x44
24059ba8:	64c4      	str	r4, [r0, #76]	; 0x4c
24059baa:	bf14      	ite	ne
24059bac:	4625      	movne	r5, r4
24059bae:	2501      	moveq	r5, #1
24059bb0:	2904      	cmp	r1, #4
24059bb2:	65c4      	str	r4, [r0, #92]	; 0x5c
24059bb4:	6505      	str	r5, [r0, #80]	; 0x50
24059bb6:	f44f 2580 	mov.w	r5, #262144	; 0x40000
24059bba:	bf0c      	ite	eq
24059bbc:	2101      	moveq	r1, #1
24059bbe:	210d      	movne	r1, #13
24059bc0:	6684      	str	r4, [r0, #104]	; 0x68
24059bc2:	f64f 74ff 	movw	r4, #65535	; 0xffff
24059bc6:	6581      	str	r1, [r0, #88]	; 0x58
24059bc8:	6744      	str	r4, [r0, #116]	; 0x74
24059bca:	e9c0 c518 	strd	ip, r5, [r0, #96]	; 0x60
24059bce:	2a03      	cmp	r2, #3
24059bd0:	d88a      	bhi.n	24059ae8 <HAL_SAI_InitProtocol+0xc>
24059bd2:	e8df f002 	tbb	[pc, r2]
24059bd6:	0902      	.short	0x0902
24059bd8:	150f      	.short	0x150f
24059bda:	011b      	lsls	r3, r3, #4
24059bdc:	2280      	movs	r2, #128	; 0x80
24059bde:	6543      	str	r3, [r0, #84]	; 0x54
24059be0:	2340      	movs	r3, #64	; 0x40
24059be2:	6482      	str	r2, [r0, #72]	; 0x48
24059be4:	66c3      	str	r3, [r0, #108]	; 0x6c
24059be6:	e7bb      	b.n	24059b60 <HAL_SAI_InitProtocol+0x84>
24059be8:	2280      	movs	r2, #128	; 0x80
24059bea:	015b      	lsls	r3, r3, #5
24059bec:	6482      	str	r2, [r0, #72]	; 0x48
24059bee:	6543      	str	r3, [r0, #84]	; 0x54
24059bf0:	66c2      	str	r2, [r0, #108]	; 0x6c
24059bf2:	e7b5      	b.n	24059b60 <HAL_SAI_InitProtocol+0x84>
24059bf4:	22c0      	movs	r2, #192	; 0xc0
24059bf6:	015b      	lsls	r3, r3, #5
24059bf8:	6482      	str	r2, [r0, #72]	; 0x48
24059bfa:	6543      	str	r3, [r0, #84]	; 0x54
24059bfc:	2380      	movs	r3, #128	; 0x80
24059bfe:	e7f1      	b.n	24059be4 <HAL_SAI_InitProtocol+0x108>
24059c00:	22e0      	movs	r2, #224	; 0xe0
24059c02:	e7f8      	b.n	24059bf6 <HAL_SAI_InitProtocol+0x11a>

24059c04 <HAL_SAI_Abort>:
24059c04:	b5f8      	push	{r3, r4, r5, r6, r7, lr}
24059c06:	f890 3090 	ldrb.w	r3, [r0, #144]	; 0x90
24059c0a:	4604      	mov	r4, r0
24059c0c:	2b01      	cmp	r3, #1
24059c0e:	d052      	beq.n	24059cb6 <HAL_SAI_Abort+0xb2>
24059c10:	2601      	movs	r6, #1
24059c12:	6803      	ldr	r3, [r0, #0]
24059c14:	f880 6090 	strb.w	r6, [r0, #144]	; 0x90
24059c18:	681d      	ldr	r5, [r3, #0]
24059c1a:	f415 3500 	ands.w	r5, r5, #131072	; 0x20000
24059c1e:	d01e      	beq.n	24059c5e <HAL_SAI_Abort+0x5a>
24059c20:	681a      	ldr	r2, [r3, #0]
24059c22:	f422 3200 	bic.w	r2, r2, #131072	; 0x20000
24059c26:	601a      	str	r2, [r3, #0]
24059c28:	f890 3091 	ldrb.w	r3, [r0, #145]	; 0x91
24059c2c:	2b12      	cmp	r3, #18
24059c2e:	d02d      	beq.n	24059c8c <HAL_SAI_Abort+0x88>
24059c30:	2500      	movs	r5, #0
24059c32:	f894 3091 	ldrb.w	r3, [r4, #145]	; 0x91
24059c36:	2b22      	cmp	r3, #34	; 0x22
24059c38:	d111      	bne.n	24059c5e <HAL_SAI_Abort+0x5a>
24059c3a:	f8d4 0084 	ldr.w	r0, [r4, #132]	; 0x84
24059c3e:	b170      	cbz	r0, 24059c5e <HAL_SAI_Abort+0x5a>
24059c40:	f7fc f8da 	bl	24055df8 <HAL_DMA_Abort>
24059c44:	b158      	cbz	r0, 24059c5e <HAL_SAI_Abort+0x5a>
24059c46:	f8d4 3084 	ldr.w	r3, [r4, #132]	; 0x84
24059c4a:	6d5b      	ldr	r3, [r3, #84]	; 0x54
24059c4c:	2b80      	cmp	r3, #128	; 0x80
24059c4e:	d006      	beq.n	24059c5e <HAL_SAI_Abort+0x5a>
24059c50:	f8d4 3094 	ldr.w	r3, [r4, #148]	; 0x94
24059c54:	2501      	movs	r5, #1
24059c56:	f043 0380 	orr.w	r3, r3, #128	; 0x80
24059c5a:	f8c4 3094 	str.w	r3, [r4, #148]	; 0x94
24059c5e:	6826      	ldr	r6, [r4, #0]
24059c60:	2700      	movs	r7, #0
24059c62:	f04f 33ff 	mov.w	r3, #4294967295
24059c66:	4620      	mov	r0, r4
24059c68:	6137      	str	r7, [r6, #16]
24059c6a:	61b3      	str	r3, [r6, #24]
24059c6c:	f7ff fdbc 	bl	240597e8 <SAI_Disable>
24059c70:	6873      	ldr	r3, [r6, #4]
24059c72:	42b8      	cmp	r0, r7
24059c74:	f043 0308 	orr.w	r3, r3, #8
24059c78:	bf18      	it	ne
24059c7a:	2501      	movne	r5, #1
24059c7c:	6073      	str	r3, [r6, #4]
24059c7e:	2301      	movs	r3, #1
24059c80:	f884 7090 	strb.w	r7, [r4, #144]	; 0x90
24059c84:	f884 3091 	strb.w	r3, [r4, #145]	; 0x91
24059c88:	4628      	mov	r0, r5
24059c8a:	bdf8      	pop	{r3, r4, r5, r6, r7, pc}
24059c8c:	f8d0 0080 	ldr.w	r0, [r0, #128]	; 0x80
24059c90:	2800      	cmp	r0, #0
24059c92:	d0cd      	beq.n	24059c30 <HAL_SAI_Abort+0x2c>
24059c94:	f7fc f8b0 	bl	24055df8 <HAL_DMA_Abort>
24059c98:	2800      	cmp	r0, #0
24059c9a:	d0c9      	beq.n	24059c30 <HAL_SAI_Abort+0x2c>
24059c9c:	f8d4 3080 	ldr.w	r3, [r4, #128]	; 0x80
24059ca0:	6d5b      	ldr	r3, [r3, #84]	; 0x54
24059ca2:	2b80      	cmp	r3, #128	; 0x80
24059ca4:	d0c4      	beq.n	24059c30 <HAL_SAI_Abort+0x2c>
24059ca6:	f8d4 3094 	ldr.w	r3, [r4, #148]	; 0x94
24059caa:	4635      	mov	r5, r6
24059cac:	f043 0380 	orr.w	r3, r3, #128	; 0x80
24059cb0:	f8c4 3094 	str.w	r3, [r4, #148]	; 0x94
24059cb4:	e7bd      	b.n	24059c32 <HAL_SAI_Abort+0x2e>
24059cb6:	2502      	movs	r5, #2
24059cb8:	e7e6      	b.n	24059c88 <HAL_SAI_Abort+0x84>
	...

24059cbc <HAL_SAI_Transmit_DMA>:
24059cbc:	e92d 43f8 	stmdb	sp!, {r3, r4, r5, r6, r7, r8, r9, lr}
24059cc0:	460f      	mov	r7, r1
24059cc2:	4604      	mov	r4, r0
24059cc4:	4616      	mov	r6, r2
24059cc6:	f7fa fb4d 	bl	24054364 <HAL_GetTick>
24059cca:	4680      	mov	r8, r0
24059ccc:	2f00      	cmp	r7, #0
24059cce:	d05a      	beq.n	24059d86 <HAL_SAI_Transmit_DMA+0xca>
24059cd0:	2e00      	cmp	r6, #0
24059cd2:	d058      	beq.n	24059d86 <HAL_SAI_Transmit_DMA+0xca>
24059cd4:	f894 3091 	ldrb.w	r3, [r4, #145]	; 0x91
24059cd8:	2b01      	cmp	r3, #1
24059cda:	b2dd      	uxtb	r5, r3
24059cdc:	d155      	bne.n	24059d8a <HAL_SAI_Transmit_DMA+0xce>
24059cde:	f894 3090 	ldrb.w	r3, [r4, #144]	; 0x90
24059ce2:	2b01      	cmp	r3, #1
24059ce4:	d051      	beq.n	24059d8a <HAL_SAI_Transmit_DMA+0xce>
24059ce6:	f04f 0900 	mov.w	r9, #0
24059cea:	2312      	movs	r3, #18
24059cec:	f8d4 0080 	ldr.w	r0, [r4, #128]	; 0x80
24059cf0:	4639      	mov	r1, r7
24059cf2:	f8c4 9094 	str.w	r9, [r4, #148]	; 0x94
24059cf6:	f884 3091 	strb.w	r3, [r4, #145]	; 0x91
24059cfa:	4b25      	ldr	r3, [pc, #148]	; (24059d90 <HAL_SAI_Transmit_DMA+0xd4>)
24059cfc:	f884 5090 	strb.w	r5, [r4, #144]	; 0x90
24059d00:	67a7      	str	r7, [r4, #120]	; 0x78
24059d02:	f8a4 607c 	strh.w	r6, [r4, #124]	; 0x7c
24059d06:	f8a4 607e 	strh.w	r6, [r4, #126]	; 0x7e
24059d0a:	6403      	str	r3, [r0, #64]	; 0x40
24059d0c:	4b21      	ldr	r3, [pc, #132]	; (24059d94 <HAL_SAI_Transmit_DMA+0xd8>)
24059d0e:	6822      	ldr	r2, [r4, #0]
24059d10:	63c3      	str	r3, [r0, #60]	; 0x3c
24059d12:	4b21      	ldr	r3, [pc, #132]	; (24059d98 <HAL_SAI_Transmit_DMA+0xdc>)
24059d14:	321c      	adds	r2, #28
24059d16:	e9c0 3913 	strd	r3, r9, [r0, #76]	; 0x4c
24059d1a:	4633      	mov	r3, r6
24059d1c:	f7fb ff52 	bl	24055bc4 <HAL_DMA_Start_IT>
24059d20:	4601      	mov	r1, r0
24059d22:	b120      	cbz	r0, 24059d2e <HAL_SAI_Transmit_DMA+0x72>
24059d24:	f884 9090 	strb.w	r9, [r4, #144]	; 0x90
24059d28:	4628      	mov	r0, r5
24059d2a:	e8bd 83f8 	ldmia.w	sp!, {r3, r4, r5, r6, r7, r8, r9, pc}
24059d2e:	4620      	mov	r0, r4
24059d30:	f7ff fd44 	bl	240597bc <SAI_InterruptFlag>
24059d34:	6823      	ldr	r3, [r4, #0]
24059d36:	691a      	ldr	r2, [r3, #16]
24059d38:	4310      	orrs	r0, r2
24059d3a:	6118      	str	r0, [r3, #16]
24059d3c:	681a      	ldr	r2, [r3, #0]
24059d3e:	f442 3200 	orr.w	r2, r2, #131072	; 0x20000
24059d42:	601a      	str	r2, [r3, #0]
24059d44:	6823      	ldr	r3, [r4, #0]
24059d46:	695d      	ldr	r5, [r3, #20]
24059d48:	f415 25e0 	ands.w	r5, r5, #458752	; 0x70000
24059d4c:	d00a      	beq.n	24059d64 <HAL_SAI_Transmit_DMA+0xa8>
24059d4e:	681a      	ldr	r2, [r3, #0]
24059d50:	03d2      	lsls	r2, r2, #15
24059d52:	d403      	bmi.n	24059d5c <HAL_SAI_Transmit_DMA+0xa0>
24059d54:	681a      	ldr	r2, [r3, #0]
24059d56:	f442 3280 	orr.w	r2, r2, #65536	; 0x10000
24059d5a:	601a      	str	r2, [r3, #0]
24059d5c:	2500      	movs	r5, #0
24059d5e:	f884 5090 	strb.w	r5, [r4, #144]	; 0x90
24059d62:	e7e1      	b.n	24059d28 <HAL_SAI_Transmit_DMA+0x6c>
24059d64:	f7fa fafe 	bl	24054364 <HAL_GetTick>
24059d68:	eba0 0008 	sub.w	r0, r0, r8
24059d6c:	f5b0 7f7a 	cmp.w	r0, #1000	; 0x3e8
24059d70:	d9e8      	bls.n	24059d44 <HAL_SAI_Transmit_DMA+0x88>
24059d72:	f8d4 3094 	ldr.w	r3, [r4, #148]	; 0x94
24059d76:	f884 5090 	strb.w	r5, [r4, #144]	; 0x90
24059d7a:	2503      	movs	r5, #3
24059d7c:	f043 0340 	orr.w	r3, r3, #64	; 0x40
24059d80:	f8c4 3094 	str.w	r3, [r4, #148]	; 0x94
24059d84:	e7d0      	b.n	24059d28 <HAL_SAI_Transmit_DMA+0x6c>
24059d86:	2501      	movs	r5, #1
24059d88:	e7ce      	b.n	24059d28 <HAL_SAI_Transmit_DMA+0x6c>
24059d8a:	2502      	movs	r5, #2
24059d8c:	e7cc      	b.n	24059d28 <HAL_SAI_Transmit_DMA+0x6c>
24059d8e:	bf00      	nop
24059d90:	24059dd5 	.word	0x24059dd5
24059d94:	24059d9d 	.word	0x24059d9d
24059d98:	24059de1 	.word	0x24059de1

24059d9c <SAI_DMATxCplt>:
24059d9c:	b538      	push	{r3, r4, r5, lr}
24059d9e:	69c3      	ldr	r3, [r0, #28]
24059da0:	6b84      	ldr	r4, [r0, #56]	; 0x38
24059da2:	f5b3 7f80 	cmp.w	r3, #256	; 0x100
24059da6:	d011      	beq.n	24059dcc <SAI_DMATxCplt+0x30>
24059da8:	6825      	ldr	r5, [r4, #0]
24059daa:	2100      	movs	r1, #0
24059dac:	4620      	mov	r0, r4
24059dae:	682b      	ldr	r3, [r5, #0]
24059db0:	f8a4 107e 	strh.w	r1, [r4, #126]	; 0x7e
24059db4:	f423 3300 	bic.w	r3, r3, #131072	; 0x20000
24059db8:	602b      	str	r3, [r5, #0]
24059dba:	f7ff fcff 	bl	240597bc <SAI_InterruptFlag>
24059dbe:	692b      	ldr	r3, [r5, #16]
24059dc0:	ea23 0000 	bic.w	r0, r3, r0
24059dc4:	2301      	movs	r3, #1
24059dc6:	6128      	str	r0, [r5, #16]
24059dc8:	f884 3091 	strb.w	r3, [r4, #145]	; 0x91
24059dcc:	4620      	mov	r0, r4
24059dce:	f7f7 fdd3 	bl	24051978 <HAL_SAI_TxCpltCallback>
24059dd2:	bd38      	pop	{r3, r4, r5, pc}

24059dd4 <SAI_DMATxHalfCplt>:
24059dd4:	6b80      	ldr	r0, [r0, #56]	; 0x38
24059dd6:	b508      	push	{r3, lr}
24059dd8:	f7f7 fe2a 	bl	24051a30 <HAL_SAI_TxHalfCpltCallback>
24059ddc:	bd08      	pop	{r3, pc}

24059dde <HAL_SAI_ErrorCallback>:
24059dde:	4770      	bx	lr

24059de0 <SAI_DMAError>:
24059de0:	b510      	push	{r4, lr}
24059de2:	6b84      	ldr	r4, [r0, #56]	; 0x38
24059de4:	f7fc fc30 	bl	24056648 <HAL_DMA_GetError>
24059de8:	2802      	cmp	r0, #2
24059dea:	d016      	beq.n	24059e1a <SAI_DMAError+0x3a>
24059dec:	f8d4 3094 	ldr.w	r3, [r4, #148]	; 0x94
24059df0:	4620      	mov	r0, r4
24059df2:	6822      	ldr	r2, [r4, #0]
24059df4:	f043 0380 	orr.w	r3, r3, #128	; 0x80
24059df8:	f8c4 3094 	str.w	r3, [r4, #148]	; 0x94
24059dfc:	6813      	ldr	r3, [r2, #0]
24059dfe:	f423 3300 	bic.w	r3, r3, #131072	; 0x20000
24059e02:	6013      	str	r3, [r2, #0]
24059e04:	f7ff fcf0 	bl	240597e8 <SAI_Disable>
24059e08:	2301      	movs	r3, #1
24059e0a:	4620      	mov	r0, r4
24059e0c:	f884 3091 	strb.w	r3, [r4, #145]	; 0x91
24059e10:	2300      	movs	r3, #0
24059e12:	f8a4 307e 	strh.w	r3, [r4, #126]	; 0x7e
24059e16:	f7ff ffe2 	bl	24059dde <HAL_SAI_ErrorCallback>
24059e1a:	bd10      	pop	{r4, pc}

24059e1c <HAL_SAI_IRQHandler>:
24059e1c:	b570      	push	{r4, r5, r6, lr}
24059e1e:	f890 3091 	ldrb.w	r3, [r0, #145]	; 0x91
24059e22:	4604      	mov	r4, r0
24059e24:	2b00      	cmp	r3, #0
24059e26:	d05c      	beq.n	24059ee2 <HAL_SAI_IRQHandler+0xc6>
24059e28:	6803      	ldr	r3, [r0, #0]
24059e2a:	6959      	ldr	r1, [r3, #20]
24059e2c:	691a      	ldr	r2, [r3, #16]
24059e2e:	070e      	lsls	r6, r1, #28
24059e30:	681d      	ldr	r5, [r3, #0]
24059e32:	d506      	bpl.n	24059e42 <HAL_SAI_IRQHandler+0x26>
24059e34:	0716      	lsls	r6, r2, #28
24059e36:	d504      	bpl.n	24059e42 <HAL_SAI_IRQHandler+0x26>
24059e38:	f8d0 308c 	ldr.w	r3, [r0, #140]	; 0x8c
24059e3c:	e8bd 4070 	ldmia.w	sp!, {r4, r5, r6, lr}
24059e40:	4718      	bx	r3
24059e42:	07c8      	lsls	r0, r1, #31
24059e44:	d50f      	bpl.n	24059e66 <HAL_SAI_IRQHandler+0x4a>
24059e46:	f012 0001 	ands.w	r0, r2, #1
24059e4a:	d00c      	beq.n	24059e66 <HAL_SAI_IRQHandler+0x4a>
24059e4c:	2201      	movs	r2, #1
24059e4e:	619a      	str	r2, [r3, #24]
24059e50:	f894 3091 	ldrb.w	r3, [r4, #145]	; 0x91
24059e54:	2b22      	cmp	r3, #34	; 0x22
24059e56:	f8d4 3094 	ldr.w	r3, [r4, #148]	; 0x94
24059e5a:	bf18      	it	ne
24059e5c:	2002      	movne	r0, #2
24059e5e:	4303      	orrs	r3, r0
24059e60:	f8c4 3094 	str.w	r3, [r4, #148]	; 0x94
24059e64:	e03a      	b.n	24059edc <HAL_SAI_IRQHandler+0xc0>
24059e66:	078e      	lsls	r6, r1, #30
24059e68:	d509      	bpl.n	24059e7e <HAL_SAI_IRQHandler+0x62>
24059e6a:	0790      	lsls	r0, r2, #30
24059e6c:	d507      	bpl.n	24059e7e <HAL_SAI_IRQHandler+0x62>
24059e6e:	2202      	movs	r2, #2
24059e70:	619a      	str	r2, [r3, #24]
24059e72:	f8d4 3088 	ldr.w	r3, [r4, #136]	; 0x88
24059e76:	b3a3      	cbz	r3, 24059ee2 <HAL_SAI_IRQHandler+0xc6>
24059e78:	e8bd 4070 	ldmia.w	sp!, {r4, r5, r6, lr}
24059e7c:	4718      	bx	r3
24059e7e:	068e      	lsls	r6, r1, #26
24059e80:	d530      	bpl.n	24059ee4 <HAL_SAI_IRQHandler+0xc8>
24059e82:	0690      	lsls	r0, r2, #26
24059e84:	d52e      	bpl.n	24059ee4 <HAL_SAI_IRQHandler+0xc8>
24059e86:	2220      	movs	r2, #32
24059e88:	619a      	str	r2, [r3, #24]
24059e8a:	f8d4 3094 	ldr.w	r3, [r4, #148]	; 0x94
24059e8e:	f043 0304 	orr.w	r3, r3, #4
24059e92:	f8c4 3094 	str.w	r3, [r4, #148]	; 0x94
24059e96:	03ab      	lsls	r3, r5, #14
24059e98:	d51d      	bpl.n	24059ed6 <HAL_SAI_IRQHandler+0xba>
24059e9a:	f8d4 0080 	ldr.w	r0, [r4, #128]	; 0x80
24059e9e:	b168      	cbz	r0, 24059ebc <HAL_SAI_IRQHandler+0xa0>
24059ea0:	4b27      	ldr	r3, [pc, #156]	; (24059f40 <HAL_SAI_IRQHandler+0x124>)
24059ea2:	6503      	str	r3, [r0, #80]	; 0x50
24059ea4:	f7fc f94e 	bl	24056144 <HAL_DMA_Abort_IT>
24059ea8:	b140      	cbz	r0, 24059ebc <HAL_SAI_IRQHandler+0xa0>
24059eaa:	f8d4 3094 	ldr.w	r3, [r4, #148]	; 0x94
24059eae:	4620      	mov	r0, r4
24059eb0:	f043 0380 	orr.w	r3, r3, #128	; 0x80
24059eb4:	f8c4 3094 	str.w	r3, [r4, #148]	; 0x94
24059eb8:	f7ff ff91 	bl	24059dde <HAL_SAI_ErrorCallback>
24059ebc:	f8d4 0084 	ldr.w	r0, [r4, #132]	; 0x84
24059ec0:	b178      	cbz	r0, 24059ee2 <HAL_SAI_IRQHandler+0xc6>
24059ec2:	4b1f      	ldr	r3, [pc, #124]	; (24059f40 <HAL_SAI_IRQHandler+0x124>)
24059ec4:	6503      	str	r3, [r0, #80]	; 0x50
24059ec6:	f7fc f93d 	bl	24056144 <HAL_DMA_Abort_IT>
24059eca:	b150      	cbz	r0, 24059ee2 <HAL_SAI_IRQHandler+0xc6>
24059ecc:	f8d4 3094 	ldr.w	r3, [r4, #148]	; 0x94
24059ed0:	f043 0380 	orr.w	r3, r3, #128	; 0x80
24059ed4:	e7c4      	b.n	24059e60 <HAL_SAI_IRQHandler+0x44>
24059ed6:	4620      	mov	r0, r4
24059ed8:	f7ff fe94 	bl	24059c04 <HAL_SAI_Abort>
24059edc:	4620      	mov	r0, r4
24059ede:	f7ff ff7e 	bl	24059dde <HAL_SAI_ErrorCallback>
24059ee2:	bd70      	pop	{r4, r5, r6, pc}
24059ee4:	064e      	lsls	r6, r1, #25
24059ee6:	d508      	bpl.n	24059efa <HAL_SAI_IRQHandler+0xde>
24059ee8:	0650      	lsls	r0, r2, #25
24059eea:	d506      	bpl.n	24059efa <HAL_SAI_IRQHandler+0xde>
24059eec:	2240      	movs	r2, #64	; 0x40
24059eee:	619a      	str	r2, [r3, #24]
24059ef0:	f8d4 3094 	ldr.w	r3, [r4, #148]	; 0x94
24059ef4:	f043 0308 	orr.w	r3, r3, #8
24059ef8:	e7cb      	b.n	24059e92 <HAL_SAI_IRQHandler+0x76>
24059efa:	074e      	lsls	r6, r1, #29
24059efc:	d516      	bpl.n	24059f2c <HAL_SAI_IRQHandler+0x110>
24059efe:	0750      	lsls	r0, r2, #29
24059f00:	d514      	bpl.n	24059f2c <HAL_SAI_IRQHandler+0x110>
24059f02:	2204      	movs	r2, #4
24059f04:	f415 3500 	ands.w	r5, r5, #131072	; 0x20000
24059f08:	619a      	str	r2, [r3, #24]
24059f0a:	f8d4 2094 	ldr.w	r2, [r4, #148]	; 0x94
24059f0e:	f042 0220 	orr.w	r2, r2, #32
24059f12:	f8c4 2094 	str.w	r2, [r4, #148]	; 0x94
24059f16:	d1c0      	bne.n	24059e9a <HAL_SAI_IRQHandler+0x7e>
24059f18:	f04f 32ff 	mov.w	r2, #4294967295
24059f1c:	611d      	str	r5, [r3, #16]
24059f1e:	619a      	str	r2, [r3, #24]
24059f20:	2301      	movs	r3, #1
24059f22:	f8a4 507e 	strh.w	r5, [r4, #126]	; 0x7e
24059f26:	f884 3091 	strb.w	r3, [r4, #145]	; 0x91
24059f2a:	e7d7      	b.n	24059edc <HAL_SAI_IRQHandler+0xc0>
24059f2c:	06c9      	lsls	r1, r1, #27
24059f2e:	d5d8      	bpl.n	24059ee2 <HAL_SAI_IRQHandler+0xc6>
24059f30:	06d2      	lsls	r2, r2, #27
24059f32:	d5d6      	bpl.n	24059ee2 <HAL_SAI_IRQHandler+0xc6>
24059f34:	2210      	movs	r2, #16
24059f36:	619a      	str	r2, [r3, #24]
24059f38:	f8d4 3094 	ldr.w	r3, [r4, #148]	; 0x94
24059f3c:	4313      	orrs	r3, r2
24059f3e:	e78f      	b.n	24059e60 <HAL_SAI_IRQHandler+0x44>
24059f40:	24059f45 	.word	0x24059f45

24059f44 <SAI_DMAAbort>:
24059f44:	b538      	push	{r3, r4, r5, lr}
24059f46:	6b84      	ldr	r4, [r0, #56]	; 0x38
24059f48:	6825      	ldr	r5, [r4, #0]
24059f4a:	682b      	ldr	r3, [r5, #0]
24059f4c:	f423 3300 	bic.w	r3, r3, #131072	; 0x20000
24059f50:	602b      	str	r3, [r5, #0]
24059f52:	2300      	movs	r3, #0
24059f54:	612b      	str	r3, [r5, #16]
24059f56:	f04f 33ff 	mov.w	r3, #4294967295
24059f5a:	61ab      	str	r3, [r5, #24]
24059f5c:	f8d4 3094 	ldr.w	r3, [r4, #148]	; 0x94
24059f60:	2b20      	cmp	r3, #32
24059f62:	d006      	beq.n	24059f72 <SAI_DMAAbort+0x2e>
24059f64:	4620      	mov	r0, r4
24059f66:	f7ff fc3f 	bl	240597e8 <SAI_Disable>
24059f6a:	686b      	ldr	r3, [r5, #4]
24059f6c:	f043 0308 	orr.w	r3, r3, #8
24059f70:	606b      	str	r3, [r5, #4]
24059f72:	2301      	movs	r3, #1
24059f74:	4620      	mov	r0, r4
24059f76:	f884 3091 	strb.w	r3, [r4, #145]	; 0x91
24059f7a:	2300      	movs	r3, #0
24059f7c:	f8a4 307e 	strh.w	r3, [r4, #126]	; 0x7e
24059f80:	f7ff ff2d 	bl	24059dde <HAL_SAI_ErrorCallback>
24059f84:	bd38      	pop	{r3, r4, r5, pc}

24059f86 <SPI_CloseTransfer>:
24059f86:	6803      	ldr	r3, [r0, #0]
24059f88:	6959      	ldr	r1, [r3, #20]
24059f8a:	699a      	ldr	r2, [r3, #24]
24059f8c:	f042 0208 	orr.w	r2, r2, #8
24059f90:	619a      	str	r2, [r3, #24]
24059f92:	699a      	ldr	r2, [r3, #24]
24059f94:	f042 0210 	orr.w	r2, r2, #16
24059f98:	619a      	str	r2, [r3, #24]
24059f9a:	681a      	ldr	r2, [r3, #0]
24059f9c:	f022 0201 	bic.w	r2, r2, #1
24059fa0:	601a      	str	r2, [r3, #0]
24059fa2:	691a      	ldr	r2, [r3, #16]
24059fa4:	f422 725b 	bic.w	r2, r2, #876	; 0x36c
24059fa8:	f022 0203 	bic.w	r2, r2, #3
24059fac:	611a      	str	r2, [r3, #16]
24059fae:	689a      	ldr	r2, [r3, #8]
24059fb0:	f422 4240 	bic.w	r2, r2, #49152	; 0xc000
24059fb4:	609a      	str	r2, [r3, #8]
24059fb6:	f890 2081 	ldrb.w	r2, [r0, #129]	; 0x81
24059fba:	2a04      	cmp	r2, #4
24059fbc:	d00b      	beq.n	24059fd6 <SPI_CloseTransfer+0x50>
24059fbe:	068a      	lsls	r2, r1, #26
24059fc0:	d509      	bpl.n	24059fd6 <SPI_CloseTransfer+0x50>
24059fc2:	f8d0 2084 	ldr.w	r2, [r0, #132]	; 0x84
24059fc6:	f042 0280 	orr.w	r2, r2, #128	; 0x80
24059fca:	f8c0 2084 	str.w	r2, [r0, #132]	; 0x84
24059fce:	699a      	ldr	r2, [r3, #24]
24059fd0:	f042 0220 	orr.w	r2, r2, #32
24059fd4:	619a      	str	r2, [r3, #24]
24059fd6:	f890 2081 	ldrb.w	r2, [r0, #129]	; 0x81
24059fda:	2a03      	cmp	r2, #3
24059fdc:	d00b      	beq.n	24059ff6 <SPI_CloseTransfer+0x70>
24059fde:	064a      	lsls	r2, r1, #25
24059fe0:	d509      	bpl.n	24059ff6 <SPI_CloseTransfer+0x70>
24059fe2:	f8d0 2084 	ldr.w	r2, [r0, #132]	; 0x84
24059fe6:	f042 0204 	orr.w	r2, r2, #4
24059fea:	f8c0 2084 	str.w	r2, [r0, #132]	; 0x84
24059fee:	699a      	ldr	r2, [r3, #24]
24059ff0:	f042 0240 	orr.w	r2, r2, #64	; 0x40
24059ff4:	619a      	str	r2, [r3, #24]
24059ff6:	058a      	lsls	r2, r1, #22
24059ff8:	d509      	bpl.n	2405a00e <SPI_CloseTransfer+0x88>
24059ffa:	f8d0 2084 	ldr.w	r2, [r0, #132]	; 0x84
24059ffe:	f042 0201 	orr.w	r2, r2, #1
2405a002:	f8c0 2084 	str.w	r2, [r0, #132]	; 0x84
2405a006:	699a      	ldr	r2, [r3, #24]
2405a008:	f442 7200 	orr.w	r2, r2, #512	; 0x200
2405a00c:	619a      	str	r2, [r3, #24]
2405a00e:	05ca      	lsls	r2, r1, #23
2405a010:	d509      	bpl.n	2405a026 <SPI_CloseTransfer+0xa0>
2405a012:	f8d0 2084 	ldr.w	r2, [r0, #132]	; 0x84
2405a016:	f042 0208 	orr.w	r2, r2, #8
2405a01a:	f8c0 2084 	str.w	r2, [r0, #132]	; 0x84
2405a01e:	699a      	ldr	r2, [r3, #24]
2405a020:	f442 7280 	orr.w	r2, r2, #256	; 0x100
2405a024:	619a      	str	r2, [r3, #24]
2405a026:	2300      	movs	r3, #0
2405a028:	f8a0 3062 	strh.w	r3, [r0, #98]	; 0x62
2405a02c:	f8a0 306a 	strh.w	r3, [r0, #106]	; 0x6a
2405a030:	4770      	bx	lr
	...

2405a034 <HAL_SPI_Init>:
2405a034:	b5f8      	push	{r3, r4, r5, r6, r7, lr}
2405a036:	4604      	mov	r4, r0
2405a038:	b908      	cbnz	r0, 2405a03e <HAL_SPI_Init+0xa>
2405a03a:	2001      	movs	r0, #1
2405a03c:	bdf8      	pop	{r3, r4, r5, r6, r7, pc}
2405a03e:	6802      	ldr	r2, [r0, #0]
2405a040:	2300      	movs	r3, #0
2405a042:	494d      	ldr	r1, [pc, #308]	; (2405a178 <HAL_SPI_Init+0x144>)
2405a044:	6283      	str	r3, [r0, #40]	; 0x28
2405a046:	428a      	cmp	r2, r1
2405a048:	68c3      	ldr	r3, [r0, #12]
2405a04a:	d009      	beq.n	2405a060 <HAL_SPI_Init+0x2c>
2405a04c:	f5a1 4178 	sub.w	r1, r1, #63488	; 0xf800
2405a050:	428a      	cmp	r2, r1
2405a052:	d005      	beq.n	2405a060 <HAL_SPI_Init+0x2c>
2405a054:	f501 6180 	add.w	r1, r1, #1024	; 0x400
2405a058:	428a      	cmp	r2, r1
2405a05a:	d001      	beq.n	2405a060 <HAL_SPI_Init+0x2c>
2405a05c:	2b0f      	cmp	r3, #15
2405a05e:	d8ec      	bhi.n	2405a03a <HAL_SPI_Init+0x6>
2405a060:	6be1      	ldr	r1, [r4, #60]	; 0x3c
2405a062:	3308      	adds	r3, #8
2405a064:	0949      	lsrs	r1, r1, #5
2405a066:	08db      	lsrs	r3, r3, #3
2405a068:	fb01 3303 	mla	r3, r1, r3, r3
2405a06c:	4942      	ldr	r1, [pc, #264]	; (2405a178 <HAL_SPI_Init+0x144>)
2405a06e:	428a      	cmp	r2, r1
2405a070:	d073      	beq.n	2405a15a <HAL_SPI_Init+0x126>
2405a072:	f5a1 4178 	sub.w	r1, r1, #63488	; 0xf800
2405a076:	428a      	cmp	r2, r1
2405a078:	d06f      	beq.n	2405a15a <HAL_SPI_Init+0x126>
2405a07a:	f501 6180 	add.w	r1, r1, #1024	; 0x400
2405a07e:	428a      	cmp	r2, r1
2405a080:	d06b      	beq.n	2405a15a <HAL_SPI_Init+0x126>
2405a082:	2b08      	cmp	r3, #8
2405a084:	d8d9      	bhi.n	2405a03a <HAL_SPI_Init+0x6>
2405a086:	f894 3081 	ldrb.w	r3, [r4, #129]	; 0x81
2405a08a:	f003 02ff 	and.w	r2, r3, #255	; 0xff
2405a08e:	b923      	cbnz	r3, 2405a09a <HAL_SPI_Init+0x66>
2405a090:	4620      	mov	r0, r4
2405a092:	f884 2080 	strb.w	r2, [r4, #128]	; 0x80
2405a096:	f7f9 feeb 	bl	24053e70 <HAL_SPI_MspInit>
2405a09a:	6822      	ldr	r2, [r4, #0]
2405a09c:	2302      	movs	r3, #2
2405a09e:	6861      	ldr	r1, [r4, #4]
2405a0a0:	f884 3081 	strb.w	r3, [r4, #129]	; 0x81
2405a0a4:	6813      	ldr	r3, [r2, #0]
2405a0a6:	6ba6      	ldr	r6, [r4, #56]	; 0x38
2405a0a8:	f023 0301 	bic.w	r3, r3, #1
2405a0ac:	6013      	str	r3, [r2, #0]
2405a0ae:	6893      	ldr	r3, [r2, #8]
2405a0b0:	f403 1cf8 	and.w	ip, r3, #2031616	; 0x1f0000
2405a0b4:	69a3      	ldr	r3, [r4, #24]
2405a0b6:	f1b3 6f80 	cmp.w	r3, #67108864	; 0x4000000
2405a0ba:	d104      	bne.n	2405a0c6 <HAL_SPI_Init+0x92>
2405a0bc:	f5b1 0f80 	cmp.w	r1, #4194304	; 0x400000
2405a0c0:	d14d      	bne.n	2405a15e <HAL_SPI_Init+0x12a>
2405a0c2:	2e00      	cmp	r6, #0
2405a0c4:	d050      	beq.n	2405a168 <HAL_SPI_Init+0x134>
2405a0c6:	f411 0080 	ands.w	r0, r1, #4194304	; 0x400000
2405a0ca:	68e5      	ldr	r5, [r4, #12]
2405a0cc:	6817      	ldr	r7, [r2, #0]
2405a0ce:	d050      	beq.n	2405a172 <HAL_SPI_Init+0x13e>
2405a0d0:	2d06      	cmp	r5, #6
2405a0d2:	d94e      	bls.n	2405a172 <HAL_SPI_Init+0x13e>
2405a0d4:	f427 7e80 	bic.w	lr, r7, #256	; 0x100
2405a0d8:	6d27      	ldr	r7, [r4, #80]	; 0x50
2405a0da:	ea4e 0707 	orr.w	r7, lr, r7
2405a0de:	6017      	str	r7, [r2, #0]
2405a0e0:	430b      	orrs	r3, r1
2405a0e2:	69e7      	ldr	r7, [r4, #28]
2405a0e4:	4333      	orrs	r3, r6
2405a0e6:	433d      	orrs	r5, r7
2405a0e8:	6aa7      	ldr	r7, [r4, #40]	; 0x28
2405a0ea:	433d      	orrs	r5, r7
2405a0ec:	6be7      	ldr	r7, [r4, #60]	; 0x3c
2405a0ee:	433d      	orrs	r5, r7
2405a0f0:	ea45 050c 	orr.w	r5, r5, ip
2405a0f4:	6095      	str	r5, [r2, #8]
2405a0f6:	6b65      	ldr	r5, [r4, #52]	; 0x34
2405a0f8:	432b      	orrs	r3, r5
2405a0fa:	6a65      	ldr	r5, [r4, #36]	; 0x24
2405a0fc:	432b      	orrs	r3, r5
2405a0fe:	6925      	ldr	r5, [r4, #16]
2405a100:	432b      	orrs	r3, r5
2405a102:	6965      	ldr	r5, [r4, #20]
2405a104:	432b      	orrs	r3, r5
2405a106:	6a25      	ldr	r5, [r4, #32]
2405a108:	432b      	orrs	r3, r5
2405a10a:	6ce5      	ldr	r5, [r4, #76]	; 0x4c
2405a10c:	432b      	orrs	r3, r5
2405a10e:	68a5      	ldr	r5, [r4, #8]
2405a110:	432b      	orrs	r3, r5
2405a112:	6ca5      	ldr	r5, [r4, #72]	; 0x48
2405a114:	432b      	orrs	r3, r5
2405a116:	6da5      	ldr	r5, [r4, #88]	; 0x58
2405a118:	432b      	orrs	r3, r5
2405a11a:	60d3      	str	r3, [r2, #12]
2405a11c:	b959      	cbnz	r1, 2405a136 <HAL_SPI_Init+0x102>
2405a11e:	6893      	ldr	r3, [r2, #8]
2405a120:	f423 53c0 	bic.w	r3, r3, #6144	; 0x1800
2405a124:	f443 6300 	orr.w	r3, r3, #2048	; 0x800
2405a128:	6093      	str	r3, [r2, #8]
2405a12a:	6893      	ldr	r3, [r2, #8]
2405a12c:	f423 63c0 	bic.w	r3, r3, #1536	; 0x600
2405a130:	f443 6380 	orr.w	r3, r3, #1024	; 0x400
2405a134:	6093      	str	r3, [r2, #8]
2405a136:	6d13      	ldr	r3, [r2, #80]	; 0x50
2405a138:	f023 0301 	bic.w	r3, r3, #1
2405a13c:	6513      	str	r3, [r2, #80]	; 0x50
2405a13e:	b128      	cbz	r0, 2405a14c <HAL_SPI_Init+0x118>
2405a140:	68d3      	ldr	r3, [r2, #12]
2405a142:	6d61      	ldr	r1, [r4, #84]	; 0x54
2405a144:	f023 4300 	bic.w	r3, r3, #2147483648	; 0x80000000
2405a148:	430b      	orrs	r3, r1
2405a14a:	60d3      	str	r3, [r2, #12]
2405a14c:	2000      	movs	r0, #0
2405a14e:	2301      	movs	r3, #1
2405a150:	f8c4 0084 	str.w	r0, [r4, #132]	; 0x84
2405a154:	f884 3081 	strb.w	r3, [r4, #129]	; 0x81
2405a158:	e770      	b.n	2405a03c <HAL_SPI_Init+0x8>
2405a15a:	2b10      	cmp	r3, #16
2405a15c:	e792      	b.n	2405a084 <HAL_SPI_Init+0x50>
2405a15e:	2900      	cmp	r1, #0
2405a160:	d1b1      	bne.n	2405a0c6 <HAL_SPI_Init+0x92>
2405a162:	f1b6 5f80 	cmp.w	r6, #268435456	; 0x10000000
2405a166:	d1ae      	bne.n	2405a0c6 <HAL_SPI_Init+0x92>
2405a168:	6810      	ldr	r0, [r2, #0]
2405a16a:	f440 5080 	orr.w	r0, r0, #4096	; 0x1000
2405a16e:	6010      	str	r0, [r2, #0]
2405a170:	e7a9      	b.n	2405a0c6 <HAL_SPI_Init+0x92>
2405a172:	f427 7780 	bic.w	r7, r7, #256	; 0x100
2405a176:	e7b2      	b.n	2405a0de <HAL_SPI_Init+0xaa>
2405a178:	40013000 	.word	0x40013000

2405a17c <HAL_SPI_Transmit>:
2405a17c:	e92d 43f8 	stmdb	sp!, {r3, r4, r5, r6, r7, r8, r9, lr}
2405a180:	461d      	mov	r5, r3
2405a182:	f890 3080 	ldrb.w	r3, [r0, #128]	; 0x80
2405a186:	4604      	mov	r4, r0
2405a188:	4689      	mov	r9, r1
2405a18a:	2b01      	cmp	r3, #1
2405a18c:	4690      	mov	r8, r2
2405a18e:	d00e      	beq.n	2405a1ae <HAL_SPI_Transmit+0x32>
2405a190:	2301      	movs	r3, #1
2405a192:	6807      	ldr	r7, [r0, #0]
2405a194:	f880 3080 	strb.w	r3, [r0, #128]	; 0x80
2405a198:	f7fa f8e4 	bl	24054364 <HAL_GetTick>
2405a19c:	f894 3081 	ldrb.w	r3, [r4, #129]	; 0x81
2405a1a0:	4606      	mov	r6, r0
2405a1a2:	2b01      	cmp	r3, #1
2405a1a4:	b2d8      	uxtb	r0, r3
2405a1a6:	d004      	beq.n	2405a1b2 <HAL_SPI_Transmit+0x36>
2405a1a8:	2300      	movs	r3, #0
2405a1aa:	f884 3080 	strb.w	r3, [r4, #128]	; 0x80
2405a1ae:	2002      	movs	r0, #2
2405a1b0:	e008      	b.n	2405a1c4 <HAL_SPI_Transmit+0x48>
2405a1b2:	f1b9 0f00 	cmp.w	r9, #0
2405a1b6:	d002      	beq.n	2405a1be <HAL_SPI_Transmit+0x42>
2405a1b8:	f1b8 0f00 	cmp.w	r8, #0
2405a1bc:	d104      	bne.n	2405a1c8 <HAL_SPI_Transmit+0x4c>
2405a1be:	2300      	movs	r3, #0
2405a1c0:	f884 3080 	strb.w	r3, [r4, #128]	; 0x80
2405a1c4:	e8bd 83f8 	ldmia.w	sp!, {r3, r4, r5, r6, r7, r8, r9, pc}
2405a1c8:	2303      	movs	r3, #3
2405a1ca:	68a2      	ldr	r2, [r4, #8]
2405a1cc:	f8c4 905c 	str.w	r9, [r4, #92]	; 0x5c
2405a1d0:	f884 3081 	strb.w	r3, [r4, #129]	; 0x81
2405a1d4:	f5b2 2fc0 	cmp.w	r2, #393216	; 0x60000
2405a1d8:	f04f 0300 	mov.w	r3, #0
2405a1dc:	f8a4 8060 	strh.w	r8, [r4, #96]	; 0x60
2405a1e0:	f8c4 3084 	str.w	r3, [r4, #132]	; 0x84
2405a1e4:	6663      	str	r3, [r4, #100]	; 0x64
2405a1e6:	f8a4 8062 	strh.w	r8, [r4, #98]	; 0x62
2405a1ea:	f8a4 3068 	strh.w	r3, [r4, #104]	; 0x68
2405a1ee:	f8a4 306a 	strh.w	r3, [r4, #106]	; 0x6a
2405a1f2:	e9c4 331c 	strd	r3, r3, [r4, #112]	; 0x70
2405a1f6:	6823      	ldr	r3, [r4, #0]
2405a1f8:	d13b      	bne.n	2405a272 <HAL_SPI_Transmit+0xf6>
2405a1fa:	681a      	ldr	r2, [r3, #0]
2405a1fc:	f442 6200 	orr.w	r2, r2, #2048	; 0x800
2405a200:	601a      	str	r2, [r3, #0]
2405a202:	6859      	ldr	r1, [r3, #4]
2405a204:	0c09      	lsrs	r1, r1, #16
2405a206:	0409      	lsls	r1, r1, #16
2405a208:	ea41 0108 	orr.w	r1, r1, r8
2405a20c:	6059      	str	r1, [r3, #4]
2405a20e:	681a      	ldr	r2, [r3, #0]
2405a210:	f042 0201 	orr.w	r2, r2, #1
2405a214:	601a      	str	r2, [r3, #0]
2405a216:	6862      	ldr	r2, [r4, #4]
2405a218:	f5b2 0f80 	cmp.w	r2, #4194304	; 0x400000
2405a21c:	d103      	bne.n	2405a226 <HAL_SPI_Transmit+0xaa>
2405a21e:	681a      	ldr	r2, [r3, #0]
2405a220:	f442 7200 	orr.w	r2, r2, #512	; 0x200
2405a224:	601a      	str	r2, [r3, #0]
2405a226:	68e3      	ldr	r3, [r4, #12]
2405a228:	2b0f      	cmp	r3, #15
2405a22a:	d838      	bhi.n	2405a29e <HAL_SPI_Transmit+0x122>
2405a22c:	2b07      	cmp	r3, #7
2405a22e:	d87c      	bhi.n	2405a32a <HAL_SPI_Transmit+0x1ae>
2405a230:	f8b4 3062 	ldrh.w	r3, [r4, #98]	; 0x62
2405a234:	6821      	ldr	r1, [r4, #0]
2405a236:	b29b      	uxth	r3, r3
2405a238:	2b00      	cmp	r3, #0
2405a23a:	d036      	beq.n	2405a2aa <HAL_SPI_Transmit+0x12e>
2405a23c:	694b      	ldr	r3, [r1, #20]
2405a23e:	f013 0802 	ands.w	r8, r3, #2
2405a242:	f000 80a7 	beq.w	2405a394 <HAL_SPI_Transmit+0x218>
2405a246:	f8b4 3062 	ldrh.w	r3, [r4, #98]	; 0x62
2405a24a:	6de2      	ldr	r2, [r4, #92]	; 0x5c
2405a24c:	b29b      	uxth	r3, r3
2405a24e:	2b03      	cmp	r3, #3
2405a250:	f240 8087 	bls.w	2405a362 <HAL_SPI_Transmit+0x1e6>
2405a254:	6be3      	ldr	r3, [r4, #60]	; 0x3c
2405a256:	2b40      	cmp	r3, #64	; 0x40
2405a258:	f240 8083 	bls.w	2405a362 <HAL_SPI_Transmit+0x1e6>
2405a25c:	f852 3b04 	ldr.w	r3, [r2], #4
2405a260:	620b      	str	r3, [r1, #32]
2405a262:	f8b4 3062 	ldrh.w	r3, [r4, #98]	; 0x62
2405a266:	65e2      	str	r2, [r4, #92]	; 0x5c
2405a268:	3b04      	subs	r3, #4
2405a26a:	b29b      	uxth	r3, r3
2405a26c:	f8a4 3062 	strh.w	r3, [r4, #98]	; 0x62
2405a270:	e7de      	b.n	2405a230 <HAL_SPI_Transmit+0xb4>
2405a272:	68da      	ldr	r2, [r3, #12]
2405a274:	f422 22c0 	bic.w	r2, r2, #393216	; 0x60000
2405a278:	f442 3200 	orr.w	r2, r2, #131072	; 0x20000
2405a27c:	60da      	str	r2, [r3, #12]
2405a27e:	e7c0      	b.n	2405a202 <HAL_SPI_Transmit+0x86>
2405a280:	6957      	ldr	r7, [r2, #20]
2405a282:	f017 0702 	ands.w	r7, r7, #2
2405a286:	d023      	beq.n	2405a2d0 <HAL_SPI_Transmit+0x154>
2405a288:	6de3      	ldr	r3, [r4, #92]	; 0x5c
2405a28a:	f853 1b04 	ldr.w	r1, [r3], #4
2405a28e:	6211      	str	r1, [r2, #32]
2405a290:	65e3      	str	r3, [r4, #92]	; 0x5c
2405a292:	f8b4 3062 	ldrh.w	r3, [r4, #98]	; 0x62
2405a296:	3b01      	subs	r3, #1
2405a298:	b29b      	uxth	r3, r3
2405a29a:	f8a4 3062 	strh.w	r3, [r4, #98]	; 0x62
2405a29e:	f8b4 3062 	ldrh.w	r3, [r4, #98]	; 0x62
2405a2a2:	6822      	ldr	r2, [r4, #0]
2405a2a4:	b29b      	uxth	r3, r3
2405a2a6:	2b00      	cmp	r3, #0
2405a2a8:	d1ea      	bne.n	2405a280 <HAL_SPI_Transmit+0x104>
2405a2aa:	6823      	ldr	r3, [r4, #0]
2405a2ac:	695b      	ldr	r3, [r3, #20]
2405a2ae:	071b      	lsls	r3, r3, #28
2405a2b0:	d57a      	bpl.n	2405a3a8 <HAL_SPI_Transmit+0x22c>
2405a2b2:	4620      	mov	r0, r4
2405a2b4:	f7ff fe67 	bl	24059f86 <SPI_CloseTransfer>
2405a2b8:	2300      	movs	r3, #0
2405a2ba:	f884 3080 	strb.w	r3, [r4, #128]	; 0x80
2405a2be:	2301      	movs	r3, #1
2405a2c0:	f884 3081 	strb.w	r3, [r4, #129]	; 0x81
2405a2c4:	f8d4 0084 	ldr.w	r0, [r4, #132]	; 0x84
2405a2c8:	3800      	subs	r0, #0
2405a2ca:	bf18      	it	ne
2405a2cc:	2001      	movne	r0, #1
2405a2ce:	e779      	b.n	2405a1c4 <HAL_SPI_Transmit+0x48>
2405a2d0:	f7fa f848 	bl	24054364 <HAL_GetTick>
2405a2d4:	1b80      	subs	r0, r0, r6
2405a2d6:	42a8      	cmp	r0, r5
2405a2d8:	d3e1      	bcc.n	2405a29e <HAL_SPI_Transmit+0x122>
2405a2da:	1c6b      	adds	r3, r5, #1
2405a2dc:	d0df      	beq.n	2405a29e <HAL_SPI_Transmit+0x122>
2405a2de:	4620      	mov	r0, r4
2405a2e0:	f7ff fe51 	bl	24059f86 <SPI_CloseTransfer>
2405a2e4:	f884 7080 	strb.w	r7, [r4, #128]	; 0x80
2405a2e8:	f8d0 3084 	ldr.w	r3, [r0, #132]	; 0x84
2405a2ec:	f443 7380 	orr.w	r3, r3, #256	; 0x100
2405a2f0:	f8c0 3084 	str.w	r3, [r0, #132]	; 0x84
2405a2f4:	2301      	movs	r3, #1
2405a2f6:	f880 3081 	strb.w	r3, [r0, #129]	; 0x81
2405a2fa:	2003      	movs	r0, #3
2405a2fc:	e762      	b.n	2405a1c4 <HAL_SPI_Transmit+0x48>
2405a2fe:	694b      	ldr	r3, [r1, #20]
2405a300:	f013 0802 	ands.w	r8, r3, #2
2405a304:	d020      	beq.n	2405a348 <HAL_SPI_Transmit+0x1cc>
2405a306:	f8b4 2062 	ldrh.w	r2, [r4, #98]	; 0x62
2405a30a:	6de3      	ldr	r3, [r4, #92]	; 0x5c
2405a30c:	b292      	uxth	r2, r2
2405a30e:	2a01      	cmp	r2, #1
2405a310:	d912      	bls.n	2405a338 <HAL_SPI_Transmit+0x1bc>
2405a312:	6be2      	ldr	r2, [r4, #60]	; 0x3c
2405a314:	b182      	cbz	r2, 2405a338 <HAL_SPI_Transmit+0x1bc>
2405a316:	f853 2b04 	ldr.w	r2, [r3], #4
2405a31a:	620a      	str	r2, [r1, #32]
2405a31c:	65e3      	str	r3, [r4, #92]	; 0x5c
2405a31e:	f8b4 3062 	ldrh.w	r3, [r4, #98]	; 0x62
2405a322:	3b02      	subs	r3, #2
2405a324:	b29b      	uxth	r3, r3
2405a326:	f8a4 3062 	strh.w	r3, [r4, #98]	; 0x62
2405a32a:	f8b4 3062 	ldrh.w	r3, [r4, #98]	; 0x62
2405a32e:	6821      	ldr	r1, [r4, #0]
2405a330:	b29b      	uxth	r3, r3
2405a332:	2b00      	cmp	r3, #0
2405a334:	d1e3      	bne.n	2405a2fe <HAL_SPI_Transmit+0x182>
2405a336:	e7b8      	b.n	2405a2aa <HAL_SPI_Transmit+0x12e>
2405a338:	f833 2b02 	ldrh.w	r2, [r3], #2
2405a33c:	843a      	strh	r2, [r7, #32]
2405a33e:	65e3      	str	r3, [r4, #92]	; 0x5c
2405a340:	f8b4 3062 	ldrh.w	r3, [r4, #98]	; 0x62
2405a344:	3b01      	subs	r3, #1
2405a346:	e7ed      	b.n	2405a324 <HAL_SPI_Transmit+0x1a8>
2405a348:	f7fa f80c 	bl	24054364 <HAL_GetTick>
2405a34c:	1b80      	subs	r0, r0, r6
2405a34e:	42a8      	cmp	r0, r5
2405a350:	d3eb      	bcc.n	2405a32a <HAL_SPI_Transmit+0x1ae>
2405a352:	1c68      	adds	r0, r5, #1
2405a354:	d0e9      	beq.n	2405a32a <HAL_SPI_Transmit+0x1ae>
2405a356:	4620      	mov	r0, r4
2405a358:	f7ff fe15 	bl	24059f86 <SPI_CloseTransfer>
2405a35c:	f884 8080 	strb.w	r8, [r4, #128]	; 0x80
2405a360:	e7c2      	b.n	2405a2e8 <HAL_SPI_Transmit+0x16c>
2405a362:	f8b4 3062 	ldrh.w	r3, [r4, #98]	; 0x62
2405a366:	b29b      	uxth	r3, r3
2405a368:	2b01      	cmp	r3, #1
2405a36a:	d909      	bls.n	2405a380 <HAL_SPI_Transmit+0x204>
2405a36c:	6be3      	ldr	r3, [r4, #60]	; 0x3c
2405a36e:	b13b      	cbz	r3, 2405a380 <HAL_SPI_Transmit+0x204>
2405a370:	f832 3b02 	ldrh.w	r3, [r2], #2
2405a374:	843b      	strh	r3, [r7, #32]
2405a376:	f8b4 3062 	ldrh.w	r3, [r4, #98]	; 0x62
2405a37a:	65e2      	str	r2, [r4, #92]	; 0x5c
2405a37c:	3b02      	subs	r3, #2
2405a37e:	e774      	b.n	2405a26a <HAL_SPI_Transmit+0xee>
2405a380:	7813      	ldrb	r3, [r2, #0]
2405a382:	f881 3020 	strb.w	r3, [r1, #32]
2405a386:	6de3      	ldr	r3, [r4, #92]	; 0x5c
2405a388:	3301      	adds	r3, #1
2405a38a:	65e3      	str	r3, [r4, #92]	; 0x5c
2405a38c:	f8b4 3062 	ldrh.w	r3, [r4, #98]	; 0x62
2405a390:	3b01      	subs	r3, #1
2405a392:	e76a      	b.n	2405a26a <HAL_SPI_Transmit+0xee>
2405a394:	f7f9 ffe6 	bl	24054364 <HAL_GetTick>
2405a398:	1b80      	subs	r0, r0, r6
2405a39a:	42a8      	cmp	r0, r5
2405a39c:	f4ff af48 	bcc.w	2405a230 <HAL_SPI_Transmit+0xb4>
2405a3a0:	1c69      	adds	r1, r5, #1
2405a3a2:	f43f af45 	beq.w	2405a230 <HAL_SPI_Transmit+0xb4>
2405a3a6:	e7d6      	b.n	2405a356 <HAL_SPI_Transmit+0x1da>
2405a3a8:	f7f9 ffdc 	bl	24054364 <HAL_GetTick>
2405a3ac:	1b80      	subs	r0, r0, r6
2405a3ae:	4285      	cmp	r5, r0
2405a3b0:	f63f af7b 	bhi.w	2405a2aa <HAL_SPI_Transmit+0x12e>
2405a3b4:	1c6a      	adds	r2, r5, #1
2405a3b6:	f43f af78 	beq.w	2405a2aa <HAL_SPI_Transmit+0x12e>
2405a3ba:	f8d4 3084 	ldr.w	r3, [r4, #132]	; 0x84
2405a3be:	f043 0320 	orr.w	r3, r3, #32
2405a3c2:	f8c4 3084 	str.w	r3, [r4, #132]	; 0x84
2405a3c6:	e774      	b.n	2405a2b2 <HAL_SPI_Transmit+0x136>

2405a3c8 <HAL_TIM_Base_Start_IT>:
2405a3c8:	f890 303d 	ldrb.w	r3, [r0, #61]	; 0x3d
2405a3cc:	2b01      	cmp	r3, #1
2405a3ce:	d133      	bne.n	2405a438 <HAL_TIM_Base_Start_IT+0x70>
2405a3d0:	2302      	movs	r3, #2
2405a3d2:	f880 303d 	strb.w	r3, [r0, #61]	; 0x3d
2405a3d6:	6803      	ldr	r3, [r0, #0]
2405a3d8:	68da      	ldr	r2, [r3, #12]
2405a3da:	f042 0201 	orr.w	r2, r2, #1
2405a3de:	60da      	str	r2, [r3, #12]
2405a3e0:	4a16      	ldr	r2, [pc, #88]	; (2405a43c <HAL_TIM_Base_Start_IT+0x74>)
2405a3e2:	4293      	cmp	r3, r2
2405a3e4:	d01a      	beq.n	2405a41c <HAL_TIM_Base_Start_IT+0x54>
2405a3e6:	f1b3 4f80 	cmp.w	r3, #1073741824	; 0x40000000
2405a3ea:	d017      	beq.n	2405a41c <HAL_TIM_Base_Start_IT+0x54>
2405a3ec:	f5a2 427c 	sub.w	r2, r2, #64512	; 0xfc00
2405a3f0:	4293      	cmp	r3, r2
2405a3f2:	d013      	beq.n	2405a41c <HAL_TIM_Base_Start_IT+0x54>
2405a3f4:	f502 6280 	add.w	r2, r2, #1024	; 0x400
2405a3f8:	4293      	cmp	r3, r2
2405a3fa:	d00f      	beq.n	2405a41c <HAL_TIM_Base_Start_IT+0x54>
2405a3fc:	f502 6280 	add.w	r2, r2, #1024	; 0x400
2405a400:	4293      	cmp	r3, r2
2405a402:	d00b      	beq.n	2405a41c <HAL_TIM_Base_Start_IT+0x54>
2405a404:	f502 4278 	add.w	r2, r2, #63488	; 0xf800
2405a408:	4293      	cmp	r3, r2
2405a40a:	d007      	beq.n	2405a41c <HAL_TIM_Base_Start_IT+0x54>
2405a40c:	f5a2 426c 	sub.w	r2, r2, #60416	; 0xec00
2405a410:	4293      	cmp	r3, r2
2405a412:	d003      	beq.n	2405a41c <HAL_TIM_Base_Start_IT+0x54>
2405a414:	f502 3294 	add.w	r2, r2, #75776	; 0x12800
2405a418:	4293      	cmp	r3, r2
2405a41a:	d107      	bne.n	2405a42c <HAL_TIM_Base_Start_IT+0x64>
2405a41c:	6899      	ldr	r1, [r3, #8]
2405a41e:	4a08      	ldr	r2, [pc, #32]	; (2405a440 <HAL_TIM_Base_Start_IT+0x78>)
2405a420:	400a      	ands	r2, r1
2405a422:	2a06      	cmp	r2, #6
2405a424:	d006      	beq.n	2405a434 <HAL_TIM_Base_Start_IT+0x6c>
2405a426:	f5b2 3f80 	cmp.w	r2, #65536	; 0x10000
2405a42a:	d003      	beq.n	2405a434 <HAL_TIM_Base_Start_IT+0x6c>
2405a42c:	681a      	ldr	r2, [r3, #0]
2405a42e:	f042 0201 	orr.w	r2, r2, #1
2405a432:	601a      	str	r2, [r3, #0]
2405a434:	2000      	movs	r0, #0
2405a436:	4770      	bx	lr
2405a438:	2001      	movs	r0, #1
2405a43a:	4770      	bx	lr
2405a43c:	40010000 	.word	0x40010000
2405a440:	00010007 	.word	0x00010007

2405a444 <HAL_TIM_PeriodElapsedCallback>:
2405a444:	4770      	bx	lr

2405a446 <HAL_TIM_OC_DelayElapsedCallback>:
2405a446:	4770      	bx	lr

2405a448 <HAL_TIM_IC_CaptureCallback>:
2405a448:	4770      	bx	lr

2405a44a <HAL_TIM_PWM_PulseFinishedCallback>:
2405a44a:	4770      	bx	lr

2405a44c <HAL_TIM_TriggerCallback>:
2405a44c:	4770      	bx	lr

2405a44e <HAL_TIM_IRQHandler>:
2405a44e:	6803      	ldr	r3, [r0, #0]
2405a450:	691a      	ldr	r2, [r3, #16]
2405a452:	0791      	lsls	r1, r2, #30
2405a454:	b510      	push	{r4, lr}
2405a456:	4604      	mov	r4, r0
2405a458:	d50f      	bpl.n	2405a47a <HAL_TIM_IRQHandler+0x2c>
2405a45a:	68da      	ldr	r2, [r3, #12]
2405a45c:	0792      	lsls	r2, r2, #30
2405a45e:	d50c      	bpl.n	2405a47a <HAL_TIM_IRQHandler+0x2c>
2405a460:	f06f 0202 	mvn.w	r2, #2
2405a464:	611a      	str	r2, [r3, #16]
2405a466:	2201      	movs	r2, #1
2405a468:	7702      	strb	r2, [r0, #28]
2405a46a:	699b      	ldr	r3, [r3, #24]
2405a46c:	0799      	lsls	r1, r3, #30
2405a46e:	f000 8085 	beq.w	2405a57c <HAL_TIM_IRQHandler+0x12e>
2405a472:	f7ff ffe9 	bl	2405a448 <HAL_TIM_IC_CaptureCallback>
2405a476:	2300      	movs	r3, #0
2405a478:	7723      	strb	r3, [r4, #28]
2405a47a:	6823      	ldr	r3, [r4, #0]
2405a47c:	691a      	ldr	r2, [r3, #16]
2405a47e:	0752      	lsls	r2, r2, #29
2405a480:	d510      	bpl.n	2405a4a4 <HAL_TIM_IRQHandler+0x56>
2405a482:	68da      	ldr	r2, [r3, #12]
2405a484:	0750      	lsls	r0, r2, #29
2405a486:	d50d      	bpl.n	2405a4a4 <HAL_TIM_IRQHandler+0x56>
2405a488:	f06f 0204 	mvn.w	r2, #4
2405a48c:	4620      	mov	r0, r4
2405a48e:	611a      	str	r2, [r3, #16]
2405a490:	2202      	movs	r2, #2
2405a492:	7722      	strb	r2, [r4, #28]
2405a494:	699b      	ldr	r3, [r3, #24]
2405a496:	f413 7f40 	tst.w	r3, #768	; 0x300
2405a49a:	d075      	beq.n	2405a588 <HAL_TIM_IRQHandler+0x13a>
2405a49c:	f7ff ffd4 	bl	2405a448 <HAL_TIM_IC_CaptureCallback>
2405a4a0:	2300      	movs	r3, #0
2405a4a2:	7723      	strb	r3, [r4, #28]
2405a4a4:	6823      	ldr	r3, [r4, #0]
2405a4a6:	691a      	ldr	r2, [r3, #16]
2405a4a8:	0711      	lsls	r1, r2, #28
2405a4aa:	d50f      	bpl.n	2405a4cc <HAL_TIM_IRQHandler+0x7e>
2405a4ac:	68da      	ldr	r2, [r3, #12]
2405a4ae:	0712      	lsls	r2, r2, #28
2405a4b0:	d50c      	bpl.n	2405a4cc <HAL_TIM_IRQHandler+0x7e>
2405a4b2:	f06f 0208 	mvn.w	r2, #8
2405a4b6:	4620      	mov	r0, r4
2405a4b8:	611a      	str	r2, [r3, #16]
2405a4ba:	2204      	movs	r2, #4
2405a4bc:	7722      	strb	r2, [r4, #28]
2405a4be:	69db      	ldr	r3, [r3, #28]
2405a4c0:	079b      	lsls	r3, r3, #30
2405a4c2:	d067      	beq.n	2405a594 <HAL_TIM_IRQHandler+0x146>
2405a4c4:	f7ff ffc0 	bl	2405a448 <HAL_TIM_IC_CaptureCallback>
2405a4c8:	2300      	movs	r3, #0
2405a4ca:	7723      	strb	r3, [r4, #28]
2405a4cc:	6823      	ldr	r3, [r4, #0]
2405a4ce:	691a      	ldr	r2, [r3, #16]
2405a4d0:	06d0      	lsls	r0, r2, #27
2405a4d2:	d510      	bpl.n	2405a4f6 <HAL_TIM_IRQHandler+0xa8>
2405a4d4:	68da      	ldr	r2, [r3, #12]
2405a4d6:	06d1      	lsls	r1, r2, #27
2405a4d8:	d50d      	bpl.n	2405a4f6 <HAL_TIM_IRQHandler+0xa8>
2405a4da:	f06f 0210 	mvn.w	r2, #16
2405a4de:	4620      	mov	r0, r4
2405a4e0:	611a      	str	r2, [r3, #16]
2405a4e2:	2208      	movs	r2, #8
2405a4e4:	7722      	strb	r2, [r4, #28]
2405a4e6:	69db      	ldr	r3, [r3, #28]
2405a4e8:	f413 7f40 	tst.w	r3, #768	; 0x300
2405a4ec:	d058      	beq.n	2405a5a0 <HAL_TIM_IRQHandler+0x152>
2405a4ee:	f7ff ffab 	bl	2405a448 <HAL_TIM_IC_CaptureCallback>
2405a4f2:	2300      	movs	r3, #0
2405a4f4:	7723      	strb	r3, [r4, #28]
2405a4f6:	6823      	ldr	r3, [r4, #0]
2405a4f8:	691a      	ldr	r2, [r3, #16]
2405a4fa:	07d2      	lsls	r2, r2, #31
2405a4fc:	d508      	bpl.n	2405a510 <HAL_TIM_IRQHandler+0xc2>
2405a4fe:	68da      	ldr	r2, [r3, #12]
2405a500:	07d0      	lsls	r0, r2, #31
2405a502:	d505      	bpl.n	2405a510 <HAL_TIM_IRQHandler+0xc2>
2405a504:	f06f 0201 	mvn.w	r2, #1
2405a508:	4620      	mov	r0, r4
2405a50a:	611a      	str	r2, [r3, #16]
2405a50c:	f7ff ff9a 	bl	2405a444 <HAL_TIM_PeriodElapsedCallback>
2405a510:	6823      	ldr	r3, [r4, #0]
2405a512:	691a      	ldr	r2, [r3, #16]
2405a514:	0611      	lsls	r1, r2, #24
2405a516:	d508      	bpl.n	2405a52a <HAL_TIM_IRQHandler+0xdc>
2405a518:	68da      	ldr	r2, [r3, #12]
2405a51a:	0612      	lsls	r2, r2, #24
2405a51c:	d505      	bpl.n	2405a52a <HAL_TIM_IRQHandler+0xdc>
2405a51e:	f06f 0280 	mvn.w	r2, #128	; 0x80
2405a522:	4620      	mov	r0, r4
2405a524:	611a      	str	r2, [r3, #16]
2405a526:	f000 f9ec 	bl	2405a902 <HAL_TIMEx_BreakCallback>
2405a52a:	6823      	ldr	r3, [r4, #0]
2405a52c:	691a      	ldr	r2, [r3, #16]
2405a52e:	05d0      	lsls	r0, r2, #23
2405a530:	d508      	bpl.n	2405a544 <HAL_TIM_IRQHandler+0xf6>
2405a532:	68da      	ldr	r2, [r3, #12]
2405a534:	0611      	lsls	r1, r2, #24
2405a536:	d505      	bpl.n	2405a544 <HAL_TIM_IRQHandler+0xf6>
2405a538:	f46f 7280 	mvn.w	r2, #256	; 0x100
2405a53c:	4620      	mov	r0, r4
2405a53e:	611a      	str	r2, [r3, #16]
2405a540:	f000 f9e0 	bl	2405a904 <HAL_TIMEx_Break2Callback>
2405a544:	6823      	ldr	r3, [r4, #0]
2405a546:	691a      	ldr	r2, [r3, #16]
2405a548:	0652      	lsls	r2, r2, #25
2405a54a:	d508      	bpl.n	2405a55e <HAL_TIM_IRQHandler+0x110>
2405a54c:	68da      	ldr	r2, [r3, #12]
2405a54e:	0650      	lsls	r0, r2, #25
2405a550:	d505      	bpl.n	2405a55e <HAL_TIM_IRQHandler+0x110>
2405a552:	f06f 0240 	mvn.w	r2, #64	; 0x40
2405a556:	4620      	mov	r0, r4
2405a558:	611a      	str	r2, [r3, #16]
2405a55a:	f7ff ff77 	bl	2405a44c <HAL_TIM_TriggerCallback>
2405a55e:	6823      	ldr	r3, [r4, #0]
2405a560:	691a      	ldr	r2, [r3, #16]
2405a562:	0691      	lsls	r1, r2, #26
2405a564:	d522      	bpl.n	2405a5ac <HAL_TIM_IRQHandler+0x15e>
2405a566:	68da      	ldr	r2, [r3, #12]
2405a568:	0692      	lsls	r2, r2, #26
2405a56a:	d51f      	bpl.n	2405a5ac <HAL_TIM_IRQHandler+0x15e>
2405a56c:	f06f 0220 	mvn.w	r2, #32
2405a570:	4620      	mov	r0, r4
2405a572:	611a      	str	r2, [r3, #16]
2405a574:	e8bd 4010 	ldmia.w	sp!, {r4, lr}
2405a578:	f000 b9c2 	b.w	2405a900 <HAL_TIMEx_CommutCallback>
2405a57c:	f7ff ff63 	bl	2405a446 <HAL_TIM_OC_DelayElapsedCallback>
2405a580:	4620      	mov	r0, r4
2405a582:	f7ff ff62 	bl	2405a44a <HAL_TIM_PWM_PulseFinishedCallback>
2405a586:	e776      	b.n	2405a476 <HAL_TIM_IRQHandler+0x28>
2405a588:	f7ff ff5d 	bl	2405a446 <HAL_TIM_OC_DelayElapsedCallback>
2405a58c:	4620      	mov	r0, r4
2405a58e:	f7ff ff5c 	bl	2405a44a <HAL_TIM_PWM_PulseFinishedCallback>
2405a592:	e785      	b.n	2405a4a0 <HAL_TIM_IRQHandler+0x52>
2405a594:	f7ff ff57 	bl	2405a446 <HAL_TIM_OC_DelayElapsedCallback>
2405a598:	4620      	mov	r0, r4
2405a59a:	f7ff ff56 	bl	2405a44a <HAL_TIM_PWM_PulseFinishedCallback>
2405a59e:	e793      	b.n	2405a4c8 <HAL_TIM_IRQHandler+0x7a>
2405a5a0:	f7ff ff51 	bl	2405a446 <HAL_TIM_OC_DelayElapsedCallback>
2405a5a4:	4620      	mov	r0, r4
2405a5a6:	f7ff ff50 	bl	2405a44a <HAL_TIM_PWM_PulseFinishedCallback>
2405a5aa:	e7a2      	b.n	2405a4f2 <HAL_TIM_IRQHandler+0xa4>
2405a5ac:	bd10      	pop	{r4, pc}
	...

2405a5b0 <TIM_Base_SetConfig>:
2405a5b0:	4a30      	ldr	r2, [pc, #192]	; (2405a674 <TIM_Base_SetConfig+0xc4>)
2405a5b2:	6803      	ldr	r3, [r0, #0]
2405a5b4:	4290      	cmp	r0, r2
2405a5b6:	d012      	beq.n	2405a5de <TIM_Base_SetConfig+0x2e>
2405a5b8:	f1b0 4f80 	cmp.w	r0, #1073741824	; 0x40000000
2405a5bc:	d00f      	beq.n	2405a5de <TIM_Base_SetConfig+0x2e>
2405a5be:	f5a2 427c 	sub.w	r2, r2, #64512	; 0xfc00
2405a5c2:	4290      	cmp	r0, r2
2405a5c4:	d00b      	beq.n	2405a5de <TIM_Base_SetConfig+0x2e>
2405a5c6:	f502 6280 	add.w	r2, r2, #1024	; 0x400
2405a5ca:	4290      	cmp	r0, r2
2405a5cc:	d007      	beq.n	2405a5de <TIM_Base_SetConfig+0x2e>
2405a5ce:	f502 6280 	add.w	r2, r2, #1024	; 0x400
2405a5d2:	4290      	cmp	r0, r2
2405a5d4:	d003      	beq.n	2405a5de <TIM_Base_SetConfig+0x2e>
2405a5d6:	f502 4278 	add.w	r2, r2, #63488	; 0xf800
2405a5da:	4290      	cmp	r0, r2
2405a5dc:	d119      	bne.n	2405a612 <TIM_Base_SetConfig+0x62>
2405a5de:	684a      	ldr	r2, [r1, #4]
2405a5e0:	f023 0370 	bic.w	r3, r3, #112	; 0x70
2405a5e4:	4313      	orrs	r3, r2
2405a5e6:	4a23      	ldr	r2, [pc, #140]	; (2405a674 <TIM_Base_SetConfig+0xc4>)
2405a5e8:	4290      	cmp	r0, r2
2405a5ea:	d01d      	beq.n	2405a628 <TIM_Base_SetConfig+0x78>
2405a5ec:	f1b0 4f80 	cmp.w	r0, #1073741824	; 0x40000000
2405a5f0:	d01a      	beq.n	2405a628 <TIM_Base_SetConfig+0x78>
2405a5f2:	f5a2 427c 	sub.w	r2, r2, #64512	; 0xfc00
2405a5f6:	4290      	cmp	r0, r2
2405a5f8:	d016      	beq.n	2405a628 <TIM_Base_SetConfig+0x78>
2405a5fa:	f502 6280 	add.w	r2, r2, #1024	; 0x400
2405a5fe:	4290      	cmp	r0, r2
2405a600:	d012      	beq.n	2405a628 <TIM_Base_SetConfig+0x78>
2405a602:	f502 6280 	add.w	r2, r2, #1024	; 0x400
2405a606:	4290      	cmp	r0, r2
2405a608:	d00e      	beq.n	2405a628 <TIM_Base_SetConfig+0x78>
2405a60a:	f502 4278 	add.w	r2, r2, #63488	; 0xf800
2405a60e:	4290      	cmp	r0, r2
2405a610:	d00a      	beq.n	2405a628 <TIM_Base_SetConfig+0x78>
2405a612:	4a19      	ldr	r2, [pc, #100]	; (2405a678 <TIM_Base_SetConfig+0xc8>)
2405a614:	4290      	cmp	r0, r2
2405a616:	d007      	beq.n	2405a628 <TIM_Base_SetConfig+0x78>
2405a618:	f502 6280 	add.w	r2, r2, #1024	; 0x400
2405a61c:	4290      	cmp	r0, r2
2405a61e:	d003      	beq.n	2405a628 <TIM_Base_SetConfig+0x78>
2405a620:	f502 6280 	add.w	r2, r2, #1024	; 0x400
2405a624:	4290      	cmp	r0, r2
2405a626:	d103      	bne.n	2405a630 <TIM_Base_SetConfig+0x80>
2405a628:	f423 7340 	bic.w	r3, r3, #768	; 0x300
2405a62c:	68ca      	ldr	r2, [r1, #12]
2405a62e:	4313      	orrs	r3, r2
2405a630:	694a      	ldr	r2, [r1, #20]
2405a632:	f023 0380 	bic.w	r3, r3, #128	; 0x80
2405a636:	4313      	orrs	r3, r2
2405a638:	6003      	str	r3, [r0, #0]
2405a63a:	688b      	ldr	r3, [r1, #8]
2405a63c:	62c3      	str	r3, [r0, #44]	; 0x2c
2405a63e:	680b      	ldr	r3, [r1, #0]
2405a640:	6283      	str	r3, [r0, #40]	; 0x28
2405a642:	4b0c      	ldr	r3, [pc, #48]	; (2405a674 <TIM_Base_SetConfig+0xc4>)
2405a644:	4298      	cmp	r0, r3
2405a646:	d00f      	beq.n	2405a668 <TIM_Base_SetConfig+0xb8>
2405a648:	f503 6380 	add.w	r3, r3, #1024	; 0x400
2405a64c:	4298      	cmp	r0, r3
2405a64e:	d00b      	beq.n	2405a668 <TIM_Base_SetConfig+0xb8>
2405a650:	f503 5370 	add.w	r3, r3, #15360	; 0x3c00
2405a654:	4298      	cmp	r0, r3
2405a656:	d007      	beq.n	2405a668 <TIM_Base_SetConfig+0xb8>
2405a658:	f503 6380 	add.w	r3, r3, #1024	; 0x400
2405a65c:	4298      	cmp	r0, r3
2405a65e:	d003      	beq.n	2405a668 <TIM_Base_SetConfig+0xb8>
2405a660:	f503 6380 	add.w	r3, r3, #1024	; 0x400
2405a664:	4298      	cmp	r0, r3
2405a666:	d101      	bne.n	2405a66c <TIM_Base_SetConfig+0xbc>
2405a668:	690b      	ldr	r3, [r1, #16]
2405a66a:	6303      	str	r3, [r0, #48]	; 0x30
2405a66c:	2301      	movs	r3, #1
2405a66e:	6143      	str	r3, [r0, #20]
2405a670:	4770      	bx	lr
2405a672:	bf00      	nop
2405a674:	40010000 	.word	0x40010000
2405a678:	40014000 	.word	0x40014000

2405a67c <HAL_TIM_Base_Init>:
2405a67c:	b510      	push	{r4, lr}
2405a67e:	4604      	mov	r4, r0
2405a680:	b350      	cbz	r0, 2405a6d8 <HAL_TIM_Base_Init+0x5c>
2405a682:	f890 303d 	ldrb.w	r3, [r0, #61]	; 0x3d
2405a686:	f003 02ff 	and.w	r2, r3, #255	; 0xff
2405a68a:	b91b      	cbnz	r3, 2405a694 <HAL_TIM_Base_Init+0x18>
2405a68c:	f880 203c 	strb.w	r2, [r0, #60]	; 0x3c
2405a690:	f7f9 fc3c 	bl	24053f0c <HAL_TIM_Base_MspInit>
2405a694:	2302      	movs	r3, #2
2405a696:	6820      	ldr	r0, [r4, #0]
2405a698:	1d21      	adds	r1, r4, #4
2405a69a:	f884 303d 	strb.w	r3, [r4, #61]	; 0x3d
2405a69e:	f7ff ff87 	bl	2405a5b0 <TIM_Base_SetConfig>
2405a6a2:	2301      	movs	r3, #1
2405a6a4:	2000      	movs	r0, #0
2405a6a6:	f884 3048 	strb.w	r3, [r4, #72]	; 0x48
2405a6aa:	f884 303e 	strb.w	r3, [r4, #62]	; 0x3e
2405a6ae:	f884 303f 	strb.w	r3, [r4, #63]	; 0x3f
2405a6b2:	f884 3040 	strb.w	r3, [r4, #64]	; 0x40
2405a6b6:	f884 3041 	strb.w	r3, [r4, #65]	; 0x41
2405a6ba:	f884 3042 	strb.w	r3, [r4, #66]	; 0x42
2405a6be:	f884 3043 	strb.w	r3, [r4, #67]	; 0x43
2405a6c2:	f884 3044 	strb.w	r3, [r4, #68]	; 0x44
2405a6c6:	f884 3045 	strb.w	r3, [r4, #69]	; 0x45
2405a6ca:	f884 3046 	strb.w	r3, [r4, #70]	; 0x46
2405a6ce:	f884 3047 	strb.w	r3, [r4, #71]	; 0x47
2405a6d2:	f884 303d 	strb.w	r3, [r4, #61]	; 0x3d
2405a6d6:	bd10      	pop	{r4, pc}
2405a6d8:	2001      	movs	r0, #1
2405a6da:	e7fc      	b.n	2405a6d6 <HAL_TIM_Base_Init+0x5a>

2405a6dc <TIM_ETR_SetConfig>:
2405a6dc:	4311      	orrs	r1, r2
2405a6de:	b510      	push	{r4, lr}
2405a6e0:	6884      	ldr	r4, [r0, #8]
2405a6e2:	ea41 2303 	orr.w	r3, r1, r3, lsl #8
2405a6e6:	f424 447f 	bic.w	r4, r4, #65280	; 0xff00
2405a6ea:	4323      	orrs	r3, r4
2405a6ec:	6083      	str	r3, [r0, #8]
2405a6ee:	bd10      	pop	{r4, pc}

2405a6f0 <HAL_TIM_ConfigClockSource>:
2405a6f0:	b538      	push	{r3, r4, r5, lr}
2405a6f2:	f890 303c 	ldrb.w	r3, [r0, #60]	; 0x3c
2405a6f6:	4604      	mov	r4, r0
2405a6f8:	2b01      	cmp	r3, #1
2405a6fa:	f04f 0302 	mov.w	r3, #2
2405a6fe:	f000 80aa 	beq.w	2405a856 <HAL_TIM_ConfigClockSource+0x166>
2405a702:	2201      	movs	r2, #1
2405a704:	f880 303d 	strb.w	r3, [r0, #61]	; 0x3d
2405a708:	4b54      	ldr	r3, [pc, #336]	; (2405a85c <HAL_TIM_ConfigClockSource+0x16c>)
2405a70a:	f880 203c 	strb.w	r2, [r0, #60]	; 0x3c
2405a70e:	6800      	ldr	r0, [r0, #0]
2405a710:	6885      	ldr	r5, [r0, #8]
2405a712:	402b      	ands	r3, r5
2405a714:	6083      	str	r3, [r0, #8]
2405a716:	680b      	ldr	r3, [r1, #0]
2405a718:	2b70      	cmp	r3, #112	; 0x70
2405a71a:	d056      	beq.n	2405a7ca <HAL_TIM_ConfigClockSource+0xda>
2405a71c:	d83c      	bhi.n	2405a798 <HAL_TIM_ConfigClockSource+0xa8>
2405a71e:	2b50      	cmp	r3, #80	; 0x50
2405a720:	d067      	beq.n	2405a7f2 <HAL_TIM_ConfigClockSource+0x102>
2405a722:	d81d      	bhi.n	2405a760 <HAL_TIM_ConfigClockSource+0x70>
2405a724:	2b40      	cmp	r3, #64	; 0x40
2405a726:	d07d      	beq.n	2405a824 <HAL_TIM_ConfigClockSource+0x134>
2405a728:	d806      	bhi.n	2405a738 <HAL_TIM_ConfigClockSource+0x48>
2405a72a:	2b20      	cmp	r3, #32
2405a72c:	d00e      	beq.n	2405a74c <HAL_TIM_ConfigClockSource+0x5c>
2405a72e:	d80b      	bhi.n	2405a748 <HAL_TIM_ConfigClockSource+0x58>
2405a730:	f033 0210 	bics.w	r2, r3, #16
2405a734:	d00a      	beq.n	2405a74c <HAL_TIM_ConfigClockSource+0x5c>
2405a736:	2201      	movs	r2, #1
2405a738:	2301      	movs	r3, #1
2405a73a:	f884 303d 	strb.w	r3, [r4, #61]	; 0x3d
2405a73e:	2300      	movs	r3, #0
2405a740:	f884 303c 	strb.w	r3, [r4, #60]	; 0x3c
2405a744:	4610      	mov	r0, r2
2405a746:	bd38      	pop	{r3, r4, r5, pc}
2405a748:	2b30      	cmp	r3, #48	; 0x30
2405a74a:	d1f4      	bne.n	2405a736 <HAL_TIM_ConfigClockSource+0x46>
2405a74c:	6882      	ldr	r2, [r0, #8]
2405a74e:	f422 1240 	bic.w	r2, r2, #3145728	; 0x300000
2405a752:	f022 0270 	bic.w	r2, r2, #112	; 0x70
2405a756:	431a      	orrs	r2, r3
2405a758:	f042 0207 	orr.w	r2, r2, #7
2405a75c:	6082      	str	r2, [r0, #8]
2405a75e:	e03d      	b.n	2405a7dc <HAL_TIM_ConfigClockSource+0xec>
2405a760:	2b60      	cmp	r3, #96	; 0x60
2405a762:	d1e9      	bne.n	2405a738 <HAL_TIM_ConfigClockSource+0x48>
2405a764:	6a03      	ldr	r3, [r0, #32]
2405a766:	684d      	ldr	r5, [r1, #4]
2405a768:	f023 0310 	bic.w	r3, r3, #16
2405a76c:	68c9      	ldr	r1, [r1, #12]
2405a76e:	6203      	str	r3, [r0, #32]
2405a770:	6982      	ldr	r2, [r0, #24]
2405a772:	6a03      	ldr	r3, [r0, #32]
2405a774:	f422 4270 	bic.w	r2, r2, #61440	; 0xf000
2405a778:	f023 03a0 	bic.w	r3, r3, #160	; 0xa0
2405a77c:	ea42 3201 	orr.w	r2, r2, r1, lsl #12
2405a780:	ea43 1305 	orr.w	r3, r3, r5, lsl #4
2405a784:	6182      	str	r2, [r0, #24]
2405a786:	6203      	str	r3, [r0, #32]
2405a788:	6883      	ldr	r3, [r0, #8]
2405a78a:	f423 1340 	bic.w	r3, r3, #3145728	; 0x300000
2405a78e:	f023 0370 	bic.w	r3, r3, #112	; 0x70
2405a792:	f043 0367 	orr.w	r3, r3, #103	; 0x67
2405a796:	e020      	b.n	2405a7da <HAL_TIM_ConfigClockSource+0xea>
2405a798:	f5b3 5f00 	cmp.w	r3, #8192	; 0x2000
2405a79c:	d020      	beq.n	2405a7e0 <HAL_TIM_ConfigClockSource+0xf0>
2405a79e:	d804      	bhi.n	2405a7aa <HAL_TIM_ConfigClockSource+0xba>
2405a7a0:	f5b3 5280 	subs.w	r2, r3, #4096	; 0x1000
2405a7a4:	bf18      	it	ne
2405a7a6:	2201      	movne	r2, #1
2405a7a8:	e7c6      	b.n	2405a738 <HAL_TIM_ConfigClockSource+0x48>
2405a7aa:	492d      	ldr	r1, [pc, #180]	; (2405a860 <HAL_TIM_ConfigClockSource+0x170>)
2405a7ac:	428b      	cmp	r3, r1
2405a7ae:	d0cd      	beq.n	2405a74c <HAL_TIM_ConfigClockSource+0x5c>
2405a7b0:	d805      	bhi.n	2405a7be <HAL_TIM_ConfigClockSource+0xce>
2405a7b2:	f023 0110 	bic.w	r1, r3, #16
2405a7b6:	f5b1 1f80 	cmp.w	r1, #1048576	; 0x100000
2405a7ba:	d0c7      	beq.n	2405a74c <HAL_TIM_ConfigClockSource+0x5c>
2405a7bc:	e7bc      	b.n	2405a738 <HAL_TIM_ConfigClockSource+0x48>
2405a7be:	4929      	ldr	r1, [pc, #164]	; (2405a864 <HAL_TIM_ConfigClockSource+0x174>)
2405a7c0:	428b      	cmp	r3, r1
2405a7c2:	d0c3      	beq.n	2405a74c <HAL_TIM_ConfigClockSource+0x5c>
2405a7c4:	3110      	adds	r1, #16
2405a7c6:	428b      	cmp	r3, r1
2405a7c8:	e7f7      	b.n	2405a7ba <HAL_TIM_ConfigClockSource+0xca>
2405a7ca:	68cb      	ldr	r3, [r1, #12]
2405a7cc:	e9d1 2101 	ldrd	r2, r1, [r1, #4]
2405a7d0:	f7ff ff84 	bl	2405a6dc <TIM_ETR_SetConfig>
2405a7d4:	6883      	ldr	r3, [r0, #8]
2405a7d6:	f043 0377 	orr.w	r3, r3, #119	; 0x77
2405a7da:	6083      	str	r3, [r0, #8]
2405a7dc:	2200      	movs	r2, #0
2405a7de:	e7ab      	b.n	2405a738 <HAL_TIM_ConfigClockSource+0x48>
2405a7e0:	68cb      	ldr	r3, [r1, #12]
2405a7e2:	e9d1 2101 	ldrd	r2, r1, [r1, #4]
2405a7e6:	f7ff ff79 	bl	2405a6dc <TIM_ETR_SetConfig>
2405a7ea:	6883      	ldr	r3, [r0, #8]
2405a7ec:	f443 4380 	orr.w	r3, r3, #16384	; 0x4000
2405a7f0:	e7f3      	b.n	2405a7da <HAL_TIM_ConfigClockSource+0xea>
2405a7f2:	684a      	ldr	r2, [r1, #4]
2405a7f4:	68cd      	ldr	r5, [r1, #12]
2405a7f6:	6a01      	ldr	r1, [r0, #32]
2405a7f8:	6a03      	ldr	r3, [r0, #32]
2405a7fa:	f021 010a 	bic.w	r1, r1, #10
2405a7fe:	f023 0301 	bic.w	r3, r3, #1
2405a802:	430a      	orrs	r2, r1
2405a804:	6203      	str	r3, [r0, #32]
2405a806:	6983      	ldr	r3, [r0, #24]
2405a808:	f023 03f0 	bic.w	r3, r3, #240	; 0xf0
2405a80c:	ea43 1305 	orr.w	r3, r3, r5, lsl #4
2405a810:	6183      	str	r3, [r0, #24]
2405a812:	6202      	str	r2, [r0, #32]
2405a814:	6883      	ldr	r3, [r0, #8]
2405a816:	f423 1340 	bic.w	r3, r3, #3145728	; 0x300000
2405a81a:	f023 0370 	bic.w	r3, r3, #112	; 0x70
2405a81e:	f043 0357 	orr.w	r3, r3, #87	; 0x57
2405a822:	e7da      	b.n	2405a7da <HAL_TIM_ConfigClockSource+0xea>
2405a824:	684a      	ldr	r2, [r1, #4]
2405a826:	68cd      	ldr	r5, [r1, #12]
2405a828:	6a01      	ldr	r1, [r0, #32]
2405a82a:	6a03      	ldr	r3, [r0, #32]
2405a82c:	f021 010a 	bic.w	r1, r1, #10
2405a830:	f023 0301 	bic.w	r3, r3, #1
2405a834:	430a      	orrs	r2, r1
2405a836:	6203      	str	r3, [r0, #32]
2405a838:	6983      	ldr	r3, [r0, #24]
2405a83a:	f023 03f0 	bic.w	r3, r3, #240	; 0xf0
2405a83e:	ea43 1305 	orr.w	r3, r3, r5, lsl #4
2405a842:	6183      	str	r3, [r0, #24]
2405a844:	6202      	str	r2, [r0, #32]
2405a846:	6883      	ldr	r3, [r0, #8]
2405a848:	f423 1340 	bic.w	r3, r3, #3145728	; 0x300000
2405a84c:	f023 0370 	bic.w	r3, r3, #112	; 0x70
2405a850:	f043 0347 	orr.w	r3, r3, #71	; 0x47
2405a854:	e7c1      	b.n	2405a7da <HAL_TIM_ConfigClockSource+0xea>
2405a856:	461a      	mov	r2, r3
2405a858:	e774      	b.n	2405a744 <HAL_TIM_ConfigClockSource+0x54>
2405a85a:	bf00      	nop
2405a85c:	ffce0088 	.word	0xffce0088
2405a860:	00100020 	.word	0x00100020
2405a864:	00100030 	.word	0x00100030

2405a868 <HAL_TIMEx_MasterConfigSynchronization>:
2405a868:	b570      	push	{r4, r5, r6, lr}
2405a86a:	f890 303c 	ldrb.w	r3, [r0, #60]	; 0x3c
2405a86e:	2b01      	cmp	r3, #1
2405a870:	f04f 0302 	mov.w	r3, #2
2405a874:	d03b      	beq.n	2405a8ee <HAL_TIMEx_MasterConfigSynchronization+0x86>
2405a876:	f880 303d 	strb.w	r3, [r0, #61]	; 0x3d
2405a87a:	4d1e      	ldr	r5, [pc, #120]	; (2405a8f4 <HAL_TIMEx_MasterConfigSynchronization+0x8c>)
2405a87c:	6803      	ldr	r3, [r0, #0]
2405a87e:	42ab      	cmp	r3, r5
2405a880:	685a      	ldr	r2, [r3, #4]
2405a882:	689c      	ldr	r4, [r3, #8]
2405a884:	d002      	beq.n	2405a88c <HAL_TIMEx_MasterConfigSynchronization+0x24>
2405a886:	4e1c      	ldr	r6, [pc, #112]	; (2405a8f8 <HAL_TIMEx_MasterConfigSynchronization+0x90>)
2405a888:	42b3      	cmp	r3, r6
2405a88a:	d103      	bne.n	2405a894 <HAL_TIMEx_MasterConfigSynchronization+0x2c>
2405a88c:	f422 0270 	bic.w	r2, r2, #15728640	; 0xf00000
2405a890:	684e      	ldr	r6, [r1, #4]
2405a892:	4332      	orrs	r2, r6
2405a894:	680e      	ldr	r6, [r1, #0]
2405a896:	f022 0270 	bic.w	r2, r2, #112	; 0x70
2405a89a:	42ab      	cmp	r3, r5
2405a89c:	ea42 0206 	orr.w	r2, r2, r6
2405a8a0:	605a      	str	r2, [r3, #4]
2405a8a2:	d019      	beq.n	2405a8d8 <HAL_TIMEx_MasterConfigSynchronization+0x70>
2405a8a4:	f1b3 4f80 	cmp.w	r3, #1073741824	; 0x40000000
2405a8a8:	d016      	beq.n	2405a8d8 <HAL_TIMEx_MasterConfigSynchronization+0x70>
2405a8aa:	4a14      	ldr	r2, [pc, #80]	; (2405a8fc <HAL_TIMEx_MasterConfigSynchronization+0x94>)
2405a8ac:	4293      	cmp	r3, r2
2405a8ae:	d013      	beq.n	2405a8d8 <HAL_TIMEx_MasterConfigSynchronization+0x70>
2405a8b0:	f502 6280 	add.w	r2, r2, #1024	; 0x400
2405a8b4:	4293      	cmp	r3, r2
2405a8b6:	d00f      	beq.n	2405a8d8 <HAL_TIMEx_MasterConfigSynchronization+0x70>
2405a8b8:	f502 6280 	add.w	r2, r2, #1024	; 0x400
2405a8bc:	4293      	cmp	r3, r2
2405a8be:	d00b      	beq.n	2405a8d8 <HAL_TIMEx_MasterConfigSynchronization+0x70>
2405a8c0:	f502 4278 	add.w	r2, r2, #63488	; 0xf800
2405a8c4:	4293      	cmp	r3, r2
2405a8c6:	d007      	beq.n	2405a8d8 <HAL_TIMEx_MasterConfigSynchronization+0x70>
2405a8c8:	f5a2 426c 	sub.w	r2, r2, #60416	; 0xec00
2405a8cc:	4293      	cmp	r3, r2
2405a8ce:	d003      	beq.n	2405a8d8 <HAL_TIMEx_MasterConfigSynchronization+0x70>
2405a8d0:	f502 3294 	add.w	r2, r2, #75776	; 0x12800
2405a8d4:	4293      	cmp	r3, r2
2405a8d6:	d104      	bne.n	2405a8e2 <HAL_TIMEx_MasterConfigSynchronization+0x7a>
2405a8d8:	6889      	ldr	r1, [r1, #8]
2405a8da:	f024 0280 	bic.w	r2, r4, #128	; 0x80
2405a8de:	430a      	orrs	r2, r1
2405a8e0:	609a      	str	r2, [r3, #8]
2405a8e2:	2301      	movs	r3, #1
2405a8e4:	f880 303d 	strb.w	r3, [r0, #61]	; 0x3d
2405a8e8:	2300      	movs	r3, #0
2405a8ea:	f880 303c 	strb.w	r3, [r0, #60]	; 0x3c
2405a8ee:	4618      	mov	r0, r3
2405a8f0:	bd70      	pop	{r4, r5, r6, pc}
2405a8f2:	bf00      	nop
2405a8f4:	40010000 	.word	0x40010000
2405a8f8:	40010400 	.word	0x40010400
2405a8fc:	40000400 	.word	0x40000400

2405a900 <HAL_TIMEx_CommutCallback>:
2405a900:	4770      	bx	lr

2405a902 <HAL_TIMEx_BreakCallback>:
2405a902:	4770      	bx	lr

2405a904 <HAL_TIMEx_Break2Callback>:
2405a904:	4770      	bx	lr
	...

2405a908 <__assert_func>:
2405a908:	b51f      	push	{r0, r1, r2, r3, r4, lr}
2405a90a:	4614      	mov	r4, r2
2405a90c:	461a      	mov	r2, r3
2405a90e:	4b09      	ldr	r3, [pc, #36]	; (2405a934 <__assert_func+0x2c>)
2405a910:	681b      	ldr	r3, [r3, #0]
2405a912:	4605      	mov	r5, r0
2405a914:	68d8      	ldr	r0, [r3, #12]
2405a916:	b14c      	cbz	r4, 2405a92c <__assert_func+0x24>
2405a918:	4b07      	ldr	r3, [pc, #28]	; (2405a938 <__assert_func+0x30>)
2405a91a:	9100      	str	r1, [sp, #0]
2405a91c:	e9cd 3401 	strd	r3, r4, [sp, #4]
2405a920:	4906      	ldr	r1, [pc, #24]	; (2405a93c <__assert_func+0x34>)
2405a922:	462b      	mov	r3, r5
2405a924:	f000 fa0a 	bl	2405ad3c <fiprintf>
2405a928:	f000 fc51 	bl	2405b1ce <abort>
2405a92c:	4b04      	ldr	r3, [pc, #16]	; (2405a940 <__assert_func+0x38>)
2405a92e:	461c      	mov	r4, r3
2405a930:	e7f3      	b.n	2405a91a <__assert_func+0x12>
2405a932:	bf00      	nop
2405a934:	20000114 	.word	0x20000114
2405a938:	24060141 	.word	0x24060141
2405a93c:	2406014e 	.word	0x2406014e
2405a940:	240600e8 	.word	0x240600e8

2405a944 <malloc>:
2405a944:	4b02      	ldr	r3, [pc, #8]	; (2405a950 <malloc+0xc>)
2405a946:	4601      	mov	r1, r0
2405a948:	6818      	ldr	r0, [r3, #0]
2405a94a:	f000 b82b 	b.w	2405a9a4 <_malloc_r>
2405a94e:	bf00      	nop
2405a950:	20000114 	.word	0x20000114

2405a954 <free>:
2405a954:	4b02      	ldr	r3, [pc, #8]	; (2405a960 <free+0xc>)
2405a956:	4601      	mov	r1, r0
2405a958:	6818      	ldr	r0, [r3, #0]
2405a95a:	f000 bc3f 	b.w	2405b1dc <_free_r>
2405a95e:	bf00      	nop
2405a960:	20000114 	.word	0x20000114

2405a964 <sbrk_aligned>:
2405a964:	b570      	push	{r4, r5, r6, lr}
2405a966:	4e0e      	ldr	r6, [pc, #56]	; (2405a9a0 <sbrk_aligned+0x3c>)
2405a968:	460c      	mov	r4, r1
2405a96a:	6831      	ldr	r1, [r6, #0]
2405a96c:	4605      	mov	r5, r0
2405a96e:	b911      	cbnz	r1, 2405a976 <sbrk_aligned+0x12>
2405a970:	f000 fbd0 	bl	2405b114 <_sbrk_r>
2405a974:	6030      	str	r0, [r6, #0]
2405a976:	4621      	mov	r1, r4
2405a978:	4628      	mov	r0, r5
2405a97a:	f000 fbcb 	bl	2405b114 <_sbrk_r>
2405a97e:	1c43      	adds	r3, r0, #1
2405a980:	d00a      	beq.n	2405a998 <sbrk_aligned+0x34>
2405a982:	1cc4      	adds	r4, r0, #3
2405a984:	f024 0403 	bic.w	r4, r4, #3
2405a988:	42a0      	cmp	r0, r4
2405a98a:	d007      	beq.n	2405a99c <sbrk_aligned+0x38>
2405a98c:	1a21      	subs	r1, r4, r0
2405a98e:	4628      	mov	r0, r5
2405a990:	f000 fbc0 	bl	2405b114 <_sbrk_r>
2405a994:	3001      	adds	r0, #1
2405a996:	d101      	bne.n	2405a99c <sbrk_aligned+0x38>
2405a998:	f04f 34ff 	mov.w	r4, #4294967295
2405a99c:	4620      	mov	r0, r4
2405a99e:	bd70      	pop	{r4, r5, r6, pc}
2405a9a0:	20000654 	.word	0x20000654

2405a9a4 <_malloc_r>:
2405a9a4:	e92d 43f8 	stmdb	sp!, {r3, r4, r5, r6, r7, r8, r9, lr}
2405a9a8:	1ccd      	adds	r5, r1, #3
2405a9aa:	f025 0503 	bic.w	r5, r5, #3
2405a9ae:	3508      	adds	r5, #8
2405a9b0:	2d0c      	cmp	r5, #12
2405a9b2:	bf38      	it	cc
2405a9b4:	250c      	movcc	r5, #12
2405a9b6:	2d00      	cmp	r5, #0
2405a9b8:	4607      	mov	r7, r0
2405a9ba:	db01      	blt.n	2405a9c0 <_malloc_r+0x1c>
2405a9bc:	42a9      	cmp	r1, r5
2405a9be:	d905      	bls.n	2405a9cc <_malloc_r+0x28>
2405a9c0:	230c      	movs	r3, #12
2405a9c2:	603b      	str	r3, [r7, #0]
2405a9c4:	2600      	movs	r6, #0
2405a9c6:	4630      	mov	r0, r6
2405a9c8:	e8bd 83f8 	ldmia.w	sp!, {r3, r4, r5, r6, r7, r8, r9, pc}
2405a9cc:	f8df 80d0 	ldr.w	r8, [pc, #208]	; 2405aaa0 <_malloc_r+0xfc>
2405a9d0:	f000 f868 	bl	2405aaa4 <__malloc_lock>
2405a9d4:	f8d8 3000 	ldr.w	r3, [r8]
2405a9d8:	461c      	mov	r4, r3
2405a9da:	bb5c      	cbnz	r4, 2405aa34 <_malloc_r+0x90>
2405a9dc:	4629      	mov	r1, r5
2405a9de:	4638      	mov	r0, r7
2405a9e0:	f7ff ffc0 	bl	2405a964 <sbrk_aligned>
2405a9e4:	1c43      	adds	r3, r0, #1
2405a9e6:	4604      	mov	r4, r0
2405a9e8:	d155      	bne.n	2405aa96 <_malloc_r+0xf2>
2405a9ea:	f8d8 4000 	ldr.w	r4, [r8]
2405a9ee:	4626      	mov	r6, r4
2405a9f0:	2e00      	cmp	r6, #0
2405a9f2:	d145      	bne.n	2405aa80 <_malloc_r+0xdc>
2405a9f4:	2c00      	cmp	r4, #0
2405a9f6:	d048      	beq.n	2405aa8a <_malloc_r+0xe6>
2405a9f8:	6823      	ldr	r3, [r4, #0]
2405a9fa:	4631      	mov	r1, r6
2405a9fc:	4638      	mov	r0, r7
2405a9fe:	eb04 0903 	add.w	r9, r4, r3
2405aa02:	f000 fb87 	bl	2405b114 <_sbrk_r>
2405aa06:	4581      	cmp	r9, r0
2405aa08:	d13f      	bne.n	2405aa8a <_malloc_r+0xe6>
2405aa0a:	6821      	ldr	r1, [r4, #0]
2405aa0c:	1a6d      	subs	r5, r5, r1
2405aa0e:	4629      	mov	r1, r5
2405aa10:	4638      	mov	r0, r7
2405aa12:	f7ff ffa7 	bl	2405a964 <sbrk_aligned>
2405aa16:	3001      	adds	r0, #1
2405aa18:	d037      	beq.n	2405aa8a <_malloc_r+0xe6>
2405aa1a:	6823      	ldr	r3, [r4, #0]
2405aa1c:	442b      	add	r3, r5
2405aa1e:	6023      	str	r3, [r4, #0]
2405aa20:	f8d8 3000 	ldr.w	r3, [r8]
2405aa24:	2b00      	cmp	r3, #0
2405aa26:	d038      	beq.n	2405aa9a <_malloc_r+0xf6>
2405aa28:	685a      	ldr	r2, [r3, #4]
2405aa2a:	42a2      	cmp	r2, r4
2405aa2c:	d12b      	bne.n	2405aa86 <_malloc_r+0xe2>
2405aa2e:	2200      	movs	r2, #0
2405aa30:	605a      	str	r2, [r3, #4]
2405aa32:	e00f      	b.n	2405aa54 <_malloc_r+0xb0>
2405aa34:	6822      	ldr	r2, [r4, #0]
2405aa36:	1b52      	subs	r2, r2, r5
2405aa38:	d41f      	bmi.n	2405aa7a <_malloc_r+0xd6>
2405aa3a:	2a0b      	cmp	r2, #11
2405aa3c:	d917      	bls.n	2405aa6e <_malloc_r+0xca>
2405aa3e:	1961      	adds	r1, r4, r5
2405aa40:	42a3      	cmp	r3, r4
2405aa42:	6025      	str	r5, [r4, #0]
2405aa44:	bf18      	it	ne
2405aa46:	6059      	strne	r1, [r3, #4]
2405aa48:	6863      	ldr	r3, [r4, #4]
2405aa4a:	bf08      	it	eq
2405aa4c:	f8c8 1000 	streq.w	r1, [r8]
2405aa50:	5162      	str	r2, [r4, r5]
2405aa52:	604b      	str	r3, [r1, #4]
2405aa54:	4638      	mov	r0, r7
2405aa56:	f104 060b 	add.w	r6, r4, #11
2405aa5a:	f000 f829 	bl	2405aab0 <__malloc_unlock>
2405aa5e:	f026 0607 	bic.w	r6, r6, #7
2405aa62:	1d23      	adds	r3, r4, #4
2405aa64:	1af2      	subs	r2, r6, r3
2405aa66:	d0ae      	beq.n	2405a9c6 <_malloc_r+0x22>
2405aa68:	1b9b      	subs	r3, r3, r6
2405aa6a:	50a3      	str	r3, [r4, r2]
2405aa6c:	e7ab      	b.n	2405a9c6 <_malloc_r+0x22>
2405aa6e:	42a3      	cmp	r3, r4
2405aa70:	6862      	ldr	r2, [r4, #4]
2405aa72:	d1dd      	bne.n	2405aa30 <_malloc_r+0x8c>
2405aa74:	f8c8 2000 	str.w	r2, [r8]
2405aa78:	e7ec      	b.n	2405aa54 <_malloc_r+0xb0>
2405aa7a:	4623      	mov	r3, r4
2405aa7c:	6864      	ldr	r4, [r4, #4]
2405aa7e:	e7ac      	b.n	2405a9da <_malloc_r+0x36>
2405aa80:	4634      	mov	r4, r6
2405aa82:	6876      	ldr	r6, [r6, #4]
2405aa84:	e7b4      	b.n	2405a9f0 <_malloc_r+0x4c>
2405aa86:	4613      	mov	r3, r2
2405aa88:	e7cc      	b.n	2405aa24 <_malloc_r+0x80>
2405aa8a:	230c      	movs	r3, #12
2405aa8c:	603b      	str	r3, [r7, #0]
2405aa8e:	4638      	mov	r0, r7
2405aa90:	f000 f80e 	bl	2405aab0 <__malloc_unlock>
2405aa94:	e797      	b.n	2405a9c6 <_malloc_r+0x22>
2405aa96:	6025      	str	r5, [r4, #0]
2405aa98:	e7dc      	b.n	2405aa54 <_malloc_r+0xb0>
2405aa9a:	605b      	str	r3, [r3, #4]
2405aa9c:	deff      	udf	#255	; 0xff
2405aa9e:	bf00      	nop
2405aaa0:	20000650 	.word	0x20000650

2405aaa4 <__malloc_lock>:
2405aaa4:	4801      	ldr	r0, [pc, #4]	; (2405aaac <__malloc_lock+0x8>)
2405aaa6:	f000 bb82 	b.w	2405b1ae <__retarget_lock_acquire_recursive>
2405aaaa:	bf00      	nop
2405aaac:	20000798 	.word	0x20000798

2405aab0 <__malloc_unlock>:
2405aab0:	4801      	ldr	r0, [pc, #4]	; (2405aab8 <__malloc_unlock+0x8>)
2405aab2:	f000 bb7d 	b.w	2405b1b0 <__retarget_lock_release_recursive>
2405aab6:	bf00      	nop
2405aab8:	20000798 	.word	0x20000798

2405aabc <srand>:
2405aabc:	b538      	push	{r3, r4, r5, lr}
2405aabe:	4b10      	ldr	r3, [pc, #64]	; (2405ab00 <srand+0x44>)
2405aac0:	681d      	ldr	r5, [r3, #0]
2405aac2:	6b2b      	ldr	r3, [r5, #48]	; 0x30
2405aac4:	4604      	mov	r4, r0
2405aac6:	b9b3      	cbnz	r3, 2405aaf6 <srand+0x3a>
2405aac8:	2018      	movs	r0, #24
2405aaca:	f7ff ff3b 	bl	2405a944 <malloc>
2405aace:	4602      	mov	r2, r0
2405aad0:	6328      	str	r0, [r5, #48]	; 0x30
2405aad2:	b920      	cbnz	r0, 2405aade <srand+0x22>
2405aad4:	4b0b      	ldr	r3, [pc, #44]	; (2405ab04 <srand+0x48>)
2405aad6:	480c      	ldr	r0, [pc, #48]	; (2405ab08 <srand+0x4c>)
2405aad8:	2146      	movs	r1, #70	; 0x46
2405aada:	f7ff ff15 	bl	2405a908 <__assert_func>
2405aade:	490b      	ldr	r1, [pc, #44]	; (2405ab0c <srand+0x50>)
2405aae0:	4b0b      	ldr	r3, [pc, #44]	; (2405ab10 <srand+0x54>)
2405aae2:	e9c0 1300 	strd	r1, r3, [r0]
2405aae6:	4b0b      	ldr	r3, [pc, #44]	; (2405ab14 <srand+0x58>)
2405aae8:	6083      	str	r3, [r0, #8]
2405aaea:	230b      	movs	r3, #11
2405aaec:	8183      	strh	r3, [r0, #12]
2405aaee:	2100      	movs	r1, #0
2405aaf0:	2001      	movs	r0, #1
2405aaf2:	e9c2 0104 	strd	r0, r1, [r2, #16]
2405aaf6:	6b2b      	ldr	r3, [r5, #48]	; 0x30
2405aaf8:	2200      	movs	r2, #0
2405aafa:	611c      	str	r4, [r3, #16]
2405aafc:	615a      	str	r2, [r3, #20]
2405aafe:	bd38      	pop	{r3, r4, r5, pc}
2405ab00:	20000114 	.word	0x20000114
2405ab04:	2406017d 	.word	0x2406017d
2405ab08:	24060194 	.word	0x24060194
2405ab0c:	abcd330e 	.word	0xabcd330e
2405ab10:	e66d1234 	.word	0xe66d1234
2405ab14:	0005deec 	.word	0x0005deec

2405ab18 <rand>:
2405ab18:	4b16      	ldr	r3, [pc, #88]	; (2405ab74 <rand+0x5c>)
2405ab1a:	b510      	push	{r4, lr}
2405ab1c:	681c      	ldr	r4, [r3, #0]
2405ab1e:	6b23      	ldr	r3, [r4, #48]	; 0x30
2405ab20:	b9b3      	cbnz	r3, 2405ab50 <rand+0x38>
2405ab22:	2018      	movs	r0, #24
2405ab24:	f7ff ff0e 	bl	2405a944 <malloc>
2405ab28:	4602      	mov	r2, r0
2405ab2a:	6320      	str	r0, [r4, #48]	; 0x30
2405ab2c:	b920      	cbnz	r0, 2405ab38 <rand+0x20>
2405ab2e:	4b12      	ldr	r3, [pc, #72]	; (2405ab78 <rand+0x60>)
2405ab30:	4812      	ldr	r0, [pc, #72]	; (2405ab7c <rand+0x64>)
2405ab32:	2152      	movs	r1, #82	; 0x52
2405ab34:	f7ff fee8 	bl	2405a908 <__assert_func>
2405ab38:	4911      	ldr	r1, [pc, #68]	; (2405ab80 <rand+0x68>)
2405ab3a:	4b12      	ldr	r3, [pc, #72]	; (2405ab84 <rand+0x6c>)
2405ab3c:	e9c0 1300 	strd	r1, r3, [r0]
2405ab40:	4b11      	ldr	r3, [pc, #68]	; (2405ab88 <rand+0x70>)
2405ab42:	6083      	str	r3, [r0, #8]
2405ab44:	230b      	movs	r3, #11
2405ab46:	8183      	strh	r3, [r0, #12]
2405ab48:	2100      	movs	r1, #0
2405ab4a:	2001      	movs	r0, #1
2405ab4c:	e9c2 0104 	strd	r0, r1, [r2, #16]
2405ab50:	6b21      	ldr	r1, [r4, #48]	; 0x30
2405ab52:	480e      	ldr	r0, [pc, #56]	; (2405ab8c <rand+0x74>)
2405ab54:	690b      	ldr	r3, [r1, #16]
2405ab56:	694c      	ldr	r4, [r1, #20]
2405ab58:	4a0d      	ldr	r2, [pc, #52]	; (2405ab90 <rand+0x78>)
2405ab5a:	4358      	muls	r0, r3
2405ab5c:	fb02 0004 	mla	r0, r2, r4, r0
2405ab60:	fba3 3202 	umull	r3, r2, r3, r2
2405ab64:	3301      	adds	r3, #1
2405ab66:	eb40 0002 	adc.w	r0, r0, r2
2405ab6a:	e9c1 3004 	strd	r3, r0, [r1, #16]
2405ab6e:	f020 4000 	bic.w	r0, r0, #2147483648	; 0x80000000
2405ab72:	bd10      	pop	{r4, pc}
2405ab74:	20000114 	.word	0x20000114
2405ab78:	2406017d 	.word	0x2406017d
2405ab7c:	24060194 	.word	0x24060194
2405ab80:	abcd330e 	.word	0xabcd330e
2405ab84:	e66d1234 	.word	0xe66d1234
2405ab88:	0005deec 	.word	0x0005deec
2405ab8c:	5851f42d 	.word	0x5851f42d
2405ab90:	4c957f2d 	.word	0x4c957f2d

2405ab94 <_realloc_r>:
2405ab94:	e92d 41f0 	stmdb	sp!, {r4, r5, r6, r7, r8, lr}
2405ab98:	4680      	mov	r8, r0
2405ab9a:	4614      	mov	r4, r2
2405ab9c:	460e      	mov	r6, r1
2405ab9e:	b921      	cbnz	r1, 2405abaa <_realloc_r+0x16>
2405aba0:	e8bd 41f0 	ldmia.w	sp!, {r4, r5, r6, r7, r8, lr}
2405aba4:	4611      	mov	r1, r2
2405aba6:	f7ff befd 	b.w	2405a9a4 <_malloc_r>
2405abaa:	b92a      	cbnz	r2, 2405abb8 <_realloc_r+0x24>
2405abac:	f000 fb16 	bl	2405b1dc <_free_r>
2405abb0:	4625      	mov	r5, r4
2405abb2:	4628      	mov	r0, r5
2405abb4:	e8bd 81f0 	ldmia.w	sp!, {r4, r5, r6, r7, r8, pc}
2405abb8:	f000 fb5c 	bl	2405b274 <_malloc_usable_size_r>
2405abbc:	4284      	cmp	r4, r0
2405abbe:	4607      	mov	r7, r0
2405abc0:	d802      	bhi.n	2405abc8 <_realloc_r+0x34>
2405abc2:	ebb4 0f50 	cmp.w	r4, r0, lsr #1
2405abc6:	d812      	bhi.n	2405abee <_realloc_r+0x5a>
2405abc8:	4621      	mov	r1, r4
2405abca:	4640      	mov	r0, r8
2405abcc:	f7ff feea 	bl	2405a9a4 <_malloc_r>
2405abd0:	4605      	mov	r5, r0
2405abd2:	2800      	cmp	r0, #0
2405abd4:	d0ed      	beq.n	2405abb2 <_realloc_r+0x1e>
2405abd6:	42bc      	cmp	r4, r7
2405abd8:	4622      	mov	r2, r4
2405abda:	4631      	mov	r1, r6
2405abdc:	bf28      	it	cs
2405abde:	463a      	movcs	r2, r7
2405abe0:	f000 fae7 	bl	2405b1b2 <memcpy>
2405abe4:	4631      	mov	r1, r6
2405abe6:	4640      	mov	r0, r8
2405abe8:	f000 faf8 	bl	2405b1dc <_free_r>
2405abec:	e7e1      	b.n	2405abb2 <_realloc_r+0x1e>
2405abee:	4635      	mov	r5, r6
2405abf0:	e7df      	b.n	2405abb2 <_realloc_r+0x1e>
	...

2405abf4 <std>:
2405abf4:	2300      	movs	r3, #0
2405abf6:	b510      	push	{r4, lr}
2405abf8:	4604      	mov	r4, r0
2405abfa:	e9c0 3300 	strd	r3, r3, [r0]
2405abfe:	e9c0 3304 	strd	r3, r3, [r0, #16]
2405ac02:	6083      	str	r3, [r0, #8]
2405ac04:	8181      	strh	r1, [r0, #12]
2405ac06:	6643      	str	r3, [r0, #100]	; 0x64
2405ac08:	81c2      	strh	r2, [r0, #14]
2405ac0a:	6183      	str	r3, [r0, #24]
2405ac0c:	4619      	mov	r1, r3
2405ac0e:	2208      	movs	r2, #8
2405ac10:	305c      	adds	r0, #92	; 0x5c
2405ac12:	f000 fa43 	bl	2405b09c <memset>
2405ac16:	4b0d      	ldr	r3, [pc, #52]	; (2405ac4c <std+0x58>)
2405ac18:	6263      	str	r3, [r4, #36]	; 0x24
2405ac1a:	4b0d      	ldr	r3, [pc, #52]	; (2405ac50 <std+0x5c>)
2405ac1c:	62a3      	str	r3, [r4, #40]	; 0x28
2405ac1e:	4b0d      	ldr	r3, [pc, #52]	; (2405ac54 <std+0x60>)
2405ac20:	62e3      	str	r3, [r4, #44]	; 0x2c
2405ac22:	4b0d      	ldr	r3, [pc, #52]	; (2405ac58 <std+0x64>)
2405ac24:	6323      	str	r3, [r4, #48]	; 0x30
2405ac26:	4b0d      	ldr	r3, [pc, #52]	; (2405ac5c <std+0x68>)
2405ac28:	6224      	str	r4, [r4, #32]
2405ac2a:	429c      	cmp	r4, r3
2405ac2c:	d006      	beq.n	2405ac3c <std+0x48>
2405ac2e:	f103 0268 	add.w	r2, r3, #104	; 0x68
2405ac32:	4294      	cmp	r4, r2
2405ac34:	d002      	beq.n	2405ac3c <std+0x48>
2405ac36:	33d0      	adds	r3, #208	; 0xd0
2405ac38:	429c      	cmp	r4, r3
2405ac3a:	d105      	bne.n	2405ac48 <std+0x54>
2405ac3c:	f104 0058 	add.w	r0, r4, #88	; 0x58
2405ac40:	e8bd 4010 	ldmia.w	sp!, {r4, lr}
2405ac44:	f000 bab2 	b.w	2405b1ac <__retarget_lock_init_recursive>
2405ac48:	bd10      	pop	{r4, pc}
2405ac4a:	bf00      	nop
2405ac4c:	2405aeb9 	.word	0x2405aeb9
2405ac50:	2405aedb 	.word	0x2405aedb
2405ac54:	2405af13 	.word	0x2405af13
2405ac58:	2405af37 	.word	0x2405af37
2405ac5c:	20000658 	.word	0x20000658

2405ac60 <stdio_exit_handler>:
2405ac60:	4a02      	ldr	r2, [pc, #8]	; (2405ac6c <stdio_exit_handler+0xc>)
2405ac62:	4903      	ldr	r1, [pc, #12]	; (2405ac70 <stdio_exit_handler+0x10>)
2405ac64:	4803      	ldr	r0, [pc, #12]	; (2405ac74 <stdio_exit_handler+0x14>)
2405ac66:	f000 b87b 	b.w	2405ad60 <_fwalk_sglue>
2405ac6a:	bf00      	nop
2405ac6c:	200000bc 	.word	0x200000bc
2405ac70:	2405bbe9 	.word	0x2405bbe9
2405ac74:	200000c8 	.word	0x200000c8

2405ac78 <cleanup_stdio>:
2405ac78:	6841      	ldr	r1, [r0, #4]
2405ac7a:	4b0c      	ldr	r3, [pc, #48]	; (2405acac <cleanup_stdio+0x34>)
2405ac7c:	4299      	cmp	r1, r3
2405ac7e:	b510      	push	{r4, lr}
2405ac80:	4604      	mov	r4, r0
2405ac82:	d001      	beq.n	2405ac88 <cleanup_stdio+0x10>
2405ac84:	f000 ffb0 	bl	2405bbe8 <_fflush_r>
2405ac88:	68a1      	ldr	r1, [r4, #8]
2405ac8a:	4b09      	ldr	r3, [pc, #36]	; (2405acb0 <cleanup_stdio+0x38>)
2405ac8c:	4299      	cmp	r1, r3
2405ac8e:	d002      	beq.n	2405ac96 <cleanup_stdio+0x1e>
2405ac90:	4620      	mov	r0, r4
2405ac92:	f000 ffa9 	bl	2405bbe8 <_fflush_r>
2405ac96:	68e1      	ldr	r1, [r4, #12]
2405ac98:	4b06      	ldr	r3, [pc, #24]	; (2405acb4 <cleanup_stdio+0x3c>)
2405ac9a:	4299      	cmp	r1, r3
2405ac9c:	d004      	beq.n	2405aca8 <cleanup_stdio+0x30>
2405ac9e:	4620      	mov	r0, r4
2405aca0:	e8bd 4010 	ldmia.w	sp!, {r4, lr}
2405aca4:	f000 bfa0 	b.w	2405bbe8 <_fflush_r>
2405aca8:	bd10      	pop	{r4, pc}
2405acaa:	bf00      	nop
2405acac:	20000658 	.word	0x20000658
2405acb0:	200006c0 	.word	0x200006c0
2405acb4:	20000728 	.word	0x20000728

2405acb8 <global_stdio_init.part.0>:
2405acb8:	b510      	push	{r4, lr}
2405acba:	4b0b      	ldr	r3, [pc, #44]	; (2405ace8 <global_stdio_init.part.0+0x30>)
2405acbc:	4c0b      	ldr	r4, [pc, #44]	; (2405acec <global_stdio_init.part.0+0x34>)
2405acbe:	4a0c      	ldr	r2, [pc, #48]	; (2405acf0 <global_stdio_init.part.0+0x38>)
2405acc0:	601a      	str	r2, [r3, #0]
2405acc2:	4620      	mov	r0, r4
2405acc4:	2200      	movs	r2, #0
2405acc6:	2104      	movs	r1, #4
2405acc8:	f7ff ff94 	bl	2405abf4 <std>
2405accc:	f104 0068 	add.w	r0, r4, #104	; 0x68
2405acd0:	2201      	movs	r2, #1
2405acd2:	2109      	movs	r1, #9
2405acd4:	f7ff ff8e 	bl	2405abf4 <std>
2405acd8:	f104 00d0 	add.w	r0, r4, #208	; 0xd0
2405acdc:	2202      	movs	r2, #2
2405acde:	e8bd 4010 	ldmia.w	sp!, {r4, lr}
2405ace2:	2112      	movs	r1, #18
2405ace4:	f7ff bf86 	b.w	2405abf4 <std>
2405ace8:	20000790 	.word	0x20000790
2405acec:	20000658 	.word	0x20000658
2405acf0:	2405ac61 	.word	0x2405ac61

2405acf4 <__sfp_lock_acquire>:
2405acf4:	4801      	ldr	r0, [pc, #4]	; (2405acfc <__sfp_lock_acquire+0x8>)
2405acf6:	f000 ba5a 	b.w	2405b1ae <__retarget_lock_acquire_recursive>
2405acfa:	bf00      	nop
2405acfc:	20000799 	.word	0x20000799

2405ad00 <__sfp_lock_release>:
2405ad00:	4801      	ldr	r0, [pc, #4]	; (2405ad08 <__sfp_lock_release+0x8>)
2405ad02:	f000 ba55 	b.w	2405b1b0 <__retarget_lock_release_recursive>
2405ad06:	bf00      	nop
2405ad08:	20000799 	.word	0x20000799

2405ad0c <__sinit>:
2405ad0c:	b510      	push	{r4, lr}
2405ad0e:	4604      	mov	r4, r0
2405ad10:	f7ff fff0 	bl	2405acf4 <__sfp_lock_acquire>
2405ad14:	6a23      	ldr	r3, [r4, #32]
2405ad16:	b11b      	cbz	r3, 2405ad20 <__sinit+0x14>
2405ad18:	e8bd 4010 	ldmia.w	sp!, {r4, lr}
2405ad1c:	f7ff bff0 	b.w	2405ad00 <__sfp_lock_release>
2405ad20:	4b04      	ldr	r3, [pc, #16]	; (2405ad34 <__sinit+0x28>)
2405ad22:	6223      	str	r3, [r4, #32]
2405ad24:	4b04      	ldr	r3, [pc, #16]	; (2405ad38 <__sinit+0x2c>)
2405ad26:	681b      	ldr	r3, [r3, #0]
2405ad28:	2b00      	cmp	r3, #0
2405ad2a:	d1f5      	bne.n	2405ad18 <__sinit+0xc>
2405ad2c:	f7ff ffc4 	bl	2405acb8 <global_stdio_init.part.0>
2405ad30:	e7f2      	b.n	2405ad18 <__sinit+0xc>
2405ad32:	bf00      	nop
2405ad34:	2405ac79 	.word	0x2405ac79
2405ad38:	20000790 	.word	0x20000790

2405ad3c <fiprintf>:
2405ad3c:	b40e      	push	{r1, r2, r3}
2405ad3e:	b503      	push	{r0, r1, lr}
2405ad40:	4601      	mov	r1, r0
2405ad42:	ab03      	add	r3, sp, #12
2405ad44:	4805      	ldr	r0, [pc, #20]	; (2405ad5c <fiprintf+0x20>)
2405ad46:	f853 2b04 	ldr.w	r2, [r3], #4
2405ad4a:	6800      	ldr	r0, [r0, #0]
2405ad4c:	9301      	str	r3, [sp, #4]
2405ad4e:	f000 fc1b 	bl	2405b588 <_vfiprintf_r>
2405ad52:	b002      	add	sp, #8
2405ad54:	f85d eb04 	ldr.w	lr, [sp], #4
2405ad58:	b003      	add	sp, #12
2405ad5a:	4770      	bx	lr
2405ad5c:	20000114 	.word	0x20000114

2405ad60 <_fwalk_sglue>:
2405ad60:	e92d 43f8 	stmdb	sp!, {r3, r4, r5, r6, r7, r8, r9, lr}
2405ad64:	4607      	mov	r7, r0
2405ad66:	4688      	mov	r8, r1
2405ad68:	4614      	mov	r4, r2
2405ad6a:	2600      	movs	r6, #0
2405ad6c:	e9d4 9501 	ldrd	r9, r5, [r4, #4]
2405ad70:	f1b9 0901 	subs.w	r9, r9, #1
2405ad74:	d505      	bpl.n	2405ad82 <_fwalk_sglue+0x22>
2405ad76:	6824      	ldr	r4, [r4, #0]
2405ad78:	2c00      	cmp	r4, #0
2405ad7a:	d1f7      	bne.n	2405ad6c <_fwalk_sglue+0xc>
2405ad7c:	4630      	mov	r0, r6
2405ad7e:	e8bd 83f8 	ldmia.w	sp!, {r3, r4, r5, r6, r7, r8, r9, pc}
2405ad82:	89ab      	ldrh	r3, [r5, #12]
2405ad84:	2b01      	cmp	r3, #1
2405ad86:	d907      	bls.n	2405ad98 <_fwalk_sglue+0x38>
2405ad88:	f9b5 300e 	ldrsh.w	r3, [r5, #14]
2405ad8c:	3301      	adds	r3, #1
2405ad8e:	d003      	beq.n	2405ad98 <_fwalk_sglue+0x38>
2405ad90:	4629      	mov	r1, r5
2405ad92:	4638      	mov	r0, r7
2405ad94:	47c0      	blx	r8
2405ad96:	4306      	orrs	r6, r0
2405ad98:	3568      	adds	r5, #104	; 0x68
2405ad9a:	e7e9      	b.n	2405ad70 <_fwalk_sglue+0x10>

2405ad9c <iprintf>:
2405ad9c:	b40f      	push	{r0, r1, r2, r3}
2405ad9e:	b507      	push	{r0, r1, r2, lr}
2405ada0:	4906      	ldr	r1, [pc, #24]	; (2405adbc <iprintf+0x20>)
2405ada2:	ab04      	add	r3, sp, #16
2405ada4:	6808      	ldr	r0, [r1, #0]
2405ada6:	f853 2b04 	ldr.w	r2, [r3], #4
2405adaa:	6881      	ldr	r1, [r0, #8]
2405adac:	9301      	str	r3, [sp, #4]
2405adae:	f000 fbeb 	bl	2405b588 <_vfiprintf_r>
2405adb2:	b003      	add	sp, #12
2405adb4:	f85d eb04 	ldr.w	lr, [sp], #4
2405adb8:	b004      	add	sp, #16
2405adba:	4770      	bx	lr
2405adbc:	20000114 	.word	0x20000114

2405adc0 <_puts_r>:
2405adc0:	6a03      	ldr	r3, [r0, #32]
2405adc2:	b570      	push	{r4, r5, r6, lr}
2405adc4:	6884      	ldr	r4, [r0, #8]
2405adc6:	4605      	mov	r5, r0
2405adc8:	460e      	mov	r6, r1
2405adca:	b90b      	cbnz	r3, 2405add0 <_puts_r+0x10>
2405adcc:	f7ff ff9e 	bl	2405ad0c <__sinit>
2405add0:	6e63      	ldr	r3, [r4, #100]	; 0x64
2405add2:	07db      	lsls	r3, r3, #31
2405add4:	d405      	bmi.n	2405ade2 <_puts_r+0x22>
2405add6:	89a3      	ldrh	r3, [r4, #12]
2405add8:	0598      	lsls	r0, r3, #22
2405adda:	d402      	bmi.n	2405ade2 <_puts_r+0x22>
2405addc:	6da0      	ldr	r0, [r4, #88]	; 0x58
2405adde:	f000 f9e6 	bl	2405b1ae <__retarget_lock_acquire_recursive>
2405ade2:	89a3      	ldrh	r3, [r4, #12]
2405ade4:	0719      	lsls	r1, r3, #28
2405ade6:	d513      	bpl.n	2405ae10 <_puts_r+0x50>
2405ade8:	6923      	ldr	r3, [r4, #16]
2405adea:	b18b      	cbz	r3, 2405ae10 <_puts_r+0x50>
2405adec:	3e01      	subs	r6, #1
2405adee:	68a3      	ldr	r3, [r4, #8]
2405adf0:	f816 1f01 	ldrb.w	r1, [r6, #1]!
2405adf4:	3b01      	subs	r3, #1
2405adf6:	60a3      	str	r3, [r4, #8]
2405adf8:	b9e9      	cbnz	r1, 2405ae36 <_puts_r+0x76>
2405adfa:	2b00      	cmp	r3, #0
2405adfc:	da2e      	bge.n	2405ae5c <_puts_r+0x9c>
2405adfe:	4622      	mov	r2, r4
2405ae00:	210a      	movs	r1, #10
2405ae02:	4628      	mov	r0, r5
2405ae04:	f000 f89b 	bl	2405af3e <__swbuf_r>
2405ae08:	3001      	adds	r0, #1
2405ae0a:	d007      	beq.n	2405ae1c <_puts_r+0x5c>
2405ae0c:	250a      	movs	r5, #10
2405ae0e:	e007      	b.n	2405ae20 <_puts_r+0x60>
2405ae10:	4621      	mov	r1, r4
2405ae12:	4628      	mov	r0, r5
2405ae14:	f000 f8d0 	bl	2405afb8 <__swsetup_r>
2405ae18:	2800      	cmp	r0, #0
2405ae1a:	d0e7      	beq.n	2405adec <_puts_r+0x2c>
2405ae1c:	f04f 35ff 	mov.w	r5, #4294967295
2405ae20:	6e63      	ldr	r3, [r4, #100]	; 0x64
2405ae22:	07da      	lsls	r2, r3, #31
2405ae24:	d405      	bmi.n	2405ae32 <_puts_r+0x72>
2405ae26:	89a3      	ldrh	r3, [r4, #12]
2405ae28:	059b      	lsls	r3, r3, #22
2405ae2a:	d402      	bmi.n	2405ae32 <_puts_r+0x72>
2405ae2c:	6da0      	ldr	r0, [r4, #88]	; 0x58
2405ae2e:	f000 f9bf 	bl	2405b1b0 <__retarget_lock_release_recursive>
2405ae32:	4628      	mov	r0, r5
2405ae34:	bd70      	pop	{r4, r5, r6, pc}
2405ae36:	2b00      	cmp	r3, #0
2405ae38:	da04      	bge.n	2405ae44 <_puts_r+0x84>
2405ae3a:	69a2      	ldr	r2, [r4, #24]
2405ae3c:	429a      	cmp	r2, r3
2405ae3e:	dc06      	bgt.n	2405ae4e <_puts_r+0x8e>
2405ae40:	290a      	cmp	r1, #10
2405ae42:	d004      	beq.n	2405ae4e <_puts_r+0x8e>
2405ae44:	6823      	ldr	r3, [r4, #0]
2405ae46:	1c5a      	adds	r2, r3, #1
2405ae48:	6022      	str	r2, [r4, #0]
2405ae4a:	7019      	strb	r1, [r3, #0]
2405ae4c:	e7cf      	b.n	2405adee <_puts_r+0x2e>
2405ae4e:	4622      	mov	r2, r4
2405ae50:	4628      	mov	r0, r5
2405ae52:	f000 f874 	bl	2405af3e <__swbuf_r>
2405ae56:	3001      	adds	r0, #1
2405ae58:	d1c9      	bne.n	2405adee <_puts_r+0x2e>
2405ae5a:	e7df      	b.n	2405ae1c <_puts_r+0x5c>
2405ae5c:	6823      	ldr	r3, [r4, #0]
2405ae5e:	250a      	movs	r5, #10
2405ae60:	1c5a      	adds	r2, r3, #1
2405ae62:	6022      	str	r2, [r4, #0]
2405ae64:	701d      	strb	r5, [r3, #0]
2405ae66:	e7db      	b.n	2405ae20 <_puts_r+0x60>

2405ae68 <puts>:
2405ae68:	4b02      	ldr	r3, [pc, #8]	; (2405ae74 <puts+0xc>)
2405ae6a:	4601      	mov	r1, r0
2405ae6c:	6818      	ldr	r0, [r3, #0]
2405ae6e:	f7ff bfa7 	b.w	2405adc0 <_puts_r>
2405ae72:	bf00      	nop
2405ae74:	20000114 	.word	0x20000114

2405ae78 <siprintf>:
2405ae78:	b40e      	push	{r1, r2, r3}
2405ae7a:	b500      	push	{lr}
2405ae7c:	b09c      	sub	sp, #112	; 0x70
2405ae7e:	ab1d      	add	r3, sp, #116	; 0x74
2405ae80:	9002      	str	r0, [sp, #8]
2405ae82:	9006      	str	r0, [sp, #24]
2405ae84:	f06f 4100 	mvn.w	r1, #2147483648	; 0x80000000
2405ae88:	4809      	ldr	r0, [pc, #36]	; (2405aeb0 <siprintf+0x38>)
2405ae8a:	9107      	str	r1, [sp, #28]
2405ae8c:	9104      	str	r1, [sp, #16]
2405ae8e:	4909      	ldr	r1, [pc, #36]	; (2405aeb4 <siprintf+0x3c>)
2405ae90:	f853 2b04 	ldr.w	r2, [r3], #4
2405ae94:	9105      	str	r1, [sp, #20]
2405ae96:	6800      	ldr	r0, [r0, #0]
2405ae98:	9301      	str	r3, [sp, #4]
2405ae9a:	a902      	add	r1, sp, #8
2405ae9c:	f000 fa4c 	bl	2405b338 <_svfiprintf_r>
2405aea0:	9b02      	ldr	r3, [sp, #8]
2405aea2:	2200      	movs	r2, #0
2405aea4:	701a      	strb	r2, [r3, #0]
2405aea6:	b01c      	add	sp, #112	; 0x70
2405aea8:	f85d eb04 	ldr.w	lr, [sp], #4
2405aeac:	b003      	add	sp, #12
2405aeae:	4770      	bx	lr
2405aeb0:	20000114 	.word	0x20000114
2405aeb4:	ffff0208 	.word	0xffff0208

2405aeb8 <__sread>:
2405aeb8:	b510      	push	{r4, lr}
2405aeba:	460c      	mov	r4, r1
2405aebc:	f9b1 100e 	ldrsh.w	r1, [r1, #14]
2405aec0:	f000 f916 	bl	2405b0f0 <_read_r>
2405aec4:	2800      	cmp	r0, #0
2405aec6:	bfab      	itete	ge
2405aec8:	6d63      	ldrge	r3, [r4, #84]	; 0x54
2405aeca:	89a3      	ldrhlt	r3, [r4, #12]
2405aecc:	181b      	addge	r3, r3, r0
2405aece:	f423 5380 	biclt.w	r3, r3, #4096	; 0x1000
2405aed2:	bfac      	ite	ge
2405aed4:	6563      	strge	r3, [r4, #84]	; 0x54
2405aed6:	81a3      	strhlt	r3, [r4, #12]
2405aed8:	bd10      	pop	{r4, pc}

2405aeda <__swrite>:
2405aeda:	e92d 41f0 	stmdb	sp!, {r4, r5, r6, r7, r8, lr}
2405aede:	461f      	mov	r7, r3
2405aee0:	898b      	ldrh	r3, [r1, #12]
2405aee2:	05db      	lsls	r3, r3, #23
2405aee4:	4605      	mov	r5, r0
2405aee6:	460c      	mov	r4, r1
2405aee8:	4616      	mov	r6, r2
2405aeea:	d505      	bpl.n	2405aef8 <__swrite+0x1e>
2405aeec:	f9b1 100e 	ldrsh.w	r1, [r1, #14]
2405aef0:	2302      	movs	r3, #2
2405aef2:	2200      	movs	r2, #0
2405aef4:	f000 f8ea 	bl	2405b0cc <_lseek_r>
2405aef8:	89a3      	ldrh	r3, [r4, #12]
2405aefa:	f9b4 100e 	ldrsh.w	r1, [r4, #14]
2405aefe:	f423 5380 	bic.w	r3, r3, #4096	; 0x1000
2405af02:	81a3      	strh	r3, [r4, #12]
2405af04:	4632      	mov	r2, r6
2405af06:	463b      	mov	r3, r7
2405af08:	4628      	mov	r0, r5
2405af0a:	e8bd 41f0 	ldmia.w	sp!, {r4, r5, r6, r7, r8, lr}
2405af0e:	f000 b911 	b.w	2405b134 <_write_r>

2405af12 <__sseek>:
2405af12:	b510      	push	{r4, lr}
2405af14:	460c      	mov	r4, r1
2405af16:	f9b1 100e 	ldrsh.w	r1, [r1, #14]
2405af1a:	f000 f8d7 	bl	2405b0cc <_lseek_r>
2405af1e:	1c43      	adds	r3, r0, #1
2405af20:	89a3      	ldrh	r3, [r4, #12]
2405af22:	bf15      	itete	ne
2405af24:	6560      	strne	r0, [r4, #84]	; 0x54
2405af26:	f423 5380 	biceq.w	r3, r3, #4096	; 0x1000
2405af2a:	f443 5380 	orrne.w	r3, r3, #4096	; 0x1000
2405af2e:	81a3      	strheq	r3, [r4, #12]
2405af30:	bf18      	it	ne
2405af32:	81a3      	strhne	r3, [r4, #12]
2405af34:	bd10      	pop	{r4, pc}

2405af36 <__sclose>:
2405af36:	f9b1 100e 	ldrsh.w	r1, [r1, #14]
2405af3a:	f000 b8b7 	b.w	2405b0ac <_close_r>

2405af3e <__swbuf_r>:
2405af3e:	b5f8      	push	{r3, r4, r5, r6, r7, lr}
2405af40:	460e      	mov	r6, r1
2405af42:	4614      	mov	r4, r2
2405af44:	4605      	mov	r5, r0
2405af46:	b118      	cbz	r0, 2405af50 <__swbuf_r+0x12>
2405af48:	6a03      	ldr	r3, [r0, #32]
2405af4a:	b90b      	cbnz	r3, 2405af50 <__swbuf_r+0x12>
2405af4c:	f7ff fede 	bl	2405ad0c <__sinit>
2405af50:	69a3      	ldr	r3, [r4, #24]
2405af52:	60a3      	str	r3, [r4, #8]
2405af54:	89a3      	ldrh	r3, [r4, #12]
2405af56:	071a      	lsls	r2, r3, #28
2405af58:	d525      	bpl.n	2405afa6 <__swbuf_r+0x68>
2405af5a:	6923      	ldr	r3, [r4, #16]
2405af5c:	b31b      	cbz	r3, 2405afa6 <__swbuf_r+0x68>
2405af5e:	6823      	ldr	r3, [r4, #0]
2405af60:	6922      	ldr	r2, [r4, #16]
2405af62:	1a98      	subs	r0, r3, r2
2405af64:	6963      	ldr	r3, [r4, #20]
2405af66:	b2f6      	uxtb	r6, r6
2405af68:	4283      	cmp	r3, r0
2405af6a:	4637      	mov	r7, r6
2405af6c:	dc04      	bgt.n	2405af78 <__swbuf_r+0x3a>
2405af6e:	4621      	mov	r1, r4
2405af70:	4628      	mov	r0, r5
2405af72:	f000 fe39 	bl	2405bbe8 <_fflush_r>
2405af76:	b9e0      	cbnz	r0, 2405afb2 <__swbuf_r+0x74>
2405af78:	68a3      	ldr	r3, [r4, #8]
2405af7a:	3b01      	subs	r3, #1
2405af7c:	60a3      	str	r3, [r4, #8]
2405af7e:	6823      	ldr	r3, [r4, #0]
2405af80:	1c5a      	adds	r2, r3, #1
2405af82:	6022      	str	r2, [r4, #0]
2405af84:	701e      	strb	r6, [r3, #0]
2405af86:	6962      	ldr	r2, [r4, #20]
2405af88:	1c43      	adds	r3, r0, #1
2405af8a:	429a      	cmp	r2, r3
2405af8c:	d004      	beq.n	2405af98 <__swbuf_r+0x5a>
2405af8e:	89a3      	ldrh	r3, [r4, #12]
2405af90:	07db      	lsls	r3, r3, #31
2405af92:	d506      	bpl.n	2405afa2 <__swbuf_r+0x64>
2405af94:	2e0a      	cmp	r6, #10
2405af96:	d104      	bne.n	2405afa2 <__swbuf_r+0x64>
2405af98:	4621      	mov	r1, r4
2405af9a:	4628      	mov	r0, r5
2405af9c:	f000 fe24 	bl	2405bbe8 <_fflush_r>
2405afa0:	b938      	cbnz	r0, 2405afb2 <__swbuf_r+0x74>
2405afa2:	4638      	mov	r0, r7
2405afa4:	bdf8      	pop	{r3, r4, r5, r6, r7, pc}
2405afa6:	4621      	mov	r1, r4
2405afa8:	4628      	mov	r0, r5
2405afaa:	f000 f805 	bl	2405afb8 <__swsetup_r>
2405afae:	2800      	cmp	r0, #0
2405afb0:	d0d5      	beq.n	2405af5e <__swbuf_r+0x20>
2405afb2:	f04f 37ff 	mov.w	r7, #4294967295
2405afb6:	e7f4      	b.n	2405afa2 <__swbuf_r+0x64>

2405afb8 <__swsetup_r>:
2405afb8:	b538      	push	{r3, r4, r5, lr}
2405afba:	4b2a      	ldr	r3, [pc, #168]	; (2405b064 <__swsetup_r+0xac>)
2405afbc:	4605      	mov	r5, r0
2405afbe:	6818      	ldr	r0, [r3, #0]
2405afc0:	460c      	mov	r4, r1
2405afc2:	b118      	cbz	r0, 2405afcc <__swsetup_r+0x14>
2405afc4:	6a03      	ldr	r3, [r0, #32]
2405afc6:	b90b      	cbnz	r3, 2405afcc <__swsetup_r+0x14>
2405afc8:	f7ff fea0 	bl	2405ad0c <__sinit>
2405afcc:	89a3      	ldrh	r3, [r4, #12]
2405afce:	f9b4 200c 	ldrsh.w	r2, [r4, #12]
2405afd2:	0718      	lsls	r0, r3, #28
2405afd4:	d422      	bmi.n	2405b01c <__swsetup_r+0x64>
2405afd6:	06d9      	lsls	r1, r3, #27
2405afd8:	d407      	bmi.n	2405afea <__swsetup_r+0x32>
2405afda:	2309      	movs	r3, #9
2405afdc:	602b      	str	r3, [r5, #0]
2405afde:	f042 0340 	orr.w	r3, r2, #64	; 0x40
2405afe2:	81a3      	strh	r3, [r4, #12]
2405afe4:	f04f 30ff 	mov.w	r0, #4294967295
2405afe8:	e034      	b.n	2405b054 <__swsetup_r+0x9c>
2405afea:	0758      	lsls	r0, r3, #29
2405afec:	d512      	bpl.n	2405b014 <__swsetup_r+0x5c>
2405afee:	6b61      	ldr	r1, [r4, #52]	; 0x34
2405aff0:	b141      	cbz	r1, 2405b004 <__swsetup_r+0x4c>
2405aff2:	f104 0344 	add.w	r3, r4, #68	; 0x44
2405aff6:	4299      	cmp	r1, r3
2405aff8:	d002      	beq.n	2405b000 <__swsetup_r+0x48>
2405affa:	4628      	mov	r0, r5
2405affc:	f000 f8ee 	bl	2405b1dc <_free_r>
2405b000:	2300      	movs	r3, #0
2405b002:	6363      	str	r3, [r4, #52]	; 0x34
2405b004:	89a3      	ldrh	r3, [r4, #12]
2405b006:	f023 0324 	bic.w	r3, r3, #36	; 0x24
2405b00a:	81a3      	strh	r3, [r4, #12]
2405b00c:	2300      	movs	r3, #0
2405b00e:	6063      	str	r3, [r4, #4]
2405b010:	6923      	ldr	r3, [r4, #16]
2405b012:	6023      	str	r3, [r4, #0]
2405b014:	89a3      	ldrh	r3, [r4, #12]
2405b016:	f043 0308 	orr.w	r3, r3, #8
2405b01a:	81a3      	strh	r3, [r4, #12]
2405b01c:	6923      	ldr	r3, [r4, #16]
2405b01e:	b94b      	cbnz	r3, 2405b034 <__swsetup_r+0x7c>
2405b020:	89a3      	ldrh	r3, [r4, #12]
2405b022:	f403 7320 	and.w	r3, r3, #640	; 0x280
2405b026:	f5b3 7f00 	cmp.w	r3, #512	; 0x200
2405b02a:	d003      	beq.n	2405b034 <__swsetup_r+0x7c>
2405b02c:	4621      	mov	r1, r4
2405b02e:	4628      	mov	r0, r5
2405b030:	f000 fe28 	bl	2405bc84 <__smakebuf_r>
2405b034:	89a0      	ldrh	r0, [r4, #12]
2405b036:	f9b4 200c 	ldrsh.w	r2, [r4, #12]
2405b03a:	f010 0301 	ands.w	r3, r0, #1
2405b03e:	d00a      	beq.n	2405b056 <__swsetup_r+0x9e>
2405b040:	2300      	movs	r3, #0
2405b042:	60a3      	str	r3, [r4, #8]
2405b044:	6963      	ldr	r3, [r4, #20]
2405b046:	425b      	negs	r3, r3
2405b048:	61a3      	str	r3, [r4, #24]
2405b04a:	6923      	ldr	r3, [r4, #16]
2405b04c:	b943      	cbnz	r3, 2405b060 <__swsetup_r+0xa8>
2405b04e:	f010 0080 	ands.w	r0, r0, #128	; 0x80
2405b052:	d1c4      	bne.n	2405afde <__swsetup_r+0x26>
2405b054:	bd38      	pop	{r3, r4, r5, pc}
2405b056:	0781      	lsls	r1, r0, #30
2405b058:	bf58      	it	pl
2405b05a:	6963      	ldrpl	r3, [r4, #20]
2405b05c:	60a3      	str	r3, [r4, #8]
2405b05e:	e7f4      	b.n	2405b04a <__swsetup_r+0x92>
2405b060:	2000      	movs	r0, #0
2405b062:	e7f7      	b.n	2405b054 <__swsetup_r+0x9c>
2405b064:	20000114 	.word	0x20000114

2405b068 <memmove>:
2405b068:	4288      	cmp	r0, r1
2405b06a:	b510      	push	{r4, lr}
2405b06c:	eb01 0402 	add.w	r4, r1, r2
2405b070:	d902      	bls.n	2405b078 <memmove+0x10>
2405b072:	4284      	cmp	r4, r0
2405b074:	4623      	mov	r3, r4
2405b076:	d807      	bhi.n	2405b088 <memmove+0x20>
2405b078:	1e43      	subs	r3, r0, #1
2405b07a:	42a1      	cmp	r1, r4
2405b07c:	d008      	beq.n	2405b090 <memmove+0x28>
2405b07e:	f811 2b01 	ldrb.w	r2, [r1], #1
2405b082:	f803 2f01 	strb.w	r2, [r3, #1]!
2405b086:	e7f8      	b.n	2405b07a <memmove+0x12>
2405b088:	4402      	add	r2, r0
2405b08a:	4601      	mov	r1, r0
2405b08c:	428a      	cmp	r2, r1
2405b08e:	d100      	bne.n	2405b092 <memmove+0x2a>
2405b090:	bd10      	pop	{r4, pc}
2405b092:	f813 4d01 	ldrb.w	r4, [r3, #-1]!
2405b096:	f802 4d01 	strb.w	r4, [r2, #-1]!
2405b09a:	e7f7      	b.n	2405b08c <memmove+0x24>

2405b09c <memset>:
2405b09c:	4402      	add	r2, r0
2405b09e:	4603      	mov	r3, r0
2405b0a0:	4293      	cmp	r3, r2
2405b0a2:	d100      	bne.n	2405b0a6 <memset+0xa>
2405b0a4:	4770      	bx	lr
2405b0a6:	f803 1b01 	strb.w	r1, [r3], #1
2405b0aa:	e7f9      	b.n	2405b0a0 <memset+0x4>

2405b0ac <_close_r>:
2405b0ac:	b538      	push	{r3, r4, r5, lr}
2405b0ae:	4d06      	ldr	r5, [pc, #24]	; (2405b0c8 <_close_r+0x1c>)
2405b0b0:	2300      	movs	r3, #0
2405b0b2:	4604      	mov	r4, r0
2405b0b4:	4608      	mov	r0, r1
2405b0b6:	602b      	str	r3, [r5, #0]
2405b0b8:	f7f9 f848 	bl	2405414c <_close>
2405b0bc:	1c43      	adds	r3, r0, #1
2405b0be:	d102      	bne.n	2405b0c6 <_close_r+0x1a>
2405b0c0:	682b      	ldr	r3, [r5, #0]
2405b0c2:	b103      	cbz	r3, 2405b0c6 <_close_r+0x1a>
2405b0c4:	6023      	str	r3, [r4, #0]
2405b0c6:	bd38      	pop	{r3, r4, r5, pc}
2405b0c8:	20000794 	.word	0x20000794

2405b0cc <_lseek_r>:
2405b0cc:	b538      	push	{r3, r4, r5, lr}
2405b0ce:	4d07      	ldr	r5, [pc, #28]	; (2405b0ec <_lseek_r+0x20>)
2405b0d0:	4604      	mov	r4, r0
2405b0d2:	4608      	mov	r0, r1
2405b0d4:	4611      	mov	r1, r2
2405b0d6:	2200      	movs	r2, #0
2405b0d8:	602a      	str	r2, [r5, #0]
2405b0da:	461a      	mov	r2, r3
2405b0dc:	f7f9 f840 	bl	24054160 <_lseek>
2405b0e0:	1c43      	adds	r3, r0, #1
2405b0e2:	d102      	bne.n	2405b0ea <_lseek_r+0x1e>
2405b0e4:	682b      	ldr	r3, [r5, #0]
2405b0e6:	b103      	cbz	r3, 2405b0ea <_lseek_r+0x1e>
2405b0e8:	6023      	str	r3, [r4, #0]
2405b0ea:	bd38      	pop	{r3, r4, r5, pc}
2405b0ec:	20000794 	.word	0x20000794

2405b0f0 <_read_r>:
2405b0f0:	b538      	push	{r3, r4, r5, lr}
2405b0f2:	4d07      	ldr	r5, [pc, #28]	; (2405b110 <_read_r+0x20>)
2405b0f4:	4604      	mov	r4, r0
2405b0f6:	4608      	mov	r0, r1
2405b0f8:	4611      	mov	r1, r2
2405b0fa:	2200      	movs	r2, #0
2405b0fc:	602a      	str	r2, [r5, #0]
2405b0fe:	461a      	mov	r2, r3
2405b100:	f7f9 f808 	bl	24054114 <_read>
2405b104:	1c43      	adds	r3, r0, #1
2405b106:	d102      	bne.n	2405b10e <_read_r+0x1e>
2405b108:	682b      	ldr	r3, [r5, #0]
2405b10a:	b103      	cbz	r3, 2405b10e <_read_r+0x1e>
2405b10c:	6023      	str	r3, [r4, #0]
2405b10e:	bd38      	pop	{r3, r4, r5, pc}
2405b110:	20000794 	.word	0x20000794

2405b114 <_sbrk_r>:
2405b114:	b538      	push	{r3, r4, r5, lr}
2405b116:	4d06      	ldr	r5, [pc, #24]	; (2405b130 <_sbrk_r+0x1c>)
2405b118:	2300      	movs	r3, #0
2405b11a:	4604      	mov	r4, r0
2405b11c:	4608      	mov	r0, r1
2405b11e:	602b      	str	r3, [r5, #0]
2405b120:	f7f9 f820 	bl	24054164 <_sbrk>
2405b124:	1c43      	adds	r3, r0, #1
2405b126:	d102      	bne.n	2405b12e <_sbrk_r+0x1a>
2405b128:	682b      	ldr	r3, [r5, #0]
2405b12a:	b103      	cbz	r3, 2405b12e <_sbrk_r+0x1a>
2405b12c:	6023      	str	r3, [r4, #0]
2405b12e:	bd38      	pop	{r3, r4, r5, pc}
2405b130:	20000794 	.word	0x20000794

2405b134 <_write_r>:
2405b134:	b538      	push	{r3, r4, r5, lr}
2405b136:	4d07      	ldr	r5, [pc, #28]	; (2405b154 <_write_r+0x20>)
2405b138:	4604      	mov	r4, r0
2405b13a:	4608      	mov	r0, r1
2405b13c:	4611      	mov	r1, r2
2405b13e:	2200      	movs	r2, #0
2405b140:	602a      	str	r2, [r5, #0]
2405b142:	461a      	mov	r2, r3
2405b144:	f7f8 fff4 	bl	24054130 <_write>
2405b148:	1c43      	adds	r3, r0, #1
2405b14a:	d102      	bne.n	2405b152 <_write_r+0x1e>
2405b14c:	682b      	ldr	r3, [r5, #0]
2405b14e:	b103      	cbz	r3, 2405b152 <_write_r+0x1e>
2405b150:	6023      	str	r3, [r4, #0]
2405b152:	bd38      	pop	{r3, r4, r5, pc}
2405b154:	20000794 	.word	0x20000794

2405b158 <__errno>:
2405b158:	4b01      	ldr	r3, [pc, #4]	; (2405b160 <__errno+0x8>)
2405b15a:	6818      	ldr	r0, [r3, #0]
2405b15c:	4770      	bx	lr
2405b15e:	bf00      	nop
2405b160:	20000114 	.word	0x20000114

2405b164 <__libc_init_array>:
2405b164:	b570      	push	{r4, r5, r6, lr}
2405b166:	4d0d      	ldr	r5, [pc, #52]	; (2405b19c <__libc_init_array+0x38>)
2405b168:	4c0d      	ldr	r4, [pc, #52]	; (2405b1a0 <__libc_init_array+0x3c>)
2405b16a:	1b64      	subs	r4, r4, r5
2405b16c:	10a4      	asrs	r4, r4, #2
2405b16e:	2600      	movs	r6, #0
2405b170:	42a6      	cmp	r6, r4
2405b172:	d109      	bne.n	2405b188 <__libc_init_array+0x24>
2405b174:	4d0b      	ldr	r5, [pc, #44]	; (2405b1a4 <__libc_init_array+0x40>)
2405b176:	4c0c      	ldr	r4, [pc, #48]	; (2405b1a8 <__libc_init_array+0x44>)
2405b178:	f000 fe26 	bl	2405bdc8 <_init>
2405b17c:	1b64      	subs	r4, r4, r5
2405b17e:	10a4      	asrs	r4, r4, #2
2405b180:	2600      	movs	r6, #0
2405b182:	42a6      	cmp	r6, r4
2405b184:	d105      	bne.n	2405b192 <__libc_init_array+0x2e>
2405b186:	bd70      	pop	{r4, r5, r6, pc}
2405b188:	f855 3b04 	ldr.w	r3, [r5], #4
2405b18c:	4798      	blx	r3
2405b18e:	3601      	adds	r6, #1
2405b190:	e7ee      	b.n	2405b170 <__libc_init_array+0xc>
2405b192:	f855 3b04 	ldr.w	r3, [r5], #4
2405b196:	4798      	blx	r3
2405b198:	3601      	adds	r6, #1
2405b19a:	e7f2      	b.n	2405b182 <__libc_init_array+0x1e>
2405b19c:	24060220 	.word	0x24060220
2405b1a0:	24060220 	.word	0x24060220
2405b1a4:	24060220 	.word	0x24060220
2405b1a8:	24060224 	.word	0x24060224

2405b1ac <__retarget_lock_init_recursive>:
2405b1ac:	4770      	bx	lr

2405b1ae <__retarget_lock_acquire_recursive>:
2405b1ae:	4770      	bx	lr

2405b1b0 <__retarget_lock_release_recursive>:
2405b1b0:	4770      	bx	lr

2405b1b2 <memcpy>:
2405b1b2:	440a      	add	r2, r1
2405b1b4:	4291      	cmp	r1, r2
2405b1b6:	f100 33ff 	add.w	r3, r0, #4294967295
2405b1ba:	d100      	bne.n	2405b1be <memcpy+0xc>
2405b1bc:	4770      	bx	lr
2405b1be:	b510      	push	{r4, lr}
2405b1c0:	f811 4b01 	ldrb.w	r4, [r1], #1
2405b1c4:	f803 4f01 	strb.w	r4, [r3, #1]!
2405b1c8:	4291      	cmp	r1, r2
2405b1ca:	d1f9      	bne.n	2405b1c0 <memcpy+0xe>
2405b1cc:	bd10      	pop	{r4, pc}

2405b1ce <abort>:
2405b1ce:	b508      	push	{r3, lr}
2405b1d0:	2006      	movs	r0, #6
2405b1d2:	f000 fdbb 	bl	2405bd4c <raise>
2405b1d6:	2001      	movs	r0, #1
2405b1d8:	f7f8 ff96 	bl	24054108 <_exit>

2405b1dc <_free_r>:
2405b1dc:	b537      	push	{r0, r1, r2, r4, r5, lr}
2405b1de:	2900      	cmp	r1, #0
2405b1e0:	d044      	beq.n	2405b26c <_free_r+0x90>
2405b1e2:	f851 3c04 	ldr.w	r3, [r1, #-4]
2405b1e6:	9001      	str	r0, [sp, #4]
2405b1e8:	2b00      	cmp	r3, #0
2405b1ea:	f1a1 0404 	sub.w	r4, r1, #4
2405b1ee:	bfb8      	it	lt
2405b1f0:	18e4      	addlt	r4, r4, r3
2405b1f2:	f7ff fc57 	bl	2405aaa4 <__malloc_lock>
2405b1f6:	4a1e      	ldr	r2, [pc, #120]	; (2405b270 <_free_r+0x94>)
2405b1f8:	9801      	ldr	r0, [sp, #4]
2405b1fa:	6813      	ldr	r3, [r2, #0]
2405b1fc:	b933      	cbnz	r3, 2405b20c <_free_r+0x30>
2405b1fe:	6063      	str	r3, [r4, #4]
2405b200:	6014      	str	r4, [r2, #0]
2405b202:	b003      	add	sp, #12
2405b204:	e8bd 4030 	ldmia.w	sp!, {r4, r5, lr}
2405b208:	f7ff bc52 	b.w	2405aab0 <__malloc_unlock>
2405b20c:	42a3      	cmp	r3, r4
2405b20e:	d908      	bls.n	2405b222 <_free_r+0x46>
2405b210:	6825      	ldr	r5, [r4, #0]
2405b212:	1961      	adds	r1, r4, r5
2405b214:	428b      	cmp	r3, r1
2405b216:	bf01      	itttt	eq
2405b218:	6819      	ldreq	r1, [r3, #0]
2405b21a:	685b      	ldreq	r3, [r3, #4]
2405b21c:	1949      	addeq	r1, r1, r5
2405b21e:	6021      	streq	r1, [r4, #0]
2405b220:	e7ed      	b.n	2405b1fe <_free_r+0x22>
2405b222:	461a      	mov	r2, r3
2405b224:	685b      	ldr	r3, [r3, #4]
2405b226:	b10b      	cbz	r3, 2405b22c <_free_r+0x50>
2405b228:	42a3      	cmp	r3, r4
2405b22a:	d9fa      	bls.n	2405b222 <_free_r+0x46>
2405b22c:	6811      	ldr	r1, [r2, #0]
2405b22e:	1855      	adds	r5, r2, r1
2405b230:	42a5      	cmp	r5, r4
2405b232:	d10b      	bne.n	2405b24c <_free_r+0x70>
2405b234:	6824      	ldr	r4, [r4, #0]
2405b236:	4421      	add	r1, r4
2405b238:	1854      	adds	r4, r2, r1
2405b23a:	42a3      	cmp	r3, r4
2405b23c:	6011      	str	r1, [r2, #0]
2405b23e:	d1e0      	bne.n	2405b202 <_free_r+0x26>
2405b240:	681c      	ldr	r4, [r3, #0]
2405b242:	685b      	ldr	r3, [r3, #4]
2405b244:	6053      	str	r3, [r2, #4]
2405b246:	440c      	add	r4, r1
2405b248:	6014      	str	r4, [r2, #0]
2405b24a:	e7da      	b.n	2405b202 <_free_r+0x26>
2405b24c:	d902      	bls.n	2405b254 <_free_r+0x78>
2405b24e:	230c      	movs	r3, #12
2405b250:	6003      	str	r3, [r0, #0]
2405b252:	e7d6      	b.n	2405b202 <_free_r+0x26>
2405b254:	6825      	ldr	r5, [r4, #0]
2405b256:	1961      	adds	r1, r4, r5
2405b258:	428b      	cmp	r3, r1
2405b25a:	bf04      	itt	eq
2405b25c:	6819      	ldreq	r1, [r3, #0]
2405b25e:	685b      	ldreq	r3, [r3, #4]
2405b260:	6063      	str	r3, [r4, #4]
2405b262:	bf04      	itt	eq
2405b264:	1949      	addeq	r1, r1, r5
2405b266:	6021      	streq	r1, [r4, #0]
2405b268:	6054      	str	r4, [r2, #4]
2405b26a:	e7ca      	b.n	2405b202 <_free_r+0x26>
2405b26c:	b003      	add	sp, #12
2405b26e:	bd30      	pop	{r4, r5, pc}
2405b270:	20000650 	.word	0x20000650

2405b274 <_malloc_usable_size_r>:
2405b274:	f851 3c04 	ldr.w	r3, [r1, #-4]
2405b278:	1f18      	subs	r0, r3, #4
2405b27a:	2b00      	cmp	r3, #0
2405b27c:	bfbc      	itt	lt
2405b27e:	580b      	ldrlt	r3, [r1, r0]
2405b280:	18c0      	addlt	r0, r0, r3
2405b282:	4770      	bx	lr

2405b284 <__ssputs_r>:
2405b284:	e92d 47f0 	stmdb	sp!, {r4, r5, r6, r7, r8, r9, sl, lr}
2405b288:	688e      	ldr	r6, [r1, #8]
2405b28a:	461f      	mov	r7, r3
2405b28c:	42be      	cmp	r6, r7
2405b28e:	680b      	ldr	r3, [r1, #0]
2405b290:	4682      	mov	sl, r0
2405b292:	460c      	mov	r4, r1
2405b294:	4690      	mov	r8, r2
2405b296:	d82c      	bhi.n	2405b2f2 <__ssputs_r+0x6e>
2405b298:	898a      	ldrh	r2, [r1, #12]
2405b29a:	f412 6f90 	tst.w	r2, #1152	; 0x480
2405b29e:	d026      	beq.n	2405b2ee <__ssputs_r+0x6a>
2405b2a0:	6965      	ldr	r5, [r4, #20]
2405b2a2:	6909      	ldr	r1, [r1, #16]
2405b2a4:	eb05 0545 	add.w	r5, r5, r5, lsl #1
2405b2a8:	eba3 0901 	sub.w	r9, r3, r1
2405b2ac:	eb05 75d5 	add.w	r5, r5, r5, lsr #31
2405b2b0:	1c7b      	adds	r3, r7, #1
2405b2b2:	444b      	add	r3, r9
2405b2b4:	106d      	asrs	r5, r5, #1
2405b2b6:	429d      	cmp	r5, r3
2405b2b8:	bf38      	it	cc
2405b2ba:	461d      	movcc	r5, r3
2405b2bc:	0553      	lsls	r3, r2, #21
2405b2be:	d527      	bpl.n	2405b310 <__ssputs_r+0x8c>
2405b2c0:	4629      	mov	r1, r5
2405b2c2:	f7ff fb6f 	bl	2405a9a4 <_malloc_r>
2405b2c6:	4606      	mov	r6, r0
2405b2c8:	b360      	cbz	r0, 2405b324 <__ssputs_r+0xa0>
2405b2ca:	6921      	ldr	r1, [r4, #16]
2405b2cc:	464a      	mov	r2, r9
2405b2ce:	f7ff ff70 	bl	2405b1b2 <memcpy>
2405b2d2:	89a3      	ldrh	r3, [r4, #12]
2405b2d4:	f423 6390 	bic.w	r3, r3, #1152	; 0x480
2405b2d8:	f043 0380 	orr.w	r3, r3, #128	; 0x80
2405b2dc:	81a3      	strh	r3, [r4, #12]
2405b2de:	6126      	str	r6, [r4, #16]
2405b2e0:	6165      	str	r5, [r4, #20]
2405b2e2:	444e      	add	r6, r9
2405b2e4:	eba5 0509 	sub.w	r5, r5, r9
2405b2e8:	6026      	str	r6, [r4, #0]
2405b2ea:	60a5      	str	r5, [r4, #8]
2405b2ec:	463e      	mov	r6, r7
2405b2ee:	42be      	cmp	r6, r7
2405b2f0:	d900      	bls.n	2405b2f4 <__ssputs_r+0x70>
2405b2f2:	463e      	mov	r6, r7
2405b2f4:	6820      	ldr	r0, [r4, #0]
2405b2f6:	4632      	mov	r2, r6
2405b2f8:	4641      	mov	r1, r8
2405b2fa:	f7ff feb5 	bl	2405b068 <memmove>
2405b2fe:	68a3      	ldr	r3, [r4, #8]
2405b300:	1b9b      	subs	r3, r3, r6
2405b302:	60a3      	str	r3, [r4, #8]
2405b304:	6823      	ldr	r3, [r4, #0]
2405b306:	4433      	add	r3, r6
2405b308:	6023      	str	r3, [r4, #0]
2405b30a:	2000      	movs	r0, #0
2405b30c:	e8bd 87f0 	ldmia.w	sp!, {r4, r5, r6, r7, r8, r9, sl, pc}
2405b310:	462a      	mov	r2, r5
2405b312:	f7ff fc3f 	bl	2405ab94 <_realloc_r>
2405b316:	4606      	mov	r6, r0
2405b318:	2800      	cmp	r0, #0
2405b31a:	d1e0      	bne.n	2405b2de <__ssputs_r+0x5a>
2405b31c:	6921      	ldr	r1, [r4, #16]
2405b31e:	4650      	mov	r0, sl
2405b320:	f7ff ff5c 	bl	2405b1dc <_free_r>
2405b324:	230c      	movs	r3, #12
2405b326:	f8ca 3000 	str.w	r3, [sl]
2405b32a:	89a3      	ldrh	r3, [r4, #12]
2405b32c:	f043 0340 	orr.w	r3, r3, #64	; 0x40
2405b330:	81a3      	strh	r3, [r4, #12]
2405b332:	f04f 30ff 	mov.w	r0, #4294967295
2405b336:	e7e9      	b.n	2405b30c <__ssputs_r+0x88>

2405b338 <_svfiprintf_r>:
2405b338:	e92d 4ff0 	stmdb	sp!, {r4, r5, r6, r7, r8, r9, sl, fp, lr}
2405b33c:	4698      	mov	r8, r3
2405b33e:	898b      	ldrh	r3, [r1, #12]
2405b340:	061b      	lsls	r3, r3, #24
2405b342:	b09d      	sub	sp, #116	; 0x74
2405b344:	4607      	mov	r7, r0
2405b346:	460d      	mov	r5, r1
2405b348:	4614      	mov	r4, r2
2405b34a:	d50e      	bpl.n	2405b36a <_svfiprintf_r+0x32>
2405b34c:	690b      	ldr	r3, [r1, #16]
2405b34e:	b963      	cbnz	r3, 2405b36a <_svfiprintf_r+0x32>
2405b350:	2140      	movs	r1, #64	; 0x40
2405b352:	f7ff fb27 	bl	2405a9a4 <_malloc_r>
2405b356:	6028      	str	r0, [r5, #0]
2405b358:	6128      	str	r0, [r5, #16]
2405b35a:	b920      	cbnz	r0, 2405b366 <_svfiprintf_r+0x2e>
2405b35c:	230c      	movs	r3, #12
2405b35e:	603b      	str	r3, [r7, #0]
2405b360:	f04f 30ff 	mov.w	r0, #4294967295
2405b364:	e0d0      	b.n	2405b508 <_svfiprintf_r+0x1d0>
2405b366:	2340      	movs	r3, #64	; 0x40
2405b368:	616b      	str	r3, [r5, #20]
2405b36a:	2300      	movs	r3, #0
2405b36c:	9309      	str	r3, [sp, #36]	; 0x24
2405b36e:	2320      	movs	r3, #32
2405b370:	f88d 3029 	strb.w	r3, [sp, #41]	; 0x29
2405b374:	f8cd 800c 	str.w	r8, [sp, #12]
2405b378:	2330      	movs	r3, #48	; 0x30
2405b37a:	f8df 81a4 	ldr.w	r8, [pc, #420]	; 2405b520 <_svfiprintf_r+0x1e8>
2405b37e:	f88d 302a 	strb.w	r3, [sp, #42]	; 0x2a
2405b382:	f04f 0901 	mov.w	r9, #1
2405b386:	4623      	mov	r3, r4
2405b388:	469a      	mov	sl, r3
2405b38a:	f813 2b01 	ldrb.w	r2, [r3], #1
2405b38e:	b10a      	cbz	r2, 2405b394 <_svfiprintf_r+0x5c>
2405b390:	2a25      	cmp	r2, #37	; 0x25
2405b392:	d1f9      	bne.n	2405b388 <_svfiprintf_r+0x50>
2405b394:	ebba 0b04 	subs.w	fp, sl, r4
2405b398:	d00b      	beq.n	2405b3b2 <_svfiprintf_r+0x7a>
2405b39a:	465b      	mov	r3, fp
2405b39c:	4622      	mov	r2, r4
2405b39e:	4629      	mov	r1, r5
2405b3a0:	4638      	mov	r0, r7
2405b3a2:	f7ff ff6f 	bl	2405b284 <__ssputs_r>
2405b3a6:	3001      	adds	r0, #1
2405b3a8:	f000 80a9 	beq.w	2405b4fe <_svfiprintf_r+0x1c6>
2405b3ac:	9a09      	ldr	r2, [sp, #36]	; 0x24
2405b3ae:	445a      	add	r2, fp
2405b3b0:	9209      	str	r2, [sp, #36]	; 0x24
2405b3b2:	f89a 3000 	ldrb.w	r3, [sl]
2405b3b6:	2b00      	cmp	r3, #0
2405b3b8:	f000 80a1 	beq.w	2405b4fe <_svfiprintf_r+0x1c6>
2405b3bc:	2300      	movs	r3, #0
2405b3be:	f04f 32ff 	mov.w	r2, #4294967295
2405b3c2:	e9cd 2305 	strd	r2, r3, [sp, #20]
2405b3c6:	f10a 0a01 	add.w	sl, sl, #1
2405b3ca:	9304      	str	r3, [sp, #16]
2405b3cc:	9307      	str	r3, [sp, #28]
2405b3ce:	f88d 3053 	strb.w	r3, [sp, #83]	; 0x53
2405b3d2:	931a      	str	r3, [sp, #104]	; 0x68
2405b3d4:	4654      	mov	r4, sl
2405b3d6:	2205      	movs	r2, #5
2405b3d8:	f814 1b01 	ldrb.w	r1, [r4], #1
2405b3dc:	4850      	ldr	r0, [pc, #320]	; (2405b520 <_svfiprintf_r+0x1e8>)
2405b3de:	f7f4 fe2f 	bl	24050040 <memchr>
2405b3e2:	9a04      	ldr	r2, [sp, #16]
2405b3e4:	b9d8      	cbnz	r0, 2405b41e <_svfiprintf_r+0xe6>
2405b3e6:	06d0      	lsls	r0, r2, #27
2405b3e8:	bf44      	itt	mi
2405b3ea:	2320      	movmi	r3, #32
2405b3ec:	f88d 3053 	strbmi.w	r3, [sp, #83]	; 0x53
2405b3f0:	0711      	lsls	r1, r2, #28
2405b3f2:	bf44      	itt	mi
2405b3f4:	232b      	movmi	r3, #43	; 0x2b
2405b3f6:	f88d 3053 	strbmi.w	r3, [sp, #83]	; 0x53
2405b3fa:	f89a 3000 	ldrb.w	r3, [sl]
2405b3fe:	2b2a      	cmp	r3, #42	; 0x2a
2405b400:	d015      	beq.n	2405b42e <_svfiprintf_r+0xf6>
2405b402:	9a07      	ldr	r2, [sp, #28]
2405b404:	4654      	mov	r4, sl
2405b406:	2000      	movs	r0, #0
2405b408:	f04f 0c0a 	mov.w	ip, #10
2405b40c:	4621      	mov	r1, r4
2405b40e:	f811 3b01 	ldrb.w	r3, [r1], #1
2405b412:	3b30      	subs	r3, #48	; 0x30
2405b414:	2b09      	cmp	r3, #9
2405b416:	d94d      	bls.n	2405b4b4 <_svfiprintf_r+0x17c>
2405b418:	b1b0      	cbz	r0, 2405b448 <_svfiprintf_r+0x110>
2405b41a:	9207      	str	r2, [sp, #28]
2405b41c:	e014      	b.n	2405b448 <_svfiprintf_r+0x110>
2405b41e:	eba0 0308 	sub.w	r3, r0, r8
2405b422:	fa09 f303 	lsl.w	r3, r9, r3
2405b426:	4313      	orrs	r3, r2
2405b428:	9304      	str	r3, [sp, #16]
2405b42a:	46a2      	mov	sl, r4
2405b42c:	e7d2      	b.n	2405b3d4 <_svfiprintf_r+0x9c>
2405b42e:	9b03      	ldr	r3, [sp, #12]
2405b430:	1d19      	adds	r1, r3, #4
2405b432:	681b      	ldr	r3, [r3, #0]
2405b434:	9103      	str	r1, [sp, #12]
2405b436:	2b00      	cmp	r3, #0
2405b438:	bfbb      	ittet	lt
2405b43a:	425b      	neglt	r3, r3
2405b43c:	f042 0202 	orrlt.w	r2, r2, #2
2405b440:	9307      	strge	r3, [sp, #28]
2405b442:	9307      	strlt	r3, [sp, #28]
2405b444:	bfb8      	it	lt
2405b446:	9204      	strlt	r2, [sp, #16]
2405b448:	7823      	ldrb	r3, [r4, #0]
2405b44a:	2b2e      	cmp	r3, #46	; 0x2e
2405b44c:	d10c      	bne.n	2405b468 <_svfiprintf_r+0x130>
2405b44e:	7863      	ldrb	r3, [r4, #1]
2405b450:	2b2a      	cmp	r3, #42	; 0x2a
2405b452:	d134      	bne.n	2405b4be <_svfiprintf_r+0x186>
2405b454:	9b03      	ldr	r3, [sp, #12]
2405b456:	1d1a      	adds	r2, r3, #4
2405b458:	681b      	ldr	r3, [r3, #0]
2405b45a:	9203      	str	r2, [sp, #12]
2405b45c:	2b00      	cmp	r3, #0
2405b45e:	bfb8      	it	lt
2405b460:	f04f 33ff 	movlt.w	r3, #4294967295
2405b464:	3402      	adds	r4, #2
2405b466:	9305      	str	r3, [sp, #20]
2405b468:	f8df a0c4 	ldr.w	sl, [pc, #196]	; 2405b530 <_svfiprintf_r+0x1f8>
2405b46c:	7821      	ldrb	r1, [r4, #0]
2405b46e:	2203      	movs	r2, #3
2405b470:	4650      	mov	r0, sl
2405b472:	f7f4 fde5 	bl	24050040 <memchr>
2405b476:	b138      	cbz	r0, 2405b488 <_svfiprintf_r+0x150>
2405b478:	9b04      	ldr	r3, [sp, #16]
2405b47a:	eba0 000a 	sub.w	r0, r0, sl
2405b47e:	2240      	movs	r2, #64	; 0x40
2405b480:	4082      	lsls	r2, r0
2405b482:	4313      	orrs	r3, r2
2405b484:	3401      	adds	r4, #1
2405b486:	9304      	str	r3, [sp, #16]
2405b488:	f814 1b01 	ldrb.w	r1, [r4], #1
2405b48c:	4825      	ldr	r0, [pc, #148]	; (2405b524 <_svfiprintf_r+0x1ec>)
2405b48e:	f88d 1028 	strb.w	r1, [sp, #40]	; 0x28
2405b492:	2206      	movs	r2, #6
2405b494:	f7f4 fdd4 	bl	24050040 <memchr>
2405b498:	2800      	cmp	r0, #0
2405b49a:	d038      	beq.n	2405b50e <_svfiprintf_r+0x1d6>
2405b49c:	4b22      	ldr	r3, [pc, #136]	; (2405b528 <_svfiprintf_r+0x1f0>)
2405b49e:	bb1b      	cbnz	r3, 2405b4e8 <_svfiprintf_r+0x1b0>
2405b4a0:	9b03      	ldr	r3, [sp, #12]
2405b4a2:	3307      	adds	r3, #7
2405b4a4:	f023 0307 	bic.w	r3, r3, #7
2405b4a8:	3308      	adds	r3, #8
2405b4aa:	9303      	str	r3, [sp, #12]
2405b4ac:	9b09      	ldr	r3, [sp, #36]	; 0x24
2405b4ae:	4433      	add	r3, r6
2405b4b0:	9309      	str	r3, [sp, #36]	; 0x24
2405b4b2:	e768      	b.n	2405b386 <_svfiprintf_r+0x4e>
2405b4b4:	fb0c 3202 	mla	r2, ip, r2, r3
2405b4b8:	460c      	mov	r4, r1
2405b4ba:	2001      	movs	r0, #1
2405b4bc:	e7a6      	b.n	2405b40c <_svfiprintf_r+0xd4>
2405b4be:	2300      	movs	r3, #0
2405b4c0:	3401      	adds	r4, #1
2405b4c2:	9305      	str	r3, [sp, #20]
2405b4c4:	4619      	mov	r1, r3
2405b4c6:	f04f 0c0a 	mov.w	ip, #10
2405b4ca:	4620      	mov	r0, r4
2405b4cc:	f810 2b01 	ldrb.w	r2, [r0], #1
2405b4d0:	3a30      	subs	r2, #48	; 0x30
2405b4d2:	2a09      	cmp	r2, #9
2405b4d4:	d903      	bls.n	2405b4de <_svfiprintf_r+0x1a6>
2405b4d6:	2b00      	cmp	r3, #0
2405b4d8:	d0c6      	beq.n	2405b468 <_svfiprintf_r+0x130>
2405b4da:	9105      	str	r1, [sp, #20]
2405b4dc:	e7c4      	b.n	2405b468 <_svfiprintf_r+0x130>
2405b4de:	fb0c 2101 	mla	r1, ip, r1, r2
2405b4e2:	4604      	mov	r4, r0
2405b4e4:	2301      	movs	r3, #1
2405b4e6:	e7f0      	b.n	2405b4ca <_svfiprintf_r+0x192>
2405b4e8:	ab03      	add	r3, sp, #12
2405b4ea:	9300      	str	r3, [sp, #0]
2405b4ec:	462a      	mov	r2, r5
2405b4ee:	4b0f      	ldr	r3, [pc, #60]	; (2405b52c <_svfiprintf_r+0x1f4>)
2405b4f0:	a904      	add	r1, sp, #16
2405b4f2:	4638      	mov	r0, r7
2405b4f4:	f3af 8000 	nop.w
2405b4f8:	1c42      	adds	r2, r0, #1
2405b4fa:	4606      	mov	r6, r0
2405b4fc:	d1d6      	bne.n	2405b4ac <_svfiprintf_r+0x174>
2405b4fe:	89ab      	ldrh	r3, [r5, #12]
2405b500:	065b      	lsls	r3, r3, #25
2405b502:	f53f af2d 	bmi.w	2405b360 <_svfiprintf_r+0x28>
2405b506:	9809      	ldr	r0, [sp, #36]	; 0x24
2405b508:	b01d      	add	sp, #116	; 0x74
2405b50a:	e8bd 8ff0 	ldmia.w	sp!, {r4, r5, r6, r7, r8, r9, sl, fp, pc}
2405b50e:	ab03      	add	r3, sp, #12
2405b510:	9300      	str	r3, [sp, #0]
2405b512:	462a      	mov	r2, r5
2405b514:	4b05      	ldr	r3, [pc, #20]	; (2405b52c <_svfiprintf_r+0x1f4>)
2405b516:	a904      	add	r1, sp, #16
2405b518:	4638      	mov	r0, r7
2405b51a:	f000 f9bd 	bl	2405b898 <_printf_i>
2405b51e:	e7eb      	b.n	2405b4f8 <_svfiprintf_r+0x1c0>
2405b520:	240601ec 	.word	0x240601ec
2405b524:	240601f6 	.word	0x240601f6
2405b528:	00000000 	.word	0x00000000
2405b52c:	2405b285 	.word	0x2405b285
2405b530:	240601f2 	.word	0x240601f2

2405b534 <__sfputc_r>:
2405b534:	6893      	ldr	r3, [r2, #8]
2405b536:	3b01      	subs	r3, #1
2405b538:	2b00      	cmp	r3, #0
2405b53a:	b410      	push	{r4}
2405b53c:	6093      	str	r3, [r2, #8]
2405b53e:	da08      	bge.n	2405b552 <__sfputc_r+0x1e>
2405b540:	6994      	ldr	r4, [r2, #24]
2405b542:	42a3      	cmp	r3, r4
2405b544:	db01      	blt.n	2405b54a <__sfputc_r+0x16>
2405b546:	290a      	cmp	r1, #10
2405b548:	d103      	bne.n	2405b552 <__sfputc_r+0x1e>
2405b54a:	f85d 4b04 	ldr.w	r4, [sp], #4
2405b54e:	f7ff bcf6 	b.w	2405af3e <__swbuf_r>
2405b552:	6813      	ldr	r3, [r2, #0]
2405b554:	1c58      	adds	r0, r3, #1
2405b556:	6010      	str	r0, [r2, #0]
2405b558:	7019      	strb	r1, [r3, #0]
2405b55a:	4608      	mov	r0, r1
2405b55c:	f85d 4b04 	ldr.w	r4, [sp], #4
2405b560:	4770      	bx	lr

2405b562 <__sfputs_r>:
2405b562:	b5f8      	push	{r3, r4, r5, r6, r7, lr}
2405b564:	4606      	mov	r6, r0
2405b566:	460f      	mov	r7, r1
2405b568:	4614      	mov	r4, r2
2405b56a:	18d5      	adds	r5, r2, r3
2405b56c:	42ac      	cmp	r4, r5
2405b56e:	d101      	bne.n	2405b574 <__sfputs_r+0x12>
2405b570:	2000      	movs	r0, #0
2405b572:	e007      	b.n	2405b584 <__sfputs_r+0x22>
2405b574:	f814 1b01 	ldrb.w	r1, [r4], #1
2405b578:	463a      	mov	r2, r7
2405b57a:	4630      	mov	r0, r6
2405b57c:	f7ff ffda 	bl	2405b534 <__sfputc_r>
2405b580:	1c43      	adds	r3, r0, #1
2405b582:	d1f3      	bne.n	2405b56c <__sfputs_r+0xa>
2405b584:	bdf8      	pop	{r3, r4, r5, r6, r7, pc}
	...

2405b588 <_vfiprintf_r>:
2405b588:	e92d 4ff0 	stmdb	sp!, {r4, r5, r6, r7, r8, r9, sl, fp, lr}
2405b58c:	460d      	mov	r5, r1
2405b58e:	b09d      	sub	sp, #116	; 0x74
2405b590:	4614      	mov	r4, r2
2405b592:	4698      	mov	r8, r3
2405b594:	4606      	mov	r6, r0
2405b596:	b118      	cbz	r0, 2405b5a0 <_vfiprintf_r+0x18>
2405b598:	6a03      	ldr	r3, [r0, #32]
2405b59a:	b90b      	cbnz	r3, 2405b5a0 <_vfiprintf_r+0x18>
2405b59c:	f7ff fbb6 	bl	2405ad0c <__sinit>
2405b5a0:	6e6b      	ldr	r3, [r5, #100]	; 0x64
2405b5a2:	07d9      	lsls	r1, r3, #31
2405b5a4:	d405      	bmi.n	2405b5b2 <_vfiprintf_r+0x2a>
2405b5a6:	89ab      	ldrh	r3, [r5, #12]
2405b5a8:	059a      	lsls	r2, r3, #22
2405b5aa:	d402      	bmi.n	2405b5b2 <_vfiprintf_r+0x2a>
2405b5ac:	6da8      	ldr	r0, [r5, #88]	; 0x58
2405b5ae:	f7ff fdfe 	bl	2405b1ae <__retarget_lock_acquire_recursive>
2405b5b2:	89ab      	ldrh	r3, [r5, #12]
2405b5b4:	071b      	lsls	r3, r3, #28
2405b5b6:	d501      	bpl.n	2405b5bc <_vfiprintf_r+0x34>
2405b5b8:	692b      	ldr	r3, [r5, #16]
2405b5ba:	b99b      	cbnz	r3, 2405b5e4 <_vfiprintf_r+0x5c>
2405b5bc:	4629      	mov	r1, r5
2405b5be:	4630      	mov	r0, r6
2405b5c0:	f7ff fcfa 	bl	2405afb8 <__swsetup_r>
2405b5c4:	b170      	cbz	r0, 2405b5e4 <_vfiprintf_r+0x5c>
2405b5c6:	6e6b      	ldr	r3, [r5, #100]	; 0x64
2405b5c8:	07dc      	lsls	r4, r3, #31
2405b5ca:	d504      	bpl.n	2405b5d6 <_vfiprintf_r+0x4e>
2405b5cc:	f04f 30ff 	mov.w	r0, #4294967295
2405b5d0:	b01d      	add	sp, #116	; 0x74
2405b5d2:	e8bd 8ff0 	ldmia.w	sp!, {r4, r5, r6, r7, r8, r9, sl, fp, pc}
2405b5d6:	89ab      	ldrh	r3, [r5, #12]
2405b5d8:	0598      	lsls	r0, r3, #22
2405b5da:	d4f7      	bmi.n	2405b5cc <_vfiprintf_r+0x44>
2405b5dc:	6da8      	ldr	r0, [r5, #88]	; 0x58
2405b5de:	f7ff fde7 	bl	2405b1b0 <__retarget_lock_release_recursive>
2405b5e2:	e7f3      	b.n	2405b5cc <_vfiprintf_r+0x44>
2405b5e4:	2300      	movs	r3, #0
2405b5e6:	9309      	str	r3, [sp, #36]	; 0x24
2405b5e8:	2320      	movs	r3, #32
2405b5ea:	f88d 3029 	strb.w	r3, [sp, #41]	; 0x29
2405b5ee:	f8cd 800c 	str.w	r8, [sp, #12]
2405b5f2:	2330      	movs	r3, #48	; 0x30
2405b5f4:	f8df 81b0 	ldr.w	r8, [pc, #432]	; 2405b7a8 <_vfiprintf_r+0x220>
2405b5f8:	f88d 302a 	strb.w	r3, [sp, #42]	; 0x2a
2405b5fc:	f04f 0901 	mov.w	r9, #1
2405b600:	4623      	mov	r3, r4
2405b602:	469a      	mov	sl, r3
2405b604:	f813 2b01 	ldrb.w	r2, [r3], #1
2405b608:	b10a      	cbz	r2, 2405b60e <_vfiprintf_r+0x86>
2405b60a:	2a25      	cmp	r2, #37	; 0x25
2405b60c:	d1f9      	bne.n	2405b602 <_vfiprintf_r+0x7a>
2405b60e:	ebba 0b04 	subs.w	fp, sl, r4
2405b612:	d00b      	beq.n	2405b62c <_vfiprintf_r+0xa4>
2405b614:	465b      	mov	r3, fp
2405b616:	4622      	mov	r2, r4
2405b618:	4629      	mov	r1, r5
2405b61a:	4630      	mov	r0, r6
2405b61c:	f7ff ffa1 	bl	2405b562 <__sfputs_r>
2405b620:	3001      	adds	r0, #1
2405b622:	f000 80a9 	beq.w	2405b778 <_vfiprintf_r+0x1f0>
2405b626:	9a09      	ldr	r2, [sp, #36]	; 0x24
2405b628:	445a      	add	r2, fp
2405b62a:	9209      	str	r2, [sp, #36]	; 0x24
2405b62c:	f89a 3000 	ldrb.w	r3, [sl]
2405b630:	2b00      	cmp	r3, #0
2405b632:	f000 80a1 	beq.w	2405b778 <_vfiprintf_r+0x1f0>
2405b636:	2300      	movs	r3, #0
2405b638:	f04f 32ff 	mov.w	r2, #4294967295
2405b63c:	e9cd 2305 	strd	r2, r3, [sp, #20]
2405b640:	f10a 0a01 	add.w	sl, sl, #1
2405b644:	9304      	str	r3, [sp, #16]
2405b646:	9307      	str	r3, [sp, #28]
2405b648:	f88d 3053 	strb.w	r3, [sp, #83]	; 0x53
2405b64c:	931a      	str	r3, [sp, #104]	; 0x68
2405b64e:	4654      	mov	r4, sl
2405b650:	2205      	movs	r2, #5
2405b652:	f814 1b01 	ldrb.w	r1, [r4], #1
2405b656:	4854      	ldr	r0, [pc, #336]	; (2405b7a8 <_vfiprintf_r+0x220>)
2405b658:	f7f4 fcf2 	bl	24050040 <memchr>
2405b65c:	9a04      	ldr	r2, [sp, #16]
2405b65e:	b9d8      	cbnz	r0, 2405b698 <_vfiprintf_r+0x110>
2405b660:	06d1      	lsls	r1, r2, #27
2405b662:	bf44      	itt	mi
2405b664:	2320      	movmi	r3, #32
2405b666:	f88d 3053 	strbmi.w	r3, [sp, #83]	; 0x53
2405b66a:	0713      	lsls	r3, r2, #28
2405b66c:	bf44      	itt	mi
2405b66e:	232b      	movmi	r3, #43	; 0x2b
2405b670:	f88d 3053 	strbmi.w	r3, [sp, #83]	; 0x53
2405b674:	f89a 3000 	ldrb.w	r3, [sl]
2405b678:	2b2a      	cmp	r3, #42	; 0x2a
2405b67a:	d015      	beq.n	2405b6a8 <_vfiprintf_r+0x120>
2405b67c:	9a07      	ldr	r2, [sp, #28]
2405b67e:	4654      	mov	r4, sl
2405b680:	2000      	movs	r0, #0
2405b682:	f04f 0c0a 	mov.w	ip, #10
2405b686:	4621      	mov	r1, r4
2405b688:	f811 3b01 	ldrb.w	r3, [r1], #1
2405b68c:	3b30      	subs	r3, #48	; 0x30
2405b68e:	2b09      	cmp	r3, #9
2405b690:	d94d      	bls.n	2405b72e <_vfiprintf_r+0x1a6>
2405b692:	b1b0      	cbz	r0, 2405b6c2 <_vfiprintf_r+0x13a>
2405b694:	9207      	str	r2, [sp, #28]
2405b696:	e014      	b.n	2405b6c2 <_vfiprintf_r+0x13a>
2405b698:	eba0 0308 	sub.w	r3, r0, r8
2405b69c:	fa09 f303 	lsl.w	r3, r9, r3
2405b6a0:	4313      	orrs	r3, r2
2405b6a2:	9304      	str	r3, [sp, #16]
2405b6a4:	46a2      	mov	sl, r4
2405b6a6:	e7d2      	b.n	2405b64e <_vfiprintf_r+0xc6>
2405b6a8:	9b03      	ldr	r3, [sp, #12]
2405b6aa:	1d19      	adds	r1, r3, #4
2405b6ac:	681b      	ldr	r3, [r3, #0]
2405b6ae:	9103      	str	r1, [sp, #12]
2405b6b0:	2b00      	cmp	r3, #0
2405b6b2:	bfbb      	ittet	lt
2405b6b4:	425b      	neglt	r3, r3
2405b6b6:	f042 0202 	orrlt.w	r2, r2, #2
2405b6ba:	9307      	strge	r3, [sp, #28]
2405b6bc:	9307      	strlt	r3, [sp, #28]
2405b6be:	bfb8      	it	lt
2405b6c0:	9204      	strlt	r2, [sp, #16]
2405b6c2:	7823      	ldrb	r3, [r4, #0]
2405b6c4:	2b2e      	cmp	r3, #46	; 0x2e
2405b6c6:	d10c      	bne.n	2405b6e2 <_vfiprintf_r+0x15a>
2405b6c8:	7863      	ldrb	r3, [r4, #1]
2405b6ca:	2b2a      	cmp	r3, #42	; 0x2a
2405b6cc:	d134      	bne.n	2405b738 <_vfiprintf_r+0x1b0>
2405b6ce:	9b03      	ldr	r3, [sp, #12]
2405b6d0:	1d1a      	adds	r2, r3, #4
2405b6d2:	681b      	ldr	r3, [r3, #0]
2405b6d4:	9203      	str	r2, [sp, #12]
2405b6d6:	2b00      	cmp	r3, #0
2405b6d8:	bfb8      	it	lt
2405b6da:	f04f 33ff 	movlt.w	r3, #4294967295
2405b6de:	3402      	adds	r4, #2
2405b6e0:	9305      	str	r3, [sp, #20]
2405b6e2:	f8df a0d4 	ldr.w	sl, [pc, #212]	; 2405b7b8 <_vfiprintf_r+0x230>
2405b6e6:	7821      	ldrb	r1, [r4, #0]
2405b6e8:	2203      	movs	r2, #3
2405b6ea:	4650      	mov	r0, sl
2405b6ec:	f7f4 fca8 	bl	24050040 <memchr>
2405b6f0:	b138      	cbz	r0, 2405b702 <_vfiprintf_r+0x17a>
2405b6f2:	9b04      	ldr	r3, [sp, #16]
2405b6f4:	eba0 000a 	sub.w	r0, r0, sl
2405b6f8:	2240      	movs	r2, #64	; 0x40
2405b6fa:	4082      	lsls	r2, r0
2405b6fc:	4313      	orrs	r3, r2
2405b6fe:	3401      	adds	r4, #1
2405b700:	9304      	str	r3, [sp, #16]
2405b702:	f814 1b01 	ldrb.w	r1, [r4], #1
2405b706:	4829      	ldr	r0, [pc, #164]	; (2405b7ac <_vfiprintf_r+0x224>)
2405b708:	f88d 1028 	strb.w	r1, [sp, #40]	; 0x28
2405b70c:	2206      	movs	r2, #6
2405b70e:	f7f4 fc97 	bl	24050040 <memchr>
2405b712:	2800      	cmp	r0, #0
2405b714:	d03f      	beq.n	2405b796 <_vfiprintf_r+0x20e>
2405b716:	4b26      	ldr	r3, [pc, #152]	; (2405b7b0 <_vfiprintf_r+0x228>)
2405b718:	bb1b      	cbnz	r3, 2405b762 <_vfiprintf_r+0x1da>
2405b71a:	9b03      	ldr	r3, [sp, #12]
2405b71c:	3307      	adds	r3, #7
2405b71e:	f023 0307 	bic.w	r3, r3, #7
2405b722:	3308      	adds	r3, #8
2405b724:	9303      	str	r3, [sp, #12]
2405b726:	9b09      	ldr	r3, [sp, #36]	; 0x24
2405b728:	443b      	add	r3, r7
2405b72a:	9309      	str	r3, [sp, #36]	; 0x24
2405b72c:	e768      	b.n	2405b600 <_vfiprintf_r+0x78>
2405b72e:	fb0c 3202 	mla	r2, ip, r2, r3
2405b732:	460c      	mov	r4, r1
2405b734:	2001      	movs	r0, #1
2405b736:	e7a6      	b.n	2405b686 <_vfiprintf_r+0xfe>
2405b738:	2300      	movs	r3, #0
2405b73a:	3401      	adds	r4, #1
2405b73c:	9305      	str	r3, [sp, #20]
2405b73e:	4619      	mov	r1, r3
2405b740:	f04f 0c0a 	mov.w	ip, #10
2405b744:	4620      	mov	r0, r4
2405b746:	f810 2b01 	ldrb.w	r2, [r0], #1
2405b74a:	3a30      	subs	r2, #48	; 0x30
2405b74c:	2a09      	cmp	r2, #9
2405b74e:	d903      	bls.n	2405b758 <_vfiprintf_r+0x1d0>
2405b750:	2b00      	cmp	r3, #0
2405b752:	d0c6      	beq.n	2405b6e2 <_vfiprintf_r+0x15a>
2405b754:	9105      	str	r1, [sp, #20]
2405b756:	e7c4      	b.n	2405b6e2 <_vfiprintf_r+0x15a>
2405b758:	fb0c 2101 	mla	r1, ip, r1, r2
2405b75c:	4604      	mov	r4, r0
2405b75e:	2301      	movs	r3, #1
2405b760:	e7f0      	b.n	2405b744 <_vfiprintf_r+0x1bc>
2405b762:	ab03      	add	r3, sp, #12
2405b764:	9300      	str	r3, [sp, #0]
2405b766:	462a      	mov	r2, r5
2405b768:	4b12      	ldr	r3, [pc, #72]	; (2405b7b4 <_vfiprintf_r+0x22c>)
2405b76a:	a904      	add	r1, sp, #16
2405b76c:	4630      	mov	r0, r6
2405b76e:	f3af 8000 	nop.w
2405b772:	4607      	mov	r7, r0
2405b774:	1c78      	adds	r0, r7, #1
2405b776:	d1d6      	bne.n	2405b726 <_vfiprintf_r+0x19e>
2405b778:	6e6b      	ldr	r3, [r5, #100]	; 0x64
2405b77a:	07d9      	lsls	r1, r3, #31
2405b77c:	d405      	bmi.n	2405b78a <_vfiprintf_r+0x202>
2405b77e:	89ab      	ldrh	r3, [r5, #12]
2405b780:	059a      	lsls	r2, r3, #22
2405b782:	d402      	bmi.n	2405b78a <_vfiprintf_r+0x202>
2405b784:	6da8      	ldr	r0, [r5, #88]	; 0x58
2405b786:	f7ff fd13 	bl	2405b1b0 <__retarget_lock_release_recursive>
2405b78a:	89ab      	ldrh	r3, [r5, #12]
2405b78c:	065b      	lsls	r3, r3, #25
2405b78e:	f53f af1d 	bmi.w	2405b5cc <_vfiprintf_r+0x44>
2405b792:	9809      	ldr	r0, [sp, #36]	; 0x24
2405b794:	e71c      	b.n	2405b5d0 <_vfiprintf_r+0x48>
2405b796:	ab03      	add	r3, sp, #12
2405b798:	9300      	str	r3, [sp, #0]
2405b79a:	462a      	mov	r2, r5
2405b79c:	4b05      	ldr	r3, [pc, #20]	; (2405b7b4 <_vfiprintf_r+0x22c>)
2405b79e:	a904      	add	r1, sp, #16
2405b7a0:	4630      	mov	r0, r6
2405b7a2:	f000 f879 	bl	2405b898 <_printf_i>
2405b7a6:	e7e4      	b.n	2405b772 <_vfiprintf_r+0x1ea>
2405b7a8:	240601ec 	.word	0x240601ec
2405b7ac:	240601f6 	.word	0x240601f6
2405b7b0:	00000000 	.word	0x00000000
2405b7b4:	2405b563 	.word	0x2405b563
2405b7b8:	240601f2 	.word	0x240601f2

2405b7bc <_printf_common>:
2405b7bc:	e92d 47f0 	stmdb	sp!, {r4, r5, r6, r7, r8, r9, sl, lr}
2405b7c0:	4616      	mov	r6, r2
2405b7c2:	4699      	mov	r9, r3
2405b7c4:	688a      	ldr	r2, [r1, #8]
2405b7c6:	690b      	ldr	r3, [r1, #16]
2405b7c8:	f8dd 8020 	ldr.w	r8, [sp, #32]
2405b7cc:	4293      	cmp	r3, r2
2405b7ce:	bfb8      	it	lt
2405b7d0:	4613      	movlt	r3, r2
2405b7d2:	6033      	str	r3, [r6, #0]
2405b7d4:	f891 2043 	ldrb.w	r2, [r1, #67]	; 0x43
2405b7d8:	4607      	mov	r7, r0
2405b7da:	460c      	mov	r4, r1
2405b7dc:	b10a      	cbz	r2, 2405b7e2 <_printf_common+0x26>
2405b7de:	3301      	adds	r3, #1
2405b7e0:	6033      	str	r3, [r6, #0]
2405b7e2:	6823      	ldr	r3, [r4, #0]
2405b7e4:	0699      	lsls	r1, r3, #26
2405b7e6:	bf42      	ittt	mi
2405b7e8:	6833      	ldrmi	r3, [r6, #0]
2405b7ea:	3302      	addmi	r3, #2
2405b7ec:	6033      	strmi	r3, [r6, #0]
2405b7ee:	6825      	ldr	r5, [r4, #0]
2405b7f0:	f015 0506 	ands.w	r5, r5, #6
2405b7f4:	d106      	bne.n	2405b804 <_printf_common+0x48>
2405b7f6:	f104 0a19 	add.w	sl, r4, #25
2405b7fa:	68e3      	ldr	r3, [r4, #12]
2405b7fc:	6832      	ldr	r2, [r6, #0]
2405b7fe:	1a9b      	subs	r3, r3, r2
2405b800:	42ab      	cmp	r3, r5
2405b802:	dc26      	bgt.n	2405b852 <_printf_common+0x96>
2405b804:	f894 2043 	ldrb.w	r2, [r4, #67]	; 0x43
2405b808:	1e13      	subs	r3, r2, #0
2405b80a:	6822      	ldr	r2, [r4, #0]
2405b80c:	bf18      	it	ne
2405b80e:	2301      	movne	r3, #1
2405b810:	0692      	lsls	r2, r2, #26
2405b812:	d42b      	bmi.n	2405b86c <_printf_common+0xb0>
2405b814:	f104 0243 	add.w	r2, r4, #67	; 0x43
2405b818:	4649      	mov	r1, r9
2405b81a:	4638      	mov	r0, r7
2405b81c:	47c0      	blx	r8
2405b81e:	3001      	adds	r0, #1
2405b820:	d01e      	beq.n	2405b860 <_printf_common+0xa4>
2405b822:	6823      	ldr	r3, [r4, #0]
2405b824:	6922      	ldr	r2, [r4, #16]
2405b826:	f003 0306 	and.w	r3, r3, #6
2405b82a:	2b04      	cmp	r3, #4
2405b82c:	bf02      	ittt	eq
2405b82e:	68e5      	ldreq	r5, [r4, #12]
2405b830:	6833      	ldreq	r3, [r6, #0]
2405b832:	1aed      	subeq	r5, r5, r3
2405b834:	68a3      	ldr	r3, [r4, #8]
2405b836:	bf0c      	ite	eq
2405b838:	ea25 75e5 	biceq.w	r5, r5, r5, asr #31
2405b83c:	2500      	movne	r5, #0
2405b83e:	4293      	cmp	r3, r2
2405b840:	bfc4      	itt	gt
2405b842:	1a9b      	subgt	r3, r3, r2
2405b844:	18ed      	addgt	r5, r5, r3
2405b846:	2600      	movs	r6, #0
2405b848:	341a      	adds	r4, #26
2405b84a:	42b5      	cmp	r5, r6
2405b84c:	d11a      	bne.n	2405b884 <_printf_common+0xc8>
2405b84e:	2000      	movs	r0, #0
2405b850:	e008      	b.n	2405b864 <_printf_common+0xa8>
2405b852:	2301      	movs	r3, #1
2405b854:	4652      	mov	r2, sl
2405b856:	4649      	mov	r1, r9
2405b858:	4638      	mov	r0, r7
2405b85a:	47c0      	blx	r8
2405b85c:	3001      	adds	r0, #1
2405b85e:	d103      	bne.n	2405b868 <_printf_common+0xac>
2405b860:	f04f 30ff 	mov.w	r0, #4294967295
2405b864:	e8bd 87f0 	ldmia.w	sp!, {r4, r5, r6, r7, r8, r9, sl, pc}
2405b868:	3501      	adds	r5, #1
2405b86a:	e7c6      	b.n	2405b7fa <_printf_common+0x3e>
2405b86c:	18e1      	adds	r1, r4, r3
2405b86e:	1c5a      	adds	r2, r3, #1
2405b870:	2030      	movs	r0, #48	; 0x30
2405b872:	f881 0043 	strb.w	r0, [r1, #67]	; 0x43
2405b876:	4422      	add	r2, r4
2405b878:	f894 1045 	ldrb.w	r1, [r4, #69]	; 0x45
2405b87c:	f882 1043 	strb.w	r1, [r2, #67]	; 0x43
2405b880:	3302      	adds	r3, #2
2405b882:	e7c7      	b.n	2405b814 <_printf_common+0x58>
2405b884:	2301      	movs	r3, #1
2405b886:	4622      	mov	r2, r4
2405b888:	4649      	mov	r1, r9
2405b88a:	4638      	mov	r0, r7
2405b88c:	47c0      	blx	r8
2405b88e:	3001      	adds	r0, #1
2405b890:	d0e6      	beq.n	2405b860 <_printf_common+0xa4>
2405b892:	3601      	adds	r6, #1
2405b894:	e7d9      	b.n	2405b84a <_printf_common+0x8e>
	...

2405b898 <_printf_i>:
2405b898:	e92d 47ff 	stmdb	sp!, {r0, r1, r2, r3, r4, r5, r6, r7, r8, r9, sl, lr}
2405b89c:	7e0f      	ldrb	r7, [r1, #24]
2405b89e:	9d0c      	ldr	r5, [sp, #48]	; 0x30
2405b8a0:	2f78      	cmp	r7, #120	; 0x78
2405b8a2:	4691      	mov	r9, r2
2405b8a4:	4680      	mov	r8, r0
2405b8a6:	460c      	mov	r4, r1
2405b8a8:	469a      	mov	sl, r3
2405b8aa:	f101 0243 	add.w	r2, r1, #67	; 0x43
2405b8ae:	d807      	bhi.n	2405b8c0 <_printf_i+0x28>
2405b8b0:	2f62      	cmp	r7, #98	; 0x62
2405b8b2:	d80a      	bhi.n	2405b8ca <_printf_i+0x32>
2405b8b4:	2f00      	cmp	r7, #0
2405b8b6:	f000 80d4 	beq.w	2405ba62 <_printf_i+0x1ca>
2405b8ba:	2f58      	cmp	r7, #88	; 0x58
2405b8bc:	f000 80c0 	beq.w	2405ba40 <_printf_i+0x1a8>
2405b8c0:	f104 0542 	add.w	r5, r4, #66	; 0x42
2405b8c4:	f884 7042 	strb.w	r7, [r4, #66]	; 0x42
2405b8c8:	e03a      	b.n	2405b940 <_printf_i+0xa8>
2405b8ca:	f1a7 0363 	sub.w	r3, r7, #99	; 0x63
2405b8ce:	2b15      	cmp	r3, #21
2405b8d0:	d8f6      	bhi.n	2405b8c0 <_printf_i+0x28>
2405b8d2:	a101      	add	r1, pc, #4	; (adr r1, 2405b8d8 <_printf_i+0x40>)
2405b8d4:	f851 f023 	ldr.w	pc, [r1, r3, lsl #2]
2405b8d8:	2405b931 	.word	0x2405b931
2405b8dc:	2405b945 	.word	0x2405b945
2405b8e0:	2405b8c1 	.word	0x2405b8c1
2405b8e4:	2405b8c1 	.word	0x2405b8c1
2405b8e8:	2405b8c1 	.word	0x2405b8c1
2405b8ec:	2405b8c1 	.word	0x2405b8c1
2405b8f0:	2405b945 	.word	0x2405b945
2405b8f4:	2405b8c1 	.word	0x2405b8c1
2405b8f8:	2405b8c1 	.word	0x2405b8c1
2405b8fc:	2405b8c1 	.word	0x2405b8c1
2405b900:	2405b8c1 	.word	0x2405b8c1
2405b904:	2405ba49 	.word	0x2405ba49
2405b908:	2405b971 	.word	0x2405b971
2405b90c:	2405ba03 	.word	0x2405ba03
2405b910:	2405b8c1 	.word	0x2405b8c1
2405b914:	2405b8c1 	.word	0x2405b8c1
2405b918:	2405ba6b 	.word	0x2405ba6b
2405b91c:	2405b8c1 	.word	0x2405b8c1
2405b920:	2405b971 	.word	0x2405b971
2405b924:	2405b8c1 	.word	0x2405b8c1
2405b928:	2405b8c1 	.word	0x2405b8c1
2405b92c:	2405ba0b 	.word	0x2405ba0b
2405b930:	682b      	ldr	r3, [r5, #0]
2405b932:	1d1a      	adds	r2, r3, #4
2405b934:	681b      	ldr	r3, [r3, #0]
2405b936:	602a      	str	r2, [r5, #0]
2405b938:	f104 0542 	add.w	r5, r4, #66	; 0x42
2405b93c:	f884 3042 	strb.w	r3, [r4, #66]	; 0x42
2405b940:	2301      	movs	r3, #1
2405b942:	e09f      	b.n	2405ba84 <_printf_i+0x1ec>
2405b944:	6820      	ldr	r0, [r4, #0]
2405b946:	682b      	ldr	r3, [r5, #0]
2405b948:	0607      	lsls	r7, r0, #24
2405b94a:	f103 0104 	add.w	r1, r3, #4
2405b94e:	6029      	str	r1, [r5, #0]
2405b950:	d501      	bpl.n	2405b956 <_printf_i+0xbe>
2405b952:	681e      	ldr	r6, [r3, #0]
2405b954:	e003      	b.n	2405b95e <_printf_i+0xc6>
2405b956:	0646      	lsls	r6, r0, #25
2405b958:	d5fb      	bpl.n	2405b952 <_printf_i+0xba>
2405b95a:	f9b3 6000 	ldrsh.w	r6, [r3]
2405b95e:	2e00      	cmp	r6, #0
2405b960:	da03      	bge.n	2405b96a <_printf_i+0xd2>
2405b962:	232d      	movs	r3, #45	; 0x2d
2405b964:	4276      	negs	r6, r6
2405b966:	f884 3043 	strb.w	r3, [r4, #67]	; 0x43
2405b96a:	485a      	ldr	r0, [pc, #360]	; (2405bad4 <_printf_i+0x23c>)
2405b96c:	230a      	movs	r3, #10
2405b96e:	e012      	b.n	2405b996 <_printf_i+0xfe>
2405b970:	682b      	ldr	r3, [r5, #0]
2405b972:	6820      	ldr	r0, [r4, #0]
2405b974:	1d19      	adds	r1, r3, #4
2405b976:	6029      	str	r1, [r5, #0]
2405b978:	0605      	lsls	r5, r0, #24
2405b97a:	d501      	bpl.n	2405b980 <_printf_i+0xe8>
2405b97c:	681e      	ldr	r6, [r3, #0]
2405b97e:	e002      	b.n	2405b986 <_printf_i+0xee>
2405b980:	0641      	lsls	r1, r0, #25
2405b982:	d5fb      	bpl.n	2405b97c <_printf_i+0xe4>
2405b984:	881e      	ldrh	r6, [r3, #0]
2405b986:	4853      	ldr	r0, [pc, #332]	; (2405bad4 <_printf_i+0x23c>)
2405b988:	2f6f      	cmp	r7, #111	; 0x6f
2405b98a:	bf0c      	ite	eq
2405b98c:	2308      	moveq	r3, #8
2405b98e:	230a      	movne	r3, #10
2405b990:	2100      	movs	r1, #0
2405b992:	f884 1043 	strb.w	r1, [r4, #67]	; 0x43
2405b996:	6865      	ldr	r5, [r4, #4]
2405b998:	60a5      	str	r5, [r4, #8]
2405b99a:	2d00      	cmp	r5, #0
2405b99c:	bfa2      	ittt	ge
2405b99e:	6821      	ldrge	r1, [r4, #0]
2405b9a0:	f021 0104 	bicge.w	r1, r1, #4
2405b9a4:	6021      	strge	r1, [r4, #0]
2405b9a6:	b90e      	cbnz	r6, 2405b9ac <_printf_i+0x114>
2405b9a8:	2d00      	cmp	r5, #0
2405b9aa:	d04b      	beq.n	2405ba44 <_printf_i+0x1ac>
2405b9ac:	4615      	mov	r5, r2
2405b9ae:	fbb6 f1f3 	udiv	r1, r6, r3
2405b9b2:	fb03 6711 	mls	r7, r3, r1, r6
2405b9b6:	5dc7      	ldrb	r7, [r0, r7]
2405b9b8:	f805 7d01 	strb.w	r7, [r5, #-1]!
2405b9bc:	4637      	mov	r7, r6
2405b9be:	42bb      	cmp	r3, r7
2405b9c0:	460e      	mov	r6, r1
2405b9c2:	d9f4      	bls.n	2405b9ae <_printf_i+0x116>
2405b9c4:	2b08      	cmp	r3, #8
2405b9c6:	d10b      	bne.n	2405b9e0 <_printf_i+0x148>
2405b9c8:	6823      	ldr	r3, [r4, #0]
2405b9ca:	07de      	lsls	r6, r3, #31
2405b9cc:	d508      	bpl.n	2405b9e0 <_printf_i+0x148>
2405b9ce:	6923      	ldr	r3, [r4, #16]
2405b9d0:	6861      	ldr	r1, [r4, #4]
2405b9d2:	4299      	cmp	r1, r3
2405b9d4:	bfde      	ittt	le
2405b9d6:	2330      	movle	r3, #48	; 0x30
2405b9d8:	f805 3c01 	strble.w	r3, [r5, #-1]
2405b9dc:	f105 35ff 	addle.w	r5, r5, #4294967295
2405b9e0:	1b52      	subs	r2, r2, r5
2405b9e2:	6122      	str	r2, [r4, #16]
2405b9e4:	f8cd a000 	str.w	sl, [sp]
2405b9e8:	464b      	mov	r3, r9
2405b9ea:	aa03      	add	r2, sp, #12
2405b9ec:	4621      	mov	r1, r4
2405b9ee:	4640      	mov	r0, r8
2405b9f0:	f7ff fee4 	bl	2405b7bc <_printf_common>
2405b9f4:	3001      	adds	r0, #1
2405b9f6:	d14a      	bne.n	2405ba8e <_printf_i+0x1f6>
2405b9f8:	f04f 30ff 	mov.w	r0, #4294967295
2405b9fc:	b004      	add	sp, #16
2405b9fe:	e8bd 87f0 	ldmia.w	sp!, {r4, r5, r6, r7, r8, r9, sl, pc}
2405ba02:	6823      	ldr	r3, [r4, #0]
2405ba04:	f043 0320 	orr.w	r3, r3, #32
2405ba08:	6023      	str	r3, [r4, #0]
2405ba0a:	4833      	ldr	r0, [pc, #204]	; (2405bad8 <_printf_i+0x240>)
2405ba0c:	2778      	movs	r7, #120	; 0x78
2405ba0e:	f884 7045 	strb.w	r7, [r4, #69]	; 0x45
2405ba12:	6823      	ldr	r3, [r4, #0]
2405ba14:	6829      	ldr	r1, [r5, #0]
2405ba16:	061f      	lsls	r7, r3, #24
2405ba18:	f851 6b04 	ldr.w	r6, [r1], #4
2405ba1c:	d402      	bmi.n	2405ba24 <_printf_i+0x18c>
2405ba1e:	065f      	lsls	r7, r3, #25
2405ba20:	bf48      	it	mi
2405ba22:	b2b6      	uxthmi	r6, r6
2405ba24:	07df      	lsls	r7, r3, #31
2405ba26:	bf48      	it	mi
2405ba28:	f043 0320 	orrmi.w	r3, r3, #32
2405ba2c:	6029      	str	r1, [r5, #0]
2405ba2e:	bf48      	it	mi
2405ba30:	6023      	strmi	r3, [r4, #0]
2405ba32:	b91e      	cbnz	r6, 2405ba3c <_printf_i+0x1a4>
2405ba34:	6823      	ldr	r3, [r4, #0]
2405ba36:	f023 0320 	bic.w	r3, r3, #32
2405ba3a:	6023      	str	r3, [r4, #0]
2405ba3c:	2310      	movs	r3, #16
2405ba3e:	e7a7      	b.n	2405b990 <_printf_i+0xf8>
2405ba40:	4824      	ldr	r0, [pc, #144]	; (2405bad4 <_printf_i+0x23c>)
2405ba42:	e7e4      	b.n	2405ba0e <_printf_i+0x176>
2405ba44:	4615      	mov	r5, r2
2405ba46:	e7bd      	b.n	2405b9c4 <_printf_i+0x12c>
2405ba48:	682b      	ldr	r3, [r5, #0]
2405ba4a:	6826      	ldr	r6, [r4, #0]
2405ba4c:	6961      	ldr	r1, [r4, #20]
2405ba4e:	1d18      	adds	r0, r3, #4
2405ba50:	6028      	str	r0, [r5, #0]
2405ba52:	0635      	lsls	r5, r6, #24
2405ba54:	681b      	ldr	r3, [r3, #0]
2405ba56:	d501      	bpl.n	2405ba5c <_printf_i+0x1c4>
2405ba58:	6019      	str	r1, [r3, #0]
2405ba5a:	e002      	b.n	2405ba62 <_printf_i+0x1ca>
2405ba5c:	0670      	lsls	r0, r6, #25
2405ba5e:	d5fb      	bpl.n	2405ba58 <_printf_i+0x1c0>
2405ba60:	8019      	strh	r1, [r3, #0]
2405ba62:	2300      	movs	r3, #0
2405ba64:	6123      	str	r3, [r4, #16]
2405ba66:	4615      	mov	r5, r2
2405ba68:	e7bc      	b.n	2405b9e4 <_printf_i+0x14c>
2405ba6a:	682b      	ldr	r3, [r5, #0]
2405ba6c:	1d1a      	adds	r2, r3, #4
2405ba6e:	602a      	str	r2, [r5, #0]
2405ba70:	681d      	ldr	r5, [r3, #0]
2405ba72:	6862      	ldr	r2, [r4, #4]
2405ba74:	2100      	movs	r1, #0
2405ba76:	4628      	mov	r0, r5
2405ba78:	f7f4 fae2 	bl	24050040 <memchr>
2405ba7c:	b108      	cbz	r0, 2405ba82 <_printf_i+0x1ea>
2405ba7e:	1b40      	subs	r0, r0, r5
2405ba80:	6060      	str	r0, [r4, #4]
2405ba82:	6863      	ldr	r3, [r4, #4]
2405ba84:	6123      	str	r3, [r4, #16]
2405ba86:	2300      	movs	r3, #0
2405ba88:	f884 3043 	strb.w	r3, [r4, #67]	; 0x43
2405ba8c:	e7aa      	b.n	2405b9e4 <_printf_i+0x14c>
2405ba8e:	6923      	ldr	r3, [r4, #16]
2405ba90:	462a      	mov	r2, r5
2405ba92:	4649      	mov	r1, r9
2405ba94:	4640      	mov	r0, r8
2405ba96:	47d0      	blx	sl
2405ba98:	3001      	adds	r0, #1
2405ba9a:	d0ad      	beq.n	2405b9f8 <_printf_i+0x160>
2405ba9c:	6823      	ldr	r3, [r4, #0]
2405ba9e:	079b      	lsls	r3, r3, #30
2405baa0:	d413      	bmi.n	2405baca <_printf_i+0x232>
2405baa2:	68e0      	ldr	r0, [r4, #12]
2405baa4:	9b03      	ldr	r3, [sp, #12]
2405baa6:	4298      	cmp	r0, r3
2405baa8:	bfb8      	it	lt
2405baaa:	4618      	movlt	r0, r3
2405baac:	e7a6      	b.n	2405b9fc <_printf_i+0x164>
2405baae:	2301      	movs	r3, #1
2405bab0:	4632      	mov	r2, r6
2405bab2:	4649      	mov	r1, r9
2405bab4:	4640      	mov	r0, r8
2405bab6:	47d0      	blx	sl
2405bab8:	3001      	adds	r0, #1
2405baba:	d09d      	beq.n	2405b9f8 <_printf_i+0x160>
2405babc:	3501      	adds	r5, #1
2405babe:	68e3      	ldr	r3, [r4, #12]
2405bac0:	9903      	ldr	r1, [sp, #12]
2405bac2:	1a5b      	subs	r3, r3, r1
2405bac4:	42ab      	cmp	r3, r5
2405bac6:	dcf2      	bgt.n	2405baae <_printf_i+0x216>
2405bac8:	e7eb      	b.n	2405baa2 <_printf_i+0x20a>
2405baca:	2500      	movs	r5, #0
2405bacc:	f104 0619 	add.w	r6, r4, #25
2405bad0:	e7f5      	b.n	2405babe <_printf_i+0x226>
2405bad2:	bf00      	nop
2405bad4:	240601fd 	.word	0x240601fd
2405bad8:	2406020e 	.word	0x2406020e

2405badc <__sflush_r>:
2405badc:	898a      	ldrh	r2, [r1, #12]
2405bade:	e92d 41f0 	stmdb	sp!, {r4, r5, r6, r7, r8, lr}
2405bae2:	4605      	mov	r5, r0
2405bae4:	0710      	lsls	r0, r2, #28
2405bae6:	460c      	mov	r4, r1
2405bae8:	d458      	bmi.n	2405bb9c <__sflush_r+0xc0>
2405baea:	684b      	ldr	r3, [r1, #4]
2405baec:	2b00      	cmp	r3, #0
2405baee:	dc05      	bgt.n	2405bafc <__sflush_r+0x20>
2405baf0:	6c0b      	ldr	r3, [r1, #64]	; 0x40
2405baf2:	2b00      	cmp	r3, #0
2405baf4:	dc02      	bgt.n	2405bafc <__sflush_r+0x20>
2405baf6:	2000      	movs	r0, #0
2405baf8:	e8bd 81f0 	ldmia.w	sp!, {r4, r5, r6, r7, r8, pc}
2405bafc:	6ae6      	ldr	r6, [r4, #44]	; 0x2c
2405bafe:	2e00      	cmp	r6, #0
2405bb00:	d0f9      	beq.n	2405baf6 <__sflush_r+0x1a>
2405bb02:	2300      	movs	r3, #0
2405bb04:	f412 5280 	ands.w	r2, r2, #4096	; 0x1000
2405bb08:	682f      	ldr	r7, [r5, #0]
2405bb0a:	6a21      	ldr	r1, [r4, #32]
2405bb0c:	602b      	str	r3, [r5, #0]
2405bb0e:	d032      	beq.n	2405bb76 <__sflush_r+0x9a>
2405bb10:	6d60      	ldr	r0, [r4, #84]	; 0x54
2405bb12:	89a3      	ldrh	r3, [r4, #12]
2405bb14:	075a      	lsls	r2, r3, #29
2405bb16:	d505      	bpl.n	2405bb24 <__sflush_r+0x48>
2405bb18:	6863      	ldr	r3, [r4, #4]
2405bb1a:	1ac0      	subs	r0, r0, r3
2405bb1c:	6b63      	ldr	r3, [r4, #52]	; 0x34
2405bb1e:	b10b      	cbz	r3, 2405bb24 <__sflush_r+0x48>
2405bb20:	6c23      	ldr	r3, [r4, #64]	; 0x40
2405bb22:	1ac0      	subs	r0, r0, r3
2405bb24:	2300      	movs	r3, #0
2405bb26:	4602      	mov	r2, r0
2405bb28:	6ae6      	ldr	r6, [r4, #44]	; 0x2c
2405bb2a:	6a21      	ldr	r1, [r4, #32]
2405bb2c:	4628      	mov	r0, r5
2405bb2e:	47b0      	blx	r6
2405bb30:	1c43      	adds	r3, r0, #1
2405bb32:	89a3      	ldrh	r3, [r4, #12]
2405bb34:	d106      	bne.n	2405bb44 <__sflush_r+0x68>
2405bb36:	6829      	ldr	r1, [r5, #0]
2405bb38:	291d      	cmp	r1, #29
2405bb3a:	d82b      	bhi.n	2405bb94 <__sflush_r+0xb8>
2405bb3c:	4a29      	ldr	r2, [pc, #164]	; (2405bbe4 <__sflush_r+0x108>)
2405bb3e:	410a      	asrs	r2, r1
2405bb40:	07d6      	lsls	r6, r2, #31
2405bb42:	d427      	bmi.n	2405bb94 <__sflush_r+0xb8>
2405bb44:	2200      	movs	r2, #0
2405bb46:	6062      	str	r2, [r4, #4]
2405bb48:	04d9      	lsls	r1, r3, #19
2405bb4a:	6922      	ldr	r2, [r4, #16]
2405bb4c:	6022      	str	r2, [r4, #0]
2405bb4e:	d504      	bpl.n	2405bb5a <__sflush_r+0x7e>
2405bb50:	1c42      	adds	r2, r0, #1
2405bb52:	d101      	bne.n	2405bb58 <__sflush_r+0x7c>
2405bb54:	682b      	ldr	r3, [r5, #0]
2405bb56:	b903      	cbnz	r3, 2405bb5a <__sflush_r+0x7e>
2405bb58:	6560      	str	r0, [r4, #84]	; 0x54
2405bb5a:	6b61      	ldr	r1, [r4, #52]	; 0x34
2405bb5c:	602f      	str	r7, [r5, #0]
2405bb5e:	2900      	cmp	r1, #0
2405bb60:	d0c9      	beq.n	2405baf6 <__sflush_r+0x1a>
2405bb62:	f104 0344 	add.w	r3, r4, #68	; 0x44
2405bb66:	4299      	cmp	r1, r3
2405bb68:	d002      	beq.n	2405bb70 <__sflush_r+0x94>
2405bb6a:	4628      	mov	r0, r5
2405bb6c:	f7ff fb36 	bl	2405b1dc <_free_r>
2405bb70:	2000      	movs	r0, #0
2405bb72:	6360      	str	r0, [r4, #52]	; 0x34
2405bb74:	e7c0      	b.n	2405baf8 <__sflush_r+0x1c>
2405bb76:	2301      	movs	r3, #1
2405bb78:	4628      	mov	r0, r5
2405bb7a:	47b0      	blx	r6
2405bb7c:	1c41      	adds	r1, r0, #1
2405bb7e:	d1c8      	bne.n	2405bb12 <__sflush_r+0x36>
2405bb80:	682b      	ldr	r3, [r5, #0]
2405bb82:	2b00      	cmp	r3, #0
2405bb84:	d0c5      	beq.n	2405bb12 <__sflush_r+0x36>
2405bb86:	2b1d      	cmp	r3, #29
2405bb88:	d001      	beq.n	2405bb8e <__sflush_r+0xb2>
2405bb8a:	2b16      	cmp	r3, #22
2405bb8c:	d101      	bne.n	2405bb92 <__sflush_r+0xb6>
2405bb8e:	602f      	str	r7, [r5, #0]
2405bb90:	e7b1      	b.n	2405baf6 <__sflush_r+0x1a>
2405bb92:	89a3      	ldrh	r3, [r4, #12]
2405bb94:	f043 0340 	orr.w	r3, r3, #64	; 0x40
2405bb98:	81a3      	strh	r3, [r4, #12]
2405bb9a:	e7ad      	b.n	2405baf8 <__sflush_r+0x1c>
2405bb9c:	690f      	ldr	r7, [r1, #16]
2405bb9e:	2f00      	cmp	r7, #0
2405bba0:	d0a9      	beq.n	2405baf6 <__sflush_r+0x1a>
2405bba2:	0793      	lsls	r3, r2, #30
2405bba4:	680e      	ldr	r6, [r1, #0]
2405bba6:	bf08      	it	eq
2405bba8:	694b      	ldreq	r3, [r1, #20]
2405bbaa:	600f      	str	r7, [r1, #0]
2405bbac:	bf18      	it	ne
2405bbae:	2300      	movne	r3, #0
2405bbb0:	eba6 0807 	sub.w	r8, r6, r7
2405bbb4:	608b      	str	r3, [r1, #8]
2405bbb6:	f1b8 0f00 	cmp.w	r8, #0
2405bbba:	dd9c      	ble.n	2405baf6 <__sflush_r+0x1a>
2405bbbc:	6a21      	ldr	r1, [r4, #32]
2405bbbe:	6aa6      	ldr	r6, [r4, #40]	; 0x28
2405bbc0:	4643      	mov	r3, r8
2405bbc2:	463a      	mov	r2, r7
2405bbc4:	4628      	mov	r0, r5
2405bbc6:	47b0      	blx	r6
2405bbc8:	2800      	cmp	r0, #0
2405bbca:	dc06      	bgt.n	2405bbda <__sflush_r+0xfe>
2405bbcc:	89a3      	ldrh	r3, [r4, #12]
2405bbce:	f043 0340 	orr.w	r3, r3, #64	; 0x40
2405bbd2:	81a3      	strh	r3, [r4, #12]
2405bbd4:	f04f 30ff 	mov.w	r0, #4294967295
2405bbd8:	e78e      	b.n	2405baf8 <__sflush_r+0x1c>
2405bbda:	4407      	add	r7, r0
2405bbdc:	eba8 0800 	sub.w	r8, r8, r0
2405bbe0:	e7e9      	b.n	2405bbb6 <__sflush_r+0xda>
2405bbe2:	bf00      	nop
2405bbe4:	dfbffffe 	.word	0xdfbffffe

2405bbe8 <_fflush_r>:
2405bbe8:	b538      	push	{r3, r4, r5, lr}
2405bbea:	690b      	ldr	r3, [r1, #16]
2405bbec:	4605      	mov	r5, r0
2405bbee:	460c      	mov	r4, r1
2405bbf0:	b913      	cbnz	r3, 2405bbf8 <_fflush_r+0x10>
2405bbf2:	2500      	movs	r5, #0
2405bbf4:	4628      	mov	r0, r5
2405bbf6:	bd38      	pop	{r3, r4, r5, pc}
2405bbf8:	b118      	cbz	r0, 2405bc02 <_fflush_r+0x1a>
2405bbfa:	6a03      	ldr	r3, [r0, #32]
2405bbfc:	b90b      	cbnz	r3, 2405bc02 <_fflush_r+0x1a>
2405bbfe:	f7ff f885 	bl	2405ad0c <__sinit>
2405bc02:	f9b4 300c 	ldrsh.w	r3, [r4, #12]
2405bc06:	2b00      	cmp	r3, #0
2405bc08:	d0f3      	beq.n	2405bbf2 <_fflush_r+0xa>
2405bc0a:	6e62      	ldr	r2, [r4, #100]	; 0x64
2405bc0c:	07d0      	lsls	r0, r2, #31
2405bc0e:	d404      	bmi.n	2405bc1a <_fflush_r+0x32>
2405bc10:	0599      	lsls	r1, r3, #22
2405bc12:	d402      	bmi.n	2405bc1a <_fflush_r+0x32>
2405bc14:	6da0      	ldr	r0, [r4, #88]	; 0x58
2405bc16:	f7ff faca 	bl	2405b1ae <__retarget_lock_acquire_recursive>
2405bc1a:	4628      	mov	r0, r5
2405bc1c:	4621      	mov	r1, r4
2405bc1e:	f7ff ff5d 	bl	2405badc <__sflush_r>
2405bc22:	6e63      	ldr	r3, [r4, #100]	; 0x64
2405bc24:	07da      	lsls	r2, r3, #31
2405bc26:	4605      	mov	r5, r0
2405bc28:	d4e4      	bmi.n	2405bbf4 <_fflush_r+0xc>
2405bc2a:	89a3      	ldrh	r3, [r4, #12]
2405bc2c:	059b      	lsls	r3, r3, #22
2405bc2e:	d4e1      	bmi.n	2405bbf4 <_fflush_r+0xc>
2405bc30:	6da0      	ldr	r0, [r4, #88]	; 0x58
2405bc32:	f7ff fabd 	bl	2405b1b0 <__retarget_lock_release_recursive>
2405bc36:	e7dd      	b.n	2405bbf4 <_fflush_r+0xc>

2405bc38 <__swhatbuf_r>:
2405bc38:	b570      	push	{r4, r5, r6, lr}
2405bc3a:	460c      	mov	r4, r1
2405bc3c:	f9b1 100e 	ldrsh.w	r1, [r1, #14]
2405bc40:	2900      	cmp	r1, #0
2405bc42:	b096      	sub	sp, #88	; 0x58
2405bc44:	4615      	mov	r5, r2
2405bc46:	461e      	mov	r6, r3
2405bc48:	da0d      	bge.n	2405bc66 <__swhatbuf_r+0x2e>
2405bc4a:	89a3      	ldrh	r3, [r4, #12]
2405bc4c:	f013 0f80 	tst.w	r3, #128	; 0x80
2405bc50:	f04f 0100 	mov.w	r1, #0
2405bc54:	bf0c      	ite	eq
2405bc56:	f44f 6380 	moveq.w	r3, #1024	; 0x400
2405bc5a:	2340      	movne	r3, #64	; 0x40
2405bc5c:	2000      	movs	r0, #0
2405bc5e:	6031      	str	r1, [r6, #0]
2405bc60:	602b      	str	r3, [r5, #0]
2405bc62:	b016      	add	sp, #88	; 0x58
2405bc64:	bd70      	pop	{r4, r5, r6, pc}
2405bc66:	466a      	mov	r2, sp
2405bc68:	f000 f878 	bl	2405bd5c <_fstat_r>
2405bc6c:	2800      	cmp	r0, #0
2405bc6e:	dbec      	blt.n	2405bc4a <__swhatbuf_r+0x12>
2405bc70:	9901      	ldr	r1, [sp, #4]
2405bc72:	f401 4170 	and.w	r1, r1, #61440	; 0xf000
2405bc76:	f5a1 5300 	sub.w	r3, r1, #8192	; 0x2000
2405bc7a:	4259      	negs	r1, r3
2405bc7c:	4159      	adcs	r1, r3
2405bc7e:	f44f 6380 	mov.w	r3, #1024	; 0x400
2405bc82:	e7eb      	b.n	2405bc5c <__swhatbuf_r+0x24>

2405bc84 <__smakebuf_r>:
2405bc84:	898b      	ldrh	r3, [r1, #12]
2405bc86:	b573      	push	{r0, r1, r4, r5, r6, lr}
2405bc88:	079d      	lsls	r5, r3, #30
2405bc8a:	4606      	mov	r6, r0
2405bc8c:	460c      	mov	r4, r1
2405bc8e:	d507      	bpl.n	2405bca0 <__smakebuf_r+0x1c>
2405bc90:	f104 0347 	add.w	r3, r4, #71	; 0x47
2405bc94:	6023      	str	r3, [r4, #0]
2405bc96:	6123      	str	r3, [r4, #16]
2405bc98:	2301      	movs	r3, #1
2405bc9a:	6163      	str	r3, [r4, #20]
2405bc9c:	b002      	add	sp, #8
2405bc9e:	bd70      	pop	{r4, r5, r6, pc}
2405bca0:	ab01      	add	r3, sp, #4
2405bca2:	466a      	mov	r2, sp
2405bca4:	f7ff ffc8 	bl	2405bc38 <__swhatbuf_r>
2405bca8:	9900      	ldr	r1, [sp, #0]
2405bcaa:	4605      	mov	r5, r0
2405bcac:	4630      	mov	r0, r6
2405bcae:	f7fe fe79 	bl	2405a9a4 <_malloc_r>
2405bcb2:	b948      	cbnz	r0, 2405bcc8 <__smakebuf_r+0x44>
2405bcb4:	f9b4 300c 	ldrsh.w	r3, [r4, #12]
2405bcb8:	059a      	lsls	r2, r3, #22
2405bcba:	d4ef      	bmi.n	2405bc9c <__smakebuf_r+0x18>
2405bcbc:	f023 0303 	bic.w	r3, r3, #3
2405bcc0:	f043 0302 	orr.w	r3, r3, #2
2405bcc4:	81a3      	strh	r3, [r4, #12]
2405bcc6:	e7e3      	b.n	2405bc90 <__smakebuf_r+0xc>
2405bcc8:	89a3      	ldrh	r3, [r4, #12]
2405bcca:	6020      	str	r0, [r4, #0]
2405bccc:	f043 0380 	orr.w	r3, r3, #128	; 0x80
2405bcd0:	81a3      	strh	r3, [r4, #12]
2405bcd2:	9b00      	ldr	r3, [sp, #0]
2405bcd4:	6163      	str	r3, [r4, #20]
2405bcd6:	9b01      	ldr	r3, [sp, #4]
2405bcd8:	6120      	str	r0, [r4, #16]
2405bcda:	b15b      	cbz	r3, 2405bcf4 <__smakebuf_r+0x70>
2405bcdc:	f9b4 100e 	ldrsh.w	r1, [r4, #14]
2405bce0:	4630      	mov	r0, r6
2405bce2:	f000 f84d 	bl	2405bd80 <_isatty_r>
2405bce6:	b128      	cbz	r0, 2405bcf4 <__smakebuf_r+0x70>
2405bce8:	89a3      	ldrh	r3, [r4, #12]
2405bcea:	f023 0303 	bic.w	r3, r3, #3
2405bcee:	f043 0301 	orr.w	r3, r3, #1
2405bcf2:	81a3      	strh	r3, [r4, #12]
2405bcf4:	89a3      	ldrh	r3, [r4, #12]
2405bcf6:	431d      	orrs	r5, r3
2405bcf8:	81a5      	strh	r5, [r4, #12]
2405bcfa:	e7cf      	b.n	2405bc9c <__smakebuf_r+0x18>

2405bcfc <_raise_r>:
2405bcfc:	291f      	cmp	r1, #31
2405bcfe:	b538      	push	{r3, r4, r5, lr}
2405bd00:	4604      	mov	r4, r0
2405bd02:	460d      	mov	r5, r1
2405bd04:	d904      	bls.n	2405bd10 <_raise_r+0x14>
2405bd06:	2316      	movs	r3, #22
2405bd08:	6003      	str	r3, [r0, #0]
2405bd0a:	f04f 30ff 	mov.w	r0, #4294967295
2405bd0e:	bd38      	pop	{r3, r4, r5, pc}
2405bd10:	6bc2      	ldr	r2, [r0, #60]	; 0x3c
2405bd12:	b112      	cbz	r2, 2405bd1a <_raise_r+0x1e>
2405bd14:	f852 3021 	ldr.w	r3, [r2, r1, lsl #2]
2405bd18:	b94b      	cbnz	r3, 2405bd2e <_raise_r+0x32>
2405bd1a:	4620      	mov	r0, r4
2405bd1c:	f000 f852 	bl	2405bdc4 <_getpid_r>
2405bd20:	462a      	mov	r2, r5
2405bd22:	4601      	mov	r1, r0
2405bd24:	4620      	mov	r0, r4
2405bd26:	e8bd 4038 	ldmia.w	sp!, {r3, r4, r5, lr}
2405bd2a:	f000 b839 	b.w	2405bda0 <_kill_r>
2405bd2e:	2b01      	cmp	r3, #1
2405bd30:	d00a      	beq.n	2405bd48 <_raise_r+0x4c>
2405bd32:	1c59      	adds	r1, r3, #1
2405bd34:	d103      	bne.n	2405bd3e <_raise_r+0x42>
2405bd36:	2316      	movs	r3, #22
2405bd38:	6003      	str	r3, [r0, #0]
2405bd3a:	2001      	movs	r0, #1
2405bd3c:	e7e7      	b.n	2405bd0e <_raise_r+0x12>
2405bd3e:	2400      	movs	r4, #0
2405bd40:	f842 4025 	str.w	r4, [r2, r5, lsl #2]
2405bd44:	4628      	mov	r0, r5
2405bd46:	4798      	blx	r3
2405bd48:	2000      	movs	r0, #0
2405bd4a:	e7e0      	b.n	2405bd0e <_raise_r+0x12>

2405bd4c <raise>:
2405bd4c:	4b02      	ldr	r3, [pc, #8]	; (2405bd58 <raise+0xc>)
2405bd4e:	4601      	mov	r1, r0
2405bd50:	6818      	ldr	r0, [r3, #0]
2405bd52:	f7ff bfd3 	b.w	2405bcfc <_raise_r>
2405bd56:	bf00      	nop
2405bd58:	20000114 	.word	0x20000114

2405bd5c <_fstat_r>:
2405bd5c:	b538      	push	{r3, r4, r5, lr}
2405bd5e:	4d07      	ldr	r5, [pc, #28]	; (2405bd7c <_fstat_r+0x20>)
2405bd60:	2300      	movs	r3, #0
2405bd62:	4604      	mov	r4, r0
2405bd64:	4608      	mov	r0, r1
2405bd66:	4611      	mov	r1, r2
2405bd68:	602b      	str	r3, [r5, #0]
2405bd6a:	f7f8 f9f2 	bl	24054152 <_fstat>
2405bd6e:	1c43      	adds	r3, r0, #1
2405bd70:	d102      	bne.n	2405bd78 <_fstat_r+0x1c>
2405bd72:	682b      	ldr	r3, [r5, #0]
2405bd74:	b103      	cbz	r3, 2405bd78 <_fstat_r+0x1c>
2405bd76:	6023      	str	r3, [r4, #0]
2405bd78:	bd38      	pop	{r3, r4, r5, pc}
2405bd7a:	bf00      	nop
2405bd7c:	20000794 	.word	0x20000794

2405bd80 <_isatty_r>:
2405bd80:	b538      	push	{r3, r4, r5, lr}
2405bd82:	4d06      	ldr	r5, [pc, #24]	; (2405bd9c <_isatty_r+0x1c>)
2405bd84:	2300      	movs	r3, #0
2405bd86:	4604      	mov	r4, r0
2405bd88:	4608      	mov	r0, r1
2405bd8a:	602b      	str	r3, [r5, #0]
2405bd8c:	f7f8 f9e6 	bl	2405415c <_isatty>
2405bd90:	1c43      	adds	r3, r0, #1
2405bd92:	d102      	bne.n	2405bd9a <_isatty_r+0x1a>
2405bd94:	682b      	ldr	r3, [r5, #0]
2405bd96:	b103      	cbz	r3, 2405bd9a <_isatty_r+0x1a>
2405bd98:	6023      	str	r3, [r4, #0]
2405bd9a:	bd38      	pop	{r3, r4, r5, pc}
2405bd9c:	20000794 	.word	0x20000794

2405bda0 <_kill_r>:
2405bda0:	b538      	push	{r3, r4, r5, lr}
2405bda2:	4d07      	ldr	r5, [pc, #28]	; (2405bdc0 <_kill_r+0x20>)
2405bda4:	2300      	movs	r3, #0
2405bda6:	4604      	mov	r4, r0
2405bda8:	4608      	mov	r0, r1
2405bdaa:	4611      	mov	r1, r2
2405bdac:	602b      	str	r3, [r5, #0]
2405bdae:	f7f8 f9a3 	bl	240540f8 <_kill>
2405bdb2:	1c43      	adds	r3, r0, #1
2405bdb4:	d102      	bne.n	2405bdbc <_kill_r+0x1c>
2405bdb6:	682b      	ldr	r3, [r5, #0]
2405bdb8:	b103      	cbz	r3, 2405bdbc <_kill_r+0x1c>
2405bdba:	6023      	str	r3, [r4, #0]
2405bdbc:	bd38      	pop	{r3, r4, r5, pc}
2405bdbe:	bf00      	nop
2405bdc0:	20000794 	.word	0x20000794

2405bdc4 <_getpid_r>:
2405bdc4:	f7f8 b996 	b.w	240540f4 <_getpid>

2405bdc8 <_init>:
2405bdc8:	b5f8      	push	{r3, r4, r5, r6, r7, lr}
2405bdca:	bf00      	nop
2405bdcc:	bcf8      	pop	{r3, r4, r5, r6, r7}
2405bdce:	bc08      	pop	{r3}
2405bdd0:	469e      	mov	lr, r3
2405bdd2:	4770      	bx	lr

2405bdd4 <_fini>:
2405bdd4:	b5f8      	push	{r3, r4, r5, r6, r7, lr}
2405bdd6:	bf00      	nop
2405bdd8:	bcf8      	pop	{r3, r4, r5, r6, r7}
2405bdda:	bc08      	pop	{r3}
2405bddc:	469e      	mov	lr, r3
2405bdde:	4770      	bx	lr
